Microsoft (R) COFF/PE Dumper Version 14.44.35222.0
Copyright (C) Microsoft Corporation.  All rights reserved.


Dump of file C:\Users\DonKolia\Downloads\obs-studio-windows-x64-407944a27\obs-studio-32.0.4-407944a27-windows-x64\bin\64bit\Qt6Gui.dll

File Type: DLL

  Section contains the following exports for Qt6Gui.dll

    00000000 characteristics
    FFFFFFFF time date stamp
        0.00 version
           1 ordinal base
        9739 number of functions
        9739 number of names

    ordinal hint RVA      name

          1    0 000E71E0 ??$handleApplicationStateChanged@UAsynchronousDelivery@QWindowSystemInterface@@@QWindowSystemInterface@@SAXW4ApplicationState@Qt@@_N@Z
          2    1 000E7270 ??$handleApplicationStateChanged@UDefaultDelivery@QWindowSystemInterface@@@QWindowSystemInterface@@SAXW4ApplicationState@Qt@@_N@Z
          3    2 000E7310 ??$handleApplicationStateChanged@USynchronousDelivery@QWindowSystemInterface@@@QWindowSystemInterface@@SAXW4ApplicationState@Qt@@_N@Z
          4    3 000E7320 ??$handleApplicationTermination@UAsynchronousDelivery@QWindowSystemInterface@@@QWindowSystemInterface@@SA_NXZ
          5    4 000E73A0 ??$handleApplicationTermination@UDefaultDelivery@QWindowSystemInterface@@@QWindowSystemInterface@@SA_NXZ
          6    5 000E7430 ??$handleApplicationTermination@USynchronousDelivery@QWindowSystemInterface@@@QWindowSystemInterface@@SA_NXZ
          7    6 000E7440 ??$handleCloseEvent@UAsynchronousDelivery@QWindowSystemInterface@@@QWindowSystemInterface@@SA_NPEAVQWindow@@@Z
          8    7 000E74E0 ??$handleCloseEvent@UDefaultDelivery@QWindowSystemInterface@@@QWindowSystemInterface@@SA_NPEAVQWindow@@@Z
          9    8 000E75A0 ??$handleCloseEvent@USynchronousDelivery@QWindowSystemInterface@@@QWindowSystemInterface@@SA_NPEAVQWindow@@@Z
         10    9 000E75B0 ??$handleContextMenuEvent@UAsynchronousDelivery@QWindowSystemInterface@@@QWindowSystemInterface@@SA_NPEAVQWindow@@_NAEBVQPoint@@2V?$QFlags@W4KeyboardModifier@Qt@@@@@Z
         11    A 000E7690 ??$handleContextMenuEvent@UDefaultDelivery@QWindowSystemInterface@@@QWindowSystemInterface@@SA_NPEAVQWindow@@_NAEBVQPoint@@2V?$QFlags@W4KeyboardModifier@Qt@@@@@Z
         12    B 000E7790 ??$handleContextMenuEvent@USynchronousDelivery@QWindowSystemInterface@@@QWindowSystemInterface@@SA_NPEAVQWindow@@_NAEBVQPoint@@2V?$QFlags@W4KeyboardModifier@Qt@@@@@Z
         13    C 000E77A0 ??$handleEnterEvent@UAsynchronousDelivery@QWindowSystemInterface@@@QWindowSystemInterface@@SAXPEAVQWindow@@AEBVQPointF@@1@Z
         14    D 000E79C0 ??$handleEnterEvent@UDefaultDelivery@QWindowSystemInterface@@@QWindowSystemInterface@@SAXPEAVQWindow@@AEBVQPointF@@1@Z
         15    E 000E7C30 ??$handleEnterEvent@USynchronousDelivery@QWindowSystemInterface@@@QWindowSystemInterface@@SAXPEAVQWindow@@AEBVQPointF@@1@Z
         16    F 000EBA50 ??$handleExposeEvent@UAsynchronousDelivery@QWindowSystemInterface@@@QWindowSystemInterface@@SA_NPEAVQWindow@@AEBVQRegion@@@Z
         17   10 000EBB70 ??$handleExposeEvent@UDefaultDelivery@QWindowSystemInterface@@@QWindowSystemInterface@@SA_NPEAVQWindow@@AEBVQRegion@@@Z
         18   11 000EBCE0 ??$handleExposeEvent@USynchronousDelivery@QWindowSystemInterface@@@QWindowSystemInterface@@SA_NPEAVQWindow@@AEBVQRegion@@@Z
         19   12 000EBD30 ??$handleFocusWindowChanged@UAsynchronousDelivery@QWindowSystemInterface@@@QWindowSystemInterface@@SAXPEAVQWindow@@W4FocusReason@Qt@@@Z
         20   13 000EBDE0 ??$handleFocusWindowChanged@UDefaultDelivery@QWindowSystemInterface@@@QWindowSystemInterface@@SAXPEAVQWindow@@W4FocusReason@Qt@@@Z
         21   14 000EBEB0 ??$handleFocusWindowChanged@USynchronousDelivery@QWindowSystemInterface@@@QWindowSystemInterface@@SAXPEAVQWindow@@W4FocusReason@Qt@@@Z
         22   15 000EBEC0 ??$handleGeometryChange@UAsynchronousDelivery@QWindowSystemInterface@@@QWindowSystemInterface@@SAXPEAVQWindow@@AEBVQRect@@@Z
         23   16 000EBFF0 ??$handleGeometryChange@UDefaultDelivery@QWindowSystemInterface@@@QWindowSystemInterface@@SAXPEAVQWindow@@AEBVQRect@@@Z
         24   17 000EC130 ??$handleGeometryChange@USynchronousDelivery@QWindowSystemInterface@@@QWindowSystemInterface@@SAXPEAVQWindow@@AEBVQRect@@@Z
         25   18 000EC1F0 ??$handleKeyEvent@UAsynchronousDelivery@QWindowSystemInterface@@@QWindowSystemInterface@@SA_NPEAVQWindow@@KW4Type@QEvent@@HV?$QFlags@W4KeyboardModifier@Qt@@@@AEBVQString@@_NG@Z
         26   19 000EC2A0 ??$handleKeyEvent@UAsynchronousDelivery@QWindowSystemInterface@@@QWindowSystemInterface@@SA_NPEAVQWindow@@W4Type@QEvent@@HV?$QFlags@W4KeyboardModifier@Qt@@@@AEBVQString@@_NG@Z
         27   1A 000EC360 ??$handleKeyEvent@UDefaultDelivery@QWindowSystemInterface@@@QWindowSystemInterface@@SA_NPEAVQWindow@@KW4Type@QEvent@@HV?$QFlags@W4KeyboardModifier@Qt@@@@AEBVQString@@_NG@Z
         28   1B 000EC480 ??$handleKeyEvent@UDefaultDelivery@QWindowSystemInterface@@@QWindowSystemInterface@@SA_NPEAVQWindow@@W4Type@QEvent@@HV?$QFlags@W4KeyboardModifier@Qt@@@@AEBVQString@@_NG@Z
         29   1C 000EC500 ??$handleKeyEvent@USynchronousDelivery@QWindowSystemInterface@@@QWindowSystemInterface@@SA_NPEAVQWindow@@KW4Type@QEvent@@HV?$QFlags@W4KeyboardModifier@Qt@@@@AEBVQString@@_NG@Z
         30   1D 000EC5B0 ??$handleKeyEvent@USynchronousDelivery@QWindowSystemInterface@@@QWindowSystemInterface@@SA_NPEAVQWindow@@W4Type@QEvent@@HV?$QFlags@W4KeyboardModifier@Qt@@@@AEBVQString@@_NG@Z
         31   1E 000EC670 ??$handleLeaveEvent@UAsynchronousDelivery@QWindowSystemInterface@@@QWindowSystemInterface@@SAXPEAVQWindow@@@Z
         32   1F 000EC710 ??$handleLeaveEvent@UDefaultDelivery@QWindowSystemInterface@@@QWindowSystemInterface@@SAXPEAVQWindow@@@Z
         33   20 000EC7D0 ??$handleLeaveEvent@USynchronousDelivery@QWindowSystemInterface@@@QWindowSystemInterface@@SAXPEAVQWindow@@@Z
         34   21 000EC7E0 ??$handleMouseEvent@UAsynchronousDelivery@QWindowSystemInterface@@@QWindowSystemInterface@@SA_NPEAVQWindow@@AEBVQPointF@@1V?$QFlags@W4MouseButton@Qt@@@@W4MouseButton@Qt@@W4Type@QEvent@@V?$QFlags@W4KeyboardModifier@Qt@@@@W4MouseEventSource@5@@Z
         35   22 000EC8A0 ??$handleMouseEvent@UAsynchronousDelivery@QWindowSystemInterface@@@QWindowSystemInterface@@SA_NPEAVQWindow@@KAEBVQPointF@@1V?$QFlags@W4MouseButton@Qt@@@@W4MouseButton@Qt@@W4Type@QEvent@@V?$QFlags@W4KeyboardModifier@Qt@@@@W4MouseEventSource@5@@Z
         36   23 000EC950 ??$handleMouseEvent@UAsynchronousDelivery@QWindowSystemInterface@@@QWindowSystemInterface@@SA_NPEAVQWindow@@KPEBVQPointingDevice@@AEBVQPointF@@2V?$QFlags@W4MouseButton@Qt@@@@W4MouseButton@Qt@@W4Type@QEvent@@V?$QFlags@W4KeyboardModifier@Qt@@@@W4MouseEventSource@6@@Z
         37   24 000ECD00 ??$handleMouseEvent@UAsynchronousDelivery@QWindowSystemInterface@@@QWindowSystemInterface@@SA_NPEAVQWindow@@PEBVQPointingDevice@@AEBVQPointF@@2V?$QFlags@W4MouseButton@Qt@@@@W4MouseButton@Qt@@W4Type@QEvent@@V?$QFlags@W4KeyboardModifier@Qt@@@@W4MouseEventSource@6@@Z
         38   25 000ECD90 ??$handleMouseEvent@UDefaultDelivery@QWindowSystemInterface@@@QWindowSystemInterface@@SA_NPEAVQWindow@@AEBVQPointF@@1V?$QFlags@W4MouseButton@Qt@@@@W4MouseButton@Qt@@W4Type@QEvent@@V?$QFlags@W4KeyboardModifier@Qt@@@@W4MouseEventSource@5@@Z
         39   26 000ECE50 ??$handleMouseEvent@UDefaultDelivery@QWindowSystemInterface@@@QWindowSystemInterface@@SA_NPEAVQWindow@@KAEBVQPointF@@1V?$QFlags@W4MouseButton@Qt@@@@W4MouseButton@Qt@@W4Type@QEvent@@V?$QFlags@W4KeyboardModifier@Qt@@@@W4MouseEventSource@5@@Z
         40   27 000ECF00 ??$handleMouseEvent@UDefaultDelivery@QWindowSystemInterface@@@QWindowSystemInterface@@SA_NPEAVQWindow@@KPEBVQPointingDevice@@AEBVQPointF@@2V?$QFlags@W4MouseButton@Qt@@@@W4MouseButton@Qt@@W4Type@QEvent@@V?$QFlags@W4KeyboardModifier@Qt@@@@W4MouseEventSource@6@@Z
         41   28 000ED340 ??$handleMouseEvent@UDefaultDelivery@QWindowSystemInterface@@@QWindowSystemInterface@@SA_NPEAVQWindow@@PEBVQPointingDevice@@AEBVQPointF@@2V?$QFlags@W4MouseButton@Qt@@@@W4MouseButton@Qt@@W4Type@QEvent@@V?$QFlags@W4KeyboardModifier@Qt@@@@W4MouseEventSource@6@@Z
         42   29 000ED3D0 ??$handleMouseEvent@USynchronousDelivery@QWindowSystemInterface@@@QWindowSystemInterface@@SA_NPEAVQWindow@@AEBVQPointF@@1V?$QFlags@W4MouseButton@Qt@@@@W4MouseButton@Qt@@W4Type@QEvent@@V?$QFlags@W4KeyboardModifier@Qt@@@@W4MouseEventSource@5@@Z
         43   2A 000ED490 ??$handleMouseEvent@USynchronousDelivery@QWindowSystemInterface@@@QWindowSystemInterface@@SA_NPEAVQWindow@@KAEBVQPointF@@1V?$QFlags@W4MouseButton@Qt@@@@W4MouseButton@Qt@@W4Type@QEvent@@V?$QFlags@W4KeyboardModifier@Qt@@@@W4MouseEventSource@5@@Z
         44   2B 000ED540 ??$handleMouseEvent@USynchronousDelivery@QWindowSystemInterface@@@QWindowSystemInterface@@SA_NPEAVQWindow@@KPEBVQPointingDevice@@AEBVQPointF@@2V?$QFlags@W4MouseButton@Qt@@@@W4MouseButton@Qt@@W4Type@QEvent@@V?$QFlags@W4KeyboardModifier@Qt@@@@W4MouseEventSource@6@@Z
         45   2C 000ED840 ??$handleMouseEvent@USynchronousDelivery@QWindowSystemInterface@@@QWindowSystemInterface@@SA_NPEAVQWindow@@PEBVQPointingDevice@@AEBVQPointF@@2V?$QFlags@W4MouseButton@Qt@@@@W4MouseButton@Qt@@W4Type@QEvent@@V?$QFlags@W4KeyboardModifier@Qt@@@@W4MouseEventSource@6@@Z
         46   2D 000ED8D0 ??$handlePaintEvent@UAsynchronousDelivery@QWindowSystemInterface@@@QWindowSystemInterface@@SA_NPEAVQWindow@@AEBVQRegion@@@Z
         47   2E 000ED9B0 ??$handlePaintEvent@UDefaultDelivery@QWindowSystemInterface@@@QWindowSystemInterface@@SA_NPEAVQWindow@@AEBVQRegion@@@Z
         48   2F 000EDAE0 ??$handlePaintEvent@USynchronousDelivery@QWindowSystemInterface@@@QWindowSystemInterface@@SA_NPEAVQWindow@@AEBVQRegion@@@Z
         49   30 000EDB30 ??$handleSafeAreaMarginsChanged@UAsynchronousDelivery@QWindowSystemInterface@@@QWindowSystemInterface@@SAXPEAVQWindow@@@Z
         50   31 000EDBD0 ??$handleSafeAreaMarginsChanged@UDefaultDelivery@QWindowSystemInterface@@@QWindowSystemInterface@@SAXPEAVQWindow@@@Z
         51   32 000EDC90 ??$handleSafeAreaMarginsChanged@USynchronousDelivery@QWindowSystemInterface@@@QWindowSystemInterface@@SAXPEAVQWindow@@@Z
         52   33 000EDCA0 ??$handleThemeChange@UAsynchronousDelivery@QWindowSystemInterface@@@QWindowSystemInterface@@SAXPEAVQWindow@@@Z
         53   34 000EDD40 ??$handleThemeChange@UDefaultDelivery@QWindowSystemInterface@@@QWindowSystemInterface@@SAXPEAVQWindow@@@Z
         54   35 000EDE00 ??$handleThemeChange@USynchronousDelivery@QWindowSystemInterface@@@QWindowSystemInterface@@SAXPEAVQWindow@@@Z
         55   36 000EDE10 ??$handleTouchCancelEvent@UAsynchronousDelivery@QWindowSystemInterface@@@QWindowSystemInterface@@SA_NPEAVQWindow@@KPEBVQPointingDevice@@V?$QFlags@W4KeyboardModifier@Qt@@@@@Z
         56   37 000EDF10 ??$handleTouchCancelEvent@UAsynchronousDelivery@QWindowSystemInterface@@@QWindowSystemInterface@@SA_NPEAVQWindow@@PEBVQPointingDevice@@V?$QFlags@W4KeyboardModifier@Qt@@@@@Z
         57   38 000EE020 ??$handleTouchCancelEvent@UDefaultDelivery@QWindowSystemInterface@@@QWindowSystemInterface@@SA_NPEAVQWindow@@KPEBVQPointingDevice@@V?$QFlags@W4KeyboardModifier@Qt@@@@@Z
         58   39 000EE160 ??$handleTouchCancelEvent@UDefaultDelivery@QWindowSystemInterface@@@QWindowSystemInterface@@SA_NPEAVQWindow@@PEBVQPointingDevice@@V?$QFlags@W4KeyboardModifier@Qt@@@@@Z
         59   3A 000EE1B0 ??$handleTouchCancelEvent@USynchronousDelivery@QWindowSystemInterface@@@QWindowSystemInterface@@SA_NPEAVQWindow@@KPEBVQPointingDevice@@V?$QFlags@W4KeyboardModifier@Qt@@@@@Z
         60   3B 000EE1F0 ??$handleTouchCancelEvent@USynchronousDelivery@QWindowSystemInterface@@@QWindowSystemInterface@@SA_NPEAVQWindow@@PEBVQPointingDevice@@V?$QFlags@W4KeyboardModifier@Qt@@@@@Z
         61   3C 000EE260 ??$handleTouchEvent@UAsynchronousDelivery@QWindowSystemInterface@@@QWindowSystemInterface@@SA_NPEAVQWindow@@KPEBVQPointingDevice@@AEBV?$QList@UTouchPoint@QWindowSystemInterface@@@@V?$QFlags@W4KeyboardModifier@Qt@@@@@Z
         62   3D 000EE370 ??$handleTouchEvent@UAsynchronousDelivery@QWindowSystemInterface@@@QWindowSystemInterface@@SA_NPEAVQWindow@@PEBVQPointingDevice@@AEBV?$QList@UTouchPoint@QWindowSystemInterface@@@@V?$QFlags@W4KeyboardModifier@Qt@@@@@Z
         63   3E 000EE3D0 ??$handleTouchEvent@UDefaultDelivery@QWindowSystemInterface@@@QWindowSystemInterface@@SA_NPEAVQWindow@@KPEBVQPointingDevice@@AEBV?$QList@UTouchPoint@QWindowSystemInterface@@@@V?$QFlags@W4KeyboardModifier@Qt@@@@@Z
         64   3F 000EE4E0 ??$handleTouchEvent@UDefaultDelivery@QWindowSystemInterface@@@QWindowSystemInterface@@SA_NPEAVQWindow@@PEBVQPointingDevice@@AEBV?$QList@UTouchPoint@QWindowSystemInterface@@@@V?$QFlags@W4KeyboardModifier@Qt@@@@@Z
         65   40 000EE540 ??$handleTouchEvent@USynchronousDelivery@QWindowSystemInterface@@@QWindowSystemInterface@@SA_NPEAVQWindow@@KPEBVQPointingDevice@@AEBV?$QList@UTouchPoint@QWindowSystemInterface@@@@V?$QFlags@W4KeyboardModifier@Qt@@@@@Z
         66   41 000EE650 ??$handleTouchEvent@USynchronousDelivery@QWindowSystemInterface@@@QWindowSystemInterface@@SA_NPEAVQWindow@@PEBVQPointingDevice@@AEBV?$QList@UTouchPoint@QWindowSystemInterface@@@@V?$QFlags@W4KeyboardModifier@Qt@@@@@Z
         67   42 000EE6B0 ??$handleWindowDevicePixelRatioChanged@UAsynchronousDelivery@QWindowSystemInterface@@@QWindowSystemInterface@@SAXPEAVQWindow@@@Z
         68   43 000EE750 ??$handleWindowDevicePixelRatioChanged@UDefaultDelivery@QWindowSystemInterface@@@QWindowSystemInterface@@SAXPEAVQWindow@@@Z
         69   44 000EE810 ??$handleWindowDevicePixelRatioChanged@USynchronousDelivery@QWindowSystemInterface@@@QWindowSystemInterface@@SAXPEAVQWindow@@@Z
         70   45 000EE820 ??$handleWindowScreenChanged@UAsynchronousDelivery@QWindowSystemInterface@@@QWindowSystemInterface@@SAXPEAVQWindow@@PEAVQScreen@@@Z
         71   46 000EE8F0 ??$handleWindowScreenChanged@UDefaultDelivery@QWindowSystemInterface@@@QWindowSystemInterface@@SAXPEAVQWindow@@PEAVQScreen@@@Z
         72   47 000EE9E0 ??$handleWindowScreenChanged@USynchronousDelivery@QWindowSystemInterface@@@QWindowSystemInterface@@SAXPEAVQWindow@@PEAVQScreen@@@Z
         73   48 000EE9F0 ??$handleWindowStateChanged@UAsynchronousDelivery@QWindowSystemInterface@@@QWindowSystemInterface@@SAXPEAVQWindow@@V?$QFlags@W4WindowState@Qt@@@@H@Z
         74   49 000EEAC0 ??$handleWindowStateChanged@UDefaultDelivery@QWindowSystemInterface@@@QWindowSystemInterface@@SAXPEAVQWindow@@V?$QFlags@W4WindowState@Qt@@@@H@Z
         75   4A 000EEBB0 ??$handleWindowStateChanged@USynchronousDelivery@QWindowSystemInterface@@@QWindowSystemInterface@@SAXPEAVQWindow@@V?$QFlags@W4WindowState@Qt@@@@H@Z
         76   4B 0008A9B0 ??0ActivationObserver@QAccessible@@QEAA@AEBV01@@Z
         77   4C 0008A9B0 ??0ActivationObserver@QAccessible@@QEAA@XZ
         78   4D 000014B0 ??0Declaration@QCss@@QEAA@$$QEAU01@@Z
         79   4E 00025DF0 ??0Declaration@QCss@@QEAA@AEBU01@@Z
         80   4F 00025E10 ??0Declaration@QCss@@QEAA@XZ
         81   50 001E4370 ??0Gpu@QOpenGLConfig@@QEAA@$$QEAU01@@Z
         82   51 001E43D0 ??0Gpu@QOpenGLConfig@@QEAA@AEBU01@@Z
         83   52 001E4440 ??0Gpu@QOpenGLConfig@@QEAA@XZ
         84   53 00006450 ??0Key@QPixmapCache@@QEAA@$$QEAV01@@Z
         85   54 0006A880 ??0Key@QPixmapCache@@QEAA@AEBV01@@Z
         86   55 00006000 ??0Key@QPixmapCache@@QEAA@XZ
         87   56 00025E80 ??0LayoutData@QTextEngine@@QEAA@AEBU01@@Z
         88   57 002F1E40 ??0LayoutData@QTextEngine@@QEAA@AEBVQString@@PEAPEAX_J@Z
         89   58 002F2020 ??0LayoutData@QTextEngine@@QEAA@XZ
         90   59 00025F40 ??0Parser@QCss@@QEAA@$$QEAV01@@Z
         91   5A 00025FA0 ??0Parser@QCss@@QEAA@AEBV01@@Z
         92   5B 0043B750 ??0Parser@QCss@@QEAA@AEBVQString@@_N@Z
         93   5C 0043B7B0 ??0Parser@QCss@@QEAA@XZ
         94   5D 00027A60 ??0ProgramDesc@QOpenGLProgramBinaryCache@@QEAA@$$QEAU01@@Z
         95   5E 00027A90 ??0ProgramDesc@QOpenGLProgramBinaryCache@@QEAA@AEBU01@@Z
         96   5F 00027AC0 ??0ProgramDesc@QOpenGLProgramBinaryCache@@QEAA@XZ
         97   60 00006680 ??0QAbstractFileIconEngine@@QEAA@$$QEAV0@@Z
         98   61 00006680 ??0QAbstractFileIconEngine@@QEAA@AEBV0@@Z
         99   62 000066D0 ??0QAbstractFileIconEngine@@QEAA@AEBVQFileInfo@@V?$QFlags@W4IconOption@QPlatformTheme@@@@@Z
        100   63 00008AA0 ??0QAbstractFileIconProvider@@IEAA@AEAVQAbstractFileIconProviderPrivate@@@Z
        101   64 00008AC0 ??0QAbstractFileIconProvider@@QEAA@XZ
        102   65 00008B20 ??0QAbstractFileIconProviderPrivate@@QEAA@PEAVQAbstractFileIconProvider@@@Z
        103   66 0032FF30 ??0QAbstractLayoutStyleInfo@@QEAA@AEBV0@@Z
        104   67 0032FF80 ??0QAbstractLayoutStyleInfo@@QEAA@XZ
        105   68 002645C0 ??0QAbstractTextDocumentLayout@@IEAA@AEAVQAbstractTextDocumentLayoutPrivate@@PEAVQTextDocument@@@Z
        106   69 00264620 ??0QAbstractTextDocumentLayout@@QEAA@PEAVQTextDocument@@@Z
        107   6A 002646C0 ??0QAbstractTextDocumentLayoutPrivate@@QEAA@XZ
        108   6B 00006470 ??0QAbstractUndoItem@@QEAA@AEBV0@@Z
        109   6C 00006470 ??0QAbstractUndoItem@@QEAA@XZ
        110   6D 000016C0 ??0QAccessible@@AEAA@XZ
        111   6E 0008A9C0 ??0QAccessibleActionInterface@@QEAA@AEBV0@@Z
        112   6F 0008A9C0 ??0QAccessibleActionInterface@@QEAA@XZ
        113   70 0008A9D0 ??0QAccessibleAnnouncementEvent@@QEAA@PEAVQAccessibleInterface@@AEBVQString@@@Z
        114   71 0008AA50 ??0QAccessibleAnnouncementEvent@@QEAA@PEAVQObject@@AEBVQString@@@Z
        115   72 003EAC90 ??0QAccessibleApplication@@QEAA@XZ
        116   73 0008AAA0 ??0QAccessibleAttributesInterface@@QEAA@AEBV0@@Z
        117   74 0008AAA0 ??0QAccessibleAttributesInterface@@QEAA@XZ
        118   75 003E22B0 ??0QAccessibleBridge@@QEAA@AEBV0@@Z
        119   76 003E22B0 ??0QAccessibleBridge@@QEAA@XZ
        120   77 003E6B60 ??0QAccessibleBridgePlugin@@QEAA@PEAVQObject@@@Z
        121   78 003E22C0 ??0QAccessibleCache@@QEAA@XZ
        122   79 0008AAB0 ??0QAccessibleEditableTextInterface@@QEAA@AEBV0@@Z
        123   7A 0008AAB0 ??0QAccessibleEditableTextInterface@@QEAA@XZ
        124   7B 0008AAC0 ??0QAccessibleEvent@@QEAA@PEAVQAccessibleInterface@@W4Event@QAccessible@@@Z
        125   7C 0008AB10 ??0QAccessibleEvent@@QEAA@PEAVQObject@@W4Event@QAccessible@@@Z
        126   7D 0008AB30 ??0QAccessibleHyperlinkInterface@@QEAA@AEBV0@@Z
        127   7E 0008AB30 ??0QAccessibleHyperlinkInterface@@QEAA@XZ
        128   7F 0008AB40 ??0QAccessibleImageInterface@@QEAA@AEBV0@@Z
        129   80 0008AB40 ??0QAccessibleImageInterface@@QEAA@XZ
        130   81 0008AB50 ??0QAccessibleInterface@@QEAA@AEBV0@@Z
        131   82 0008AB50 ??0QAccessibleInterface@@QEAA@XZ
        132   83 003EAD20 ??0QAccessibleObject@@QEAA@PEAVQObject@@@Z
        133   84 003EB5B0 ??0QAccessiblePlugin@@QEAA@PEAVQObject@@@Z
        134   85 0008AB60 ??0QAccessibleSelectionInterface@@QEAA@AEBV0@@Z
        135   86 0008AB60 ??0QAccessibleSelectionInterface@@QEAA@XZ
        136   87 0008AB70 ??0QAccessibleStateChangeEvent@@QEAA@PEAVQAccessibleInterface@@UState@QAccessible@@@Z
        137   88 0008ABE0 ??0QAccessibleStateChangeEvent@@QEAA@PEAVQObject@@UState@QAccessible@@@Z
        138   89 0008AC10 ??0QAccessibleTableCellInterface@@QEAA@AEBV0@@Z
        139   8A 0008AC10 ??0QAccessibleTableCellInterface@@QEAA@XZ
        140   8B 0008AC20 ??0QAccessibleTableInterface@@QEAA@AEBV0@@Z
        141   8C 0008AC20 ??0QAccessibleTableInterface@@QEAA@XZ
        142   8D 0008AC30 ??0QAccessibleTableModelChangeEvent@@QEAA@PEAVQAccessibleInterface@@W4ModelChangeType@0@@Z
        143   8E 0008ACB0 ??0QAccessibleTableModelChangeEvent@@QEAA@PEAVQObject@@W4ModelChangeType@0@@Z
        144   8F 0008ACF0 ??0QAccessibleTextCursorEvent@@QEAA@PEAVQAccessibleInterface@@H@Z
        145   90 0008AD60 ??0QAccessibleTextCursorEvent@@QEAA@PEAVQObject@@H@Z
        146   91 0008AD90 ??0QAccessibleTextInsertEvent@@QEAA@PEAVQAccessibleInterface@@HAEBVQString@@@Z
        147   92 0008AE40 ??0QAccessibleTextInsertEvent@@QEAA@PEAVQObject@@HAEBVQString@@@Z
        148   93 0008AE90 ??0QAccessibleTextInterface@@QEAA@AEBV0@@Z
        149   94 0008AE90 ??0QAccessibleTextInterface@@QEAA@XZ
        150   95 0008AEA0 ??0QAccessibleTextRemoveEvent@@QEAA@PEAVQAccessibleInterface@@HAEBVQString@@@Z
        151   96 0008AF40 ??0QAccessibleTextRemoveEvent@@QEAA@PEAVQObject@@HAEBVQString@@@Z
        152   97 0008AF90 ??0QAccessibleTextSelectionEvent@@QEAA@PEAVQAccessibleInterface@@HH@Z
        153   98 0008B020 ??0QAccessibleTextSelectionEvent@@QEAA@PEAVQObject@@HH@Z
        154   99 0008B060 ??0QAccessibleTextUpdateEvent@@QEAA@PEAVQAccessibleInterface@@HAEBVQString@@1@Z
        155   9A 0008B120 ??0QAccessibleTextUpdateEvent@@QEAA@PEAVQObject@@HAEBVQString@@1@Z
        156   9B 0008B190 ??0QAccessibleValueChangeEvent@@QEAA@PEAVQAccessibleInterface@@AEBVQVariant@@@Z
        157   9C 0008B210 ??0QAccessibleValueChangeEvent@@QEAA@PEAVQObject@@AEBVQVariant@@@Z
        158   9D 0008B260 ??0QAccessibleValueInterface@@QEAA@AEBV0@@Z
        159   9E 0008B260 ??0QAccessibleValueInterface@@QEAA@XZ
        160   9F 003ECF70 ??0QAction@@IEAA@AEAVQActionPrivate@@PEAVQObject@@@Z
        161   A0 003ED040 ??0QAction@@QEAA@AEBVQIcon@@AEBVQString@@PEAVQObject@@@Z
        162   A1 003ED0C0 ??0QAction@@QEAA@AEBVQString@@PEAVQObject@@@Z
        163   A2 003ED110 ??0QAction@@QEAA@PEAVQObject@@@Z
        164   A3 0007D020 ??0QActionEvent@@IEAA@AEBV0@@Z
        165   A4 0007D060 ??0QActionEvent@@QEAA@HPEAVQAction@@0@Z
        166   A5 003F0D50 ??0QActionGroup@@IEAA@AEAVQActionGroupPrivate@@PEAVQObject@@@Z
        167   A6 003F0D80 ??0QActionGroup@@QEAA@PEAVQObject@@@Z
        168   A7 003F0E20 ??0QActionGroupPrivate@@QEAA@XZ
        169   A8 003ED210 ??0QActionPrivate@@QEAA@XZ
        170   A9 0007D0B0 ??0QApplicationStateChangeEvent@@IEAA@AEBV0@@Z
        171   AA 0007D0F0 ??0QApplicationStateChangeEvent@@QEAA@W4ApplicationState@Qt@@@Z
        172   AB 000FE370 ??0QBackingStore@@QEAA@PEAVQWindow@@@Z
        173   AC 00106830 ??0QBackingStoreRhiSupport@@QEAA@AEBV0@@Z
        174   AD 001068A0 ??0QBackingStoreRhiSupport@@QEAA@XZ
        175   AE 003F47B0 ??0QBasicDrag@@IEAA@XZ
        176   AF 00001230 ??0QBitmap@@QEAA@AEBV0@@Z
        177   B0 0000B620 ??0QBitmap@@QEAA@AEBVQPixmap@@@Z
        178   B1 0000B680 ??0QBitmap@@QEAA@AEBVQSize@@@Z
        179   B2 0000B6B0 ??0QBitmap@@QEAA@AEBVQString@@PEBD@Z
        180   B3 0000B710 ??0QBitmap@@QEAA@HH@Z
        181   B4 0000B750 ??0QBitmap@@QEAA@XZ
        182   B5 000681A0 ??0QBlittable@@QEAA@AEBV0@@Z
        183   B6 0011D440 ??0QBlittable@@QEAA@AEBVQSize@@V?$QFlags@W4Capability@QBlittable@@@@@Z
        184   B7 000681C0 ??0QBlittablePlatformPixmap@@QEAA@XZ
        185   B8 0019DC80 ??0QBlitterPaintEngine@@QEAA@PEAVQBlittablePlatformPixmap@@@Z
        186   B9 000DAFD0 ??0QBrush@@QEAA@AEBV0@@Z
        187   BA 0011E190 ??0QBrush@@QEAA@AEBVQColor@@AEBVQPixmap@@@Z
        188   BB 0011E4A0 ??0QBrush@@QEAA@AEBVQColor@@W4BrushStyle@Qt@@@Z
        189   BC 0011E5C0 ??0QBrush@@QEAA@AEBVQGradient@@@Z
        190   BD 0011E7A0 ??0QBrush@@QEAA@AEBVQImage@@@Z
        191   BE 0011EAF0 ??0QBrush@@QEAA@AEBVQPixmap@@@Z
        192   BF 0011EE20 ??0QBrush@@QEAA@W4BrushStyle@Qt@@@Z
        193   C0 0011EE80 ??0QBrush@@QEAA@W4GlobalColor@Qt@@AEBVQPixmap@@@Z
        194   C1 0011F1B0 ??0QBrush@@QEAA@W4GlobalColor@Qt@@W4BrushStyle@2@@Z
        195   C2 0011F210 ??0QBrush@@QEAA@XZ
        196   C3 0007D130 ??0QChildWindowEvent@@IEAA@AEBV0@@Z
        197   C4 0007D170 ??0QChildWindowEvent@@QEAA@W4Type@QEvent@@PEAVQWindow@@@Z
        198   C5 00076010 ??0QClipboard@@AEAA@PEAVQObject@@@Z
        199   C6 0007D1B0 ??0QCloseEvent@@IEAA@AEBV0@@Z
        200   C7 0007D1E0 ??0QCloseEvent@@QEAA@XZ
        201   C8 00001260 ??0QColor@@QEAA@AEBVQString@@@Z
        202   C9 000012B0 ??0QColor@@QEAA@HHHH@Z
        203   CA 00123C30 ??0QColor@@QEAA@I@Z
        204   CB 00001330 ??0QColor@@QEAA@PEBD@Z
        205   CC 00001380 ??0QColor@@QEAA@VQLatin1String@@@Z
        206   CD 00123CA0 ??0QColor@@QEAA@VQRgba64@@@Z
        207   CE 000013C0 ??0QColor@@QEAA@VQStringView@@@Z
        208   CF 00123CE0 ??0QColor@@QEAA@W4GlobalColor@Qt@@@Z
        209   D0 00123D70 ??0QColor@@QEAA@W4Spec@0@@Z
        210   D1 00001400 ??0QColor@@QEAA@W4Spec@0@GGGGG@Z
        211   D2 00001430 ??0QColor@@QEAA@XZ
        212   D3 000278C0 ??0QColorDialogOptions@@IEAA@PEAVQColorDialogOptionsPrivate@@@Z
        213   D4 000014B0 ??0QColorSpace@@QEAA@$$QEAV0@@Z
        214   D5 00025DF0 ??0QColorSpace@@QEAA@AEBV0@@Z
        215   D6 0012C0C0 ??0QColorSpace@@QEAA@AEBVQPointF@@000AEBV?$QList@G@@11@Z
        216   D7 0012C190 ??0QColorSpace@@QEAA@AEBVQPointF@@000AEBV?$QList@G@@@Z
        217   D8 0012C250 ??0QColorSpace@@QEAA@AEBVQPointF@@000W4TransferFunction@0@M@Z
        218   D9 0012C510 ??0QColorSpace@@QEAA@VQPointF@@AEBV?$QList@G@@@Z
        219   DA 0012C570 ??0QColorSpace@@QEAA@VQPointF@@W4TransferFunction@0@M@Z
        220   DB 0012C5E0 ??0QColorSpace@@QEAA@W4NamedColorSpace@0@@Z
        221   DC 0012C720 ??0QColorSpace@@QEAA@W4Primaries@0@AEBV?$QList@G@@@Z
        222   DD 0012C770 ??0QColorSpace@@QEAA@W4Primaries@0@M@Z
        223   DE 0012C7D0 ??0QColorSpace@@QEAA@W4Primaries@0@W4TransferFunction@0@M@Z
        224   DF 00006000 ??0QColorSpace@@QEAA@XZ
        225   E0 00026000 ??0QColorTransferTable@@QEAA@$$QEAV0@@Z
        226   E1 00026060 ??0QColorTransferTable@@QEAA@AEBV0@@Z
        227   E2 000260C0 ??0QColorTransferTable@@QEAA@IAEBV?$QList@E@@W4Type@0@@Z
        228   E3 00026100 ??0QColorTransferTable@@QEAA@IAEBV?$QList@G@@W4Type@0@@Z
        229   E4 00026140 ??0QColorTransferTable@@QEAA@XZ
        230   E5 00025DF0 ??0QColorTransform@@QEAA@AEBV0@@Z
        231   E6 00026170 ??0QColorTrc@@QEAA@$$QEAV0@@Z
        232   E7 000261F0 ??0QColorTrc@@QEAA@$$QEAVQColorTransferFunction@@@Z
        233   E8 00026240 ??0QColorTrc@@QEAA@$$QEAVQColorTransferGenericFunction@@@Z
        234   E9 000262A0 ??0QColorTrc@@QEAA@$$QEAVQColorTransferTable@@@Z
        235   EA 00026330 ??0QColorTrc@@QEAA@AEBV0@@Z
        236   EB 000261F0 ??0QColorTrc@@QEAA@AEBVQColorTransferFunction@@@Z
        237   EC 00026240 ??0QColorTrc@@QEAA@AEBVQColorTransferGenericFunction@@@Z
        238   ED 000263A0 ??0QColorTrc@@QEAA@AEBVQColorTransferTable@@@Z
        239   EE 00026430 ??0QColorTrc@@QEAA@XZ
        240   EF 00026480 ??0QColorTrcLut@@AEAA@XZ
        241   F0 000264A0 ??0QColorTrcLut@@QEAA@$$QEAV0@@Z
        242   F1 00001450 ??0QConicalGradient@@QEAA@AEBV0@@Z
        243   F2 0011F230 ??0QConicalGradient@@QEAA@AEBVQPointF@@N@Z
        244   F3 0011F270 ??0QConicalGradient@@QEAA@NNN@Z
        245   F4 0011F2A0 ??0QConicalGradient@@QEAA@XZ
        246   F5 0007D210 ??0QContextMenuEvent@@IEAA@AEBV0@@Z
        247   F6 0007D280 ??0QContextMenuEvent@@QEAA@W4Reason@0@AEBVQPoint@@1V?$QFlags@W4KeyboardModifier@Qt@@@@@Z
        248   F7 0007D340 ??0QContextMenuEvent@@QEAA@W4Reason@0@AEBVQPoint@@@Z
        249   F8 000014B0 ??0QCursor@@QEAA@$$QEAV0@@Z
        250   F9 00077550 ??0QCursor@@QEAA@AEBV0@@Z
        251   FA 000775F0 ??0QCursor@@QEAA@AEBVQBitmap@@0HH@Z
        252   FB 00077640 ??0QCursor@@QEAA@AEBVQPixmap@@HH@Z
        253   FC 000778E0 ??0QCursor@@QEAA@W4CursorShape@Qt@@@Z
        254   FD 00077A10 ??0QCursor@@QEAA@XZ
        255   FE 0021DA40 ??0QDashStroker@@QEAA@PEAVQStroker@@@Z
        256   FF 00229740 ??0QDashedStrokeProcessor@@QEAA@XZ
        257  100 00197660 ??0QDistanceField@@AEAA@PEAVQDistanceFieldData@@@Z
        258  101 000014B0 ??0QDistanceField@@QEAA@$$QEAV0@@Z
        259  102 00025DF0 ??0QDistanceField@@QEAA@AEBV0@@Z
        260  103 0026AEE0 ??0QDistanceField@@QEAA@AEBVQPainterPath@@I_N@Z
        261  104 0026B0A0 ??0QDistanceField@@QEAA@AEBVQRawFont@@I_N@Z
        262  105 0026B0C0 ??0QDistanceField@@QEAA@HH@Z
        263  106 0026B140 ??0QDistanceField@@QEAA@PEAVQFontEngine@@I_N@Z
        264  107 0026B330 ??0QDistanceField@@QEAA@VQSize@@AEBVQPainterPath@@I_N@Z
        265  108 0026B5A0 ??0QDistanceField@@QEAA@XZ
        266  109 0026B5E0 ??0QDistanceFieldData@@QEAA@AEBV0@@Z
        267  10A 000FFB30 ??0QDistanceFieldData@@QEAA@XZ
        268  10B 00341820 ??0QDoubleValidator@@QEAA@NNHPEAVQObject@@@Z
        269  10C 003418D0 ??0QDoubleValidator@@QEAA@PEAVQObject@@@Z
        270  10D 003F2980 ??0QDrag@@QEAA@PEAVQObject@@@Z
        271  10E 0007D3E0 ??0QDragEnterEvent@@IEAA@AEBV0@@Z
        272  10F 0007D460 ??0QDragEnterEvent@@QEAA@AEBVQPoint@@V?$QFlags@W4DropAction@Qt@@@@PEBVQMimeData@@V?$QFlags@W4MouseButton@Qt@@@@V?$QFlags@W4KeyboardModifier@Qt@@@@@Z
        273  110 0007D4A0 ??0QDragLeaveEvent@@IEAA@AEBV0@@Z
        274  111 0007D4D0 ??0QDragLeaveEvent@@QEAA@XZ
        275  112 003F1C40 ??0QDragManager@@QEAA@XZ
        276  113 0007D500 ??0QDragMoveEvent@@IEAA@AEBV0@@Z
        277  114 0007D570 ??0QDragMoveEvent@@QEAA@AEBVQPoint@@V?$QFlags@W4DropAction@Qt@@@@PEBVQMimeData@@V?$QFlags@W4MouseButton@Qt@@@@V?$QFlags@W4KeyboardModifier@Qt@@@@W4Type@QEvent@@@Z
        278  115 0007D680 ??0QDropEvent@@IEAA@AEBV0@@Z
        279  116 0007D6E0 ??0QDropEvent@@QEAA@AEBVQPointF@@V?$QFlags@W4DropAction@Qt@@@@PEBVQMimeData@@V?$QFlags@W4MouseButton@Qt@@@@V?$QFlags@W4KeyboardModifier@Qt@@@@W4Type@QEvent@@@Z
        280  117 004A11C0 ??0QEdidParser@@QEAA@$$QEAV0@@Z
        281  118 004A12B0 ??0QEdidParser@@QEAA@AEBV0@@Z
        282  119 004A1390 ??0QEdidParser@@QEAA@XZ
        283  11A 0007D790 ??0QEnterEvent@@IEAA@AEBV0@@Z
        284  11B 0007D7C0 ??0QEnterEvent@@QEAA@AEBVQPointF@@00PEBVQPointingDevice@@@Z
        285  11C 000014B0 ??0QEventPoint@@QEAA@$$QEAV0@@Z
        286  11D 00025DF0 ??0QEventPoint@@QEAA@AEBV0@@Z
        287  11E 0007A2D0 ??0QEventPoint@@QEAA@HPEBVQPointingDevice@@@Z
        288  11F 0007A3B0 ??0QEventPoint@@QEAA@HW4State@0@AEBVQPointF@@1@Z
        289  120 0007D810 ??0QExposeEvent@@IEAA@AEBV0@@Z
        290  121 0007D850 ??0QExposeEvent@@QEAA@AEBVQRegion@@@Z
        291  122 000278C0 ??0QFileDialogOptions@@IEAA@PEAVQFileDialogOptionsPrivate@@@Z
        292  123 00463510 ??0QFileInfoGatherer@@QEAA@PEAVQObject@@@Z
        293  124 0007D890 ??0QFileOpenEvent@@IEAA@AEBV0@@Z
        294  125 0007D8E0 ??0QFileOpenEvent@@QEAA@AEBVQString@@@Z
        295  126 0007D930 ??0QFileOpenEvent@@QEAA@AEBVQUrl@@@Z
        296  127 0046B0C0 ??0QFileSystemModel@@IEAA@AEAVQFileSystemModelPrivate@@PEAVQObject@@@Z
        297  128 0046B0F0 ??0QFileSystemModel@@QEAA@PEAVQObject@@@Z
        298  129 0046B140 ??0QFileSystemModelPrivate@@QEAA@XZ
        299  12A 0007D980 ??0QFocusEvent@@IEAA@AEBV0@@Z
        300  12B 0007D9C0 ??0QFocusEvent@@QEAA@W4Type@QEvent@@W4FocusReason@Qt@@@Z
        301  12C 00273E10 ??0QFont@@AEAA@PEAVQFontPrivate@@@Z
        302  12D 00273E30 ??0QFont@@QEAA@AEBV0@@Z
        303  12E 00273E50 ??0QFont@@QEAA@AEBV0@PEBVQPaintDevice@@@Z
        304  12F 00273F50 ??0QFont@@QEAA@AEBV?$QList@VQString@@@@HH_N@Z
        305  130 002740B0 ??0QFont@@QEAA@AEBVQString@@HH_N@Z
        306  131 00274280 ??0QFont@@QEAA@XZ
        307  132 00274300 ??0QFontCache@@QEAA@XZ
        308  133 0008B270 ??0QFontDatabasePrivate@@QEAA@XZ
        309  134 000278C0 ??0QFontDialogOptions@@IEAA@PEAVQFontDialogOptionsPrivate@@@Z
        310  135 00296EB0 ??0QFontEngine@@IEAA@W4Type@0@@Z
        311  136 000264D0 ??0QFontEngineGlyphCache@@QEAA@AEBV0@@Z
        312  137 00026520 ??0QFontEngineGlyphCache@@QEAA@W4GlyphFormat@QFontEngine@@AEBVQTransform@@AEBVQColor@@@Z
        313  138 00297010 ??0QFontEngineMulti@@QEAA@PEAVQFontEngine@@HAEBV?$QList@VQString@@@@@Z
        314  139 00025DF0 ??0QFontInfo@@QEAA@AEBV0@@Z
        315  13A 00025DF0 ??0QFontInfo@@QEAA@AEBVQFont@@@Z
        316  13B 00025DF0 ??0QFontMetrics@@QEAA@AEBV0@@Z
        317  13C 00025DF0 ??0QFontMetrics@@QEAA@AEBVQFont@@@Z
        318  13D 002A1240 ??0QFontMetrics@@QEAA@AEBVQFont@@PEBVQPaintDevice@@@Z
        319  13E 00025DF0 ??0QFontMetricsF@@QEAA@AEBV0@@Z
        320  13F 00025DF0 ??0QFontMetricsF@@QEAA@AEBVQFont@@@Z
        321  140 002A1240 ??0QFontMetricsF@@QEAA@AEBVQFont@@PEBVQPaintDevice@@@Z
        322  141 00025DF0 ??0QFontMetricsF@@QEAA@AEBVQFontMetrics@@@Z
        323  142 00274500 ??0QFontPrivate@@QEAA@AEBV0@@Z
        324  143 00274600 ??0QFontPrivate@@QEAA@XZ
        325  144 00087950 ??0QGenericPlugin@@QEAA@PEAVQObject@@@Z
        326  145 002A3B80 ??0QGlyphRun@@QEAA@AEBV0@@Z
        327  146 002A3BD0 ??0QGlyphRun@@QEAA@XZ
        328  147 00001450 ??0QGradient@@QEAA@AEBV0@@Z
        329  148 0011F2D0 ??0QGradient@@QEAA@W4Preset@0@@Z
        330  149 0011F340 ??0QGradient@@QEAA@XZ
        331  14A 00332550 ??0QGridLayoutBox@@QEAA@XZ
        332  14B 00332580 ??0QGridLayoutEngine@@QEAA@AEBV0@@Z
        333  14C 00332AD0 ??0QGridLayoutEngine@@QEAA@V?$QFlags@W4AlignmentFlag@Qt@@@@_N@Z
        334  14D 00332DA0 ??0QGridLayoutItem@@QEAA@AEBV0@@Z
        335  14E 00332DD0 ??0QGridLayoutItem@@QEAA@HHHHV?$QFlags@W4AlignmentFlag@Qt@@@@@Z
        336  14F 0008B350 ??0QGuiApplication@@IEAA@AEAVQGuiApplicationPrivate@@@Z
        337  150 0008B380 ??0QGuiApplication@@QEAA@AEAHPEAPEADH@Z
        338  151 0008B4C0 ??0QGuiApplicationPrivate@@QEAA@AEAHPEAPEAD@Z
        339  152 0007DA00 ??0QHelpEvent@@IEAA@AEBV0@@Z
        340  153 0007DA40 ??0QHelpEvent@@QEAA@W4Type@QEvent@@AEBVQPoint@@1@Z
        341  154 0007DA90 ??0QHideEvent@@IEAA@AEBV0@@Z
        342  155 0007DAC0 ??0QHideEvent@@QEAA@XZ
        343  156 0007DAF0 ??0QHoverEvent@@IEAA@AEBV0@@Z
        344  157 0007DB30 ??0QHoverEvent@@QEAA@W4Type@QEvent@@AEBVQPointF@@11V?$QFlags@W4KeyboardModifier@Qt@@@@PEBVQPointingDevice@@@Z
        345  158 0007DB90 ??0QHoverEvent@@QEAA@W4Type@QEvent@@AEBVQPointF@@1V?$QFlags@W4KeyboardModifier@Qt@@@@PEBVQPointingDevice@@@Z
        346  159 000014B0 ??0QIcon@@QEAA@$$QEAV0@@Z
        347  15A 0000F080 ??0QIcon@@QEAA@AEBV0@@Z
        348  15B 0000F0A0 ??0QIcon@@QEAA@AEBVQPixmap@@@Z
        349  15C 0000F280 ??0QIcon@@QEAA@AEBVQString@@@Z
        350  15D 0000F2C0 ??0QIcon@@QEAA@PEAVQIconEngine@@@Z
        351  15E 00006000 ??0QIcon@@QEAA@XZ
        352  15F 0007DC00 ??0QIconDragEvent@@IEAA@AEBV0@@Z
        353  160 0007DC30 ??0QIconDragEvent@@QEAA@XZ
        354  161 000174F0 ??0QIconEngine@@IEAA@AEBV0@@Z
        355  162 000174F0 ??0QIconEngine@@QEAA@XZ
        356  163 00017BF0 ??0QIconEnginePlugin@@QEAA@PEAVQObject@@@Z
        357  164 0000F310 ??0QIconLoader@@QEAA@$$QEAV0@@Z
        358  165 0000F400 ??0QIconLoader@@QEAA@AEBV0@@Z
        359  166 00019BD0 ??0QIconLoader@@QEAA@XZ
        360  167 000014D0 ??0QImage@@QEAA@$$QEAV0@@Z
        361  168 00026570 ??0QImage@@QEAA@AEBV0@@Z
        362  169 00026650 ??0QImage@@QEAA@AEBVQSize@@W4Format@0@@Z
        363  16A 000266A0 ??0QImage@@QEAA@AEBVQString@@PEBD@Z
        364  16B 000267D0 ??0QImage@@QEAA@HHW4Format@0@@Z
        365  16C 00026830 ??0QImage@@QEAA@PEAEHHW4Format@0@P6AXPEAX@Z2@Z
        366  16D 00026950 ??0QImage@@QEAA@PEAEHH_JW4Format@0@P6AXPEAX@Z3@Z
        367  16E 000269E0 ??0QImage@@QEAA@PEBEHHW4Format@0@P6AXPEAX@Z2@Z
        368  16F 00026B10 ??0QImage@@QEAA@PEBEHH_JW4Format@0@P6AXPEAX@Z3@Z
        369  170 00026BA0 ??0QImage@@QEAA@QEBQEBD@Z
        370  171 00026C10 ??0QImage@@QEAA@XZ
        371  172 00026C40 ??0QImageData@@QEAA@AEBU0@@Z
        372  173 00026D60 ??0QImageData@@QEAA@XZ
        373  174 00054C00 ??0QImageIOHandler@@IEAA@AEAVQImageIOHandlerPrivate@@@Z
        374  175 00054C20 ??0QImageIOHandler@@QEAA@XZ
        375  176 00054C80 ??0QImageIOPlugin@@QEAA@PEAVQObject@@@Z
        376  177 00026E30 ??0QImagePixmapCleanupHooks@@QEAA@$$QEAV0@@Z
        377  178 00026EA0 ??0QImagePixmapCleanupHooks@@QEAA@AEBV0@@Z
        378  179 00026F10 ??0QImagePixmapCleanupHooks@@QEAA@XZ
        379  17A 00056070 ??0QImageReader@@QEAA@AEBVQString@@AEBVQByteArray@@@Z
        380  17B 000560E0 ??0QImageReader@@QEAA@PEAVQIODevice@@AEBVQByteArray@@@Z
        381  17C 000561A0 ??0QImageReader@@QEAA@XZ
        382  17D 00026F40 ??0QImageTextureGlyphCache@@QEAA@AEBV0@@Z
        383  17E 00026F80 ??0QImageTextureGlyphCache@@QEAA@W4GlyphFormat@QFontEngine@@AEBVQTransform@@AEBVQColor@@@Z
        384  17F 0005CEC0 ??0QImageWriter@@QEAA@AEBVQString@@AEBVQByteArray@@@Z
        385  180 0005CF30 ??0QImageWriter@@QEAA@PEAVQIODevice@@AEBVQByteArray@@@Z
        386  181 0005CF90 ??0QImageWriter@@QEAA@XZ
        387  182 002A4F50 ??0QInputControl@@IEAA@W4Type@0@AEAVQObjectPrivate@@PEAVQObject@@@Z
        388  183 002A4F90 ??0QInputControl@@QEAA@W4Type@0@PEAVQObject@@@Z
        389  184 000A6740 ??0QInputDevice@@IEAA@AEAVQInputDevicePrivate@@PEAVQObject@@@Z
        390  185 000A6770 ??0QInputDevice@@QEAA@AEBVQString@@_JW4DeviceType@0@0PEAVQObject@@@Z
        391  186 000A6880 ??0QInputDevice@@QEAA@PEAVQObject@@@Z
        392  187 000A7EC0 ??0QInputDeviceManager@@QEAA@PEAVQObject@@@Z
        393  188 000A7F50 ??0QInputDeviceManagerPrivate@@QEAA@XZ
        394  189 0007A4C0 ??0QInputDevicePrivate@@QEAA@AEBVQString@@_JW4DeviceType@QInputDevice@@V?$QFlags@W4Capability@QInputDevice@@@@0@Z
        395  18A 0007DC60 ??0QInputEvent@@IEAA@AEBV0@@Z
        396  18B 0007DCB0 ??0QInputEvent@@IEAA@W4Type@QEvent@@UPointerEventTag@2@PEBVQInputDevice@@V?$QFlags@W4KeyboardModifier@Qt@@@@@Z
        397  18C 0007DD00 ??0QInputEvent@@IEAA@W4Type@QEvent@@USinglePointEventTag@2@PEBVQInputDevice@@V?$QFlags@W4KeyboardModifier@Qt@@@@@Z
        398  18D 0007DD50 ??0QInputEvent@@QEAA@W4Type@QEvent@@PEBVQInputDevice@@V?$QFlags@W4KeyboardModifier@Qt@@@@@Z
        399  18E 000A9230 ??0QInputMethod@@AEAA@XZ
        400  18F 0007DDB0 ??0QInputMethodEvent@@IEAA@AEBV0@@Z
        401  190 0007DE30 ??0QInputMethodEvent@@QEAA@AEBVQString@@AEBV?$QList@VAttribute@QInputMethodEvent@@@@@Z
        402  191 0007DEB0 ??0QInputMethodEvent@@QEAA@XZ
        403  192 0007DF00 ??0QInputMethodQueryEvent@@IEAA@AEBV0@@Z
        404  193 0007DF60 ??0QInputMethodQueryEvent@@QEAA@V?$QFlags@W4InputMethodQuery@Qt@@@@@Z
        405  194 00341980 ??0QIntValidator@@QEAA@HHPEAVQObject@@@Z
        406  195 00341A20 ??0QIntValidator@@QEAA@PEAVQObject@@@Z
        407  196 000AA6A0 ??0QInternalMimeData@@QEAA@XZ
        408  197 0007DFB0 ??0QKeyEvent@@IEAA@AEBV0@@Z
        409  198 0007E060 ??0QKeyEvent@@QEAA@W4Type@QEvent@@HV?$QFlags@W4KeyboardModifier@Qt@@@@AEBVQString@@_NG@Z
        410  199 0007E140 ??0QKeyEvent@@QEAA@W4Type@QEvent@@HV?$QFlags@W4KeyboardModifier@Qt@@@@IIIAEBVQString@@_NGPEBVQInputDevice@@@Z
        411  19A 000AC070 ??0QKeyMapper@@QEAA@XZ
        412  19B 000DAFD0 ??0QKeySequence@@QEAA@AEBV0@@Z
        413  19C 003F6B50 ??0QKeySequence@@QEAA@AEBVQString@@W4SequenceFormat@0@@Z
        414  19D 003F6BB0 ??0QKeySequence@@QEAA@HHHH@Z
        415  19E 003F6BB0 ??0QKeySequence@@QEAA@VQKeyCombination@@000@Z
        416  19F 003F6C20 ??0QKeySequence@@QEAA@W4StandardKey@0@@Z
        417  1A0 003F6CA0 ??0QKeySequence@@QEAA@XZ
        418  1A1 00001450 ??0QLinearGradient@@QEAA@AEBV0@@Z
        419  1A2 0011F360 ??0QLinearGradient@@QEAA@AEBVQPointF@@0@Z
        420  1A3 0011F3A0 ??0QLinearGradient@@QEAA@NNNN@Z
        421  1A4 0011F3E0 ??0QLinearGradient@@QEAA@XZ
        422  1A5 000F66C0 ??0QMatrix4x4@@QEAA@AEBVQTransform@@@Z
        423  1A6 0009FBE0 ??0QMatrix4x4@@QEAA@MMMMMMMMMMMMMMMM@Z
        424  1A7 000F6770 ??0QMatrix4x4@@QEAA@PEBM@Z
        425  1A8 000F67E0 ??0QMatrix4x4@@QEAA@PEBMHH@Z
        426  1A9 0009FC90 ??0QMatrix4x4@@QEAA@W4Initialization@Qt@@@Z
        427  1AA 0009FCA0 ??0QMatrix4x4@@QEAA@XZ
        428  1AB 000278C0 ??0QMessageDialogOptions@@IEAA@PEAVQMessageDialogOptionsPrivate@@@Z
        429  1AC 0007E200 ??0QMouseEvent@@IEAA@AEBV0@@Z
        430  1AD 0007E230 ??0QMouseEvent@@QEAA@W4Type@QEvent@@AEBVQPointF@@11W4MouseButton@Qt@@V?$QFlags@W4MouseButton@Qt@@@@V?$QFlags@W4KeyboardModifier@Qt@@@@PEBVQPointingDevice@@@Z
        431  1AE 0007E2A0 ??0QMouseEvent@@QEAA@W4Type@QEvent@@AEBVQPointF@@11W4MouseButton@Qt@@V?$QFlags@W4MouseButton@Qt@@@@V?$QFlags@W4KeyboardModifier@Qt@@@@W4MouseEventSource@5@PEBVQPointingDevice@@@Z
        432  1AF 0007E310 ??0QMouseEvent@@QEAA@W4Type@QEvent@@AEBVQPointF@@1W4MouseButton@Qt@@V?$QFlags@W4MouseButton@Qt@@@@V?$QFlags@W4KeyboardModifier@Qt@@@@PEBVQPointingDevice@@@Z
        433  1B0 0007E370 ??0QMouseEvent@@QEAA@W4Type@QEvent@@AEBVQPointF@@W4MouseButton@Qt@@V?$QFlags@W4MouseButton@Qt@@@@V?$QFlags@W4KeyboardModifier@Qt@@@@PEBVQPointingDevice@@@Z
        434  1B1 0007E410 ??0QMoveEvent@@IEAA@AEBV0@@Z
        435  1B2 0007E450 ??0QMoveEvent@@QEAA@AEBVQPoint@@0@Z
        436  1B3 00400A50 ??0QMovie@@QEAA@AEBVQString@@AEBVQByteArray@@PEAVQObject@@@Z
        437  1B4 00400B90 ??0QMovie@@QEAA@PEAVQIODevice@@AEBVQByteArray@@PEAVQObject@@@Z
        438  1B5 00400C70 ??0QMovie@@QEAA@PEAVQObject@@@Z
        439  1B6 00008B60 ??0QMutableSinglePointEvent@@QEAA@AEBV0@@Z
        440  1B7 00008B60 ??0QMutableSinglePointEvent@@QEAA@AEBVQSinglePointEvent@@@Z
        441  1B8 00008B90 ??0QMutableSinglePointEvent@@QEAA@W4Type@QEvent@@PEBVQPointingDevice@@AEBVQEventPoint@@W4MouseButton@Qt@@V?$QFlags@W4MouseButton@Qt@@@@V?$QFlags@W4KeyboardModifier@Qt@@@@W4MouseEventSource@6@@Z
        442  1B9 00008BE0 ??0QMutableTouchEvent@@QEAA@AEBV0@@Z
        443  1BA 00008C10 ??0QMutableTouchEvent@@QEAA@W4Type@QEvent@@PEBVQPointingDevice@@V?$QFlags@W4KeyboardModifier@Qt@@@@AEBV?$QList@VQEventPoint@@@@@Z
        444  1BB 0007E4A0 ??0QNativeGestureEvent@@IEAA@AEBV0@@Z
        445  1BC 0007E510 ??0QNativeGestureEvent@@QEAA@W4NativeGestureType@Qt@@PEBVQPointingDevice@@AEBVQPointF@@22N_K3@Z
        446  1BD 0007E5E0 ??0QNativeGestureEvent@@QEAA@W4NativeGestureType@Qt@@PEBVQPointingDevice@@HAEBVQPointF@@22N2_K@Z
        447  1BE 000ACAB0 ??0QOffscreenSurface@@QEAA@PEAVQScreen@@PEAVQObject@@@Z
        448  1BF 000ACBD0 ??0QOffscreenSurfacePrivate@@QEAA@XZ
        449  1C0 003551E0 ??0QOpenGLContext@@QEAA@PEAVQObject@@@Z
        450  1C1 00355240 ??0QOpenGLContextGroup@@AEAA@XZ
        451  1C2 0008B590 ??0QOpenGLContextGroupPrivate@@QEAA@XZ
        452  1C3 0008B620 ??0QOpenGLContextPrivate@@QEAA@XZ
        453  1C4 0008B700 ??0QOpenGLContextVersionFunctionHelper@@QEAA@AEBV0@@Z
        454  1C5 0008B700 ??0QOpenGLContextVersionFunctionHelper@@QEAA@XZ
        455  1C6 000014B0 ??0QOpenGLExtensionMatcher@@QEAA@$$QEAV0@@Z
        456  1C7 001E4480 ??0QOpenGLExtensionMatcher@@QEAA@AEBV0@@Z
        457  1C8 0035CD30 ??0QOpenGLExtensionMatcher@@QEAA@XZ
        458  1C9 00360340 ??0QOpenGLExtensions@@QEAA@PEAVQOpenGLContext@@@Z
        459  1CA 00006000 ??0QOpenGLExtensions@@QEAA@XZ
        460  1CB 00360340 ??0QOpenGLExtraFunctions@@QEAA@PEAVQOpenGLContext@@@Z
        461  1CC 00006000 ??0QOpenGLExtraFunctions@@QEAA@XZ
        462  1CD 003605B0 ??0QOpenGLFunctions@@QEAA@PEAVQOpenGLContext@@@Z
        463  1CE 00006000 ??0QOpenGLFunctions@@QEAA@XZ
        464  1CF 00355310 ??0QOpenGLMultiGroupSharedResource@@QEAA@XZ
        465  1D0 00362130 ??0QOpenGLProgramBinaryCache@@QEAA@XZ
        466  1D1 003626E0 ??0QOpenGLProgramBinarySupportCheck@@QEAA@PEAVQOpenGLContext@@@Z
        467  1D2 00355340 ??0QOpenGLSharedResource@@QEAA@PEAVQOpenGLContextGroup@@@Z
        468  1D3 0008B710 ??0QOpenGLSharedResourceGuard@@QEAA@PEAVQOpenGLContext@@IP6AXPEAVQOpenGLFunctions@@I@Z@Z
        469  1D4 00025DF0 ??0QPageLayout@@QEAA@AEBV0@@Z
        470  1D5 00192730 ??0QPageLayout@@QEAA@AEBVQPageSize@@W4Orientation@0@AEBVQMarginsF@@W4Unit@0@2@Z
        471  1D6 00192850 ??0QPageLayout@@QEAA@XZ
        472  1D7 000014B0 ??0QPageRanges@@QEAA@$$QEAV0@@Z
        473  1D8 00025DF0 ??0QPageRanges@@QEAA@AEBV0@@Z
        474  1D9 00006000 ??0QPageRanges@@QEAA@XZ
        475  1DA 00197660 ??0QPageSize@@AEAA@AEAVQPageSizePrivate@@@Z
        476  1DB 00197670 ??0QPageSize@@AEAA@AEBVQString@@AEBVQSize@@0@Z
        477  1DC 001976D0 ??0QPageSize@@AEAA@HAEBVQSize@@AEBVQString@@@Z
        478  1DD 00025DF0 ??0QPageSize@@QEAA@AEBV0@@Z
        479  1DE 00197730 ??0QPageSize@@QEAA@AEBVQSize@@AEBVQString@@W4SizeMatchPolicy@0@@Z
        480  1DF 00197810 ??0QPageSize@@QEAA@AEBVQSizeF@@W4Unit@0@AEBVQString@@W4SizeMatchPolicy@0@@Z
        481  1E0 00197880 ??0QPageSize@@QEAA@W4PageSizeId@0@@Z
        482  1E1 00197930 ??0QPageSize@@QEAA@XZ
        483  1E2 00192210 ??0QPagedPaintDevice@@IEAA@PEAVQPagedPaintDevicePrivate@@@Z
        484  1E3 00192250 ??0QPagedPaintDevicePrivate@@QEAA@AEBV0@@Z
        485  1E4 001922A0 ??0QPagedPaintDevicePrivate@@QEAA@XZ
        486  1E5 0019B190 ??0QPaintDevice@@IEAA@XZ
        487  1E6 000AD850 ??0QPaintDeviceWindow@@IEAA@AEAVQPaintDeviceWindowPrivate@@PEAVQWindow@@@Z
        488  1E7 000AD8A0 ??0QPaintDeviceWindowPrivate@@QEAA@XZ
        489  1E8 0019B540 ??0QPaintEngine@@IEAA@AEAVQPaintEnginePrivate@@V?$QFlags@W4PaintEngineFeature@QPaintEngine@@@@@Z
        490  1E9 0019B570 ??0QPaintEngine@@QEAA@V?$QFlags@W4PaintEngineFeature@QPaintEngine@@@@@Z
        491  1EA 001B5360 ??0QPaintEngineEx@@IEAA@AEAVQPaintEngineExPrivate@@@Z
        492  1EB 001B5390 ??0QPaintEngineEx@@QEAA@XZ
        493  1EC 001B53E0 ??0QPaintEngineExPrivate@@QEAA@XZ
        494  1ED 00027040 ??0QPaintEnginePrivate@@QEAA@AEBV0@@Z
        495  1EE 00027110 ??0QPaintEnginePrivate@@QEAA@XZ
        496  1EF 000271B0 ??0QPaintEngineState@@QEAA@XZ
        497  1F0 0007E6B0 ??0QPaintEvent@@IEAA@AEBV0@@Z
        498  1F1 0007E700 ??0QPaintEvent@@QEAA@AEBVQRect@@@Z
        499  1F2 0007E750 ??0QPaintEvent@@QEAA@AEBVQRegion@@@Z
        500  1F3 001BB0C0 ??0QPainter@@QEAA@PEAVQPaintDevice@@@Z
        501  1F4 001BB130 ??0QPainter@@QEAA@XZ
        502  1F5 00025DF0 ??0QPainterPath@@QEAA@AEBV0@@Z
        503  1F6 001CEF10 ??0QPainterPath@@QEAA@AEBVQPointF@@@Z
        504  1F7 00006000 ??0QPainterPath@@QEAA@XZ
        505  1F8 001CF020 ??0QPainterPathStroker@@QEAA@AEBVQPen@@@Z
        506  1F9 001CF1D0 ??0QPainterPathStroker@@QEAA@XZ
        507  1FA 000271C0 ??0QPainterState@@QEAA@AEBV0@@Z
        508  1FB 001BB2F0 ??0QPainterState@@QEAA@PEBV0@@Z
        509  1FC 001BB590 ??0QPainterState@@QEAA@XZ
        510  1FD 0000F4F0 ??0QPalette@@QEAA@$$QEAV0@@Z
        511  1FE 000AE810 ??0QPalette@@QEAA@AEBV0@@Z
        512  1FF 000AE830 ??0QPalette@@QEAA@AEBVQBrush@@00000000@Z
        513  200 000AE990 ??0QPalette@@QEAA@AEBVQColor@@000000@Z
        514  201 000AEBC0 ??0QPalette@@QEAA@AEBVQColor@@0@Z
        515  202 000AEF30 ??0QPalette@@QEAA@AEBVQColor@@@Z
        516  203 000AF010 ??0QPalette@@QEAA@W4GlobalColor@Qt@@@Z
        517  204 000AF110 ??0QPalette@@QEAA@XZ
        518  205 000AF340 ??0QPalettePrivate@@QEAA@$$QEAV0@@Z
        519  206 000AF370 ??0QPalettePrivate@@QEAA@AEBV0@@Z
        520  207 000AF3A0 ??0QPalettePrivate@@QEAA@AEBV?$QExplicitlySharedDataPointer@VData@QPalettePrivate@@@@@Z
        521  208 000AF3E0 ??0QPalettePrivate@@QEAA@XZ
        522  209 001DD760 ??0QPathClipper@@QEAA@AEBVQPainterPath@@0@Z
        523  20A 000014B0 ??0QPen@@QEAA@$$QEAV0@@Z
        524  20B 00025DF0 ??0QPen@@QEAA@AEBV0@@Z
        525  20C 001EAD40 ??0QPen@@QEAA@AEBVQBrush@@NW4PenStyle@Qt@@W4PenCapStyle@3@W4PenJoinStyle@3@@Z
        526  20D 001EAE50 ??0QPen@@QEAA@AEBVQColor@@@Z
        527  20E 001EAF70 ??0QPen@@QEAA@W4PenStyle@Qt@@@Z
        528  20F 001EB210 ??0QPen@@QEAA@XZ
        529  210 00061460 ??0QPicture@@IEAA@AEAVQPicturePrivate@@@Z
        530  211 000614A0 ??0QPicture@@QEAA@AEBV0@@Z
        531  212 000614E0 ??0QPicture@@QEAA@H@Z
        532  213 00064930 ??0QPixmap@@AEAA@AEBVQSize@@H@Z
        533  214 00001510 ??0QPixmap@@QEAA@$$QEAV0@@Z
        534  215 00064A70 ??0QPixmap@@QEAA@AEBV0@@Z
        535  216 00064D60 ??0QPixmap@@QEAA@AEBVQSize@@@Z
        536  217 00064EA0 ??0QPixmap@@QEAA@AEBVQString@@PEBDV?$QFlags@W4ImageConversionFlag@Qt@@@@@Z
        537  218 00064F90 ??0QPixmap@@QEAA@HH@Z
        538  219 00064FC0 ??0QPixmap@@QEAA@PEAVQPlatformPixmap@@@Z
        539  21A 00065000 ??0QPixmap@@QEAA@QEBQEBD@Z
        540  21B 00065310 ??0QPixmap@@QEAA@XZ
        541  21C 0000F510 ??0QPixmapIconEngine@@QEAA@AEBV0@@Z
        542  21D 0000F560 ??0QPixmapIconEngine@@QEAA@XZ
        543  21E 000C1280 ??0QPlatformAccessibility@@QEAA@AEBV0@@Z
        544  21F 003EB740 ??0QPlatformAccessibility@@QEAA@XZ
        545  220 000FE430 ??0QPlatformBackingStore@@QEAA@AEBV0@@Z
        546  221 0020B290 ??0QPlatformBackingStore@@QEAA@PEAVQWindow@@@Z
        547  222 000FE450 ??0QPlatformBackingStoreRhiConfig@@QEAA@W4Api@0@@Z
        548  223 000FE460 ??0QPlatformBackingStoreRhiConfig@@QEAA@XZ
        549  224 00076040 ??0QPlatformClipboard@@QEAA@XZ
        550  225 000B8420 ??0QPlatformColorDialogHelper@@QEAA@XZ
        551  226 000B2F40 ??0QPlatformCursor@@QEAA@XZ
        552  227 00077AE0 ??0QPlatformCursorImage@@QEAA@$$QEAV0@@Z
        553  228 00077B30 ??0QPlatformCursorImage@@QEAA@AEBV0@@Z
        554  229 00077B60 ??0QPlatformCursorImage@@QEAA@PEBE0HHHH@Z
        555  22A 000B8490 ??0QPlatformDialogHelper@@QEAA@XZ
        556  22B 003F3DD0 ??0QPlatformDrag@@QEAA@XZ
        557  22C 003F3E00 ??0QPlatformDragQtResponse@@QEAA@_NW4DropAction@Qt@@VQRect@@@Z
        558  22D 003F3E20 ??0QPlatformDropQtResponse@@QEAA@_NW4DropAction@Qt@@@Z
        559  22E 000B84F0 ??0QPlatformFileDialogHelper@@QEAA@XZ
        560  22F 0008B760 ??0QPlatformFontDatabase@@QEAA@AEBV0@@Z
        561  230 0008B760 ??0QPlatformFontDatabase@@QEAA@XZ
        562  231 000B8560 ??0QPlatformFontDialogHelper@@QEAA@XZ
        563  232 000BCFB0 ??0QPlatformGraphicsBuffer@@IEAA@AEBVQSize@@AEBVQPixelFormat@@@Z
        564  233 000BF5F0 ??0QPlatformInputContext@@QEAA@XZ
        565  234 000C10F0 ??0QPlatformInputContextPlugin@@QEAA@PEAVQObject@@@Z
        566  235 0000B790 ??0QPlatformIntegration@@IEAA@XZ
        567  236 000C1D50 ??0QPlatformIntegrationPlugin@@QEAA@PEAVQObject@@@Z
        568  237 0008B770 ??0QPlatformKeyMapper@@QEAA@AEBV0@@Z
        569  238 0008B770 ??0QPlatformKeyMapper@@QEAA@XZ
        570  239 000C2750 ??0QPlatformMenu@@QEAA@XZ
        571  23A 000C2780 ??0QPlatformMenuBar@@QEAA@XZ
        572  23B 000C27B0 ??0QPlatformMenuItem@@QEAA@XZ
        573  23C 000B85D0 ??0QPlatformMessageDialogHelper@@QEAA@XZ
        574  23D 0008B780 ??0QPlatformNativeInterface@@QEAA@XZ
        575  23E 000C2EF0 ??0QPlatformOffscreenSurface@@QEAA@PEAVQOffscreenSurface@@@Z
        576  23F 0035B900 ??0QPlatformOpenGLContext@@QEAA@XZ
        577  240 00006010 ??0QPlatformPixmap@@QEAA@AEBV0@@Z
        578  241 0006E150 ??0QPlatformPixmap@@QEAA@W4PixelType@0@H@Z
        579  242 00006070 ??0QPlatformPlaceholderScreen@@QEAA@_N@Z
        580  243 000C30E0 ??0QPlatformScreen@@QEAA@XZ
        581  244 000C4C70 ??0QPlatformServiceColorPicker@@IEAA@AEAVQObjectPrivate@@PEAVQObject@@@Z
        582  245 000C4CA0 ??0QPlatformServiceColorPicker@@QEAA@PEAVQObject@@@Z
        583  246 000C4CD0 ??0QPlatformServiceColorPicker@@QEAA@XZ
        584  247 000C4D00 ??0QPlatformServices@@QEAA@XZ
        585  248 000C50A0 ??0QPlatformSessionManager@@QEAA@AEBVQString@@0@Z
        586  249 000C79A0 ??0QPlatformSharedGraphicsCache@@QEAA@PEAVQObject@@@Z
        587  24A 000C8000 ??0QPlatformSurface@@AEAA@PEAVQSurface@@@Z
        588  24B 0007E7A0 ??0QPlatformSurfaceEvent@@IEAA@AEBV0@@Z
        589  24C 0007E7E0 ??0QPlatformSurfaceEvent@@QEAA@W4SurfaceEventType@0@@Z
        590  24D 000C8860 ??0QPlatformSystemTrayIcon@@QEAA@XZ
        591  24E 0020B3D0 ??0QPlatformTextureList@@QEAA@PEAVQObject@@@Z
        592  24F 000C9EF0 ??0QPlatformTheme@@IEAA@PEAVQPlatformThemePrivate@@@Z
        593  250 000C9F10 ??0QPlatformTheme@@QEAA@XZ
        594  251 000CC9E0 ??0QPlatformThemePlugin@@QEAA@PEAVQObject@@@Z
        595  252 000C9F70 ??0QPlatformThemePrivate@@QEAA@AEBV0@@Z
        596  253 000C9FB0 ??0QPlatformThemePrivate@@QEAA@XZ
        597  254 000CCB70 ??0QPlatformWindow@@QEAA@PEAVQWindow@@@Z
        598  255 0007E820 ??0QPointerEvent@@IEAA@AEBV0@@Z
        599  256 0007E8A0 ??0QPointerEvent@@IEAA@W4Type@QEvent@@USinglePointEventTag@2@PEBVQInputDevice@@V?$QFlags@W4KeyboardModifier@Qt@@@@@Z
        600  257 0007E900 ??0QPointerEvent@@QEAA@W4Type@QEvent@@PEBVQPointingDevice@@V?$QFlags@W4KeyboardModifier@Qt@@@@AEBV?$QList@VQEventPoint@@@@@Z
        601  258 000CFBE0 ??0QPointingDevice@@IEAA@AEAVQPointingDevicePrivate@@PEAVQObject@@@Z
        602  259 000CFC10 ??0QPointingDevice@@QEAA@AEBVQString@@_JW4DeviceType@QInputDevice@@W4PointerType@0@V?$QFlags@W4Capability@QInputDevice@@@@HH0VQPointingDeviceUniqueId@@PEAVQObject@@@Z
        603  25A 000CFCD0 ??0QPointingDevice@@QEAA@PEAVQObject@@@Z
        604  25B 0007A5A0 ??0QPointingDevicePrivate@@QEAA@AEBVQString@@_JW4DeviceType@QInputDevice@@W4PointerType@QPointingDevice@@V?$QFlags@W4Capability@QInputDevice@@@@HH0VQPointingDeviceUniqueId@@@Z
        605  25C 00001550 ??0QPointingDeviceUniqueId@@QEAA@XZ
        606  25D 0020C910 ??0QPolygon@@QEAA@AEBVQRect@@_N@Z
        607  25E 0020D1E0 ??0QPolygon@@QEAA@HPEBH@Z
        608  25F 0020D2C0 ??0QPolygonF@@QEAA@AEBVQPolygon@@@Z
        609  260 0020D6A0 ??0QPolygonF@@QEAA@AEBVQRectF@@@Z
        610  261 0009FCE0 ??0QQuaternion@@QEAA@AEBVQVector4D@@@Z
        611  262 0009FD00 ??0QQuaternion@@QEAA@MAEBVQVector3D@@@Z
        612  263 0009FD20 ??0QQuaternion@@QEAA@MMMM@Z
        613  264 000016C0 ??0QQuaternion@@QEAA@W4Initialization@Qt@@@Z
        614  265 0009FD40 ??0QQuaternion@@QEAA@XZ
        615  266 00001450 ??0QRadialGradient@@QEAA@AEBV0@@Z
        616  267 0011F420 ??0QRadialGradient@@QEAA@AEBVQPointF@@N0@Z
        617  268 0011F4C0 ??0QRadialGradient@@QEAA@AEBVQPointF@@N0N@Z
        618  269 0011F510 ??0QRadialGradient@@QEAA@AEBVQPointF@@N@Z
        619  26A 0011F560 ??0QRadialGradient@@QEAA@NNN@Z
        620  26B 0011F5A0 ??0QRadialGradient@@QEAA@NNNNN@Z
        621  26C 0011F650 ??0QRadialGradient@@QEAA@NNNNNN@Z
        622  26D 0011F6A0 ??0QRadialGradient@@QEAA@XZ
        623  26E 001A20F0 ??0QRasterPaintEngine@@IEAA@AEAVQRasterPaintEnginePrivate@@PEAVQPaintDevice@@@Z
        624  26F 001A2130 ??0QRasterPaintEngine@@QEAA@PEAVQPaintDevice@@@Z
        625  270 000653F0 ??0QRasterPlatformPixmap@@QEAA@AEBV0@@Z
        626  271 00068FA0 ??0QRasterPlatformPixmap@@QEAA@W4PixelType@QPlatformPixmap@@@Z
        627  272 000D3960 ??0QRasterWindow@@QEAA@PEAVQWindow@@@Z
        628  273 002A68A0 ??0QRawFont@@QEAA@AEBV0@@Z
        629  274 002A6940 ??0QRawFont@@QEAA@AEBVQByteArray@@NW4HintingPreference@QFont@@@Z
        630  275 002A69B0 ??0QRawFont@@QEAA@AEBVQString@@NW4HintingPreference@QFont@@@Z
        631  276 002A6A20 ??0QRawFont@@QEAA@XZ
        632  277 001BB760 ??0QRawFontPrivate@@QEAA@AEBV0@@Z
        633  278 00027AC0 ??0QRawFontPrivate@@QEAA@XZ
        634  279 00001560 ??0QRegion@@QEAA@$$QEAV0@@Z
        635  27A 002148D0 ??0QRegion@@QEAA@AEBV0@@Z
        636  27B 002148F0 ??0QRegion@@QEAA@AEBVQBitmap@@@Z
        637  27C 00214960 ??0QRegion@@QEAA@AEBVQPolygon@@W4FillRule@Qt@@@Z
        638  27D 002149E0 ??0QRegion@@QEAA@AEBVQRect@@W4RegionType@0@@Z
        639  27E 00214C00 ??0QRegion@@QEAA@HHHHW4RegionType@0@@Z
        640  27F 00214CD0 ??0QRegion@@QEAA@XZ
        641  280 00341AA0 ??0QRegularExpressionValidator@@QEAA@AEBVQRegularExpression@@PEAVQObject@@@Z
        642  281 00341B50 ??0QRegularExpressionValidator@@QEAA@PEAVQObject@@@Z
        643  282 0007E980 ??0QResizeEvent@@IEAA@AEBV0@@Z
        644  283 0007E9C0 ??0QResizeEvent@@QEAA@AEBVQSize@@0@Z
        645  284 00006000 ??0QRhi@@IEAA@XZ
        646  285 0023C3C0 ??0QRhiBuffer@@IEAA@PEAVQRhiImplementation@@W4Type@0@V?$QFlags@W4UsageFlag@QRhiBuffer@@@@I@Z
        647  286 0023C430 ??0QRhiColorAttachment@@QEAA@PEAVQRhiRenderBuffer@@@Z
        648  287 0023C450 ??0QRhiColorAttachment@@QEAA@PEAVQRhiTexture@@@Z
        649  288 000FFAE0 ??0QRhiColorAttachment@@QEAA@XZ
        650  289 0023C470 ??0QRhiCommandBuffer@@IEAA@PEAVQRhiImplementation@@@Z
        651  28A 0023C4C0 ??0QRhiComputePipeline@@IEAA@PEAVQRhiImplementation@@@Z
        652  28B 000FFB00 ??0QRhiD3D11InitParams@@QEAA@XZ
        653  28C 000FFB10 ??0QRhiD3D11NativeHandles@@QEAA@XZ
        654  28D 00006000 ??0QRhiD3D12CommandBufferNativeHandles@@QEAA@XZ
        655  28E 000FFB00 ??0QRhiD3D12InitParams@@QEAA@XZ
        656  28F 000FFB30 ??0QRhiD3D12NativeHandles@@QEAA@XZ
        657  290 0023C530 ??0QRhiDepthStencilClearValue@@QEAA@MI@Z
        658  291 000FFB50 ??0QRhiDepthStencilClearValue@@QEAA@XZ
        659  292 000FFB60 ??0QRhiDriverInfo@@QEAA@$$QEAU0@@Z
        660  293 000FFBA0 ??0QRhiDriverInfo@@QEAA@AEBU0@@Z
        661  294 000FFBE0 ??0QRhiDriverInfo@@QEAA@XZ
        662  295 000FFC10 ??0QRhiGles2InitParams@@QEAA@$$QEAU0@@Z
        663  296 000FFC10 ??0QRhiGles2InitParams@@QEAA@AEBU0@@Z
        664  297 00369130 ??0QRhiGles2InitParams@@QEAA@XZ
        665  298 00006000 ??0QRhiGles2NativeHandles@@QEAA@XZ
        666  299 0023C540 ??0QRhiGraphicsPipeline@@IEAA@PEAVQRhiImplementation@@@Z
        667  29A 0023C6C0 ??0QRhiReadbackDescription@@QEAA@PEAVQRhiTexture@@@Z
        668  29B 00027880 ??0QRhiReadbackDescription@@QEAA@XZ
        669  29C 000FFC50 ??0QRhiReadbackResult@@QEAA@$$QEAU0@@Z
        670  29D 000FFCF0 ??0QRhiReadbackResult@@QEAA@AEBU0@@Z
        671  29E 000FFD50 ??0QRhiReadbackResult@@QEAA@XZ
        672  29F 0023C6D0 ??0QRhiRenderBuffer@@IEAA@PEAVQRhiImplementation@@W4Type@0@AEBVQSize@@HV?$QFlags@W4Flag@QRhiRenderBuffer@@@@W4Format@QRhiTexture@@@Z
        673  2A0 0023C760 ??0QRhiRenderPassDescriptor@@IEAA@PEAVQRhiImplementation@@@Z
        674  2A1 0023C7B0 ??0QRhiRenderTarget@@IEAA@PEAVQRhiImplementation@@@Z
        675  2A2 0023C810 ??0QRhiResource@@IEAA@PEAVQRhiImplementation@@@Z
        676  2A3 0023C850 ??0QRhiResourceUpdateBatch@@AEAA@PEAVQRhiImplementation@@@Z
        677  2A4 0023C8E0 ??0QRhiSampler@@IEAA@PEAVQRhiImplementation@@W4Filter@0@11W4AddressMode@0@22@Z
        678  2A5 0023C970 ??0QRhiScissor@@QEAA@HHHH@Z
        679  2A6 00027880 ??0QRhiScissor@@QEAA@XZ
        680  2A7 000FFD80 ??0QRhiShaderResourceBinding@@QEAA@XZ
        681  2A8 0023C990 ??0QRhiShaderResourceBindings@@IEAA@PEAVQRhiImplementation@@@Z
        682  2A9 000FFD90 ??0QRhiShaderStage@@QEAA@$$QEAV0@@Z
        683  2AA 000FFDB0 ??0QRhiShaderStage@@QEAA@AEBV0@@Z
        684  2AB 0023CAC0 ??0QRhiShaderStage@@QEAA@W4Type@0@AEBVQShader@@W4Variant@2@@Z
        685  2AC 000FFDF0 ??0QRhiShaderStage@@QEAA@XZ
        686  2AD 000FFE20 ??0QRhiStats@@QEAA@XZ
        687  2AE 0023CAF0 ??0QRhiSwapChain@@IEAA@PEAVQRhiImplementation@@@Z
        688  2AF 0023CB70 ??0QRhiSwapChainRenderTarget@@IEAA@PEAVQRhiImplementation@@PEAVQRhiSwapChain@@@Z
        689  2B0 0023CBE0 ??0QRhiTexture@@IEAA@PEAVQRhiImplementation@@W4Format@0@AEBVQSize@@HHHV?$QFlags@W4Flag@QRhiTexture@@@@@Z
        690  2B1 000FFE40 ??0QRhiTextureCopyDescription@@QEAA@XZ
        691  2B2 0023CC80 ??0QRhiTextureRenderTarget@@IEAA@PEAVQRhiImplementation@@AEBVQRhiTextureRenderTargetDescription@@V?$QFlags@W4Flag@QRhiTextureRenderTarget@@@@@Z
        692  2B3 000FFE60 ??0QRhiTextureRenderTargetDescription@@QEAA@$$QEAV0@@Z
        693  2B4 000FFF00 ??0QRhiTextureRenderTargetDescription@@QEAA@AEBV0@@Z
        694  2B5 0023CD50 ??0QRhiTextureRenderTargetDescription@@QEAA@AEBVQRhiColorAttachment@@@Z
        695  2B6 0023CDA0 ??0QRhiTextureRenderTargetDescription@@QEAA@AEBVQRhiColorAttachment@@PEAVQRhiRenderBuffer@@@Z
        696  2B7 0023CDF0 ??0QRhiTextureRenderTargetDescription@@QEAA@AEBVQRhiColorAttachment@@PEAVQRhiTexture@@@Z
        697  2B8 000FFF70 ??0QRhiTextureRenderTargetDescription@@QEAA@XZ
        698  2B9 000FFFA0 ??0QRhiTextureSubresourceUploadDescription@@QEAA@$$QEAV0@@Z
        699  2BA 00100010 ??0QRhiTextureSubresourceUploadDescription@@QEAA@AEBV0@@Z
        700  2BB 0023CE40 ??0QRhiTextureSubresourceUploadDescription@@QEAA@AEBVQByteArray@@@Z
        701  2BC 0023CE90 ??0QRhiTextureSubresourceUploadDescription@@QEAA@AEBVQImage@@@Z
        702  2BD 0023CED0 ??0QRhiTextureSubresourceUploadDescription@@QEAA@PEBXI@Z
        703  2BE 00100060 ??0QRhiTextureSubresourceUploadDescription@@QEAA@XZ
        704  2BF 001000A0 ??0QRhiTextureUploadDescription@@QEAA@$$QEAV0@@Z
        705  2C0 00100120 ??0QRhiTextureUploadDescription@@QEAA@AEBV0@@Z
        706  2C1 0023CF30 ??0QRhiTextureUploadDescription@@QEAA@AEBVQRhiTextureUploadEntry@@@Z
        707  2C2 0023CFC0 ??0QRhiTextureUploadDescription@@QEAA@V?$initializer_list@VQRhiTextureUploadEntry@@@std@@@Z
        708  2C3 00100160 ??0QRhiTextureUploadDescription@@QEAA@XZ
        709  2C4 00100180 ??0QRhiTextureUploadEntry@@QEAA@$$QEAV0@@Z
        710  2C5 00100210 ??0QRhiTextureUploadEntry@@QEAA@AEBV0@@Z
        711  2C6 0023D060 ??0QRhiTextureUploadEntry@@QEAA@HHAEBVQRhiTextureSubresourceUploadDescription@@@Z
        712  2C7 00100280 ??0QRhiTextureUploadEntry@@QEAA@XZ
        713  2C8 0023D0D0 ??0QRhiVertexInputAttribute@@QEAA@HHW4Format@0@IH@Z
        714  2C9 001002D0 ??0QRhiVertexInputAttribute@@QEAA@XZ
        715  2CA 0023D0F0 ??0QRhiVertexInputBinding@@QEAA@IW4Classification@0@I@Z
        716  2CB 001002F0 ??0QRhiVertexInputBinding@@QEAA@XZ
        717  2CC 00100300 ??0QRhiVertexInputLayout@@QEAA@$$QEAV0@@Z
        718  2CD 001003F0 ??0QRhiVertexInputLayout@@QEAA@AEBV0@@Z
        719  2CE 00100460 ??0QRhiVertexInputLayout@@QEAA@XZ
        720  2CF 0023D100 ??0QRhiViewport@@QEAA@MMMMMM@Z
        721  2D0 001004A0 ??0QRhiViewport@@QEAA@XZ
        722  2D1 000D4820 ??0QScreen@@AEAA@PEAVQPlatformScreen@@@Z
        723  2D2 0007EA10 ??0QScreenOrientationChangeEvent@@IEAA@AEBV0@@Z
        724  2D3 0007EA50 ??0QScreenOrientationChangeEvent@@QEAA@PEAVQScreen@@W4ScreenOrientation@Qt@@@Z
        725  2D4 0007EAA0 ??0QScrollEvent@@IEAA@AEBV0@@Z
        726  2D5 0007EAF0 ??0QScrollEvent@@QEAA@AEBVQPointF@@0W4ScrollState@0@@Z
        727  2D6 0007EB50 ??0QScrollPrepareEvent@@IEAA@AEBV0@@Z
        728  2D7 0007EBB0 ??0QScrollPrepareEvent@@QEAA@AEBVQPointF@@@Z
        729  2D8 000D6BD0 ??0QSessionManager@@AEAA@PEAVQGuiApplication@@AEAVQString@@1@Z
        730  2D9 000D6CB0 ??0QSessionManagerPrivate@@QEAA@AEBVQString@@0@Z
        731  2DA 000014B0 ??0QShader@@QEAA@$$QEAV0@@Z
        732  2DB 00025DF0 ??0QShader@@QEAA@AEBV0@@Z
        733  2DC 00006000 ??0QShader@@QEAA@XZ
        734  2DD 001004C0 ??0QShaderCode@@QEAA@$$QEAV0@@Z
        735  2DE 00100500 ??0QShaderCode@@QEAA@AEBV0@@Z
        736  2DF 0024D5C0 ??0QShaderCode@@QEAA@AEBVQByteArray@@0@Z
        737  2E0 00100540 ??0QShaderCode@@QEAA@XZ
        738  2E1 000DAFD0 ??0QShaderDescription@@QEAA@AEBV0@@Z
        739  2E2 00258DE0 ??0QShaderDescription@@QEAA@XZ
        740  2E3 00258EE0 ??0QShaderDescriptionPrivate@@QEAA@AEBU0@@Z
        741  2E4 00259110 ??0QShaderDescriptionPrivate@@QEAA@XZ
        742  2E5 0024D600 ??0QShaderKey@@QEAA@W4Source@QShader@@AEBVQShaderVersion@@W4Variant@2@@Z
        743  2E6 00100570 ??0QShaderKey@@QEAA@XZ
        744  2E7 0024D620 ??0QShaderPrivate@@QEAA@AEBU0@@Z
        745  2E8 0024D6A0 ??0QShaderPrivate@@QEAA@XZ
        746  2E9 0024D6F0 ??0QShaderVersion@@QEAA@HV?$QFlags@W4Flag@QShaderVersion@@@@@Z
        747  2EA 00100590 ??0QShaderVersion@@QEAA@XZ
        748  2EB 003FA630 ??0QShortcut@@QEAA@AEBVQKeySequence@@PEAVQObject@@PEBD2W4ShortcutContext@Qt@@@Z
        749  2EC 003FA760 ??0QShortcut@@QEAA@PEAVQObject@@@Z
        750  2ED 003FA7B0 ??0QShortcut@@QEAA@W4StandardKey@QKeySequence@@PEAVQObject@@PEBD2W4ShortcutContext@Qt@@@Z
        751  2EE 0007EC20 ??0QShortcutEvent@@IEAA@AEBV0@@Z
        752  2EF 0007EC70 ??0QShortcutEvent@@QEAA@AEBVQKeySequence@@H_N@Z
        753  2F0 0007ECE0 ??0QShortcutEvent@@QEAA@AEBVQKeySequence@@PEBVQShortcut@@_N@Z
        754  2F1 003FBBB0 ??0QShortcutMap@@QEAA@XZ
        755  2F2 0007EE30 ??0QShortcutPrivate@@QEAA@XZ
        756  2F3 0007EEB0 ??0QShowEvent@@IEAA@AEBV0@@Z
        757  2F4 0007EEE0 ??0QShowEvent@@QEAA@XZ
        758  2F5 003F4820 ??0QSimpleDrag@@QEAA@XZ
        759  2F6 0007EF10 ??0QSinglePointEvent@@IEAA@AEBV0@@Z
        760  2F7 0007F000 ??0QSinglePointEvent@@IEAA@W4Type@QEvent@@PEBVQPointingDevice@@AEBVQEventPoint@@W4MouseButton@Qt@@V?$QFlags@W4MouseButton@Qt@@@@V?$QFlags@W4KeyboardModifier@Qt@@@@W4MouseEventSource@6@@Z
        761  2F8 0007F290 ??0QSinglePointEvent@@IEAA@W4Type@QEvent@@PEBVQPointingDevice@@AEBVQPointF@@22W4MouseButton@Qt@@V?$QFlags@W4MouseButton@Qt@@@@V?$QFlags@W4KeyboardModifier@Qt@@@@W4MouseEventSource@6@@Z
        762  2F9 00027450 ??0QStackTextEngine@@QEAA@$$QEAV0@@Z
        763  2FA 00027450 ??0QStackTextEngine@@QEAA@AEBV0@@Z
        764  2FB 002F2080 ??0QStackTextEngine@@QEAA@AEBVQString@@AEBVQFont@@@Z
        765  2FC 00348380 ??0QStandardItem@@IEAA@AEAVQStandardItemPrivate@@@Z
        766  2FD 003483A0 ??0QStandardItem@@IEAA@AEBV0@@Z
        767  2FE 00348420 ??0QStandardItem@@QEAA@AEBVQIcon@@AEBVQString@@@Z
        768  2FF 00348510 ??0QStandardItem@@QEAA@AEBVQString@@@Z
        769  300 003485D0 ??0QStandardItem@@QEAA@HH@Z
        770  301 00348660 ??0QStandardItem@@QEAA@XZ
        771  302 003486C0 ??0QStandardItemModel@@IEAA@AEAVQStandardItemModelPrivate@@PEAVQObject@@@Z
        772  303 00348790 ??0QStandardItemModel@@QEAA@HHPEAVQObject@@@Z
        773  304 003488A0 ??0QStandardItemModel@@QEAA@PEAVQObject@@@Z
        774  305 002A8840 ??0QStaticText@@QEAA@AEBV0@@Z
        775  306 002A8890 ??0QStaticText@@QEAA@AEBVQString@@@Z
        776  307 002A88F0 ??0QStaticText@@QEAA@XZ
        777  308 001A25B0 ??0QStaticTextItem@@QEAA@$$QEAV0@@Z
        778  309 001A2650 ??0QStaticTextItem@@QEAA@AEBV0@@Z
        779  30A 001A26F0 ??0QStaticTextItem@@QEAA@XZ
        780  30B 001A2730 ??0QStaticTextUserData@@QEAA@AEBV0@@Z
        781  30C 001A2760 ??0QStaticTextUserData@@QEAA@W4Type@0@@Z
        782  30D 0007F770 ??0QStatusTipEvent@@IEAA@AEBV0@@Z
        783  30E 0007F7B0 ??0QStatusTipEvent@@QEAA@AEBVQString@@@Z
        784  30F 0021DAF0 ??0QStroker@@QEAA@XZ
        785  310 0021DB90 ??0QStrokerOps@@QEAA@XZ
        786  311 000D7CD0 ??0QStyleHints@@AEAA@XZ
        787  312 000DAFD0 ??0QSupportedWritingSystems@@QEAA@AEBV0@@Z
        788  313 002A53C0 ??0QSupportedWritingSystems@@QEAA@XZ
        789  314 000DA2D0 ??0QSurface@@IEAA@W4SurfaceClass@0@@Z
        790  315 00001580 ??0QSurface@@QEAA@AEBV0@@Z
        791  316 000DAFD0 ??0QSurfaceFormat@@QEAA@AEBV0@@Z
        792  317 000DAFE0 ??0QSurfaceFormat@@QEAA@V?$QFlags@W4FormatOption@QSurfaceFormat@@@@@Z
        793  318 000DB050 ??0QSurfaceFormat@@QEAA@XZ
        794  319 002AB130 ??0QSyntaxHighlighter@@QEAA@PEAVQObject@@@Z
        795  31A 002AB300 ??0QSyntaxHighlighter@@QEAA@PEAVQTextDocument@@@Z
        796  31B 0007F7F0 ??0QTabletEvent@@IEAA@AEBV0@@Z
        797  31C 0007F840 ??0QTabletEvent@@QEAA@W4Type@QEvent@@PEBVQPointingDevice@@AEBVQPointF@@2NMMMNMV?$QFlags@W4KeyboardModifier@Qt@@@@W4MouseButton@Qt@@V?$QFlags@W4MouseButton@Qt@@@@@Z
        798  31D 000275A0 ??0QTextBlock@@QEAA@AEBV0@@Z
        799  31E 000275B0 ??0QTextBlock@@QEAA@PEAVQTextDocumentPrivate@@H@Z
        800  31F 000275C0 ??0QTextBlock@@QEAA@XZ
        801  320 00273E30 ??0QTextBlockFormat@@IEAA@AEBVQTextFormat@@@Z
        802  321 000275D0 ??0QTextBlockFormat@@QEAA@$$QEAV0@@Z
        803  322 000275D0 ??0QTextBlockFormat@@QEAA@AEBV0@@Z
        804  323 00301D50 ??0QTextBlockFormat@@QEAA@XZ
        805  324 00325420 ??0QTextBlockGroup@@IEAA@AEAVQTextBlockGroupPrivate@@PEAVQTextDocument@@@Z
        806  325 00325450 ??0QTextBlockGroup@@IEAA@PEAVQTextDocument@@@Z
        807  326 000275F0 ??0QTextBlockUserData@@QEAA@AEBV0@@Z
        808  327 000275F0 ??0QTextBlockUserData@@QEAA@XZ
        809  328 00273E30 ??0QTextCharFormat@@IEAA@AEBVQTextFormat@@@Z
        810  329 000275D0 ??0QTextCharFormat@@QEAA@$$QEAV0@@Z
        811  32A 000275D0 ??0QTextCharFormat@@QEAA@AEBV0@@Z
        812  32B 00301D70 ??0QTextCharFormat@@QEAA@XZ
        813  32C 002ACD40 ??0QTextCursor@@QEAA@AEBV0@@Z
        814  32D 002ACDB0 ??0QTextCursor@@QEAA@AEBVQTextBlock@@@Z
        815  32E 002ACE50 ??0QTextCursor@@QEAA@PEAVQTextCursorPrivate@@@Z
        816  32F 002ACEC0 ??0QTextCursor@@QEAA@PEAVQTextDocument@@@Z
        817  330 002ACF30 ??0QTextCursor@@QEAA@PEAVQTextDocumentPrivate@@H@Z
        818  331 002ACFE0 ??0QTextCursor@@QEAA@PEAVQTextFrame@@@Z
        819  332 00006000 ??0QTextCursor@@QEAA@XZ
        820  333 002AD090 ??0QTextCursorPrivate@@QEAA@AEBV0@@Z
        821  334 002AD120 ??0QTextCursorPrivate@@QEAA@PEAVQTextDocumentPrivate@@@Z
        822  335 002B5380 ??0QTextDocument@@IEAA@AEAVQTextDocumentPrivate@@PEAVQObject@@@Z
        823  336 002B53B0 ??0QTextDocument@@QEAA@AEBVQString@@PEAVQObject@@@Z
        824  337 002B5440 ??0QTextDocument@@QEAA@PEAVQObject@@@Z
        825  338 00025DF0 ??0QTextDocumentFragment@@QEAA@AEBV0@@Z
        826  339 002D22B0 ??0QTextDocumentFragment@@QEAA@AEBVQTextCursor@@@Z
        827  33A 002D2300 ??0QTextDocumentFragment@@QEAA@PEBVQTextDocument@@@Z
        828  33B 00006000 ??0QTextDocumentFragment@@QEAA@XZ
        829  33C 002D93B0 ??0QTextDocumentLayout@@QEAA@PEAVQTextDocument@@@Z
        830  33D 002C65B0 ??0QTextDocumentPrivate@@QEAA@XZ
        831  33E 002EE290 ??0QTextDocumentWriter@@QEAA@AEBVQString@@AEBVQByteArray@@@Z
        832  33F 002EE300 ??0QTextDocumentWriter@@QEAA@PEAVQIODevice@@AEBVQByteArray@@@Z
        833  340 002EE370 ??0QTextDocumentWriter@@QEAA@XZ
        834  341 00027600 ??0QTextEngine@@QEAA@AEBV0@@Z
        835  342 002F20E0 ??0QTextEngine@@QEAA@AEBVQString@@AEBVQFont@@@Z
        836  343 002F21D0 ??0QTextEngine@@QEAA@XZ
        837  344 00273E30 ??0QTextFormat@@QEAA@AEBV0@@Z
        838  345 00301D90 ??0QTextFormat@@QEAA@H@Z
        839  346 00301DA0 ??0QTextFormat@@QEAA@XZ
        840  347 00027800 ??0QTextFormatCollection@@QEAA@XZ
        841  348 00027850 ??0QTextFragment@@QEAA@AEBV0@@Z
        842  349 00027870 ??0QTextFragment@@QEAA@PEBVQTextDocumentPrivate@@HH@Z
        843  34A 00027880 ??0QTextFragment@@QEAA@XZ
        844  34B 003254F0 ??0QTextFrame@@IEAA@AEAVQTextFramePrivate@@PEAVQTextDocument@@@Z
        845  34C 00325520 ??0QTextFrame@@QEAA@PEAVQTextDocument@@@Z
        846  34D 00273E30 ??0QTextFrameFormat@@IEAA@AEBVQTextFormat@@@Z
        847  34E 000275D0 ??0QTextFrameFormat@@QEAA@$$QEAV0@@Z
        848  34F 000275D0 ??0QTextFrameFormat@@QEAA@AEBV0@@Z
        849  350 00301DC0 ??0QTextFrameFormat@@QEAA@XZ
        850  351 00027890 ??0QTextFrameLayoutData@@QEAA@AEBV0@@Z
        851  352 00027890 ??0QTextFrameLayoutData@@QEAA@XZ
        852  353 00273E30 ??0QTextImageFormat@@IEAA@AEBVQTextFormat@@@Z
        853  354 000275D0 ??0QTextImageFormat@@QEAA@$$QEAV0@@Z
        854  355 000275D0 ??0QTextImageFormat@@QEAA@AEBV0@@Z
        855  356 00302140 ??0QTextImageFormat@@QEAA@XZ
        856  357 003184A0 ??0QTextImageHandler@@QEAA@PEAVQObject@@@Z
        857  358 000278A0 ??0QTextInlineObject@@QEAA@HPEAVQTextEngine@@@Z
        858  359 000278B0 ??0QTextInlineObject@@QEAA@XZ
        859  35A 000278C0 ??0QTextLayout@@AEAA@PEAVQTextEngine@@@Z
        860  35B 003196C0 ??0QTextLayout@@QEAA@AEBVQString@@@Z
        861  35C 00319700 ??0QTextLayout@@QEAA@AEBVQString@@AEBVQFont@@PEBVQPaintDevice@@@Z
        862  35D 00319820 ??0QTextLayout@@QEAA@AEBVQTextBlock@@@Z
        863  35E 00319860 ??0QTextLayout@@QEAA@XZ
        864  35F 000278D0 ??0QTextLength@@QEAA@W4Type@0@N@Z
        865  360 000278B0 ??0QTextLength@@QEAA@XZ
        866  361 000278A0 ??0QTextLine@@AEAA@HPEAVQTextEngine@@@Z
        867  362 000278B0 ??0QTextLine@@QEAA@XZ
        868  363 00324500 ??0QTextList@@QEAA@PEAVQTextDocument@@@Z
        869  364 00273E30 ??0QTextListFormat@@IEAA@AEBVQTextFormat@@@Z
        870  365 000275D0 ??0QTextListFormat@@QEAA@$$QEAV0@@Z
        871  366 000275D0 ??0QTextListFormat@@QEAA@AEBV0@@Z
        872  367 00302310 ??0QTextListFormat@@QEAA@XZ
        873  368 002B5520 ??0QTextMarkdownImporter@@QEAA@$$QEAV0@@Z
        874  369 002B5700 ??0QTextMarkdownImporter@@QEAA@AEBV0@@Z
        875  36A 004227F0 ??0QTextMarkdownImporter@@QEAA@PEAVQTextDocument@@V?$QFlags@W4Feature@QTextMarkdownImporter@@@@@Z
        876  36B 004228D0 ??0QTextMarkdownImporter@@QEAA@PEAVQTextDocument@@V?$QFlags@W4MarkdownFeature@QTextDocument@@@@@Z
        877  36C 002B58C0 ??0QTextMarkdownWriter@@QEAA@$$QEAV0@@Z
        878  36D 00432380 ??0QTextMarkdownWriter@@QEAA@AEAVQTextStream@@V?$QFlags@W4MarkdownFeature@QTextDocument@@@@@Z
        879  36E 002B5940 ??0QTextMarkdownWriter@@QEAA@AEBV0@@Z
        880  36F 003255D0 ??0QTextObject@@IEAA@AEAVQTextObjectPrivate@@PEAVQTextDocument@@@Z
        881  370 00325600 ??0QTextObject@@IEAA@PEAVQTextDocument@@@Z
        882  371 00264700 ??0QTextObjectInterface@@QEAA@AEBV0@@Z
        883  372 00264700 ??0QTextObjectInterface@@QEAA@XZ
        884  373 00329BF0 ??0QTextOption@@QEAA@AEBV0@@Z
        885  374 00329CB0 ??0QTextOption@@QEAA@V?$QFlags@W4AlignmentFlag@Qt@@@@@Z
        886  375 00329D10 ??0QTextOption@@QEAA@XZ
        887  376 0032A9A0 ??0QTextTable@@QEAA@PEAVQTextDocument@@@Z
        888  377 000275B0 ??0QTextTableCell@@AEAA@PEBVQTextTable@@H@Z
        889  378 000275A0 ??0QTextTableCell@@QEAA@AEBV0@@Z
        890  379 00006000 ??0QTextTableCell@@QEAA@XZ
        891  37A 00273E30 ??0QTextTableCellFormat@@IEAA@AEBVQTextFormat@@@Z
        892  37B 000275D0 ??0QTextTableCellFormat@@QEAA@$$QEAV0@@Z
        893  37C 000275D0 ??0QTextTableCellFormat@@QEAA@AEBV0@@Z
        894  37D 00302670 ??0QTextTableCellFormat@@QEAA@XZ
        895  37E 00273E30 ??0QTextTableFormat@@IEAA@AEBVQTextFormat@@@Z
        896  37F 000275D0 ??0QTextTableFormat@@QEAA@$$QEAV0@@Z
        897  380 000275D0 ??0QTextTableFormat@@QEAA@AEBV0@@Z
        898  381 00302840 ??0QTextTableFormat@@QEAA@XZ
        899  382 00025DF0 ??0QTextureFileData@@QEAA@AEBV0@@Z
        900  383 0033E4D0 ??0QTextureFileData@@QEAA@W4Mode@0@@Z
        901  384 003406B0 ??0QTextureFileReader@@QEAA@AEBV0@@Z
        902  385 00340700 ??0QTextureFileReader@@QEAA@PEAVQIODevice@@AEBVQString@@@Z
        903  386 000278E0 ??0QTextureGlyphCache@@QEAA@AEBV0@@Z
        904  387 000279C0 ??0QTextureGlyphCache@@QEAA@W4GlyphFormat@QFontEngine@@AEBVQTransform@@AEBVQColor@@@Z
        905  388 0007F930 ??0QToolBarChangeEvent@@IEAA@AEBV0@@Z
        906  389 0007F970 ??0QToolBarChangeEvent@@QEAA@_N@Z
        907  38A 0007F9B0 ??0QTouchEvent@@IEAA@AEBV0@@Z
        908  38B 0007FA50 ??0QTouchEvent@@QEAA@W4Type@QEvent@@PEBVQPointingDevice@@V?$QFlags@W4KeyboardModifier@Qt@@@@AEBV?$QList@VQEventPoint@@@@@Z
        909  38C 0007FB60 ??0QTouchEvent@@QEAA@W4Type@QEvent@@PEBVQPointingDevice@@V?$QFlags@W4KeyboardModifier@Qt@@@@V?$QFlags@W4State@QEventPoint@@@@AEBV?$QList@VQEventPoint@@@@@Z
        910  38D 000DC0C0 ??0QTouchEventSequence@QTest@@IEAA@PEAVQWindow@@PEAVQPointingDevice@@_N@Z
        911  38E 000DC0F0 ??0QTouchEventSequence@QTest@@QEAA@AEBV01@@Z
        912  38F 000015A0 ??0QTransform@@QEAA@$$QEAV0@@Z
        913  390 000015A0 ??0QTransform@@QEAA@AEBV0@@Z
        914  391 000015F0 ??0QTransform@@QEAA@NNNNNN@Z
        915  392 00001650 ??0QTransform@@QEAA@NNNNNNNNN@Z
        916  393 000016C0 ??0QTransform@@QEAA@W4Initialization@Qt@@@Z
        917  394 000016D0 ??0QTransform@@QEAA@XZ
        918  395 002297C0 ??0QTriangulatingStroker@@QEAA@XZ
        919  396 0045CAF0 ??0QUndoCommand@@QEAA@AEBVQString@@PEAV0@@Z
        920  397 0045CBC0 ??0QUndoCommand@@QEAA@PEAV0@@Z
        921  398 0045FDF0 ??0QUndoGroup@@QEAA@PEAVQObject@@@Z
        922  399 0045CC70 ??0QUndoStack@@QEAA@PEAVQObject@@@Z
        923  39A 00341BF0 ??0QValidator@@IEAA@AEAVQObjectPrivate@@PEAVQObject@@@Z
        924  39B 00341BF0 ??0QValidator@@IEAA@AEAVQValidatorPrivate@@PEAVQObject@@@Z
        925  39C 00341C20 ??0QValidator@@QEAA@PEAVQObject@@@Z
        926  39D 00027A40 ??0QVectorPath@@QEAA@PEBNHPEBW4ElementType@QPainterPath@@I@Z
        927  39E 0000B7A0 ??0QWGLContext@QNativeInterface@@QEAA@XZ
        928  39F 0007FC70 ??0QWhatsThisClickedEvent@@IEAA@AEBV0@@Z
        929  3A0 0007FCB0 ??0QWhatsThisClickedEvent@@QEAA@AEBVQString@@@Z
        930  3A1 0007FCF0 ??0QWheelEvent@@IEAA@AEBV0@@Z
        931  3A2 0007FD30 ??0QWheelEvent@@QEAA@AEBVQPointF@@0VQPoint@@1V?$QFlags@W4MouseButton@Qt@@@@V?$QFlags@W4KeyboardModifier@Qt@@@@W4ScrollPhase@Qt@@_NW4MouseEventSource@6@PEBVQPointingDevice@@@Z
        932  3A3 000DF460 ??0QWindow@@IEAA@AEAVQWindowPrivate@@PEAV0@@Z
        933  3A4 000DF540 ??0QWindow@@QEAA@PEAV0@@Z
        934  3A5 000DF5A0 ??0QWindow@@QEAA@PEAVQScreen@@@Z
        935  3A6 000DF620 ??0QWindowPrivate@@QEAA@XZ
        936  3A7 0007FDF0 ??0QWindowStateChangeEvent@@IEAA@AEBV0@@Z
        937  3A8 0007FE30 ??0QWindowStateChangeEvent@@QEAA@V?$QFlags@W4WindowState@Qt@@@@_N@Z
        938  3A9 00008C40 ??0QWindowSystemEventHandler@@QEAA@AEBV0@@Z
        939  3AA 00008C40 ??0QWindowSystemEventHandler@@QEAA@XZ
        940  3AB 00008C50 ??0QWindowsApplication@Private@QNativeInterface@@QEAA@XZ
        941  3AC 004571F0 ??0QWindowsDirectWriteFontDatabase@@QEAA@XZ
        942  3AD 003D0100 ??0QWindowsFontDatabase@@QEAA@XZ
        943  3AE 003D9470 ??0QWindowsFontDatabaseBase@@QEAA@XZ
        944  3AF 004533C0 ??0QWindowsFontEngineDirectWrite@@QEAA@PEAUIDWriteFontFace@@NAEBV?$QSharedPointer@VQWindowsFontEngineData@@@@@Z
        945  3B0 0008B7B0 ??0QWindowsGLIntegration@Private@QNativeInterface@@QEAA@XZ
        946  3B1 00383F70 ??0QWindowsGuiEventDispatcher@@QEAA@PEAVQObject@@@Z
        947  3B2 003842A0 ??0QWindowsMimeConverter@@QEAA@XZ
        948  3B3 003E11A0 ??0QWindowsNativeImage@@QEAA@HHW4Format@QImage@@@Z
        949  3B4 00001710 ??0QWindowsScreen@QNativeInterface@@QEAA@XZ
        950  3B5 000CCC50 ??0QWindowsWindow@Private@QNativeInterface@@QEAA@XZ
        951  3B6 0008B7C0 ??0QtFontFamily@@QEAA@AEBU0@@Z
        952  3B7 0008B850 ??0QtFontFamily@@QEAA@AEBVQString@@@Z
        953  3B8 0008B8A0 ??0QtFontFoundry@@QEAA@AEBU0@@Z
        954  3B9 0008B8E0 ??0QtFontFoundry@@QEAA@AEBVQString@@@Z
        955  3BA 0008B910 ??0QtFontStyle@@QEAA@AEBU0@@Z
        956  3BB 0008B9B0 ??0QtFontStyle@@QEAA@AEBUKey@0@@Z
        957  3BC 00027A60 ??0Selector@QCss@@QEAA@$$QEAU01@@Z
        958  3BD 00027A90 ??0Selector@QCss@@QEAA@AEBU01@@Z
        959  3BE 00027AC0 ??0Selector@QCss@@QEAA@XZ
        960  3BF 00362C30 ??0ShaderDesc@QOpenGLProgramBinaryCache@@QEAA@$$QEAU01@@Z
        961  3C0 00362C60 ??0ShaderDesc@QOpenGLProgramBinaryCache@@QEAA@AEBU01@@Z
        962  3C1 00362C90 ??0ShaderDesc@QOpenGLProgramBinaryCache@@QEAA@W4Stage@QShader@@AEBVQByteArray@@@Z
        963  3C2 00362CC0 ??0ShaderDesc@QOpenGLProgramBinaryCache@@QEAA@XZ
        964  3C3 00027AE0 ??0StyleSelector@QCss@@QEAA@AEBV01@@Z
        965  3C4 00027B40 ??0StyleSelector@QCss@@QEAA@XZ
        966  3C5 00001720 ??0Tab@QTextOption@@QEAA@NW4TabType@1@VQChar@@@Z
        967  3C6 00001740 ??0Tab@QTextOption@@QEAA@XZ
        968  3C7 00008C60 ??0TabletEvent@QWindowSystemInterfacePrivate@@QEAA@$$QEAV01@@Z
        969  3C8 00008D20 ??0TabletEvent@QWindowSystemInterfacePrivate@@QEAA@AEBV01@@Z
        970  3C9 00008DE0 ??0TabletEvent@QWindowSystemInterfacePrivate@@QEAA@PEAVQWindow@@KAEBVQPointF@@1PEBVQPointingDevice@@V?$QFlags@W4MouseButton@Qt@@@@NHHNNHV?$QFlags@W4KeyboardModifier@Qt@@@@@Z
        971  3CA 00027B80 ??0ValueExtractor@QCss@@QEAA@$$QEAU01@@Z
        972  3CB 00027C00 ??0ValueExtractor@QCss@@QEAA@AEBU01@@Z
        973  3CC 0043B7F0 ??0ValueExtractor@QCss@@QEAA@AEBV?$QList@UDeclaration@QCss@@@@AEBVQPalette@@@Z
        974  3CD 00027C70 ??0glyph_metrics_t@@QEAA@UQFixed@@00000@Z
        975  3CE 00027CA0 ??0glyph_metrics_t@@QEAA@XZ
        976  3CF 0012E910 ??1?$QExplicitlySharedDataPointer@VQColorSpacePrivate@@@@QEAA@XZ
        977  3D0 00143260 ??1?$QExplicitlySharedDataPointer@VQColorTransformPrivate@@@@QEAA@XZ
        978  3D1 0007A7B0 ??1?$QExplicitlySharedDataPointer@VQEventPointPrivate@@@@QEAA@XZ
        979  3D2 00195BA0 ??1?$QExplicitlySharedDataPointer@VQPageRangesPrivate@@@@QEAA@XZ
        980  3D3 001EB3B0 ??1?$QExplicitlySharedDataPointer@VQPenPrivate@@@@QEAA@XZ
        981  3D4 00065470 ??1?$QExplicitlySharedDataPointer@VQPlatformPixmap@@@@QEAA@XZ
        982  3D5 003E2300 ??1ActivationObserver@QAccessible@@UEAA@XZ
        983  3D6 00028560 ??1Declaration@QCss@@QEAA@XZ
        984  3D7 001E44A0 ??1Gpu@QOpenGLConfig@@QEAA@XZ
        985  3D8 0006AAB0 ??1Key@QPixmapCache@@QEAA@XZ
        986  3D9 002F2830 ??1LayoutData@QTextEngine@@QEAA@XZ
        987  3DA 00028620 ??1Parser@QCss@@QEAA@XZ
        988  3DB 00362E00 ??1ProgramDesc@QOpenGLProgramBinaryCache@@QEAA@XZ
        989  3DC 00006720 ??1QAbstractFileIconEngine@@UEAA@XZ
        990  3DD 00008EE0 ??1QAbstractFileIconProvider@@UEAA@XZ
        991  3DE 00008F10 ??1QAbstractFileIconProviderPrivate@@UEAA@XZ
        992  3DF 0032FFA0 ??1QAbstractLayoutStyleInfo@@UEAA@XZ
        993  3E0 00264710 ??1QAbstractTextDocumentLayout@@UEAA@XZ
        994  3E1 00264730 ??1QAbstractTextDocumentLayoutPrivate@@UEAA@XZ
        995  3E2 002B5AA0 ??1QAbstractUndoItem@@UEAA@XZ
        996  3E3 003E2310 ??1QAccessibleActionInterface@@UEAA@XZ
        997  3E4 003E2320 ??1QAccessibleAnnouncementEvent@@UEAA@XZ
        998  3E5 003E2350 ??1QAccessibleApplication@@UEAA@XZ
        999  3E6 003E2360 ??1QAccessibleAttributesInterface@@UEAA@XZ
       1000  3E7 003E6B90 ??1QAccessibleBridge@@UEAA@XZ
       1001  3E8 003E6BA0 ??1QAccessibleBridgePlugin@@UEAA@XZ
       1002  3E9 003E8C30 ??1QAccessibleCache@@UEAA@XZ
       1003  3EA 003E2370 ??1QAccessibleEditableTextInterface@@UEAA@XZ
       1004  3EB 003E2380 ??1QAccessibleEvent@@UEAA@XZ
       1005  3EC 003E2390 ??1QAccessibleHyperlinkInterface@@UEAA@XZ
       1006  3ED 003E23A0 ??1QAccessibleImageInterface@@UEAA@XZ
       1007  3EE 003E23B0 ??1QAccessibleInterface@@MEAA@XZ
       1008  3EF 003EADA0 ??1QAccessibleObject@@MEAA@XZ
       1009  3F0 003EB5E0 ??1QAccessiblePlugin@@UEAA@XZ
       1010  3F1 003E23C0 ??1QAccessibleSelectionInterface@@UEAA@XZ
       1011  3F2 003E2380 ??1QAccessibleStateChangeEvent@@UEAA@XZ
       1012  3F3 003E23D0 ??1QAccessibleTableCellInterface@@UEAA@XZ
       1013  3F4 003E23E0 ??1QAccessibleTableInterface@@UEAA@XZ
       1014  3F5 003E2380 ??1QAccessibleTableModelChangeEvent@@UEAA@XZ
       1015  3F6 003E2380 ??1QAccessibleTextCursorEvent@@UEAA@XZ
       1016  3F7 003E23F0 ??1QAccessibleTextInsertEvent@@UEAA@XZ
       1017  3F8 003E2420 ??1QAccessibleTextInterface@@UEAA@XZ
       1018  3F9 003E2430 ??1QAccessibleTextRemoveEvent@@UEAA@XZ
       1019  3FA 003E2380 ??1QAccessibleTextSelectionEvent@@UEAA@XZ
       1020  3FB 003E2460 ??1QAccessibleTextUpdateEvent@@UEAA@XZ
       1021  3FC 003E24A0 ??1QAccessibleValueChangeEvent@@UEAA@XZ
       1022  3FD 003E24D0 ??1QAccessibleValueInterface@@UEAA@XZ
       1023  3FE 003ED330 ??1QAction@@UEAA@XZ
       1024  3FF 0007FE80 ??1QActionEvent@@UEAA@XZ
       1025  400 003F0E80 ??1QActionGroup@@UEAA@XZ
       1026  401 003F0EA0 ??1QActionGroupPrivate@@UEAA@XZ
       1027  402 003ED430 ??1QActionPrivate@@UEAA@XZ
       1028  403 0007FEA0 ??1QApplicationStateChangeEvent@@UEAA@XZ
       1029  404 000FE480 ??1QBackingStore@@QEAA@XZ
       1030  405 001068E0 ??1QBackingStoreRhiSupport@@QEAA@XZ
       1031  406 003F4890 ??1QBasicDrag@@UEAA@XZ
       1032  407 0000B7B0 ??1QBitmap@@UEAA@XZ
       1033  408 0011D4A0 ??1QBlittable@@UEAA@XZ
       1034  409 00068220 ??1QBlittablePlatformPixmap@@UEAA@XZ
       1035  40A 00068280 ??1QBlitterPaintEngine@@UEAA@XZ
       1036  40B 0011F710 ??1QBrush@@QEAA@XZ
       1037  40C 0007FEC0 ??1QChildWindowEvent@@UEAA@XZ
       1038  40D 00076050 ??1QClipboard@@EEAA@XZ
       1039  40E 0007FEE0 ??1QCloseEvent@@UEAA@XZ
       1040  40F 000074A0 ??1QColorDialogOptions@@IEAA@XZ
       1041  410 0012E910 ??1QColorSpace@@QEAA@XZ
       1042  411 000286A0 ??1QColorTransferTable@@QEAA@XZ
       1043  412 00143260 ??1QColorTransform@@QEAA@XZ
       1044  413 00028700 ??1QColorTrc@@QEAA@XZ
       1045  414 00028760 ??1QColorTrcLut@@QEAA@XZ
       1046  415 0011F7D0 ??1QConicalGradient@@QEAA@XZ
       1047  416 0007FF00 ??1QContextMenuEvent@@UEAA@XZ
       1048  417 00077BD0 ??1QCursor@@QEAA@XZ
       1049  418 0021DBE0 ??1QDashStroker@@UEAA@XZ
       1050  419 00229820 ??1QDashedStrokeProcessor@@QEAA@XZ
       1051  41A 0026B660 ??1QDistanceField@@QEAA@XZ
       1052  41B 0026B6C0 ??1QDistanceFieldData@@QEAA@XZ
       1053  41C 00341C90 ??1QDoubleValidator@@UEAA@XZ
       1054  41D 003F2B30 ??1QDrag@@UEAA@XZ
       1055  41E 0007FF20 ??1QDragEnterEvent@@UEAA@XZ
       1056  41F 0007FF40 ??1QDragLeaveEvent@@UEAA@XZ
       1057  420 003F1CA0 ??1QDragManager@@UEAA@XZ
       1058  421 0007FF20 ??1QDragMoveEvent@@UEAA@XZ
       1059  422 0007FF20 ??1QDropEvent@@UEAA@XZ
       1060  423 004A1430 ??1QEdidParser@@QEAA@XZ
       1061  424 0007FF60 ??1QEnterEvent@@UEAA@XZ
       1062  425 0007A7B0 ??1QEventPoint@@QEAA@XZ
       1063  426 0007FFF0 ??1QExposeEvent@@UEAA@XZ
       1064  427 000074A0 ??1QFileDialogOptions@@IEAA@XZ
       1065  428 00463660 ??1QFileInfoGatherer@@UEAA@XZ
       1066  429 00080020 ??1QFileOpenEvent@@UEAA@XZ
       1067  42A 0046B2A0 ??1QFileSystemModel@@UEAA@XZ
       1068  42B 0046B2C0 ??1QFileSystemModelPrivate@@UEAA@XZ
       1069  42C 00080060 ??1QFocusEvent@@UEAA@XZ
       1070  42D 002750D0 ??1QFont@@QEAA@XZ
       1071  42E 00275120 ??1QFontCache@@UEAA@XZ
       1072  42F 0008BDE0 ??1QFontDatabasePrivate@@QEAA@XZ
       1073  430 000074A0 ??1QFontDialogOptions@@IEAA@XZ
       1074  431 002973B0 ??1QFontEngine@@UEAA@XZ
       1075  432 002A1230 ??1QFontEngineGlyphCache@@UEAA@XZ
       1076  433 00297440 ??1QFontEngineMulti@@UEAA@XZ
       1077  434 002750D0 ??1QFontInfo@@QEAA@XZ
       1078  435 002750D0 ??1QFontMetrics@@QEAA@XZ
       1079  436 002750D0 ??1QFontMetricsF@@QEAA@XZ
       1080  437 002753E0 ??1QFontPrivate@@QEAA@XZ
       1081  438 00087980 ??1QGenericPlugin@@UEAA@XZ
       1082  439 002A3C90 ??1QGlyphRun@@QEAA@XZ
       1083  43A 0011F7D0 ??1QGradient@@QEAA@XZ
       1084  43B 00332FC0 ??1QGridLayoutEngine@@QEAA@XZ
       1085  43C 00333130 ??1QGridLayoutItem@@UEAA@XZ
       1086  43D 0008BE90 ??1QGuiApplication@@UEAA@XZ
       1087  43E 0008C260 ??1QGuiApplicationPrivate@@UEAA@XZ
       1088  43F 00080080 ??1QHelpEvent@@UEAA@XZ
       1089  440 000800A0 ??1QHideEvent@@UEAA@XZ
       1090  441 0007FF60 ??1QHoverEvent@@UEAA@XZ
       1091  442 0000F590 ??1QIcon@@QEAA@XZ
       1092  443 000800C0 ??1QIconDragEvent@@UEAA@XZ
       1093  444 00017500 ??1QIconEngine@@UEAA@XZ
       1094  445 00017C20 ??1QIconEnginePlugin@@UEAA@XZ
       1095  446 0000F600 ??1QIconLoader@@QEAA@XZ
       1096  447 00028790 ??1QImage@@UEAA@XZ
       1097  448 000287E0 ??1QImageData@@QEAA@XZ
       1098  449 00054CB0 ??1QImageIOHandler@@UEAA@XZ
       1099  44A 00054CE0 ??1QImageIOPlugin@@UEAA@XZ
       1100  44B 000288A0 ??1QImagePixmapCleanupHooks@@QEAA@XZ
       1101  44C 000562B0 ??1QImageReader@@QEAA@XZ
       1102  44D 00222140 ??1QImageTextureGlyphCache@@UEAA@XZ
       1103  44E 0005D0A0 ??1QImageWriter@@QEAA@XZ
       1104  44F 00077C60 ??1QInputControl@@UEAA@XZ
       1105  450 000A6990 ??1QInputDevice@@UEAA@XZ
       1106  451 000A7F90 ??1QInputDeviceManager@@UEAA@XZ
       1107  452 000A7FB0 ??1QInputDeviceManagerPrivate@@UEAA@XZ
       1108  453 000A69C0 ??1QInputDevicePrivate@@UEAA@XZ
       1109  454 0007FF00 ??1QInputEvent@@UEAA@XZ
       1110  455 000A9300 ??1QInputMethod@@EEAA@XZ
       1111  456 000800E0 ??1QInputMethodEvent@@UEAA@XZ
       1112  457 00080180 ??1QInputMethodQueryEvent@@UEAA@XZ
       1113  458 00341C90 ??1QIntValidator@@UEAA@XZ
       1114  459 000AA6D0 ??1QInternalMimeData@@UEAA@XZ
       1115  45A 00080210 ??1QKeyEvent@@UEAA@XZ
       1116  45B 000AC0A0 ??1QKeyMapper@@UEAA@XZ
       1117  45C 003F6D40 ??1QKeySequence@@QEAA@XZ
       1118  45D 0011F7D0 ??1QLinearGradient@@QEAA@XZ
       1119  45E 000074A0 ??1QMessageDialogOptions@@IEAA@XZ
       1120  45F 0007FF60 ??1QMouseEvent@@UEAA@XZ
       1121  460 00080250 ??1QMoveEvent@@UEAA@XZ
       1122  461 00400ED0 ??1QMovie@@UEAA@XZ
       1123  462 0007FF60 ??1QMutableSinglePointEvent@@UEAA@XZ
       1124  463 0007FF60 ??1QMutableTouchEvent@@UEAA@XZ
       1125  464 0007FF60 ??1QNativeGestureEvent@@UEAA@XZ
       1126  465 000ACC40 ??1QOffscreenSurface@@UEAA@XZ
       1127  466 000ACD20 ??1QOffscreenSurfacePrivate@@UEAA@XZ
       1128  467 003553E0 ??1QOpenGLContext@@UEAA@XZ
       1129  468 00355410 ??1QOpenGLContextGroup@@UEAA@XZ
       1130  469 00355440 ??1QOpenGLContextGroupPrivate@@UEAA@XZ
       1131  46A 00355520 ??1QOpenGLContextPrivate@@UEAA@XZ
       1132  46B 003555C0 ??1QOpenGLContextVersionFunctionHelper@@UEAA@XZ
       1133  46C 001E4510 ??1QOpenGLExtensionMatcher@@QEAA@XZ
       1134  46D 000074A0 ??1QOpenGLExtensions@@QEAA@XZ
       1135  46E 000074A0 ??1QOpenGLExtraFunctions@@QEAA@XZ
       1136  46F 000074A0 ??1QOpenGLFunctions@@QEAA@XZ
       1137  470 003555D0 ??1QOpenGLMultiGroupSharedResource@@QEAA@XZ
       1138  471 00362E70 ??1QOpenGLProgramBinaryCache@@QEAA@XZ
       1139  472 00362EC0 ??1QOpenGLProgramBinarySupportCheck@@UEAA@XZ
       1140  473 00355880 ??1QOpenGLSharedResource@@UEAA@XZ
       1141  474 00355880 ??1QOpenGLSharedResourceGuard@@UEAA@XZ
       1142  475 001928C0 ??1QPageLayout@@QEAA@XZ
       1143  476 00195BA0 ??1QPageRanges@@QEAA@XZ
       1144  477 001982C0 ??1QPageSize@@QEAA@XZ
       1145  478 001922D0 ??1QPagedPaintDevice@@UEAA@XZ
       1146  479 00192310 ??1QPagedPaintDevicePrivate@@UEAA@XZ
       1147  47A 0019B1B0 ??1QPaintDevice@@UEAA@XZ
       1148  47B 000AD8D0 ??1QPaintDeviceWindow@@UEAA@XZ
       1149  47C 000AD8F0 ??1QPaintDeviceWindowPrivate@@UEAA@XZ
       1150  47D 0019B650 ??1QPaintEngine@@UEAA@XZ
       1151  47E 00028920 ??1QPaintEngineEx@@UEAA@XZ
       1152  47F 001B56C0 ??1QPaintEngineExPrivate@@UEAA@XZ
       1153  480 0019B680 ??1QPaintEnginePrivate@@UEAA@XZ
       1154  481 00080270 ??1QPaintEvent@@UEAA@XZ
       1155  482 001BB790 ??1QPainter@@QEAA@XZ
       1156  483 001CF320 ??1QPainterPath@@QEAA@XZ
       1157  484 001CF330 ??1QPainterPathStroker@@QEAA@XZ
       1158  485 001BB800 ??1QPainterState@@UEAA@XZ
       1159  486 000AF510 ??1QPalette@@QEAA@XZ
       1160  487 000AF5D0 ??1QPalettePrivate@@QEAA@XZ
       1161  488 001CF390 ??1QPathClipper@@QEAA@XZ
       1162  489 001EB3B0 ??1QPen@@QEAA@XZ
       1163  48A 00061600 ??1QPicture@@UEAA@XZ
       1164  48B 000654B0 ??1QPixmap@@UEAA@XZ
       1165  48C 0000F8C0 ??1QPixmapIconEngine@@UEAA@XZ
       1166  48D 003EB760 ??1QPlatformAccessibility@@UEAA@XZ
       1167  48E 0020B530 ??1QPlatformBackingStore@@UEAA@XZ
       1168  48F 000B2D80 ??1QPlatformClipboard@@UEAA@XZ
       1169  490 000B88E0 ??1QPlatformColorDialogHelper@@UEAA@XZ
       1170  491 00077C60 ??1QPlatformCursor@@UEAA@XZ
       1171  492 00077C70 ??1QPlatformCursorImage@@QEAA@XZ
       1172  493 000B8950 ??1QPlatformDialogHelper@@UEAA@XZ
       1173  494 003F3E30 ??1QPlatformDrag@@UEAA@XZ
       1174  495 000B88E0 ??1QPlatformFileDialogHelper@@UEAA@XZ
       1175  496 002A5450 ??1QPlatformFontDatabase@@UEAA@XZ
       1176  497 000B88E0 ??1QPlatformFontDialogHelper@@UEAA@XZ
       1177  498 000BD010 ??1QPlatformGraphicsBuffer@@UEAA@XZ
       1178  499 000BF6D0 ??1QPlatformInputContext@@UEAA@XZ
       1179  49A 000C1120 ??1QPlatformInputContextPlugin@@UEAA@XZ
       1180  49B 0000B7C0 ??1QPlatformIntegration@@UEAA@XZ
       1181  49C 000C1D80 ??1QPlatformIntegrationPlugin@@UEAA@XZ
       1182  49D 000C1EF0 ??1QPlatformKeyMapper@@UEAA@XZ
       1183  49E 00077C60 ??1QPlatformMenu@@UEAA@XZ
       1184  49F 00077C60 ??1QPlatformMenuBar@@UEAA@XZ
       1185  4A0 00077C60 ??1QPlatformMenuItem@@UEAA@XZ
       1186  4A1 000B88E0 ??1QPlatformMessageDialogHelper@@UEAA@XZ
       1187  4A2 00077C60 ??1QPlatformNativeInterface@@UEAA@XZ
       1188  4A3 000C2F40 ??1QPlatformOffscreenSurface@@UEAA@XZ
       1189  4A4 0035B940 ??1QPlatformOpenGLContext@@UEAA@XZ
       1190  4A5 0006E180 ??1QPlatformPixmap@@UEAA@XZ
       1191  4A6 000060A0 ??1QPlatformPlaceholderScreen@@UEAA@XZ
       1192  4A7 000C3140 ??1QPlatformScreen@@UEAA@XZ
       1193  4A8 00077C60 ??1QPlatformServiceColorPicker@@UEAA@XZ
       1194  4A9 000C4D10 ??1QPlatformServices@@UEAA@XZ
       1195  4AA 000C5100 ??1QPlatformSessionManager@@UEAA@XZ
       1196  4AB 00077C60 ??1QPlatformSharedGraphicsCache@@UEAA@XZ
       1197  4AC 000C8020 ??1QPlatformSurface@@UEAA@XZ
       1198  4AD 000802A0 ??1QPlatformSurfaceEvent@@UEAA@XZ
       1199  4AE 000C8890 ??1QPlatformSystemTrayIcon@@UEAA@XZ
       1200  4AF 0020B570 ??1QPlatformTextureList@@UEAA@XZ
       1201  4B0 000C9FE0 ??1QPlatformTheme@@UEAA@XZ
       1202  4B1 000CCA10 ??1QPlatformThemePlugin@@UEAA@XZ
       1203  4B2 000CA010 ??1QPlatformThemePrivate@@UEAA@XZ
       1204  4B3 000CCC60 ??1QPlatformWindow@@UEAA@XZ
       1205  4B4 0007FF60 ??1QPointerEvent@@UEAA@XZ
       1206  4B5 000CFDC0 ??1QPointingDevice@@UEAA@XZ
       1207  4B6 000CFDD0 ??1QPointingDevicePrivate@@UEAA@XZ
       1208  4B7 0011F7D0 ??1QRadialGradient@@QEAA@XZ
       1209  4B8 001A28A0 ??1QRasterPaintEngine@@UEAA@XZ
       1210  4B9 00068FD0 ??1QRasterPlatformPixmap@@UEAA@XZ
       1211  4BA 000D3A30 ??1QRasterWindow@@UEAA@XZ
       1212  4BB 002A6A50 ??1QRawFont@@QEAA@XZ
       1213  4BC 001BB8D0 ??1QRawFontPrivate@@QEAA@XZ
       1214  4BD 00214CE0 ??1QRegion@@QEAA@XZ
       1215  4BE 00341C90 ??1QRegularExpressionValidator@@UEAA@XZ
       1216  4BF 000802C0 ??1QResizeEvent@@UEAA@XZ
       1217  4C0 0023D2A0 ??1QRhi@@QEAA@XZ
       1218  4C1 00100690 ??1QRhiBuffer@@UEAA@XZ
       1219  4C2 00100690 ??1QRhiCommandBuffer@@UEAA@XZ
       1220  4C3 001006A0 ??1QRhiComputePipeline@@UEAA@XZ
       1221  4C4 001006C0 ??1QRhiDriverInfo@@QEAA@XZ
       1222  4C5 001006D0 ??1QRhiGles2InitParams@@QEAA@XZ
       1223  4C6 001006E0 ??1QRhiGraphicsPipeline@@UEAA@XZ
       1224  4C7 001007A0 ??1QRhiReadbackResult@@QEAA@XZ
       1225  4C8 00100690 ??1QRhiRenderBuffer@@UEAA@XZ
       1226  4C9 00100690 ??1QRhiRenderPassDescriptor@@UEAA@XZ
       1227  4CA 00100690 ??1QRhiRenderTarget@@UEAA@XZ
       1228  4CB 0023D7E0 ??1QRhiResource@@UEAA@XZ
       1229  4CC 0023D800 ??1QRhiResourceUpdateBatch@@QEAA@XZ
       1230  4CD 00100690 ??1QRhiSampler@@UEAA@XZ
       1231  4CE 001007E0 ??1QRhiShaderResourceBindings@@UEAA@XZ
       1232  4CF 00100830 ??1QRhiShaderStage@@QEAA@XZ
       1233  4D0 00100690 ??1QRhiSwapChain@@UEAA@XZ
       1234  4D1 00100690 ??1QRhiSwapChainRenderTarget@@UEAA@XZ
       1235  4D2 00100690 ??1QRhiTexture@@UEAA@XZ
       1236  4D3 00100840 ??1QRhiTextureRenderTarget@@UEAA@XZ
       1237  4D4 00100870 ??1QRhiTextureRenderTargetDescription@@QEAA@XZ
       1238  4D5 00100890 ??1QRhiTextureSubresourceUploadDescription@@QEAA@XZ
       1239  4D6 001008B0 ??1QRhiTextureUploadDescription@@QEAA@XZ
       1240  4D7 00100930 ??1QRhiTextureUploadEntry@@QEAA@XZ
       1241  4D8 00100960 ??1QRhiVertexInputLayout@@QEAA@XZ
       1242  4D9 000D4B00 ??1QScreen@@UEAA@XZ
       1243  4DA 000802E0 ??1QScreenOrientationChangeEvent@@UEAA@XZ
       1244  4DB 00080300 ??1QScrollEvent@@UEAA@XZ
       1245  4DC 00080320 ??1QScrollPrepareEvent@@UEAA@XZ
       1246  4DD 000D6D40 ??1QSessionManager@@EEAA@XZ
       1247  4DE 000D6D60 ??1QSessionManagerPrivate@@UEAA@XZ
       1248  4DF 0024D8F0 ??1QShader@@QEAA@XZ
       1249  4E0 001009B0 ??1QShaderCode@@QEAA@XZ
       1250  4E1 002593F0 ??1QShaderDescription@@QEAA@XZ
       1251  4E2 00259440 ??1QShaderDescriptionPrivate@@QEAA@XZ
       1252  4E3 0024D940 ??1QShaderPrivate@@QEAA@XZ
       1253  4E4 003FA9B0 ??1QShortcut@@UEAA@XZ
       1254  4E5 00080340 ??1QShortcutEvent@@UEAA@XZ
       1255  4E6 003FBFE0 ??1QShortcutMap@@QEAA@XZ
       1256  4E7 00080370 ??1QShortcutPrivate@@UEAA@XZ
       1257  4E8 00080420 ??1QShowEvent@@UEAA@XZ
       1258  4E9 000C12A0 ??1QSimpleDrag@@UEAA@XZ
       1259  4EA 0007FF60 ??1QSinglePointEvent@@UEAA@XZ
       1260  4EB 00028930 ??1QStackTextEngine@@QEAA@XZ
       1261  4EC 00348A40 ??1QStandardItem@@UEAA@XZ
       1262  4ED 00348BE0 ??1QStandardItemModel@@UEAA@XZ
       1263  4EE 002A8AD0 ??1QStaticText@@QEAA@XZ
       1264  4EF 001A2A40 ??1QStaticTextItem@@QEAA@XZ
       1265  4F0 002A8B00 ??1QStaticTextUserData@@UEAA@XZ
       1266  4F1 00080440 ??1QStatusTipEvent@@UEAA@XZ
       1267  4F2 0021DC40 ??1QStroker@@UEAA@XZ
       1268  4F3 0021DC40 ??1QStrokerOps@@UEAA@XZ
       1269  4F4 00077C60 ??1QStyleHints@@UEAA@XZ
       1270  4F5 002A5460 ??1QSupportedWritingSystems@@QEAA@XZ
       1271  4F6 000DA2F0 ??1QSurface@@UEAA@XZ
       1272  4F7 000DB0C0 ??1QSurfaceFormat@@QEAA@XZ
       1273  4F8 002AB3B0 ??1QSyntaxHighlighter@@UEAA@XZ
       1274  4F9 0007FF60 ??1QTabletEvent@@UEAA@XZ
       1275  4FA 00028960 ??1QTextBlockFormat@@QEAA@XZ
       1276  4FB 00325680 ??1QTextBlockGroup@@MEAA@XZ
       1277  4FC 003256A0 ??1QTextBlockUserData@@UEAA@XZ
       1278  4FD 00028960 ??1QTextCharFormat@@QEAA@XZ
       1279  4FE 002AD160 ??1QTextCursor@@QEAA@XZ
       1280  4FF 002AD1C0 ??1QTextCursorPrivate@@QEAA@XZ
       1281  500 002B5AB0 ??1QTextDocument@@UEAA@XZ
       1282  501 002D2770 ??1QTextDocumentFragment@@QEAA@XZ
       1283  502 002B5AD0 ??1QTextDocumentLayout@@UEAA@XZ
       1284  503 002C6AA0 ??1QTextDocumentPrivate@@UEAA@XZ
       1285  504 002EE4B0 ??1QTextDocumentWriter@@QEAA@XZ
       1286  505 002F2890 ??1QTextEngine@@QEAA@XZ
       1287  506 00302C00 ??1QTextFormat@@QEAA@XZ
       1288  507 00302CB0 ??1QTextFormatCollection@@QEAA@XZ
       1289  508 003256B0 ??1QTextFrame@@UEAA@XZ
       1290  509 00028960 ??1QTextFrameFormat@@QEAA@XZ
       1291  50A 00325700 ??1QTextFrameLayoutData@@UEAA@XZ
       1292  50B 00028960 ??1QTextImageFormat@@QEAA@XZ
       1293  50C 002C6F80 ??1QTextImageHandler@@UEAA@XZ
       1294  50D 00319890 ??1QTextLayout@@QEAA@XZ
       1295  50E 003245A0 ??1QTextList@@UEAA@XZ
       1296  50F 00028960 ??1QTextListFormat@@QEAA@XZ
       1297  510 002B5EB0 ??1QTextMarkdownImporter@@QEAA@XZ
       1298  511 002B5FF0 ??1QTextMarkdownWriter@@QEAA@XZ
       1299  512 00325680 ??1QTextObject@@MEAA@XZ
       1300  513 00264780 ??1QTextObjectInterface@@UEAA@XZ
       1301  514 00329D60 ??1QTextOption@@QEAA@XZ
       1302  515 0032AAA0 ??1QTextTable@@UEAA@XZ
       1303  516 000074A0 ??1QTextTableCell@@QEAA@XZ
       1304  517 00028960 ??1QTextTableCellFormat@@QEAA@XZ
       1305  518 00028960 ??1QTextTableFormat@@QEAA@XZ
       1306  519 0033E990 ??1QTextureFileData@@QEAA@XZ
       1307  51A 00340750 ??1QTextureFileReader@@QEAA@XZ
       1308  51B 002221E0 ??1QTextureGlyphCache@@UEAA@XZ
       1309  51C 00080470 ??1QToolBarChangeEvent@@UEAA@XZ
       1310  51D 0007FF60 ??1QTouchEvent@@UEAA@XZ
       1311  51E 000DC200 ??1QTouchEventSequence@QTest@@UEAA@XZ
       1312  51F 00229860 ??1QTriangulatingStroker@@QEAA@XZ
       1313  520 0045CD40 ??1QUndoCommand@@UEAA@XZ
       1314  521 0045FE80 ??1QUndoGroup@@UEAA@XZ
       1315  522 0045CDF0 ??1QUndoStack@@UEAA@XZ
       1316  523 00341C90 ??1QValidator@@UEAA@XZ
       1317  524 001B5750 ??1QVectorPath@@QEAA@XZ
       1318  525 003844C0 ??1QWGLContext@QNativeInterface@@MEAA@XZ
       1319  526 00080490 ??1QWhatsThisClickedEvent@@UEAA@XZ
       1320  527 0007FF60 ??1QWheelEvent@@UEAA@XZ
       1321  528 000DF790 ??1QWindow@@UEAA@XZ
       1322  529 000DF940 ??1QWindowPrivate@@UEAA@XZ
       1323  52A 000804C0 ??1QWindowStateChangeEvent@@UEAA@XZ
       1324  52B 000EF2E0 ??1QWindowSystemEventHandler@@UEAA@XZ
       1325  52C 003844D0 ??1QWindowsApplication@Private@QNativeInterface@@MEAA@XZ
       1326  52D 00457280 ??1QWindowsDirectWriteFontDatabase@@UEAA@XZ
       1327  52E 003D0800 ??1QWindowsFontDatabase@@UEAA@XZ
       1328  52F 003D9490 ??1QWindowsFontDatabaseBase@@UEAA@XZ
       1329  530 004535D0 ??1QWindowsFontEngineDirectWrite@@UEAA@XZ
       1330  531 003844E0 ??1QWindowsGLIntegration@Private@QNativeInterface@@MEAA@XZ
       1331  532 00384000 ??1QWindowsGuiEventDispatcher@@UEAA@XZ
       1332  533 00384300 ??1QWindowsMimeConverter@@UEAA@XZ
       1333  534 003E1400 ??1QWindowsNativeImage@@QEAA@XZ
       1334  535 003844F0 ??1QWindowsScreen@QNativeInterface@@MEAA@XZ
       1335  536 00384500 ??1QWindowsWindow@Private@QNativeInterface@@MEAA@XZ
       1336  537 0008C7C0 ??1QtFontFamily@@QEAA@XZ
       1337  538 0008C900 ??1QtFontFoundry@@QEAA@XZ
       1338  539 002856E0 ??1QtFontStyle@@QEAA@XZ
       1339  53A 00028970 ??1Selector@QCss@@QEAA@XZ
       1340  53B 00362ED0 ??1ShaderDesc@QOpenGLProgramBinaryCache@@QEAA@XZ
       1341  53C 0043BBC0 ??1StyleSelector@QCss@@UEAA@XZ
       1342  53D 00008F30 ??1TabletEvent@QWindowSystemInterfacePrivate@@UEAA@XZ
       1343  53E 00028AA0 ??1ValueExtractor@QCss@@QEAA@XZ
       1344  53F 000016C0 ??4ActivationObserver@QAccessible@@QEAAAEAV01@AEBV01@@Z
       1345  540 00028C00 ??4Declaration@QCss@@QEAAAEAU01@$$QEAU01@@Z
       1346  541 00028CD0 ??4Declaration@QCss@@QEAAAEAU01@AEBU01@@Z
       1347  542 001E4540 ??4Gpu@QOpenGLConfig@@QEAAAEAU01@$$QEAU01@@Z
       1348  543 001E45A0 ??4Gpu@QOpenGLConfig@@QEAAAEAU01@AEBU01@@Z
       1349  544 000017F0 ??4Key@QPixmapCache@@QEAAAEAV01@$$QEAV01@@Z
       1350  545 0006AB00 ??4Key@QPixmapCache@@QEAAAEAV01@AEBV01@@Z
       1351  546 00028D20 ??4LayoutData@QTextEngine@@QEAAAEAU01@AEBU01@@Z
       1352  547 00028E00 ??4Parser@QCss@@QEAAAEAV01@$$QEAV01@@Z
       1353  548 00028ED0 ??4Parser@QCss@@QEAAAEAV01@AEBV01@@Z
       1354  549 00362EE0 ??4ProgramDesc@QOpenGLProgramBinaryCache@@QEAAAEAU01@$$QEAU01@@Z
       1355  54A 00362F80 ??4ProgramDesc@QOpenGLProgramBinaryCache@@QEAAAEAU01@AEBU01@@Z
       1356  54B 0032FFB0 ??4QAbstractLayoutStyleInfo@@QEAAAEAV0@AEBV0@@Z
       1357  54C 000016C0 ??4QAbstractUndoItem@@QEAAAEAV0@AEBV0@@Z
       1358  54D 000016C0 ??4QAccessible@@QEAAAEAV0@$$QEAV0@@Z
       1359  54E 000016C0 ??4QAccessible@@QEAAAEAV0@AEBV0@@Z
       1360  54F 000016C0 ??4QAccessibleActionInterface@@QEAAAEAV0@AEBV0@@Z
       1361  550 000016C0 ??4QAccessibleAttributesInterface@@QEAAAEAV0@AEBV0@@Z
       1362  551 000016C0 ??4QAccessibleBridge@@QEAAAEAV0@AEBV0@@Z
       1363  552 000016C0 ??4QAccessibleEditableTextInterface@@QEAAAEAV0@AEBV0@@Z
       1364  553 000016C0 ??4QAccessibleHyperlinkInterface@@QEAAAEAV0@AEBV0@@Z
       1365  554 000016C0 ??4QAccessibleImageInterface@@QEAAAEAV0@AEBV0@@Z
       1366  555 000016C0 ??4QAccessibleInterface@@QEAAAEAV0@AEBV0@@Z
       1367  556 000016C0 ??4QAccessibleSelectionInterface@@QEAAAEAV0@AEBV0@@Z
       1368  557 000016C0 ??4QAccessibleTableCellInterface@@QEAAAEAV0@AEBV0@@Z
       1369  558 000016C0 ??4QAccessibleTableInterface@@QEAAAEAV0@AEBV0@@Z
       1370  559 000016C0 ??4QAccessibleTextInterface@@QEAAAEAV0@AEBV0@@Z
       1371  55A 000016C0 ??4QAccessibleValueInterface@@QEAAAEAV0@AEBV0@@Z
       1372  55B 00001760 ??4QActionEvent@@IEAAAEAV0@AEBV0@@Z
       1373  55C 000017A0 ??4QApplicationStateChangeEvent@@IEAAAEAV0@AEBV0@@Z
       1374  55D 00106930 ??4QBackingStoreRhiSupport@@QEAAAEAV0@AEBV0@@Z
       1375  55E 00109040 ??4QBezier@@QEAAAEAV0@$$QEAV0@@Z
       1376  55F 00109090 ??4QBezier@@QEAAAEAV0@AEBV0@@Z
       1377  560 000017D0 ??4QBitmap@@QEAAAEAV0@AEBV0@@Z
       1378  561 0000B7D0 ??4QBitmap@@QEAAAEAV0@AEBVQPixmap@@@Z
       1379  562 00068290 ??4QBlittable@@QEAAAEAV0@AEBV0@@Z
       1380  563 000017F0 ??4QBrush@@QEAAAEAV0@$$QEAV0@@Z
       1381  564 0011F800 ??4QBrush@@QEAAAEAV0@AEBV0@@Z
       1382  565 00001800 ??4QChildWindowEvent@@IEAAAEAV0@AEBV0@@Z
       1383  566 00001830 ??4QCloseEvent@@IEAAAEAV0@AEBV0@@Z
       1384  567 00001850 ??4QColor@@QEAAAEAV0@$$QEAV0@@Z
       1385  568 00001870 ??4QColor@@QEAAAEAV0@AEBV0@@Z
       1386  569 00123E70 ??4QColor@@QEAAAEAV0@W4GlobalColor@Qt@@@Z
       1387  56A 000060B0 ??4QColorSpace@@QEAAAEAV0@$$QEAV0@@Z
       1388  56B 000060F0 ??4QColorSpace@@QEAAAEAV0@AEBV0@@Z
       1389  56C 00028FA0 ??4QColorTransferTable@@QEAAAEAV0@$$QEAV0@@Z
       1390  56D 00029060 ??4QColorTransferTable@@QEAAAEAV0@AEBV0@@Z
       1391  56E 00029110 ??4QColorTrc@@QEAAAEAV0@$$QEAV0@@Z
       1392  56F 000291F0 ??4QColorTrc@@QEAAAEAV0@AEBV0@@Z
       1393  570 000292C0 ??4QColorTrcLut@@QEAAAEAV0@$$QEAV0@@Z
       1394  571 00001880 ??4QConicalGradient@@QEAAAEAV0@AEBV0@@Z
       1395  572 00001910 ??4QContextMenuEvent@@IEAAAEAV0@AEBV0@@Z
       1396  573 00001970 ??4QCursor@@QEAAAEAV0@$$QEAV0@@Z
       1397  574 00077C80 ??4QCursor@@QEAAAEAV0@AEBV0@@Z
       1398  575 000016C0 ??4QDesktopServices@@QEAAAEAV0@$$QEAV0@@Z
       1399  576 000016C0 ??4QDesktopServices@@QEAAAEAV0@AEBV0@@Z
       1400  577 0026B6D0 ??4QDistanceField@@QEAAAEAV0@$$QEAV0@@Z
       1401  578 0026B730 ??4QDistanceField@@QEAAAEAV0@AEBV0@@Z
       1402  579 000019B0 ??4QDragEnterEvent@@IEAAAEAV0@AEBV0@@Z
       1403  57A 00001830 ??4QDragLeaveEvent@@IEAAAEAV0@AEBV0@@Z
       1404  57B 000019B0 ??4QDragMoveEvent@@IEAAAEAV0@AEBV0@@Z
       1405  57C 00001A10 ??4QDropEvent@@IEAAAEAV0@AEBV0@@Z
       1406  57D 004A14F0 ??4QEdidParser@@QEAAAEAV0@$$QEAV0@@Z
       1407  57E 004A1670 ??4QEdidParser@@QEAAAEAV0@AEBV0@@Z
       1408  57F 00001A70 ??4QEnterEvent@@IEAAAEAV0@AEBV0@@Z
       1409  580 000017F0 ??4QEventPoint@@QEAAAEAV0@$$QEAV0@@Z
       1410  581 0007A9E0 ??4QEventPoint@@QEAAAEAV0@AEBV0@@Z
       1411  582 00001A90 ??4QExposeEvent@@IEAAAEAV0@AEBV0@@Z
       1412  583 00001AD0 ??4QFileOpenEvent@@IEAAAEAV0@AEBV0@@Z
       1413  584 000017A0 ??4QFocusEvent@@IEAAAEAV0@AEBV0@@Z
       1414  585 00001B10 ??4QFont@@QEAAAEAV0@$$QEAV0@@Z
       1415  586 002755B0 ??4QFont@@QEAAAEAV0@AEBV0@@Z
       1416  587 000016C0 ??4QFontDatabase@@QEAAAEAV0@$$QEAV0@@Z
       1417  588 000016C0 ??4QFontDatabase@@QEAAAEAV0@AEBV0@@Z
       1418  589 00275620 ??4QFontInfo@@QEAAAEAV0@AEBV0@@Z
       1419  58A 000017F0 ??4QFontMetrics@@QEAAAEAV0@$$QEAV0@@Z
       1420  58B 00275620 ??4QFontMetrics@@QEAAAEAV0@AEBV0@@Z
       1421  58C 000017F0 ??4QFontMetricsF@@QEAAAEAV0@$$QEAV0@@Z
       1422  58D 00275620 ??4QFontMetricsF@@QEAAAEAV0@AEBV0@@Z
       1423  58E 00275620 ??4QFontMetricsF@@QEAAAEAV0@AEBVQFontMetrics@@@Z
       1424  58F 000016C0 ??4QFontPrivate@@AEAAAEAV0@AEBV0@@Z
       1425  590 000016C0 ??4QGenericPluginFactory@@QEAAAEAV0@$$QEAV0@@Z
       1426  591 000016C0 ??4QGenericPluginFactory@@QEAAAEAV0@AEBV0@@Z
       1427  592 000017F0 ??4QGlyphRun@@QEAAAEAV0@$$QEAV0@@Z
       1428  593 002A3D50 ??4QGlyphRun@@QEAAAEAV0@AEBV0@@Z
       1429  594 00001880 ??4QGradient@@QEAAAEAV0@AEBV0@@Z
       1430  595 003333C0 ??4QGridLayoutBox@@QEAAAEAV0@$$QEAV0@@Z
       1431  596 00100E10 ??4QGridLayoutBox@@QEAAAEAV0@AEBV0@@Z
       1432  597 003333F0 ??4QGridLayoutEngine@@QEAAAEAV0@AEBV0@@Z
       1433  598 00333750 ??4QGridLayoutItem@@QEAAAEAV0@AEBV0@@Z
       1434  599 00001760 ??4QHelpEvent@@IEAAAEAV0@AEBV0@@Z
       1435  59A 00001830 ??4QHideEvent@@IEAAAEAV0@AEBV0@@Z
       1436  59B 00001B30 ??4QHoverEvent@@IEAAAEAV0@AEBV0@@Z
       1437  59C 00001B60 ??4QIcon@@QEAAAEAV0@$$QEAV0@@Z
       1438  59D 0000F950 ??4QIcon@@QEAAAEAV0@AEBV0@@Z
       1439  59E 00001830 ??4QIconDragEvent@@IEAAAEAV0@AEBV0@@Z
       1440  59F 0000F9D0 ??4QIconLoader@@QEAAAEAV0@$$QEAV0@@Z
       1441  5A0 0000FBB0 ??4QIconLoader@@QEAAAEAV0@AEBV0@@Z
       1442  5A1 00001BA0 ??4QImage@@QEAAAEAV0@$$QEAV0@@Z
       1443  5A2 00029330 ??4QImage@@QEAAAEAV0@AEBV0@@Z
       1444  5A3 00029470 ??4QImageData@@QEAAAEAU0@AEBU0@@Z
       1445  5A4 000295D0 ??4QImagePixmapCleanupHooks@@QEAAAEAV0@$$QEAV0@@Z
       1446  5A5 000296C0 ??4QImagePixmapCleanupHooks@@QEAAAEAV0@AEBV0@@Z
       1447  5A6 00001C00 ??4QInputEvent@@IEAAAEAV0@AEBV0@@Z
       1448  5A7 00001C40 ??4QInputMethodEvent@@IEAAAEAV0@AEBV0@@Z
       1449  5A8 00001D20 ??4QInputMethodQueryEvent@@IEAAAEAV0@AEBV0@@Z
       1450  5A9 00001DD0 ??4QKeyEvent@@IEAAAEAV0@AEBV0@@Z
       1451  5AA 000017F0 ??4QKeySequence@@QEAAAEAV0@$$QEAV0@@Z
       1452  5AB 003F6D60 ??4QKeySequence@@QEAAAEAV0@AEBV0@@Z
       1453  5AC 00001880 ??4QLinearGradient@@QEAAAEAV0@AEBV0@@Z
       1454  5AD 0009FD60 ??4QMatrix4x4@@QEAAAEAV0@$$QEAV0@@Z
       1455  5AE 0009FDD0 ??4QMatrix4x4@@QEAAAEAV0@AEBV0@@Z
       1456  5AF 00001A70 ??4QMouseEvent@@IEAAAEAV0@AEBV0@@Z
       1457  5B0 00001760 ??4QMoveEvent@@IEAAAEAV0@AEBV0@@Z
       1458  5B1 00001A70 ??4QMutableSinglePointEvent@@QEAAAEAV0@AEBV0@@Z
       1459  5B2 00008F70 ??4QMutableTouchEvent@@QEAAAEAV0@AEBV0@@Z
       1460  5B3 00001E70 ??4QNativeGestureEvent@@IEAAAEAV0@AEBV0@@Z
       1461  5B4 000016C0 ??4QOpenGLConfig@@QEAAAEAV0@$$QEAV0@@Z
       1462  5B5 000016C0 ??4QOpenGLConfig@@QEAAAEAV0@AEBV0@@Z
       1463  5B6 000016C0 ??4QOpenGLContextVersionFunctionHelper@@QEAAAEAV0@AEBV0@@Z
       1464  5B7 001E4600 ??4QOpenGLExtensionMatcher@@QEAAAEAV0@$$QEAV0@@Z
       1465  5B8 001E4650 ??4QOpenGLExtensionMatcher@@QEAAAEAV0@AEBV0@@Z
       1466  5B9 00002040 ??4QOpenGLExtensions@@QEAAAEAV0@AEBV0@@Z
       1467  5BA 00002040 ??4QOpenGLExtraFunctions@@QEAAAEAV0@AEBV0@@Z
       1468  5BB 00002040 ??4QOpenGLFunctions@@QEAAAEAV0@AEBV0@@Z
       1469  5BC 000017F0 ??4QPageLayout@@QEAAAEAV0@$$QEAV0@@Z
       1470  5BD 00192910 ??4QPageLayout@@QEAAAEAV0@AEBV0@@Z
       1471  5BE 000017F0 ??4QPageRanges@@QEAAAEAV0@$$QEAV0@@Z
       1472  5BF 00195C10 ??4QPageRanges@@QEAAAEAV0@AEBV0@@Z
       1473  5C0 000017F0 ??4QPageSize@@QEAAAEAV0@$$QEAV0@@Z
       1474  5C1 00198320 ??4QPageSize@@QEAAAEAV0@AEBV0@@Z
       1475  5C2 00192330 ??4QPagedPaintDevicePrivate@@QEAAAEAV0@AEBV0@@Z
       1476  5C3 000297A0 ??4QPaintEnginePrivate@@QEAAAEAV0@AEBV0@@Z
       1477  5C4 00029870 ??4QPaintEngineState@@QEAAAEAV0@$$QEAV0@@Z
       1478  5C5 00029870 ??4QPaintEngineState@@QEAAAEAV0@AEBV0@@Z
       1479  5C6 00001EE0 ??4QPaintEvent@@IEAAAEAV0@AEBV0@@Z
       1480  5C7 000017F0 ??4QPainterPath@@QEAAAEAV0@$$QEAV0@@Z
       1481  5C8 001CF3B0 ??4QPainterPath@@QEAAAEAV0@AEBV0@@Z
       1482  5C9 00029880 ??4QPainterState@@QEAAAEAV0@AEBV0@@Z
       1483  5CA 0000FD80 ??4QPalette@@QEAAAEAV0@$$QEAV0@@Z
       1484  5CB 000AF650 ??4QPalette@@QEAAAEAV0@AEBV0@@Z
       1485  5CC 000AF730 ??4QPalettePrivate@@QEAAAEAV0@$$QEAV0@@Z
       1486  5CD 000AF7D0 ??4QPalettePrivate@@QEAAAEAV0@AEBV0@@Z
       1487  5CE 000017F0 ??4QPen@@QEAAAEAV0@$$QEAV0@@Z
       1488  5CF 001EB430 ??4QPen@@QEAAAEAV0@AEBV0@@Z
       1489  5D0 0005EF80 ??4QPicture@@QEAAAEAV0@$$QEAV0@@Z
       1490  5D1 00061800 ??4QPicture@@QEAAAEAV0@AEBV0@@Z
       1491  5D2 00001F20 ??4QPixmap@@QEAAAEAV0@$$QEAV0@@Z
       1492  5D3 00065510 ??4QPixmap@@QEAAAEAV0@AEBV0@@Z
       1493  5D4 000016C0 ??4QPixmapCache@@QEAAAEAV0@$$QEAV0@@Z
       1494  5D5 000016C0 ??4QPixmapCache@@QEAAAEAV0@AEBV0@@Z
       1495  5D6 000C12B0 ??4QPlatformAccessibility@@QEAAAEAV0@AEBV0@@Z
       1496  5D7 00068290 ??4QPlatformBackingStore@@QEAAAEAV0@AEBV0@@Z
       1497  5D8 000FE4F0 ??4QPlatformBackingStoreRhiConfig@@QEAAAEAU0@$$QEAU0@@Z
       1498  5D9 000FE510 ??4QPlatformBackingStoreRhiConfig@@QEAAAEAU0@AEBU0@@Z
       1499  5DA 00077D90 ??4QPlatformCursorImage@@QEAAAEAV0@$$QEAV0@@Z
       1500  5DB 00077DF0 ??4QPlatformCursorImage@@QEAAAEAV0@AEBV0@@Z
       1501  5DC 000804E0 ??4QPlatformDragQtResponse@@QEAAAEAV0@$$QEAV0@@Z
       1502  5DD 0002A240 ??4QPlatformDragQtResponse@@QEAAAEAV0@AEBV0@@Z
       1503  5DE 00080500 ??4QPlatformDropQtResponse@@QEAAAEAV0@$$QEAV0@@Z
       1504  5DF 00002040 ??4QPlatformDropQtResponse@@QEAAAEAV0@AEBV0@@Z
       1505  5E0 000016C0 ??4QPlatformFontDatabase@@QEAAAEAV0@AEBV0@@Z
       1506  5E1 000016C0 ??4QPlatformInputContextFactory@@QEAAAEAV0@$$QEAV0@@Z
       1507  5E2 000016C0 ??4QPlatformInputContextFactory@@QEAAAEAV0@AEBV0@@Z
       1508  5E3 000016C0 ??4QPlatformIntegrationFactory@@QEAAAEAV0@$$QEAV0@@Z
       1509  5E4 000016C0 ??4QPlatformIntegrationFactory@@QEAAAEAV0@AEBV0@@Z
       1510  5E5 000016C0 ??4QPlatformKeyMapper@@QEAAAEAV0@AEBV0@@Z
       1511  5E6 00006130 ??4QPlatformPixmap@@QEAAAEAV0@AEBV0@@Z
       1512  5E7 000017A0 ??4QPlatformSurfaceEvent@@IEAAAEAV0@AEBV0@@Z
       1513  5E8 000016C0 ??4QPlatformThemeFactory@@QEAAAEAV0@$$QEAV0@@Z
       1514  5E9 000016C0 ??4QPlatformThemeFactory@@QEAAAEAV0@AEBV0@@Z
       1515  5EA 000CA060 ??4QPlatformThemePrivate@@QEAAAEAV0@AEBV0@@Z
       1516  5EB 00001F80 ??4QPointerEvent@@IEAAAEAV0@AEBV0@@Z
       1517  5EC 00002040 ??4QPointingDeviceUniqueId@@QEAAAEAV0@$$QEAV0@@Z
       1518  5ED 00002040 ??4QPointingDeviceUniqueId@@QEAAAEAV0@AEBV0@@Z
       1519  5EE 0009FE00 ??4QQuaternion@@QEAAAEAV0@$$QEAV0@@Z
       1520  5EF 00001870 ??4QQuaternion@@QEAAAEAV0@AEBV0@@Z
       1521  5F0 00001880 ??4QRadialGradient@@QEAAAEAV0@AEBV0@@Z
       1522  5F1 000657B0 ??4QRasterPlatformPixmap@@QEAAAEAV0@AEBV0@@Z
       1523  5F2 000017F0 ??4QRawFont@@QEAAAEAV0@$$QEAV0@@Z
       1524  5F3 002A6AD0 ??4QRawFont@@QEAAAEAV0@AEBV0@@Z
       1525  5F4 001BB930 ??4QRawFontPrivate@@QEAAAEAV0@AEBV0@@Z
       1526  5F5 000017F0 ??4QRegion@@QEAAAEAV0@$$QEAV0@@Z
       1527  5F6 00214D60 ??4QRegion@@QEAAAEAV0@AEBV0@@Z
       1528  5F7 00001760 ??4QResizeEvent@@IEAAAEAV0@AEBV0@@Z
       1529  5F8 001009E0 ??4QRhiColorAttachment@@QEAAAEAV0@$$QEAV0@@Z
       1530  5F9 00100A20 ??4QRhiColorAttachment@@QEAAAEAV0@AEBV0@@Z
       1531  5FA 00100A40 ??4QRhiD3D11InitParams@@QEAAAEAU0@$$QEAU0@@Z
       1532  5FB 00100A40 ??4QRhiD3D11InitParams@@QEAAAEAU0@AEBU0@@Z
       1533  5FC 00100A50 ??4QRhiD3D11NativeHandles@@QEAAAEAU0@$$QEAU0@@Z
       1534  5FD 00100A80 ??4QRhiD3D11NativeHandles@@QEAAAEAU0@AEBU0@@Z
       1535  5FE 00002040 ??4QRhiD3D12CommandBufferNativeHandles@@QEAAAEAU0@$$QEAU0@@Z
       1536  5FF 00002040 ??4QRhiD3D12CommandBufferNativeHandles@@QEAAAEAU0@AEBU0@@Z
       1537  600 00100A40 ??4QRhiD3D12InitParams@@QEAAAEAU0@$$QEAU0@@Z
       1538  601 00100A40 ??4QRhiD3D12InitParams@@QEAAAEAU0@AEBU0@@Z
       1539  602 00100AA0 ??4QRhiD3D12NativeHandles@@QEAAAEAU0@$$QEAU0@@Z
       1540  603 00100A80 ??4QRhiD3D12NativeHandles@@QEAAAEAU0@AEBU0@@Z
       1541  604 00100AD0 ??4QRhiDepthStencilClearValue@@QEAAAEAV0@$$QEAV0@@Z
       1542  605 00002040 ??4QRhiDepthStencilClearValue@@QEAAAEAV0@AEBV0@@Z
       1543  606 00100AE0 ??4QRhiDriverInfo@@QEAAAEAU0@$$QEAU0@@Z
       1544  607 00100B20 ??4QRhiDriverInfo@@QEAAAEAU0@AEBU0@@Z
       1545  608 00100B60 ??4QRhiGles2InitParams@@QEAAAEAU0@$$QEAU0@@Z
       1546  609 00100B60 ??4QRhiGles2InitParams@@QEAAAEAU0@AEBU0@@Z
       1547  60A 00002040 ??4QRhiGles2NativeHandles@@QEAAAEAU0@$$QEAU0@@Z
       1548  60B 00002040 ??4QRhiGles2NativeHandles@@QEAAAEAU0@AEBU0@@Z
       1549  60C 000016C0 ??4QRhiInitParams@@QEAAAEAU0@$$QEAU0@@Z
       1550  60D 000016C0 ??4QRhiInitParams@@QEAAAEAU0@AEBU0@@Z
       1551  60E 000016C0 ??4QRhiNativeHandles@@QEAAAEAU0@$$QEAU0@@Z
       1552  60F 000016C0 ??4QRhiNativeHandles@@QEAAAEAU0@AEBU0@@Z
       1553  610 000016C0 ??4QRhiNullInitParams@@QEAAAEAU0@$$QEAU0@@Z
       1554  611 000016C0 ??4QRhiNullInitParams@@QEAAAEAU0@AEBU0@@Z
       1555  612 000016C0 ??4QRhiNullNativeHandles@@QEAAAEAU0@$$QEAU0@@Z
       1556  613 000016C0 ??4QRhiNullNativeHandles@@QEAAAEAU0@AEBU0@@Z
       1557  614 00027850 ??4QRhiReadbackDescription@@QEAAAEAV0@$$QEAV0@@Z
       1558  615 00001870 ??4QRhiReadbackDescription@@QEAAAEAV0@AEBV0@@Z
       1559  616 00100BA0 ??4QRhiReadbackResult@@QEAAAEAU0@$$QEAU0@@Z
       1560  617 00100C50 ??4QRhiReadbackResult@@QEAAAEAU0@AEBU0@@Z
       1561  618 00001870 ??4QRhiScissor@@QEAAAEAV0@$$QEAV0@@Z
       1562  619 00001870 ??4QRhiScissor@@QEAAAEAV0@AEBV0@@Z
       1563  61A 00100D00 ??4QRhiShaderResourceBinding@@QEAAAEAV0@$$QEAV0@@Z
       1564  61B 00100D00 ??4QRhiShaderResourceBinding@@QEAAAEAV0@AEBV0@@Z
       1565  61C 00100D80 ??4QRhiShaderStage@@QEAAAEAV0@$$QEAV0@@Z
       1566  61D 00100DA0 ??4QRhiShaderStage@@QEAAAEAV0@AEBV0@@Z
       1567  61E 00100DE0 ??4QRhiStats@@QEAAAEAU0@$$QEAU0@@Z
       1568  61F 00100E10 ??4QRhiStats@@QEAAAEAU0@AEBU0@@Z
       1569  620 00100E30 ??4QRhiTextureCopyDescription@@QEAAAEAV0@$$QEAV0@@Z
       1570  621 00100E10 ??4QRhiTextureCopyDescription@@QEAAAEAV0@AEBV0@@Z
       1571  622 00100E70 ??4QRhiTextureRenderTargetDescription@@QEAAAEAV0@$$QEAV0@@Z
       1572  623 00100F20 ??4QRhiTextureRenderTargetDescription@@QEAAAEAV0@AEBV0@@Z
       1573  624 00100F90 ??4QRhiTextureSubresourceUploadDescription@@QEAAAEAV0@$$QEAV0@@Z
       1574  625 00101020 ??4QRhiTextureSubresourceUploadDescription@@QEAAAEAV0@AEBV0@@Z
       1575  626 00101070 ??4QRhiTextureUploadDescription@@QEAAAEAV0@$$QEAV0@@Z
       1576  627 00101140 ??4QRhiTextureUploadDescription@@QEAAAEAV0@AEBV0@@Z
       1577  628 001011C0 ??4QRhiTextureUploadEntry@@QEAAAEAV0@$$QEAV0@@Z
       1578  629 00101250 ??4QRhiTextureUploadEntry@@QEAAAEAV0@AEBV0@@Z
       1579  62A 001012C0 ??4QRhiVertexInputAttribute@@QEAAAEAV0@$$QEAV0@@Z
       1580  62B 001012E0 ??4QRhiVertexInputAttribute@@QEAAAEAV0@AEBV0@@Z
       1581  62C 001012F0 ??4QRhiVertexInputBinding@@QEAAAEAV0@$$QEAV0@@Z
       1582  62D 000FE510 ??4QRhiVertexInputBinding@@QEAAAEAV0@AEBV0@@Z
       1583  62E 00101310 ??4QRhiVertexInputLayout@@QEAAAEAV0@$$QEAV0@@Z
       1584  62F 00101410 ??4QRhiVertexInputLayout@@QEAAAEAV0@AEBV0@@Z
       1585  630 00101470 ??4QRhiViewport@@QEAAAEAV0@$$QEAV0@@Z
       1586  631 0002A240 ??4QRhiViewport@@QEAAAEAV0@AEBV0@@Z
       1587  632 00002050 ??4QScreenOrientationChangeEvent@@IEAAAEAV0@AEBV0@@Z
       1588  633 00002090 ??4QScrollEvent@@IEAAAEAV0@AEBV0@@Z
       1589  634 000020D0 ??4QScrollPrepareEvent@@IEAAAEAV0@AEBV0@@Z
       1590  635 000017F0 ??4QShader@@QEAAAEAV0@$$QEAV0@@Z
       1591  636 0024DA90 ??4QShader@@QEAAAEAV0@AEBV0@@Z
       1592  637 00101490 ??4QShaderCode@@QEAAAEAV0@$$QEAV0@@Z
       1593  638 001014D0 ??4QShaderCode@@QEAAAEAV0@AEBV0@@Z
       1594  639 00259890 ??4QShaderDescription@@QEAAAEAV0@AEBV0@@Z
       1595  63A 00259900 ??4QShaderDescriptionPrivate@@QEAAAEAU0@AEBU0@@Z
       1596  63B 00101510 ??4QShaderKey@@QEAAAEAV0@$$QEAV0@@Z
       1597  63C 00001870 ??4QShaderKey@@QEAAAEAV0@AEBV0@@Z
       1598  63D 0024DB70 ??4QShaderPrivate@@QEAAAEAU0@AEBU0@@Z
       1599  63E 00100AD0 ??4QShaderVersion@@QEAAAEAV0@$$QEAV0@@Z
       1600  63F 00002040 ??4QShaderVersion@@QEAAAEAV0@AEBV0@@Z
       1601  640 00002120 ??4QShortcutEvent@@IEAAAEAV0@AEBV0@@Z
       1602  641 00001830 ??4QShowEvent@@IEAAAEAV0@AEBV0@@Z
       1603  642 00002160 ??4QSinglePointEvent@@IEAAAEAV0@AEBV0@@Z
       1604  643 00029B90 ??4QStackTextEngine@@QEAAAEAV0@$$QEAV0@@Z
       1605  644 00029B90 ??4QStackTextEngine@@QEAAAEAV0@AEBV0@@Z
       1606  645 00348CF0 ??4QStandardItem@@IEAAAEAV0@AEBV0@@Z
       1607  646 000017F0 ??4QStaticText@@QEAAAEAV0@$$QEAV0@@Z
       1608  647 002A8B10 ??4QStaticText@@QEAAAEAV0@AEBV0@@Z
       1609  648 001A2AC0 ??4QStaticTextItem@@QEAAAEAV0@$$QEAV0@@Z
       1610  649 001A2BC0 ??4QStaticTextItem@@QEAAAEAV0@AEBV0@@Z
       1611  64A 001A2CC0 ??4QStaticTextUserData@@QEAAAEAV0@AEBV0@@Z
       1612  64B 000022A0 ??4QStatusTipEvent@@IEAAAEAV0@AEBV0@@Z
       1613  64C 002A54D0 ??4QSupportedWritingSystems@@QEAAAEAV0@AEBV0@@Z
       1614  64D 000022E0 ??4QSurface@@QEAAAEAV0@AEBV0@@Z
       1615  64E 000DB110 ??4QSurfaceFormat@@QEAAAEAV0@AEBV0@@Z
       1616  64F 00002300 ??4QTabletEvent@@IEAAAEAV0@AEBV0@@Z
       1617  650 000275A0 ??4QTextBlock@@QEAAAEAV0@AEBV0@@Z
       1618  651 00029C00 ??4QTextBlockFormat@@QEAAAEAV0@$$QEAV0@@Z
       1619  652 00029C00 ??4QTextBlockFormat@@QEAAAEAV0@AEBV0@@Z
       1620  653 000016C0 ??4QTextBlockUserData@@QEAAAEAV0@AEBV0@@Z
       1621  654 00029C00 ??4QTextCharFormat@@QEAAAEAV0@$$QEAV0@@Z
       1622  655 00029C00 ??4QTextCharFormat@@QEAAAEAV0@AEBV0@@Z
       1623  656 000017F0 ??4QTextCursor@@QEAAAEAV0@$$QEAV0@@Z
       1624  657 002AD1E0 ??4QTextCursor@@QEAAAEAV0@AEBV0@@Z
       1625  658 002D27E0 ??4QTextDocumentFragment@@QEAAAEAV0@AEBV0@@Z
       1626  659 00029C20 ??4QTextEngine@@QEAAAEAV0@AEBV0@@Z
       1627  65A 00302E00 ??4QTextFormat@@QEAAAEAV0@AEBV0@@Z
       1628  65B 00027850 ??4QTextFragment@@QEAAAEAV0@AEBV0@@Z
       1629  65C 00029C00 ??4QTextFrameFormat@@QEAAAEAV0@$$QEAV0@@Z
       1630  65D 00029C00 ??4QTextFrameFormat@@QEAAAEAV0@AEBV0@@Z
       1631  65E 000016C0 ??4QTextFrameLayoutData@@QEAAAEAV0@AEBV0@@Z
       1632  65F 00029C00 ??4QTextImageFormat@@QEAAAEAV0@$$QEAV0@@Z
       1633  660 00029C00 ??4QTextImageFormat@@QEAAAEAV0@AEBV0@@Z
       1634  661 00029F40 ??4QTextInlineObject@@QEAAAEAV0@$$QEAV0@@Z
       1635  662 00001870 ??4QTextInlineObject@@QEAAAEAV0@AEBV0@@Z
       1636  663 000016C0 ??4QTextItem@@QEAAAEAV0@$$QEAV0@@Z
       1637  664 000016C0 ??4QTextItem@@QEAAAEAV0@AEBV0@@Z
       1638  665 00029F40 ??4QTextLength@@QEAAAEAV0@$$QEAV0@@Z
       1639  666 00001870 ??4QTextLength@@QEAAAEAV0@AEBV0@@Z
       1640  667 00029F40 ??4QTextLine@@QEAAAEAV0@$$QEAV0@@Z
       1641  668 00001870 ??4QTextLine@@QEAAAEAV0@AEBV0@@Z
       1642  669 00029C00 ??4QTextListFormat@@QEAAAEAV0@$$QEAV0@@Z
       1643  66A 00029C00 ??4QTextListFormat@@QEAAAEAV0@AEBV0@@Z
       1644  66B 002B60B0 ??4QTextMarkdownImporter@@QEAAAEAV0@$$QEAV0@@Z
       1645  66C 002B63B0 ??4QTextMarkdownImporter@@QEAAAEAV0@AEBV0@@Z
       1646  66D 000016C0 ??4QTextObjectInterface@@QEAAAEAV0@AEBV0@@Z
       1647  66E 00329DB0 ??4QTextOption@@QEAAAEAV0@AEBV0@@Z
       1648  66F 000275A0 ??4QTextTableCell@@QEAAAEAV0@AEBV0@@Z
       1649  670 00029C00 ??4QTextTableCellFormat@@QEAAAEAV0@$$QEAV0@@Z
       1650  671 00029C00 ??4QTextTableCellFormat@@QEAAAEAV0@AEBV0@@Z
       1651  672 00029C00 ??4QTextTableFormat@@QEAAAEAV0@$$QEAV0@@Z
       1652  673 00029C00 ??4QTextTableFormat@@QEAAAEAV0@AEBV0@@Z
       1653  674 0033E9C0 ??4QTextureFileData@@QEAAAEAV0@AEBV0@@Z
       1654  675 00340790 ??4QTextureFileReader@@QEAAAEAV0@AEBV0@@Z
       1655  676 00002340 ??4QToolBarChangeEvent@@IEAAAEAV0@AEBV0@@Z
       1656  677 00002370 ??4QTouchEvent@@IEAAAEAV0@AEBV0@@Z
       1657  678 000DC430 ??4QTouchEventSequence@QTest@@QEAAAEAV01@AEBV01@@Z
       1658  679 00002460 ??4QTransform@@QEAAAEAV0@$$QEAV0@@Z
       1659  67A 000024D0 ??4QTransform@@QEAAAEAV0@AEBV0@@Z
       1660  67B 000022A0 ??4QWhatsThisClickedEvent@@IEAAAEAV0@AEBV0@@Z
       1661  67C 00002500 ??4QWheelEvent@@IEAAAEAV0@AEBV0@@Z
       1662  67D 00002540 ??4QWindowStateChangeEvent@@IEAAAEAV0@AEBV0@@Z
       1663  67E 000016C0 ??4QWindowSystemEventHandler@@QEAAAEAV0@AEBV0@@Z
       1664  67F 000016C0 ??4QWindowSystemInterface@@QEAAAEAV0@$$QEAV0@@Z
       1665  680 000016C0 ??4QWindowSystemInterface@@QEAAAEAV0@AEBV0@@Z
       1666  681 000016C0 ??4QWindowSystemInterfacePrivate@@QEAAAEAV0@$$QEAV0@@Z
       1667  682 000016C0 ??4QWindowSystemInterfacePrivate@@QEAAAEAV0@AEBV0@@Z
       1668  683 0008CAC0 ??4QtFontFamily@@QEAAAEAU0@AEBU0@@Z
       1669  684 0008CCA0 ??4QtFontFoundry@@QEAAAEAU0@AEBU0@@Z
       1670  685 0008CCE0 ??4QtFontSize@@QEAAAEAU0@$$QEAU0@@Z
       1671  686 00001870 ??4QtFontSize@@QEAAAEAU0@AEBU0@@Z
       1672  687 0008CD00 ??4QtFontStyle@@QEAAAEAU0@AEBU0@@Z
       1673  688 000016C0 ??4Scanner@QCss@@QEAAAEAV01@$$QEAV01@@Z
       1674  689 000016C0 ??4Scanner@QCss@@QEAAAEAV01@AEBV01@@Z
       1675  68A 00029F50 ??4Selector@QCss@@QEAAAEAU01@$$QEAU01@@Z
       1676  68B 00029FB0 ??4Selector@QCss@@QEAAAEAU01@AEBU01@@Z
       1677  68C 00363020 ??4ShaderDesc@QOpenGLProgramBinaryCache@@QEAAAEAU01@$$QEAU01@@Z
       1678  68D 00363050 ??4ShaderDesc@QOpenGLProgramBinaryCache@@QEAAAEAU01@AEBU01@@Z
       1679  68E 0002A010 ??4StyleSelector@QCss@@QEAAAEAV01@AEBV01@@Z
       1680  68F 00002580 ??4Tab@QTextOption@@QEAAAEAU01@$$QEAU01@@Z
       1681  690 00001870 ??4Tab@QTextOption@@QEAAAEAU01@AEBU01@@Z
       1682  691 00008F90 ??4TabletEvent@QWindowSystemInterfacePrivate@@QEAAAEAV01@$$QEAV01@@Z
       1683  692 00009060 ??4TabletEvent@QWindowSystemInterfacePrivate@@QEAAAEAV01@AEBV01@@Z
       1684  693 0002A0D0 ??4ValueExtractor@QCss@@QEAAAEAU01@$$QEAU01@@Z
       1685  694 0002A180 ??4ValueExtractor@QCss@@QEAAAEAU01@AEBU01@@Z
       1686  695 0002A210 ??4glyph_metrics_t@@QEAAAEAU0@$$QEAU0@@Z
       1687  696 0002A240 ??4glyph_metrics_t@@QEAAAEAU0@AEBU0@@Z
       1688  697 002242A0 ??5@YAAEAVQDataStream@@AEAV0@AEAUAffine@QTransform@@@Z
       1689  698 00275690 ??5@YAAEAVQDataStream@@AEAV0@AEAUTag@QFont@@@Z
       1690  699 0011F8C0 ??5@YAAEAVQDataStream@@AEAV0@AEAVQBrush@@@Z
       1691  69A 00123EF0 ??5@YAAEAVQDataStream@@AEAV0@AEAVQColor@@@Z
       1692  69B 0012EE00 ??5@YAAEAVQDataStream@@AEAV0@AEAVQColorSpace@@@Z
       1693  69C 00077E20 ??5@YAAEAVQDataStream@@AEAV0@AEAVQCursor@@@Z
       1694  69D 00275700 ??5@YAAEAVQDataStream@@AEAV0@AEAVQFont@@@Z
       1695  69E 0000FDA0 ??5@YAAEAVQDataStream@@AEAV0@AEAVQIcon@@@Z
       1696  69F 0002A260 ??5@YAAEAVQDataStream@@AEAV0@AEAVQImage@@@Z
       1697  6A0 003F6DB0 ??5@YAAEAVQDataStream@@AEAV0@AEAVQKeySequence@@@Z
       1698  6A1 000F6960 ??5@YAAEAVQDataStream@@AEAV0@AEAVQMatrix4x4@@@Z
       1699  6A2 00195C90 ??5@YAAEAVQDataStream@@AEAV0@AEAVQPageRanges@@@Z
       1700  6A3 001CF3F0 ??5@YAAEAVQDataStream@@AEAV0@AEAVQPainterPath@@@Z
       1701  6A4 000AF880 ??5@YAAEAVQDataStream@@AEAV0@AEAVQPalette@@@Z
       1702  6A5 001EB4B0 ??5@YAAEAVQDataStream@@AEAV0@AEAVQPen@@@Z
       1703  6A6 00061870 ??5@YAAEAVQDataStream@@AEAV0@AEAVQPicture@@@Z
       1704  6A7 00065810 ??5@YAAEAVQDataStream@@AEAV0@AEAVQPixmap@@@Z
       1705  6A8 0020DFA0 ??5@YAAEAVQDataStream@@AEAV0@AEAVQPolygon@@@Z
       1706  6A9 0020DFB0 ??5@YAAEAVQDataStream@@AEAV0@AEAVQPolygonF@@@Z
       1707  6AA 000FB5C0 ??5@YAAEAVQDataStream@@AEAV0@AEAVQQuaternion@@@Z
       1708  6AB 00214E10 ??5@YAAEAVQDataStream@@AEAV0@AEAVQRegion@@@Z
       1709  6AC 00348DA0 ??5@YAAEAVQDataStream@@AEAV0@AEAVQStandardItem@@@Z
       1710  6AD 00302E60 ??5@YAAEAVQDataStream@@AEAV0@AEAVQTextBlockFormat@@@Z
       1711  6AE 00302E60 ??5@YAAEAVQDataStream@@AEAV0@AEAVQTextCharFormat@@@Z
       1712  6AF 00302E70 ??5@YAAEAVQDataStream@@AEAV0@AEAVQTextFormat@@@Z
       1713  6B0 00302E60 ??5@YAAEAVQDataStream@@AEAV0@AEAVQTextFrameFormat@@@Z
       1714  6B1 00303360 ??5@YAAEAVQDataStream@@AEAV0@AEAVQTextLength@@@Z
       1715  6B2 00302E60 ??5@YAAEAVQDataStream@@AEAV0@AEAVQTextListFormat@@@Z
       1716  6B3 00302E60 ??5@YAAEAVQDataStream@@AEAV0@AEAVQTextTableCellFormat@@@Z
       1717  6B4 002243E0 ??5@YAAEAVQDataStream@@AEAV0@AEAVQTransform@@@Z
       1718  6B5 000FD430 ??5@YAAEAVQDataStream@@AEAV0@AEAVQVector2D@@@Z
       1719  6B6 000FD480 ??5@YAAEAVQDataStream@@AEAV0@AEAVQVector3D@@@Z
       1720  6B7 000FB5C0 ??5@YAAEAVQDataStream@@AEAV0@AEAVQVector4D@@@Z
       1721  6B8 00259E60 ??6@YA?AVQDebug@@V0@AEBUBlockVariable@QShaderDescription@@@Z
       1722  6B9 0025A1B0 ??6@YA?AVQDebug@@V0@AEBUBuiltinVariable@QShaderDescription@@@Z
       1723  6BA 0025A430 ??6@YA?AVQDebug@@V0@AEBUInOutVariable@QShaderDescription@@@Z
       1724  6BB 0025A840 ??6@YA?AVQDebug@@V0@AEBUPushConstantBlock@QShaderDescription@@@Z
       1725  6BC 0023DA70 ??6@YA?AVQDebug@@V0@AEBUQRhiDriverInfo@@@Z
       1726  6BD 0023DBD0 ??6@YA?AVQDebug@@V0@AEBUQRhiStats@@@Z
       1727  6BE 0023DD00 ??6@YA?AVQDebug@@V0@AEBUQRhiSwapChainHdrInfo@@@Z
       1728  6BF 000A2B20 ??6@YA?AVQDebug@@V0@AEBUScreenFactor@QHighDpiScaling@@@Z
       1729  6C0 0025A910 ??6@YA?AVQDebug@@V0@AEBUStorageBlock@QShaderDescription@@@Z
       1730  6C1 000EF300 ??6@YA?AVQDebug@@V0@AEBUTouchPoint@QWindowSystemInterface@@@Z
       1731  6C2 0025AAF0 ??6@YA?AVQDebug@@V0@AEBUUniformBlock@QShaderDescription@@@Z
       1732  6C3 003E24E0 ??6@YA?AVQDebug@@V0@AEBVQAccessibleEvent@@@Z
       1733  6C4 0011FF50 ??6@YA?AVQDebug@@V0@AEBVQBrush@@@Z
       1734  6C5 00124060 ??6@YA?AVQDebug@@V0@AEBVQColor@@@Z
       1735  6C6 0012F160 ??6@YA?AVQDebug@@V0@AEBVQColorSpace@@@Z
       1736  6C7 00078090 ??6@YA?AVQDebug@@V0@AEBVQCursor@@@Z
       1737  6C8 00080510 ??6@YA?AVQDebug@@V0@AEBVQEventPoint@@@Z
       1738  6C9 002765A0 ??6@YA?AVQDebug@@V0@AEBVQFont@@@Z
       1739  6CA 00010360 ??6@YA?AVQDebug@@V0@AEBVQIcon@@@Z
       1740  6CB 0002A470 ??6@YA?AVQDebug@@V0@AEBVQImage@@@Z
       1741  6CC 003F6EF0 ??6@YA?AVQDebug@@V0@AEBVQKeySequence@@@Z
       1742  6CD 000F6A40 ??6@YA?AVQDebug@@V0@AEBVQMatrix4x4@@@Z
       1743  6CE 00192980 ??6@YA?AVQDebug@@V0@AEBVQPageLayout@@@Z
       1744  6CF 00195D40 ??6@YA?AVQDebug@@V0@AEBVQPageRanges@@@Z
       1745  6D0 00198390 ??6@YA?AVQDebug@@V0@AEBVQPageSize@@@Z
       1746  6D1 001CF8C0 ??6@YA?AVQDebug@@V0@AEBVQPainterPath@@@Z
       1747  6D2 000AFCB0 ??6@YA?AVQDebug@@V0@AEBVQPalette@@@Z
       1748  6D3 001EBA70 ??6@YA?AVQDebug@@V0@AEBVQPen@@@Z
       1749  6D4 00065BD0 ??6@YA?AVQDebug@@V0@AEBVQPixmap@@@Z
       1750  6D5 0020DFC0 ??6@YA?AVQDebug@@V0@AEBVQPolygon@@@Z
       1751  6D6 0020E0F0 ??6@YA?AVQDebug@@V0@AEBVQPolygonF@@@Z
       1752  6D7 000FB640 ??6@YA?AVQDebug@@V0@AEBVQQuaternion@@@Z
       1753  6D8 00214E70 ??6@YA?AVQDebug@@V0@AEBVQRegion@@@Z
       1754  6D9 0023DE50 ??6@YA?AVQDebug@@V0@AEBVQRhiDepthStencilClearValue@@@Z
       1755  6DA 0023DF00 ??6@YA?AVQDebug@@V0@AEBVQRhiScissor@@@Z
       1756  6DB 0023E000 ??6@YA?AVQDebug@@V0@AEBVQRhiShaderResourceBinding@@@Z
       1757  6DC 0023E3F0 ??6@YA?AVQDebug@@V0@AEBVQRhiShaderResourceBindings@@@Z
       1758  6DD 0023E5A0 ??6@YA?AVQDebug@@V0@AEBVQRhiShaderStage@@@Z
       1759  6DE 0023E690 ??6@YA?AVQDebug@@V0@AEBVQRhiVertexInputAttribute@@@Z
       1760  6DF 0023E770 ??6@YA?AVQDebug@@V0@AEBVQRhiVertexInputBinding@@@Z
       1761  6E0 0023E830 ??6@YA?AVQDebug@@V0@AEBVQRhiVertexInputLayout@@@Z
       1762  6E1 0023E940 ??6@YA?AVQDebug@@V0@AEBVQRhiViewport@@@Z
       1763  6E2 0024DD00 ??6@YA?AVQDebug@@V0@AEBVQShader@@@Z
       1764  6E3 0025AC30 ??6@YA?AVQDebug@@V0@AEBVQShaderDescription@@@Z
       1765  6E4 0024E0C0 ??6@YA?AVQDebug@@V0@AEBVQShaderKey@@@Z
       1766  6E5 0024E280 ??6@YA?AVQDebug@@V0@AEBVQShaderVersion@@@Z
       1767  6E6 002A5550 ??6@YA?AVQDebug@@V0@AEBVQSupportedWritingSystems@@@Z
       1768  6E7 000DB180 ??6@YA?AVQDebug@@V0@AEBVQSurfaceFormat@@@Z
       1769  6E8 003033B0 ??6@YA?AVQDebug@@V0@AEBVQTextFormat@@@Z
       1770  6E9 00303440 ??6@YA?AVQDebug@@V0@AEBVQTextLength@@@Z
       1771  6EA 0033EA10 ??6@YA?AVQDebug@@V0@AEBVQTextureFileData@@@Z
       1772  6EB 002244F0 ??6@YA?AVQDebug@@V0@AEBVQTransform@@@Z
       1773  6EC 003E2A00 ??6@YA?AVQDebug@@V0@PEBVQAccessibleInterface@@@Z
       1774  6ED 003ED590 ??6@YA?AVQDebug@@V0@PEBVQAction@@@Z
       1775  6EE 000809D0 ??6@YA?AVQDebug@@V0@PEBVQEvent@@@Z
       1776  6EF 00081910 ??6@YA?AVQDebug@@V0@PEBVQEventPoint@@@Z
       1777  6F0 000A6A10 ??6@YA?AVQDebug@@V0@PEBVQInputDevice@@@Z
       1778  6F1 00355890 ??6@YA?AVQDebug@@V0@PEBVQOpenGLContext@@@Z
       1779  6F2 00355A60 ??6@YA?AVQDebug@@V0@PEBVQOpenGLContextGroup@@@Z
       1780  6F3 000C8030 ??6@YA?AVQDebug@@V0@PEBVQPlatformSurface@@@Z
       1781  6F4 000CFE70 ??6@YA?AVQDebug@@V0@PEBVQPointingDevice@@@Z
       1782  6F5 000D4F40 ??6@YA?AVQDebug@@V0@PEBVQScreen@@@Z
       1783  6F6 000DFA10 ??6@YA?AVQDebug@@V0@PEBVQWindow@@@Z
       1784  6F7 002770B0 ??6@YA?AVQDebug@@V0@UTag@QFont@@@Z
       1785  6F8 000FD4F0 ??6@YA?AVQDebug@@V0@VQVector2D@@@Z
       1786  6F9 000FD590 ??6@YA?AVQDebug@@V0@VQVector3D@@@Z
       1787  6FA 000FD660 ??6@YA?AVQDebug@@V0@VQVector4D@@@Z
       1788  6FB 002246B0 ??6@YAAEAVQDataStream@@AEAV0@AEBUAffine@QTransform@@@Z
       1789  6FC 00120030 ??6@YAAEAVQDataStream@@AEAV0@AEBVQBrush@@@Z
       1790  6FD 00124500 ??6@YAAEAVQDataStream@@AEAV0@AEBVQColor@@@Z
       1791  6FE 0012F440 ??6@YAAEAVQDataStream@@AEAV0@AEBVQColorSpace@@@Z
       1792  6FF 000781E0 ??6@YAAEAVQDataStream@@AEAV0@AEBVQCursor@@@Z
       1793  700 00277160 ??6@YAAEAVQDataStream@@AEAV0@AEBVQFont@@@Z
       1794  701 000106D0 ??6@YAAEAVQDataStream@@AEAV0@AEBVQIcon@@@Z
       1795  702 0002A780 ??6@YAAEAVQDataStream@@AEAV0@AEBVQImage@@@Z
       1796  703 003F7550 ??6@YAAEAVQDataStream@@AEAV0@AEBVQKeySequence@@@Z
       1797  704 000F6D90 ??6@YAAEAVQDataStream@@AEAV0@AEBVQMatrix4x4@@@Z
       1798  705 00195E00 ??6@YAAEAVQDataStream@@AEAV0@AEBVQPageRanges@@@Z
       1799  706 001CFA70 ??6@YAAEAVQDataStream@@AEAV0@AEBVQPainterPath@@@Z
       1800  707 000AFDA0 ??6@YAAEAVQDataStream@@AEAV0@AEBVQPalette@@@Z
       1801  708 001EBD70 ??6@YAAEAVQDataStream@@AEAV0@AEBVQPen@@@Z
       1802  709 00061950 ??6@YAAEAVQDataStream@@AEAV0@AEBVQPicture@@@Z
       1803  70A 00065DC0 ??6@YAAEAVQDataStream@@AEAV0@AEBVQPixmap@@@Z
       1804  70B 0020E220 ??6@YAAEAVQDataStream@@AEAV0@AEBVQPolygon@@@Z
       1805  70C 0020E290 ??6@YAAEAVQDataStream@@AEAV0@AEBVQPolygonF@@@Z
       1806  70D 000FB730 ??6@YAAEAVQDataStream@@AEAV0@AEBVQQuaternion@@@Z
       1807  70E 00215130 ??6@YAAEAVQDataStream@@AEAV0@AEBVQRegion@@@Z
       1808  70F 00348DD0 ??6@YAAEAVQDataStream@@AEAV0@AEBVQStandardItem@@@Z
       1809  710 003034D0 ??6@YAAEAVQDataStream@@AEAV0@AEBVQTextBlockFormat@@@Z
       1810  711 003034D0 ??6@YAAEAVQDataStream@@AEAV0@AEBVQTextCharFormat@@@Z
       1811  712 003034E0 ??6@YAAEAVQDataStream@@AEAV0@AEBVQTextFormat@@@Z
       1812  713 003034D0 ??6@YAAEAVQDataStream@@AEAV0@AEBVQTextFrameFormat@@@Z
       1813  714 00303B50 ??6@YAAEAVQDataStream@@AEAV0@AEBVQTextLength@@@Z
       1814  715 003034D0 ??6@YAAEAVQDataStream@@AEAV0@AEBVQTextListFormat@@@Z
       1815  716 003034D0 ??6@YAAEAVQDataStream@@AEAV0@AEBVQTextTableCellFormat@@@Z
       1816  717 002247C0 ??6@YAAEAVQDataStream@@AEAV0@AEBVQTransform@@@Z
       1817  718 002777F0 ??6@YAAEAVQDataStream@@AEAV0@UTag@QFont@@@Z
       1818  719 000FD740 ??6@YAAEAVQDataStream@@AEAV0@VQVector2D@@@Z
       1819  71A 000FD780 ??6@YAAEAVQDataStream@@AEAV0@VQVector3D@@@Z
       1820  71B 000FB730 ??6@YAAEAVQDataStream@@AEAV0@VQVector4D@@@Z
       1821  71C 001B57B0 ??6@YAAEAVQDebug@@AEAV0@AEBVQVectorPath@@@Z
       1822  71D 000025A0 ??7QPixmap@@QEBA_NXZ
       1823  71E 0025B0E0 ??8@YA_NAEBUBlockVariable@QShaderDescription@@0@Z
       1824  71F 0025B1A0 ??8@YA_NAEBUBuiltinVariable@QShaderDescription@@0@Z
       1825  720 0025B220 ??8@YA_NAEBUInOutVariable@QShaderDescription@@0@Z
       1826  721 0025B2F0 ??8@YA_NAEBUPushConstantBlock@QShaderDescription@@0@Z
       1827  722 0025B380 ??8@YA_NAEBUStorageBlock@QShaderDescription@@0@Z
       1828  723 0025B470 ??8@YA_NAEBUUniformBlock@QShaderDescription@@0@Z
       1829  724 000785C0 ??8@YA_NAEBVQCursor@@0@Z
       1830  725 00006480 ??8@YA_NAEBVQPageSize@@0@Z
       1831  726 0023EA60 ??8@YA_NAEBVQRhiShaderResourceBinding@@0@Z
       1832  727 0024E370 ??8@YA_NAEBVQShader@@0@Z
       1833  728 0024E3F0 ??8@YA_NAEBVQShaderCode@@0@Z
       1834  729 0025B550 ??8@YA_NAEBVQShaderDescription@@0@Z
       1835  72A 0024E540 ??8@YA_NAEBVQShaderKey@@0@Z
       1836  72B 0024E570 ??8@YA_NAEBVQShaderVersion@@0@Z
       1837  72C 002A56E0 ??8@YA_NAEBVQSupportedWritingSystems@@0@Z
       1838  72D 00007640 ??8Key@QPixmapCache@@QEBA_NAEBV01@@Z
       1839  72E 001203D0 ??8QBrush@@QEBA_NAEBV0@@Z
       1840  72F 00124670 ??8QColor@@QEBA_NAEBV0@@Z
       1841  730 0007AB20 ??8QEventPoint@@QEBA_NAEBV0@@Z
       1842  731 00277810 ??8QFont@@QEBA_NAEBV0@@Z
       1843  732 00007640 ??8QFontMetrics@@QEBA_NAEBV0@@Z
       1844  733 00007640 ??8QFontMetricsF@@QEBA_NAEBV0@@Z
       1845  734 002A3DA0 ??8QGlyphRun@@QEBA_NAEBV0@@Z
       1846  735 00120540 ??8QGradient@@QEBA_NAEBV0@@Z
       1847  736 0002A830 ??8QImage@@QEBA_NAEBV0@@Z
       1848  737 000A6C50 ??8QInputDevice@@QEBA_NAEBV0@@Z
       1849  738 003F7610 ??8QKeySequence@@QEBA_NAEBV0@@Z
       1850  739 0009FE20 ??8QMatrix4x4@@QEBA_NAEBV0@@Z
       1851  73A 001CFB60 ??8QPainterPath@@QEBA_NAEBV0@@Z
       1852  73B 000AFEB0 ??8QPalette@@QEBA_NAEBV0@@Z
       1853  73C 001EBF60 ??8QPen@@QEBA_NAEBV0@@Z
       1854  73D 000D0200 ??8QPointingDevice@@QEBA_NAEBV0@@Z
       1855  73E 002A6B70 ??8QRawFont@@QEBA_NAEBV0@@Z
       1856  73F 00215280 ??8QRegion@@QEBA_NAEBV0@@Z
       1857  740 002A8B60 ??8QStaticText@@QEBA_NAEBV0@@Z
       1858  741 0002AAE0 ??8QTextBlock@@QEBA_NAEBV0@@Z
       1859  742 002AD250 ??8QTextCursor@@QEBA_NAEBV0@@Z
       1860  743 00303B80 ??8QTextFormat@@QEBA_NAEBV0@@Z
       1861  744 0002AAE0 ??8QTextFragment@@QEBA_NAEBV0@@Z
       1862  745 0002AB00 ??8QTextLength@@QEBA_NAEBV0@@Z
       1863  746 0002AAE0 ??8QTextTableCell@@QEBA_NAEBV0@@Z
       1864  747 00224860 ??8QTransform@@QEBA_NAEBV0@@Z
       1865  748 000025B0 ??8Tab@QTextOption@@QEBA_NAEBU01@@Z
       1866  749 0023EBA0 ??9@YA_NAEBVQRhiShaderResourceBinding@@0@Z
       1867  74A 002A5720 ??9@YA_NAEBVQSupportedWritingSystems@@0@Z
       1868  74B 00002630 ??9Key@QPixmapCache@@QEBA_NAEBV01@@Z
       1869  74C 00002610 ??9QBrush@@QEBA_NAEBV0@@Z
       1870  74D 00124930 ??9QColor@@QEBA_NAEBV0@@Z
       1871  74E 00002620 ??9QEventPoint@@QEBA_NAEBV0@@Z
       1872  74F 00277A50 ??9QFont@@QEBA_NAEBV0@@Z
       1873  750 00002630 ??9QFontMetrics@@QEBA_NAEBV0@@Z
       1874  751 00002630 ??9QFontMetricsF@@QEBA_NAEBV0@@Z
       1875  752 0002AB60 ??9QGlyphRun@@QEBA_NAEBV0@@Z
       1876  753 00002640 ??9QGradient@@QEBA_NAEBV0@@Z
       1877  754 0002AB70 ??9QImage@@QEBA_NAEBV0@@Z
       1878  755 00002650 ??9QKeySequence@@QEBA_NAEBV0@@Z
       1879  756 0009FF30 ??9QMatrix4x4@@QEBA_NAEBV0@@Z
       1880  757 001CFD60 ??9QPainterPath@@QEBA_NAEBV0@@Z
       1881  758 00010920 ??9QPalette@@QEBA_NAEBV0@@Z
       1882  759 00002660 ??9QPen@@QEBA_NAEBV0@@Z
       1883  75A 0002AB80 ??9QRawFont@@QEBA_NAEBV0@@Z
       1884  75B 00002670 ??9QRegion@@QEBA_NAEBV0@@Z
       1885  75C 002A8C30 ??9QStaticText@@QEBA_NAEBV0@@Z
       1886  75D 0002AB90 ??9QTextBlock@@QEBA_NAEBV0@@Z
       1887  75E 002AD280 ??9QTextCursor@@QEBA_NAEBV0@@Z
       1888  75F 0002ABB0 ??9QTextFormat@@QEBA_NAEBV0@@Z
       1889  760 0002AB90 ??9QTextFragment@@QEBA_NAEBV0@@Z
       1890  761 0002ABC0 ??9QTextLength@@QEBA_NAEBV0@@Z
       1891  762 0002AB90 ??9QTextTableCell@@QEBA_NAEBV0@@Z
       1892  763 002248F0 ??9QTransform@@QEBA_NAEBV0@@Z
       1893  764 00002680 ??9Tab@QTextOption@@QEBA_NAEBU01@@Z
       1894  765 003F7640 ??AQKeySequence@@QEBA?AVQKeyCombination@@I@Z
       1895  766 0000B810 ??BQBitmap@@QEBA?AVQVariant@@XZ
       1896  767 001207A0 ??BQBrush@@QEBA?AVQVariant@@XZ
       1897  768 00124940 ??BQColor@@QEBA?AVQVariant@@XZ
       1898  769 0012F580 ??BQColorSpace@@QEBA?AVQVariant@@XZ
       1899  76A 00078800 ??BQCursor@@QEBA?AVQVariant@@XZ
       1900  76B 00277A60 ??BQFont@@QEBA?AVQVariant@@XZ
       1901  76C 00010A30 ??BQIcon@@QEBA?AVQVariant@@XZ
       1902  76D 0002ACA0 ??BQImage@@QEBA?AVQVariant@@XZ
       1903  76E 003F7650 ??BQKeySequence@@QEBA?AVQVariant@@XZ
       1904  76F 000F6E10 ??BQMatrix4x4@@QEBA?AVQVariant@@XZ
       1905  770 000AFF50 ??BQPalette@@QEBA?AVQVariant@@XZ
       1906  771 001EC0B0 ??BQPen@@QEBA?AVQVariant@@XZ
       1907  772 00065E20 ??BQPixmap@@QEBA?AVQVariant@@XZ
       1908  773 0020E310 ??BQPolygon@@QEBA?AVQVariant@@XZ
       1909  774 0020E340 ??BQPolygonF@@QEBA?AVQVariant@@XZ
       1910  775 000FB790 ??BQQuaternion@@QEBA?AVQVariant@@XZ
       1911  776 002152E0 ??BQRegion@@QEBA?AVQVariant@@XZ
       1912  777 00304070 ??BQTextFormat@@QEBA?AVQVariant@@XZ
       1913  778 003040A0 ??BQTextLength@@QEBA?AVQVariant@@XZ
       1914  779 00224980 ??BQTransform@@QEBA?AVQVariant@@XZ
       1915  77A 000FD7D0 ??BQVector2D@@QEBA?AVQVariant@@XZ
       1916  77B 000FD800 ??BQVector3D@@QEBA?AVQVariant@@XZ
       1917  77C 000FD830 ??BQVector4D@@QEBA?AVQVariant@@XZ
       1918  77D 002249B0 ??DQTransform@@QEBA?AV0@AEBV0@@Z
       1919  77E 00325710 ??Eiterator@QTextBlock@@QEAAAEAV01@XZ
       1920  77F 003257B0 ??Eiterator@QTextFrame@@QEAAAEAV01@XZ
       1921  780 00325B10 ??Fiterator@QTextBlock@@QEAAAEAV01@XZ
       1922  781 00325CA0 ??Fiterator@QTextFrame@@QEAAAEAV01@XZ
       1923  782 001CFD70 ??GQPainterPath@@QEBA?AV0@AEBV0@@Z
       1924  783 00215310 ??GQRegion@@QEBA?AV0@AEBV0@@Z
       1925  784 001CFE10 ??HQPainterPath@@QEBA?AV0@AEBV0@@Z
       1926  785 00215330 ??HQRegion@@QEBA?AV0@AEBV0@@Z
       1927  786 00215350 ??HQRegion@@QEBA?AV0@AEBVQRect@@@Z
       1928  787 001CFED0 ??IQPainterPath@@QEBA?AV0@AEBV0@@Z
       1929  788 00215370 ??IQRegion@@QEBA?AV0@AEBV0@@Z
       1930  789 00215390 ??IQRegion@@QEBA?AV0@AEBVQRect@@@Z
       1931  78A 000F6E40 ??K@YA?AVQMatrix4x4@@AEBV0@M@Z
       1932  78B 0024F380 ??M@YA_NAEBVQShaderKey@@0@Z
       1933  78C 0024F3C0 ??M@YA_NAEBVQShaderVersion@@0@Z
       1934  78D 00277B20 ??MQFont@@QEBA_NAEBV0@@Z
       1935  78E 003F7680 ??MQKeySequence@@QEBA_NAEBV0@@Z
       1936  78F 00348E00 ??MQStandardItem@@UEBA_NAEBV0@@Z
       1937  790 0002ADB0 ??MQTextBlock@@QEBA_NAEBV0@@Z
       1938  791 002AD2C0 ??MQTextCursor@@QEBA_NAEBV0@@Z
       1939  792 0002ADE0 ??MQTextFragment@@QEBA_NAEBV0@@Z
       1940  793 000026E0 ??NQKeySequence@@QEBA_NAEBV0@@Z
       1941  794 002AD2F0 ??NQTextCursor@@QEBA_NAEBV0@@Z
       1942  795 00002700 ??OQKeySequence@@QEBA_NAEBV0@@Z
       1943  796 002AD310 ??OQTextCursor@@QEBA_NAEBV0@@Z
       1944  797 00002710 ??PQKeySequence@@QEBA_NAEBV0@@Z
       1945  798 002AD340 ??PQTextCursor@@QEBA_NAEBV0@@Z
       1946  799 000A0040 ??RQMatrix4x4@@QEAAAEAMHH@Z
       1947  79A 000A0060 ??RQMatrix4x4@@QEBAAEBMHH@Z
       1948  79B 002153B0 ??TQRegion@@QEBA?AV0@AEBV0@@Z
       1949  79C 001CFE10 ??UQPainterPath@@QEBA?AV0@AEBV0@@Z
       1950  79D 00215330 ??UQRegion@@QEBA?AV0@AEBV0@@Z
       1951  79E 000A0070 ??XQMatrix4x4@@QEAAAEAV0@AEBV0@@Z
       1952  79F 000A05D0 ??XQMatrix4x4@@QEAAAEAV0@M@Z
       1953  7A0 000A0640 ??XQQuaternion@@QEAAAEAV0@AEBV0@@Z
       1954  7A1 000A07E0 ??XQQuaternion@@QEAAAEAV0@M@Z
       1955  7A2 00224EA0 ??XQTransform@@QEAAAEAV0@AEBV0@@Z
       1956  7A3 00002720 ??XQTransform@@QEAAAEAV0@N@Z
       1957  7A4 000A0800 ??YQMatrix4x4@@QEAAAEAV0@AEBV0@@Z
       1958  7A5 001CFF60 ??YQPainterPath@@QEAAAEAV0@AEBV0@@Z
       1959  7A6 000A0900 ??YQQuaternion@@QEAAAEAV0@AEBV0@@Z
       1960  7A7 002153D0 ??YQRegion@@QEAAAEAV0@AEBV0@@Z
       1961  7A8 00215590 ??YQRegion@@QEAAAEAV0@AEBVQRect@@@Z
       1962  7A9 000027A0 ??YQTransform@@QEAAAEAV0@N@Z
       1963  7AA 000A0940 ??ZQMatrix4x4@@QEAAAEAV0@AEBV0@@Z
       1964  7AB 001D0030 ??ZQPainterPath@@QEAAAEAV0@AEBV0@@Z
       1965  7AC 000A0A40 ??ZQQuaternion@@QEAAAEAV0@AEBV0@@Z
       1966  7AD 002158A0 ??ZQRegion@@QEAAAEAV0@AEBV0@@Z
       1967  7AE 00002810 ??ZQTransform@@QEAAAEAV0@N@Z
       1968  7AF 000F6F30 ??_0QMatrix4x4@@QEAAAEAV0@M@Z
       1969  7B0 000A0A80 ??_0QQuaternion@@QEAAAEAV0@M@Z
       1970  7B1 00002870 ??_0QTransform@@QEAAAEAV0@N@Z
       1971  7B2 001D00E0 ??_4QPainterPath@@QEAAAEAV0@AEBV0@@Z
       1972  7B3 00215940 ??_4QRegion@@QEAAAEAV0@AEBV0@@Z
       1973  7B4 002159E0 ??_4QRegion@@QEAAAEAV0@AEBVQRect@@@Z
       1974  7B5 001CFF60 ??_5QPainterPath@@QEAAAEAV0@AEBV0@@Z
       1975  7B6 00215A80 ??_5QRegion@@QEAAAEAV0@AEBV0@@Z
       1976  7B7 00215B20 ??_6QRegion@@QEAAAEAV0@AEBV0@@Z
       1977  7B8 00589538 ??_7ActivationObserver@QAccessible@@6B@
       1978  7B9 0057CF28 ??_7QAbstractFileIconEngine@@6B@
       1979  7BA 0057CFD8 ??_7QAbstractFileIconProvider@@6B@
       1980  7BB 0057D190 ??_7QAbstractFileIconProviderPrivate@@6B@
       1981  7BC 005B21E8 ??_7QAbstractLayoutStyleInfo@@6B@
       1982  7BD 005AA078 ??_7QAbstractTextDocumentLayout@@6B@
       1983  7BE 005AA170 ??_7QAbstractTextDocumentLayoutPrivate@@6B@
       1984  7BF 0057CF08 ??_7QAbstractUndoItem@@6B@
       1985  7C0 005897E8 ??_7QAccessibleActionInterface@@6B@
       1986  7C1 005899E8 ??_7QAccessibleAnnouncementEvent@@6B@
       1987  7C2 005C2190 ??_7QAccessibleApplication@@6B@
       1988  7C3 005898F0 ??_7QAccessibleAttributesInterface@@6B@
       1989  7C4 005C1818 ??_7QAccessibleBridge@@6B@
       1990  7C5 005C1F18 ??_7QAccessibleBridgePlugin@@6B@
       1991  7C6 005C17B8 ??_7QAccessibleCache@@6B@
       1992  7C7 00589688 ??_7QAccessibleEditableTextInterface@@6B@
       1993  7C8 00589910 ??_7QAccessibleEvent@@6B@
       1994  7C9 00589868 ??_7QAccessibleHyperlinkInterface@@6B@
       1995  7CA 00589840 ??_7QAccessibleImageInterface@@6B@
       1996  7CB 00589550 ??_7QAccessibleInterface@@6B@
       1997  7CC 005C20E8 ??_7QAccessibleObject@@6B@
       1998  7CD 005C22F8 ??_7QAccessiblePlugin@@6B@
       1999  7CE 005898A0 ??_7QAccessibleSelectionInterface@@6B@
       2000  7CF 00589928 ??_7QAccessibleStateChangeEvent@@6B@
       2001  7D0 005896E8 ??_7QAccessibleTableCellInterface@@6B@
       2002  7D1 00589738 ??_7QAccessibleTableInterface@@6B@
       2003  7D2 005899D0 ??_7QAccessibleTableModelChangeEvent@@6B@
       2004  7D3 00589940 ??_7QAccessibleTextCursorEvent@@6B@
       2005  7D4 00589970 ??_7QAccessibleTextInsertEvent@@6B@
       2006  7D5 005895F8 ??_7QAccessibleTextInterface@@6B@
       2007  7D6 00589988 ??_7QAccessibleTextRemoveEvent@@6B@
       2008  7D7 00589958 ??_7QAccessibleTextSelectionEvent@@6B@
       2009  7D8 005899A0 ??_7QAccessibleTextUpdateEvent@@6B@
       2010  7D9 005899B8 ??_7QAccessibleValueChangeEvent@@6B@
       2011  7DA 005896B0 ??_7QAccessibleValueInterface@@6B@
       2012  7DB 005C2DA0 ??_7QAction@@6B@
       2013  7DC 00587E08 ??_7QActionEvent@@6B@
       2014  7DD 005C3588 ??_7QActionGroup@@6B@
       2015  7DE 005C35E8 ??_7QActionGroupPrivate@@6B@
       2016  7DF 005C2E00 ??_7QActionPrivate@@6B@
       2017  7E0 00587F48 ??_7QApplicationStateChangeEvent@@6B@
       2018  7E1 005C3DC8 ??_7QBasicDrag@@6BQObject@@@
       2019  7E2 005C3D70 ??_7QBasicDrag@@6BQPlatformDrag@@@
       2020  7E3 0057CBE8 ??_7QBitmap@@6B@
       2021  7E4 00581798 ??_7QBlittable@@6B@
       2022  7E5 005816D8 ??_7QBlittablePlatformPixmap@@6B@
       2023  7E6 005A4638 ??_7QBlitterPaintEngine@@6B@
       2024  7E7 00587F68 ??_7QChildWindowEvent@@6B@
       2025  7E8 00586B00 ??_7QClipboard@@6B@
       2026  7E9 00587C40 ??_7QCloseEvent@@6B@
       2027  7EA 00587CC0 ??_7QContextMenuEvent@@6B@
       2028  7EB 005A7090 ??_7QDashStroker@@6B@
       2029  7EC 005B3410 ??_7QDoubleValidator@@6B@
       2030  7ED 005C38E0 ??_7QDrag@@6B@
       2031  7EE 00587D68 ??_7QDragEnterEvent@@6B@
       2032  7EF 00587D88 ??_7QDragLeaveEvent@@6B@
       2033  7F0 005C36C8 ??_7QDragManager@@6B@
       2034  7F1 00587D48 ??_7QDragMoveEvent@@6B@
       2035  7F2 00587D28 ??_7QDropEvent@@6B@
       2036  7F3 005879D8 ??_7QEnterEvent@@6B@
       2037  7F4 00587BE0 ??_7QExposeEvent@@6B@
       2038  7F5 005CFD90 ??_7QFileInfoGatherer@@6B@
       2039  7F6 00587E28 ??_7QFileOpenEvent@@6B@
       2040  7F7 005D0280 ??_7QFileSystemModel@@6B@
       2041  7F8 005D0408 ??_7QFileSystemModelPrivate@@6B@
       2042  7F9 00587B80 ??_7QFocusEvent@@6B@
       2043  7FA 005AB090 ??_7QFontCache@@6B@
       2044  7FB 005AC4A8 ??_7QFontEngine@@6B@
       2045  7FC 0057F2B0 ??_7QFontEngineGlyphCache@@6B@
       2046  7FD 005AC7F8 ??_7QFontEngineMulti@@6B@
       2047  7FE 005888B8 ??_7QGenericPlugin@@6B@
       2048  7FF 005B2388 ??_7QGridLayoutItem@@6B@
       2049  800 00589230 ??_7QGuiApplication@@6B@
       2050  801 005892C0 ??_7QGuiApplicationPrivate@@6B@
       2051  802 00587DA8 ??_7QHelpEvent@@6B@
       2052  803 00587CA0 ??_7QHideEvent@@6B@
       2053  804 00587A58 ??_7QHoverEvent@@6B@
       2054  805 00587C60 ??_7QIconDragEvent@@6B@
       2055  806 0057E2B0 ??_7QIconEngine@@6B@
       2056  807 0057E3F8 ??_7QIconEnginePlugin@@6B@
       2057  808 0057CB68 ??_7QImage@@6B@
       2058  809 00580948 ??_7QImageIOHandler@@6B@
       2059  80A 005809C0 ??_7QImageIOPlugin@@6B@
       2060  80B 0057F310 ??_7QImageTextureGlyphCache@@6B@
       2061  80C 005ACB38 ??_7QInputControl@@6B@
       2062  80D 0058B8B0 ??_7QInputDevice@@6B@
       2063  80E 0058BC68 ??_7QInputDeviceManager@@6B@
       2064  80F 0058BCC8 ??_7QInputDeviceManagerPrivate@@6B@
       2065  810 00587408 ??_7QInputDevicePrivate@@6B@
       2066  811 00587930 ??_7QInputEvent@@6B@
       2067  812 0058C430 ??_7QInputMethod@@6B@
       2068  813 00587CE8 ??_7QInputMethodEvent@@6B@
       2069  814 00587D08 ??_7QInputMethodQueryEvent@@6B@
       2070  815 005B33A0 ??_7QIntValidator@@6B@
       2071  816 0058C5F8 ??_7QInternalMimeData@@6B@
       2072  817 00587B58 ??_7QKeyEvent@@6B@
       2073  818 0058C7C0 ??_7QKeyMapper@@6B@
       2074  819 00587A18 ??_7QMouseEvent@@6B@
       2075  81A 00587BC0 ??_7QMoveEvent@@6B@
       2076  81B 005C76A0 ??_7QMovie@@6B@
       2077  81C 0057D050 ??_7QMutableSinglePointEvent@@6B@
       2078  81D 0057D010 ??_7QMutableTouchEvent@@6B@
       2079  81E 00587B18 ??_7QNativeGestureEvent@@6B@
       2080  81F 0058CA00 ??_7QOffscreenSurface@@6BQObject@@@
       2081  820 0058CA60 ??_7QOffscreenSurface@@6BQSurface@@@
       2082  821 0058CA90 ??_7QOffscreenSurfacePrivate@@6B@
       2083  822 005B4CF0 ??_7QOpenGLContext@@6B@
       2084  823 005B4C90 ??_7QOpenGLContextGroup@@6B@
       2085  824 00589A20 ??_7QOpenGLContextGroupPrivate@@6B@
       2086  825 00589A50 ??_7QOpenGLContextPrivate@@6B@
       2087  826 00589A40 ??_7QOpenGLContextVersionFunctionHelper@@6B@
       2088  827 005B75C8 ??_7QOpenGLProgramBinarySupportCheck@@6B@
       2089  828 005B4D60 ??_7QOpenGLSharedResource@@6B@
       2090  829 00589A00 ??_7QOpenGLSharedResourceGuard@@6B@
       2091  82A 005A1A48 ??_7QPagedPaintDevice@@6B@
       2092  82B 005A1AB8 ??_7QPagedPaintDevicePrivate@@6B@
       2093  82C 005A4328 ??_7QPaintDevice@@6B@
       2094  82D 0058CDB0 ??_7QPaintDeviceWindow@@6B@
       2095  82E 0058CC78 ??_7QPaintDeviceWindow@@6BQObject@@@
       2096  82F 0058CD80 ??_7QPaintDeviceWindow@@6BQSurface@@@
       2097  830 0058CDF0 ??_7QPaintDeviceWindowPrivate@@6B@
       2098  831 005A4400 ??_7QPaintEngine@@6B@
       2099  832 005A4E70 ??_7QPaintEngineEx@@6B@
       2100  833 005A5020 ??_7QPaintEngineExPrivate@@6B@
       2101  834 0057F1E0 ??_7QPaintEnginePrivate@@6B@
       2102  835 00587BA0 ??_7QPaintEvent@@6B@
       2103  836 0057F208 ??_7QPainterState@@6B@
       2104  837 00580FF0 ??_7QPicture@@6B@
       2105  838 0057CBA8 ??_7QPixmap@@6B@
       2106  839 0057E088 ??_7QPixmapIconEngine@@6B@
       2107  83A 005908E0 ??_7QPlatformAccessibility@@6B@
       2108  83B 0059A468 ??_7QPlatformBackingStore@@6B@
       2109  83C 00586BD8 ??_7QPlatformClipboard@@6B@
       2110  83D 0058FEB8 ??_7QPlatformColorDialogHelper@@6B@
       2111  83E 0058DDF8 ??_7QPlatformCursor@@6B@
       2112  83F 0058FE38 ??_7QPlatformDialogHelper@@6B@
       2113  840 005C3A90 ??_7QPlatformDrag@@6B@
       2114  841 0058FFD8 ??_7QPlatformFileDialogHelper@@6B@
       2115  842 00589380 ??_7QPlatformFontDatabase@@6B@
       2116  843 0058FF48 ??_7QPlatformFontDialogHelper@@6B@
       2117  844 005904A8 ??_7QPlatformGraphicsBuffer@@6B@
       2118  845 00590648 ??_7QPlatformInputContext@@6B@
       2119  846 00590878 ??_7QPlatformInputContextPlugin@@6B@
       2120  847 0057D448 ??_7QPlatformIntegration@@6B@
       2121  848 00590B18 ??_7QPlatformIntegrationPlugin@@6B@
       2122  849 00589518 ??_7QPlatformKeyMapper@@6B@
       2123  84A 005911D0 ??_7QPlatformMenu@@6B@
       2124  84B 005912D0 ??_7QPlatformMenuBar@@6B@
       2125  84C 005910F0 ??_7QPlatformMenuItem@@6B@
       2126  84D 005900B0 ??_7QPlatformMessageDialogHelper@@6B@
       2127  84E 00589438 ??_7QPlatformNativeInterface@@6B@
       2128  84F 005914F8 ??_7QPlatformOffscreenSurface@@6B@
       2129  850 005B5050 ??_7QPlatformOpenGLContext@@6B@
       2130  851 0057CD68 ??_7QPlatformPixmap@@6B@
       2131  852 0057CE20 ??_7QPlatformPlaceholderScreen@@6B@
       2132  853 00591520 ??_7QPlatformScreen@@6B@
       2133  854 005917F0 ??_7QPlatformServiceColorPicker@@6B@
       2134  855 00591858 ??_7QPlatformServices@@6B@
       2135  856 00591940 ??_7QPlatformSessionManager@@6B@
       2136  857 00591FC0 ??_7QPlatformSharedGraphicsCache@@6B@
       2137  858 005920A0 ??_7QPlatformSurface@@6B@
       2138  859 00587C00 ??_7QPlatformSurfaceEvent@@6B@
       2139  85A 00592538 ??_7QPlatformSystemTrayIcon@@6B@
       2140  85B 005A6D68 ??_7QPlatformTextureList@@6B@
       2141  85C 00594D08 ??_7QPlatformTheme@@6B@
       2142  85D 00595278 ??_7QPlatformThemePlugin@@6B@
       2143  85E 00594DA8 ??_7QPlatformThemePrivate@@6B@
       2144  85F 005952E0 ??_7QPlatformWindow@@6B@
       2145  860 00587958 ??_7QPointerEvent@@6B@
       2146  861 00595C70 ??_7QPointingDevice@@6B@
       2147  862 00587428 ??_7QPointingDevicePrivate@@6B@
       2148  863 005A4848 ??_7QRasterPaintEngine@@6B@
       2149  864 00581270 ??_7QRasterPlatformPixmap@@6B@
       2150  865 00596120 ??_7QRasterWindow@@6B@
       2151  866 00595FE8 ??_7QRasterWindow@@6BQObject@@@
       2152  867 005960F0 ??_7QRasterWindow@@6BQSurface@@@
       2153  868 005B3480 ??_7QRegularExpressionValidator@@6B@
       2154  869 00587C20 ??_7QResizeEvent@@6B@
       2155  86A 005A7448 ??_7QRhiBuffer@@6B@
       2156  86B 005A7708 ??_7QRhiCommandBuffer@@6B@
       2157  86C 005A76E0 ??_7QRhiComputePipeline@@6B@
       2158  86D 005A7658 ??_7QRhiGraphicsPipeline@@6B@
       2159  86E 005A74F8 ??_7QRhiRenderBuffer@@6B@
       2160  86F 005A7530 ??_7QRhiRenderPassDescriptor@@6B@
       2161  870 005A7570 ??_7QRhiRenderTarget@@6B@
       2162  871 005A7428 ??_7QRhiResource@@6B@
       2163  872 005A74D0 ??_7QRhiSampler@@6B@
       2164  873 005A7628 ??_7QRhiShaderResourceBindings@@6B@
       2165  874 005A7680 ??_7QRhiSwapChain@@6B@
       2166  875 005A75A8 ??_7QRhiSwapChainRenderTarget@@6B@
       2167  876 005A7490 ??_7QRhiTexture@@6B@
       2168  877 005A75E0 ??_7QRhiTextureRenderTarget@@6B@
       2169  878 00596AE0 ??_7QScreen@@6B@
       2170  879 00587F28 ??_7QScreenOrientationChangeEvent@@6B@
       2171  87A 00587F08 ??_7QScrollEvent@@6B@
       2172  87B 00587EE8 ??_7QScrollPrepareEvent@@6B@
       2173  87C 00596CE8 ??_7QSessionManager@@6B@
       2174  87D 00596D48 ??_7QSessionManagerPrivate@@6B@
       2175  87E 005C6B98 ??_7QShortcut@@6B@
       2176  87F 00587E68 ??_7QShortcutEvent@@6B@
       2177  880 00587F88 ??_7QShortcutPrivate@@6B@
       2178  881 00587C80 ??_7QShowEvent@@6B@
       2179  882 005C3E80 ??_7QSimpleDrag@@6BQObject@@@
       2180  883 005C3E28 ??_7QSimpleDrag@@6BQPlatformDrag@@@
       2181  884 00587998 ??_7QSinglePointEvent@@6B@
       2182  885 005B4530 ??_7QStandardItem@@6B@
       2183  886 005B4580 ??_7QStandardItemModel@@6B@
       2184  887 005A4828 ??_7QStaticTextUserData@@6B@
       2185  888 00587DC8 ??_7QStatusTipEvent@@6B@
       2186  889 005A7068 ??_7QStroker@@6B@
       2187  88A 005A7040 ??_7QStrokerOps@@6B@
       2188  88B 00597950 ??_7QStyleHints@@6B@
       2189  88C 0057CC40 ??_7QSurface@@6B@
       2190  88D 005AD0E8 ??_7QSyntaxHighlighter@@6B@
       2191  88E 00587AD8 ??_7QTabletEvent@@6B@
       2192  88F 005B1F98 ??_7QTextBlockGroup@@6B@
       2193  890 0057F228 ??_7QTextBlockUserData@@6B@
       2194  891 005ADD68 ??_7QTextDocument@@6B@
       2195  892 005AEDC0 ??_7QTextDocumentLayout@@6B@
       2196  893 005AEC08 ??_7QTextDocumentPrivate@@6B@
       2197  894 005B2010 ??_7QTextFrame@@6B@
       2198  895 0057F218 ??_7QTextFrameLayoutData@@6B@
       2199  896 005B19F8 ??_7QTextImageHandler@@6BQObject@@@
       2200  897 005B1A58 ??_7QTextImageHandler@@6BQTextObjectInterface@@@
       2201  898 005B1BF0 ??_7QTextList@@6B@
       2202  899 005B1F38 ??_7QTextObject@@6B@
       2203  89A 005AA128 ??_7QTextObjectInterface@@6B@
       2204  89B 005B2158 ??_7QTextTable@@6B@
       2205  89C 0057F2C0 ??_7QTextureGlyphCache@@6B@
       2206  89D 00587E48 ??_7QToolBarChangeEvent@@6B@
       2207  89E 00587EA8 ??_7QTouchEvent@@6B@
       2208  89F 00598328 ??_7QTouchEventSequence@QTest@@6B@
       2209  8A0 005CED98 ??_7QUndoCommand@@6B@
       2210  8A1 005CF460 ??_7QUndoGroup@@6B@
       2211  8A2 005CEDC8 ??_7QUndoStack@@6B@
       2212  8A3 005B3330 ??_7QValidator@@6B@
       2213  8A4 0057D430 ??_7QWGLContext@QNativeInterface@@6B@
       2214  8A5 00587DE8 ??_7QWhatsThisClickedEvent@@6B@
       2215  8A6 00587A98 ??_7QWheelEvent@@6B@
       2216  8A7 00599958 ??_7QWindow@@6BQObject@@@
       2217  8A8 00599A60 ??_7QWindow@@6BQSurface@@@
       2218  8A9 00599A90 ??_7QWindowPrivate@@6B@
       2219  8AA 00587E88 ??_7QWindowStateChangeEvent@@6B@
       2220  8AB 0057D0D0 ??_7QWindowSystemEventHandler@@6B@
       2221  8AC 0057D0E8 ??_7QWindowsApplication@Private@QNativeInterface@@6B@
       2222  8AD 005CE3C8 ??_7QWindowsDirectWriteFontDatabase@@6B@
       2223  8AE 005BF4F8 ??_7QWindowsFontDatabase@@6B@
       2224  8AF 005BFB38 ??_7QWindowsFontDatabaseBase@@6B@
       2225  8B0 005CDBD8 ??_7QWindowsFontEngineDirectWrite@@6B@
       2226  8B1 00589418 ??_7QWindowsGLIntegration@Private@QNativeInterface@@6B@
       2227  8B2 005BA260 ??_7QWindowsGuiEventDispatcher@@6B@
       2228  8B3 005BA360 ??_7QWindowsMimeConverter@@6B@
       2229  8B4 0057CC28 ??_7QWindowsScreen@QNativeInterface@@6B@
       2230  8B5 00595458 ??_7QWindowsWindow@Private@QNativeInterface@@6B@
       2231  8B6 0057F238 ??_7StyleSelector@QCss@@6B@
       2232  8B7 0057D0C0 ??_7TabletEvent@QWindowSystemInterfacePrivate@@6B@
       2233  8B8 003E36F0 ??_FQAccessibleBridgePlugin@@QEAAXXZ
       2234  8B9 003E3700 ??_FQAccessiblePlugin@@QEAAXXZ
       2235  8BA 003EDEE0 ??_FQAction@@QEAAXXZ
       2236  8BB 00341F10 ??_FQDoubleValidator@@QEAAXXZ
       2237  8BC 00002C10 ??_FQEventPoint@@QEAAXXZ
       2238  8BD 00463950 ??_FQFileInfoGatherer@@QEAAXXZ
       2239  8BE 0046B8E0 ??_FQFileSystemModel@@QEAAXXZ
       2240  8BF 00087A60 ??_FQGenericPlugin@@QEAAXXZ
       2241  8C0 00333D80 ??_FQGridLayoutEngine@@QEAAXXZ
       2242  8C1 00010E40 ??_FQIconEnginePlugin@@QEAAXXZ
       2243  8C2 0000C2C0 ??_FQImageIOPlugin@@QEAAXXZ
       2244  8C3 00002C20 ??_FQInputDevice@@QEAAXXZ
       2245  8C4 0008E560 ??_FQInputDeviceManager@@QEAAXXZ
       2246  8C5 00341FB0 ??_FQIntValidator@@QEAAXXZ
       2247  8C6 00401040 ??_FQMovie@@QEAAXXZ
       2248  8C7 00009610 ??_FQMutableSinglePointEvent@@QEAAXXZ
       2249  8C8 00009680 ??_FQMutableTouchEvent@@QEAAXXZ
       2250  8C9 000ACFC0 ??_FQOffscreenSurface@@QEAAXXZ
       2251  8CA 0000B970 ??_FQOpenGLContext@@QEAAXXZ
       2252  8CB 0002B740 ??_FQPaintEngine@@QEAAXXZ
       2253  8CC 0005EFA0 ??_FQPicture@@QEAAXXZ
       2254  8CD 000C0500 ??_FQPlatformInputContextPlugin@@QEAAXXZ
       2255  8CE 000C1A00 ??_FQPlatformIntegrationPlugin@@QEAAXXZ
       2256  8CF 000062E0 ??_FQPlatformPlaceholderScreen@@QEAAXXZ
       2257  8D0 000C4DB0 ??_FQPlatformServiceColorPicker@@QEAAXXZ
       2258  8D1 000C79D0 ??_FQPlatformSharedGraphicsCache@@QEAAXXZ
       2259  8D2 000FE5F0 ??_FQPlatformTextureList@@QEAAXXZ
       2260  8D3 000CC5E0 ??_FQPlatformThemePlugin@@QEAAXXZ
       2261  8D4 00002C30 ??_FQPointingDevice@@QEAAXXZ
       2262  8D5 000D3C50 ??_FQRasterWindow@@QEAAXXZ
       2263  8D6 00342020 ??_FQRegularExpressionValidator@@QEAAXXZ
       2264  8D7 00349160 ??_FQStandardItemModel@@QEAAXXZ
       2265  8D8 00006530 ??_FQTextDocument@@QEAAXXZ
       2266  8D9 002C73A0 ??_FQTextImageHandler@@QEAAXXZ
       2267  8DA 003300B0 ??_FQTextureFileData@@QEAAXXZ
       2268  8DB 0045D130 ??_FQUndoCommand@@QEAAXXZ
       2269  8DC 0045D190 ??_FQUndoGroup@@QEAAXXZ
       2270  8DD 0045D1A0 ??_FQUndoStack@@QEAAXXZ
       2271  8DE 003420B0 ??_FQValidator@@QEAAXXZ
       2272  8DF 00002C40 ??_FQWindow@@QEAAXXZ
       2273  8E0 003840C0 ??_FQWindowsGuiEventDispatcher@@QEAAXXZ
       2274  8E1 0059A5F8 ?BINDING_PREALLOC@QRhiShaderResourceBindings@@1HB
       2275  8E2 0059A5F0 ?LAYOUT_DESC_ENTRIES_PER_BINDING@QRhiShaderResourceBinding@@2HB
       2276  8E3 003D9A00 ?LOGFONT_to_QFont@QWindowsFontDatabaseBase@@SA?AVQFont@@AEBUtagLOGFONTW@@H@Z
       2277  8E4 0059A5F4 ?MAX_MIP_LEVELS@QRhi@@2HB
       2278  8E5 000B2C70 ?QPixelFormat_createYUV@QtPrivate@@YA?AVQPixelFormat@@W4YUVLayout@2@EW4AlphaUsage@2@W4AlphaPosition@2@W4AlphaPremultiplied@2@W4TypeInterpretation@2@W4ByteOrder@2@@Z
       2279  8E6 005A89B0 ?QSB_VERSION@QShaderPrivate@@2HB
       2280  8E7 005A89D0 ?QSB_VERSION_WITHOUT_BINDINGS@QShaderPrivate@@2HB
       2281  8E8 005A89B8 ?QSB_VERSION_WITHOUT_EXTENDED_STORAGE_BUFFER_INFO@QShaderPrivate@@2HB
       2282  8E9 005A89B4 ?QSB_VERSION_WITHOUT_INPUT_OUTPUT_INTERFACE_BLOCKS@QShaderPrivate@@2HB
       2283  8EA 005A89BC ?QSB_VERSION_WITHOUT_NATIVE_SHADER_INFO@QShaderPrivate@@2HB
       2284  8EB 005A89C0 ?QSB_VERSION_WITHOUT_SEPARATE_IMAGES_AND_SAMPLERS@QShaderPrivate@@2HB
       2285  8EC 005A89C4 ?QSB_VERSION_WITHOUT_VAR_ARRAYDIMS@QShaderPrivate@@2HB
       2286  8ED 005A89CC ?QSB_VERSION_WITH_BINARY_JSON@QShaderPrivate@@2HB
       2287  8EE 005A89C8 ?QSB_VERSION_WITH_CBOR@QShaderPrivate@@2HB
       2288  8EF 0026B890 ?QT_DISTANCEFIELD_BASEFONTSIZE@@YAH_N@Z
       2289  8F0 0026B8B0 ?QT_DISTANCEFIELD_HIGHGLYPHCOUNT@@YAHXZ
       2290  8F1 0026B8D0 ?QT_DISTANCEFIELD_RADIUS@@YAH_N@Z
       2291  8F2 0026B900 ?QT_DISTANCEFIELD_SCALE@@YAH_N@Z
       2292  8F3 0057F180 ?Resolution@QColorTrcLut@@2_JB
       2293  8F4 0057F178 ?ShiftDown@QColorTrcLut@@2IB
       2294  8F5 0057F174 ?ShiftUp@QColorTrcLut@@2IB
       2295  8F6 003F1150 ?_q_actionChanged@QActionGroup@@AEAAXXZ
       2296  8F7 003F1280 ?_q_actionHovered@QActionGroup@@AEAAXXZ
       2297  8F8 003F12E0 ?_q_actionTriggered@QActionGroup@@AEAAXXZ
       2298  8F9 000E0340 ?_q_clearAlert@QWindowPrivate@@QEAAXXZ
       2299  8FA 00264B40 ?_q_dynamicDocumentSizeSlot@QAbstractTextDocumentLayoutPrivate@@QEBA?AVQSizeF@@XZ
       2300  8FB 00264B70 ?_q_dynamicPageCountSlot@QAbstractTextDocumentLayoutPrivate@@QEBAHXZ
       2301  8FC 00264B90 ?_q_handlerDestroyed@QAbstractTextDocumentLayoutPrivate@@QEAAXPEAVQObject@@@Z
       2302  8FD 00355EE0 ?_q_screenDestroyed@QOpenGLContextPrivate@@QEAAXPEAVQObject@@@Z
       2303  8FE 0008E800 ?_q_updateFocusObject@QGuiApplicationPrivate@@QEAAXPEAVQObject@@@Z
       2304  8FF 00355FA0 ?aboutToBeDestroyed@QOpenGLContext@@QEAAXXZ
       2305  900 000C2890 ?aboutToHide@QPlatformMenu@@QEAAXXZ
       2306  901 002AD370 ?aboutToRemoveCell@QTextCursorPrivate@@QEAAXHH@Z
       2307  902 002C75D0 ?aboutToRemoveCell@QTextDocumentPrivate@@QEAAXHH@Z
       2308  903 000C28B0 ?aboutToShow@QPlatformMenu@@QEAAXXZ
       2309  904 00010FA0 ?accent@QPalette@@QEBAAEBVQBrush@@XZ
       2310  905 00002C50 ?accept@QDragMoveEvent@@QEAAXAEBVQRect@@@Z
       2311  906 00002C60 ?accept@QDragMoveEvent@@QEAAXXZ
       2312  907 000B8CB0 ?accept@QPlatformDialogHelper@@QEAAXXZ
       2313  908 000B8CD0 ?acceptMode@QFileDialogOptions@@QEBA?AW4AcceptMode@1@XZ
       2314  909 00002C70 ?acceptProposedAction@QDropEvent@@QEAAXXZ
       2315  90A 00005A20 ?acceptedAction@QPlatformDropQtResponse@@QEBA?AW4DropAction@Qt@@XZ
       2316  90B 000C1380 ?accessibility@QPlatformIntegration@@UEBAPEAVQPlatformAccessibility@@XZ
       2317  90C 00349670 ?accessibleDescription@QStandardItem@@QEBA?AVQString@@XZ
       2318  90D 003E6D00 ?accessibleId@QAccessibleBridgeUtils@@YA?AVQString@@PEAVQAccessibleInterface@@@Z
       2319  90E 003E3710 ?accessibleInterface@QAccessible@@SAPEAVQAccessibleInterface@@I@Z
       2320  90F 003E3730 ?accessibleInterface@QAccessibleEvent@@UEBAPEAVQAccessibleInterface@@XZ
       2321  910 000031E0 ?accessibleRoot@QWindow@@UEBAPEAVQAccessibleInterface@@XZ
       2322  911 003496D0 ?accessibleText@QStandardItem@@QEBA?AVQString@@XZ
       2323  912 003E8F60 ?acquireId@QAccessibleCache@@AEBAIXZ
       2324  913 00002C80 ?action@QActionEvent@@QEBAPEAVQAction@@XZ
       2325  914 003F32E0 ?actionChanged@QDrag@@QEAAXW4DropAction@Qt@@@Z
       2326  915 002AB9B0 ?actionGroup@QAction@@QEBAPEAVQActionGroup@@XZ
       2327  916 0008E8B0 ?actionInterface@QAccessibleInterface@@QEAAPEAVQAccessibleActionInterface@@XZ
       2328  917 0045D2F0 ?actionText@QUndoCommand@@QEBA?AVQString@@XZ
       2329  918 003F1340 ?actions@QActionGroup@@QEBA?AV?$QList@PEAVQAction@@@@XZ
       2330  919 003EDEF0 ?activate@QAction@@QEAAXW4ActionEvent@1@@Z
       2331  91A 0008E8D0 ?activatePopup@QGuiApplicationPrivate@@SAXPEAVQWindow@@@Z
       2332  91B 000C28D0 ?activated@QPlatformMenuItem@@QEAAXXZ
       2333  91C 000C8970 ?activated@QPlatformSystemTrayIcon@@QEAAXW4ActivationReason@1@@Z
       2334  91D 003FAC00 ?activated@QShortcut@@QEAAXXZ
       2335  91E 003FAC20 ?activatedAmbiguously@QShortcut@@QEAAXXZ
       2336  91F 000E0390 ?activeChanged@QWindow@@QEAAXXZ
       2337  920 0008EC70 ?activePopupWindow@QGuiApplicationPrivate@@SAPEAVQWindow@@XZ
       2338  921 000D59D0 ?activeStack@QUndoGroup@@QEBAPEAVQUndoStack@@XZ
       2339  922 00460180 ?activeStackChanged@QUndoGroup@@QEAAXPEAVQUndoStack@@@Z
       2340  923 00752CC0 ?active_popup_on_press@QGuiApplicationPrivate@@2PEBVQWindow@@EB
       2341  924 00006810 ?actualSize@QAbstractFileIconEngine@@UEAA?AVQSize@@AEBV2@W4Mode@QIcon@@W4State@4@@Z
       2342  925 00010FB0 ?actualSize@QIcon@@QEBA?AVQSize@@AEBV2@W4Mode@1@W4State@1@@Z
       2343  926 000111D0 ?actualSize@QIcon@@QEBA?AVQSize@@PEAVQWindow@@AEBV2@W4Mode@1@W4State@1@@Z
       2344  927 000175A0 ?actualSize@QIconEngine@@UEAA?AVQSize@@AEBV2@W4Mode@QIcon@@W4State@4@@Z
       2345  928 00011400 ?actualSize@QPixmapIconEngine@@UEAA?AVQSize@@AEBV2@W4Mode@QIcon@@W4State@4@@Z
       2346  929 00333D90 ?add@QGridLayoutBox@@QEAAXAEBV1@HN@Z
       2347  92A 00324850 ?add@QTextList@@QEAAXAEBVQTextBlock@@@Z
       2348  92B 003F1370 ?addAction@QActionGroup@@QEAAPEAVQAction@@AEBVQIcon@@AEBVQString@@@Z
       2349  92C 003F13C0 ?addAction@QActionGroup@@QEAAPEAVQAction@@AEBVQString@@@Z
       2350  92D 003F1400 ?addAction@QActionGroup@@QEAAPEAVQAction@@PEAV2@@Z
       2351  92E 00285E80 ?addAppFont@QFontDatabasePrivate@@QEAAHAEBVQByteArray@@AEBVQString@@@Z
       2352  92F 002863A0 ?addApplicationFallbackFontFamily@QFontDatabase@@SAXW4Script@QChar@@AEBVQString@@@Z
       2353  930 002867B0 ?addApplicationFont@QFontDatabase@@SAHAEBVQString@@@Z
       2354  931 002A5760 ?addApplicationFont@QPlatformFontDatabase@@UEAA?AV?$QList@VQString@@@@AEBVQByteArray@@AEBVQString@@PEAUApplicationFont@QFontDatabasePrivate@@@Z
       2355  932 004574F0 ?addApplicationFont@QWindowsDirectWriteFontDatabase@@UEAA?AV?$QList@VQString@@@@AEBVQByteArray@@AEBVQString@@PEAUApplicationFont@QFontDatabasePrivate@@@Z
       2356  933 003D1370 ?addApplicationFont@QWindowsFontDatabase@@UEAA?AV?$QList@VQString@@@@AEBVQByteArray@@AEBVQString@@PEAUApplicationFont@QFontDatabasePrivate@@@Z
       2357  934 00286950 ?addApplicationFontFromData@QFontDatabase@@SAHAEBVQByteArray@@@Z
       2358  935 00297B40 ?addBitmapFontToPath@QFontEngine@@QEAAXNNAEBUQGlyphLayout@@PEAVQPainterPath@@V?$QFlags@W4RenderFlag@QTextItem@@@@@Z
       2359  936 000B8CE0 ?addButton@QMessageDialogOptions@@QEAAHAEBVQString@@W4ButtonRole@QPlatformDialogHelper@@PEAXH@Z
       2360  937 001B5AD0 ?addCacheData@QVectorPath@@QEBAPEAUCacheEntry@1@PEAVQPaintEngineEx@@PEAXP6AX01@Z@Z
       2361  938 0023F8D0 ?addCleanupCallback@QRhi@@QEAAXAEBV?$function@$$A6AXPEAVQRhi@@@Z@std@@@Z
       2362  939 0023F8E0 ?addCleanupCallback@QRhi@@QEAAXPEBXAEBV?$function@$$A6AXPEAVQRhi@@@Z@std@@@Z
       2363  93A 00355FC0 ?addContext@QOpenGLContextGroupPrivate@@QEAAXPEAVQOpenGLContext@@@Z
       2364  93B 002C7720 ?addCursor@QTextDocumentPrivate@@QEAAXPEAVQTextCursorPrivate@@@Z
       2365  93C 003D24E0 ?addDefaultEUDCFont@QWindowsFontDatabase@@AEAAXXZ
       2366  93D 00229880 ?addElement@QDashedStrokeProcessor@@QEAAXW4ElementType@QPainterPath@@NN@Z
       2367  93E 0002D3E0 ?addEllipse@QPainterPath@@QEAAXAEBVQPointF@@NN@Z
       2368  93F 001D0300 ?addEllipse@QPainterPath@@QEAAXAEBVQRectF@@@Z
       2369  940 0002D430 ?addEllipse@QPainterPath@@QEAAXNNNN@Z
       2370  941 000114A0 ?addFile@QIcon@@QEAAXAEBVQString@@AEBVQSize@@W4Mode@1@W4State@1@@Z
       2371  942 000074A0 ?addFile@QIconEngine@@UEAAXAEBVQString@@AEBVQSize@@W4Mode@QIcon@@W4State@5@@Z
       2372  943 000118C0 ?addFile@QPixmapIconEngine@@UEAAXAEBVQString@@AEBVQSize@@W4Mode@QIcon@@W4State@5@@Z
       2373  944 00297E20 ?addGlyphsToPath@QFontEngine@@UEAAXPEAIPEAUQFixedPoint@@HPEAVQPainterPath@@V?$QFlags@W4RenderFlag@QTextItem@@@@@Z
       2374  945 00453AC0 ?addGlyphsToPath@QWindowsFontEngineDirectWrite@@UEAAXPEAIPEAUQFixedPoint@@HPEAVQPainterPath@@V?$QFlags@W4RenderFlag@QTextItem@@@@@Z
       2375  946 00109510 ?addIfClose@QBezier@@QEBAXPEANN@Z
       2376  947 000556C0 ?addImageHook@QImagePixmapCleanupHooks@@QEAAXP6AX_J@Z@Z
       2377  948 00333DE0 ?addItem@QGridLayoutEngine@@QEAAXPEAVQGridLayoutItem@@@Z
       2378  949 002F2E60 ?addItemDecoration@QTextEngine@@AEAAXPEAVQPainter@@AEBVQLineF@@PEAV?$QList@UItemDecoration@QTextEngine@@@@@Z
       2379  94A 0046BA30 ?addNode@QFileSystemModelPrivate@@QEAAPEAVQFileSystemNode@1@PEAV21@AEBVQString@@AEBVQFileInfo@@@Z
       2380  94B 00298030 ?addOutlineToPath@QFontEngine@@UEAAXNNAEBUQGlyphLayout@@PEAVQPainterPath@@V?$QFlags@W4RenderFlag@QTextItem@@@@@Z
       2381  94C 00298320 ?addOutlineToPath@QFontEngineMulti@@UEAAXNNAEBUQGlyphLayout@@PEAVQPainterPath@@V?$QFlags@W4RenderFlag@QTextItem@@@@@Z
       2382  94D 002F2F50 ?addOverline@QTextEngine@@QEAAXPEAVQPainter@@AEBVQLineF@@@Z
       2383  94E 00195E40 ?addPage@QPageRanges@@QEAAXH@Z
       2384  94F 00083C00 ?addPassiveGrabber@QPointerEvent@@QEAA_NAEBVQEventPoint@@PEAVQObject@@@Z
       2385  950 000D0320 ?addPassiveGrabber@QPointingDevicePrivate@@QEAA_NPEBVQPointerEvent@@AEBVQEventPoint@@PEAVQObject@@@Z
       2386  951 001D0570 ?addPath@QPainterPath@@QEAAXAEBV1@@Z
       2387  952 000121A0 ?addPixmap@QIcon@@QEAAXAEBVQPixmap@@W4Mode@1@W4State@1@@Z
       2388  953 000074A0 ?addPixmap@QIconEngine@@UEAAXAEBVQPixmap@@W4Mode@QIcon@@W4State@4@@Z
       2389  954 00012280 ?addPixmap@QPixmapIconEngine@@UEAAXAEBVQPixmap@@W4Mode@QIcon@@W4State@4@@Z
       2390  955 00055710 ?addPlatformPixmapDestructionHook@QImagePixmapCleanupHooks@@QEAAXP6AXPEAVQPlatformPixmap@@@Z@Z
       2391  956 00055760 ?addPlatformPixmapModificationHook@QImagePixmapCleanupHooks@@QEAAXP6AXPEAVQPlatformPixmap@@@Z@Z
       2392  957 00083C50 ?addPoint@QMutableTouchEvent@@QEAAXAEBVQEventPoint@@@Z
       2393  958 00083C50 ?addPoint@QMutableTouchEvent@@SAXPEAVQTouchEvent@@AEBVQEventPoint@@@Z
       2394  959 001D0670 ?addPolygon@QPainterPath@@QEAAXAEBVQPolygonF@@@Z
       2395  95A 0008EC90 ?addQtOptions@QGuiApplicationPrivate@@UEAAXPEAV?$QList@VQCommandLineOption@@@@@Z
       2396  95B 00195EE0 ?addRange@QPageRanges@@QEAAXHH@Z
       2397  95C 001D0750 ?addRect@QPainterPath@@QEAAXAEBVQRectF@@@Z
       2398  95D 0002D470 ?addRect@QPainterPath@@QEAAXNNNN@Z
       2399  95E 001D0A00 ?addRegion@QPainterPath@@QEAAXAEBVQRegion@@@Z
       2400  95F 002F2F60 ?addRequiredBoundaries@QTextEngine@@AEBAXXZ
       2401  960 002B6E80 ?addResource@QTextDocument@@QEAAXHAEBVQUrl@@AEBVQVariant@@@Z
       2402  961 001D0A90 ?addRoundedRect@QPainterPath@@QEAAXAEBVQRectF@@NNW4SizeMode@Qt@@@Z
       2403  962 0002D4B0 ?addRoundedRect@QPainterPath@@QEAAXNNNNNNW4SizeMode@Qt@@@Z
       2404  963 003FC140 ?addShortcut@QShortcutMap@@QEAAHPEAVQObject@@AEBVQKeySequence@@W4ShortcutContext@Qt@@P6A_N02@Z@Z
       2405  964 004601C0 ?addStack@QUndoGroup@@QEAAXPEAVQUndoStack@@@Z
       2406  965 002F2FE0 ?addStrikeOut@QTextEngine@@QEAAXPEAVQPainter@@AEBVQLineF@@@Z
       2407  966 001D0DD0 ?addText@QPainterPath@@QEAAXAEBVQPointF@@AEBVQFont@@AEBVQString@@@Z
       2408  967 0002D510 ?addText@QPainterPath@@QEAAXNNAEBVQFont@@AEBVQString@@@Z
       2409  968 00109630 ?addToPolygon@QBezier@@QEBAXAEAV?$QDataBuffer@VQPointF@@@@N@Z
       2410  969 00109BC0 ?addToPolygon@QBezier@@QEBAXPEAVQPolygonF@@N@Z
       2411  96A 002F2FF0 ?addUnderline@QTextEngine@@QEAAXPEAVQPainter@@AEBVQLineF@@@Z
       2412  96B 0046BFF0 ?addVisibleFiles@QFileSystemModelPrivate@@QEAAXPEAVQFileSystemNode@1@AEBV?$QList@VQString@@@@@Z
       2413  96C 00039560 ?addressU@QRhiSampler@@QEBA?AW4AddressMode@1@XZ
       2414  96D 00002E40 ?addressV@QRhiSampler@@QEBA?AW4AddressMode@1@XZ
       2415  96E 00005160 ?addressW@QRhiSampler@@QEBA?AW4AddressMode@1@XZ
       2416  96F 00225330 ?adjoint@QTransform@@QEBA?AV1@XZ
       2417  970 002AD690 ?adjustCursor@QTextCursorPrivate@@QEAAXW4MoveOperation@QTextCursor@@@Z
       2418  971 002C7750 ?adjustDocumentChangesAndCursors@QTextDocumentPrivate@@AEAAXHHW4Operation@QTextUndoCommand@@@Z
       2419  972 002AD910 ?adjustPosition@QTextCursorPrivate@@QEAA?AW4AdjustResult@1@HHW4Operation@QTextUndoCommand@@@Z
       2420  973 00006950 ?adjustSize@QPixmapIconEngine@@SA?AVQSize@@AEBV2@V2@@Z
       2421  974 002B6EA0 ?adjustSize@QTextDocument@@QEAAXXZ
       2422  975 002F3000 ?adjustUnderlines@QTextEngine@@AEAAXViterator@?$QList@UItemDecoration@QTextEngine@@@@0NN@Z
       2423  976 002F3070 ?adjustUnderlines@QTextEngine@@QEAAXXZ
       2424  977 00356050 ?adopt@QOpenGLContextPrivate@@QEAAXPEAVQPlatformOpenGLContext@@@Z
       2425  978 0002D540 ?advancesForGlyphIndexes@QRawFont@@QEBA?AV?$QList@VQPointF@@@@AEBV?$QList@I@@@Z
       2426  979 0002D560 ?advancesForGlyphIndexes@QRawFont@@QEBA?AV?$QList@VQPointF@@@@AEBV?$QList@I@@V?$QFlags@W4LayoutFlag@QRawFont@@@@@Z
       2427  97A 002A6B80 ?advancesForGlyphIndexes@QRawFont@@QEBA_NPEBIPEAVQPointF@@H@Z
       2428  97B 002A6BA0 ?advancesForGlyphIndexes@QRawFont@@QEBA_NPEBIPEAVQPointF@@HV?$QFlags@W4LayoutFlag@QRawFont@@@@@Z
       2429  97C 000031E0 ?aggregateEngine@QPaintEnginePrivate@@UEAAPEAVQPaintEngine@@XZ
       2430  97D 000E03B0 ?alert@QWindow@@QEAAXH@Z
       2431  97E 002F3270 ?alignLine@QTextEngine@@QEAA?AUQFixed@@AEBUQScriptLine@@@Z
       2432  97F 00002E50 ?alignment@QGridLayoutItem@@QEBA?AV?$QFlags@W4AlignmentFlag@Qt@@@@XZ
       2433  980 0002D6B0 ?alignment@QTextBlockFormat@@QEBA?AV?$QFlags@W4AlignmentFlag@Qt@@@@XZ
       2434  981 00002C90 ?alignment@QTextOption@@QEBA?AV?$QFlags@W4AlignmentFlag@Qt@@@@XZ
       2435  982 0002D6E0 ?alignment@QTextTableFormat@@QEBA?AV?$QFlags@W4AlignmentFlag@Qt@@@@XZ
       2436  983 0043BE40 ?alignmentValue@Declaration@QCss@@QEBA?AV?$QFlags@W4AlignmentFlag@Qt@@@@XZ
       2437  984 002B70D0 ?allFormats@QTextDocument@@QEBA?AV?$QList@VQTextFormat@@@@XZ
       2438  985 0002D700 ?allGray@QImage@@QEBA_NXZ
       2439  986 00083D00 ?allPointsAccepted@QPointerEvent@@QEBA_NXZ
       2440  987 00083D50 ?allPointsGrabbed@QPointerEvent@@QEBA_NXZ
       2441  988 0008F8B0 ?allWindows@QGuiApplication@@SA?AV?$QList@PEAVQWindow@@@@XZ
       2442  989 00054F00 ?allocateImage@QImageIOHandler@@SA_NVQSize@@W4Format@QImage@@PEAV4@@Z
       2443  98A 00056370 ?allocationLimit@QImageReader@@SAHXZ
       2444  98B 00004BC0 ?allowsErrorInteraction@QPlatformSessionManager@@UEAA_NXZ
       2445  98C 000D6F90 ?allowsErrorInteraction@QSessionManager@@QEAA_NXZ
       2446  98D 00004BC0 ?allowsInteraction@QPlatformSessionManager@@UEAA_NXZ
       2447  98E 000D6FB0 ?allowsInteraction@QSessionManager@@QEAA_NXZ
       2448  98F 00124970 ?alpha@QColor@@QEBAHXZ
       2449  990 000DB460 ?alphaBufferSize@QSurfaceFormat@@QEBAHXZ
       2450  991 001249F0 ?alphaF@QColor@@QEBAMXZ
       2451  992 00068490 ?alphaFillRect@QBlittable@@UEAAXAEBVQRectF@@AEBVQColor@@W4CompositionMode@QPainter@@@Z
       2452  993 0002E030 ?alphaMapBoundingBox@QFontEngine@@UEAA?AUglyph_metrics_t@@IAEBUQFixedPoint@@AEBVQTransform@@W4GlyphFormat@1@@Z
       2453  994 00453D80 ?alphaMapBoundingBox@QWindowsFontEngineDirectWrite@@UEAA?AUglyph_metrics_t@@IAEBUQFixedPoint@@AEBVQTransform@@W4GlyphFormat@QFontEngine@@@Z
       2454  995 00298E20 ?alphaMapForGlyph@QFontEngine@@UEAA?AVQImage@@I@Z
       2455  996 00298F30 ?alphaMapForGlyph@QFontEngine@@UEAA?AVQImage@@IAEBUQFixedPoint@@@Z
       2456  997 00298F60 ?alphaMapForGlyph@QFontEngine@@UEAA?AVQImage@@IAEBUQFixedPoint@@AEBVQTransform@@@Z
       2457  998 00299100 ?alphaMapForGlyph@QFontEngine@@UEAA?AVQImage@@IAEBVQTransform@@@Z
       2458  999 00299300 ?alphaMapForGlyph@QFontEngineMulti@@UEAA?AVQImage@@I@Z
       2459  99A 00299340 ?alphaMapForGlyph@QFontEngineMulti@@UEAA?AVQImage@@IAEBUQFixedPoint@@@Z
       2460  99B 00299380 ?alphaMapForGlyph@QFontEngineMulti@@UEAA?AVQImage@@IAEBUQFixedPoint@@AEBVQTransform@@@Z
       2461  99C 002993D0 ?alphaMapForGlyph@QFontEngineMulti@@UEAA?AVQImage@@IAEBVQTransform@@@Z
       2462  99D 002A6DB0 ?alphaMapForGlyph@QRawFont@@QEBA?AVQImage@@IW4AntialiasingType@1@AEBVQTransform@@@Z
       2463  99E 004540D0 ?alphaMapForGlyph@QWindowsFontEngineDirectWrite@@UEAA?AVQImage@@IAEBUQFixedPoint@@@Z
       2464  99F 00454160 ?alphaMapForGlyph@QWindowsFontEngineDirectWrite@@UEAA?AVQImage@@IAEBUQFixedPoint@@AEBVQTransform@@@Z
       2465  9A0 001A37D0 ?alphaPenBlt@QRasterPaintEngine@@QEAAXPEBXHHHHHH_N@Z
       2466  9A1 00299410 ?alphaRGBMapForGlyph@QFontEngine@@UEAA?AVQImage@@IAEBUQFixedPoint@@AEBVQTransform@@@Z
       2467  9A2 00299530 ?alphaRGBMapForGlyph@QFontEngineMulti@@UEAA?AVQImage@@IAEBUQFixedPoint@@AEBVQTransform@@@Z
       2468  9A3 00454390 ?alphaRGBMapForGlyph@QWindowsFontEngineDirectWrite@@UEAA?AVQImage@@IAEBUQFixedPoint@@AEBVQTransform@@@Z
       2469  9A4 00278B40 ?alterCharForCapitalization@QFontPrivate@@QEBAXAEAVQChar@@@Z
       2470  9A5 000127E0 ?alternateBase@QPalette@@QEBAAEBVQBrush@@XZ
       2471  9A6 002AD9B0 ?anchor@QTextCursor@@QEBAHXZ
       2472  9A7 00264F70 ?anchorAt@QAbstractTextDocumentLayout@@QEBA?AVQString@@AEBVQPointF@@@Z
       2473  9A8 0002E060 ?anchorHref@QTextCharFormat@@QEBA?AVQString@@XZ
       2474  9A9 003042F0 ?anchorNames@QTextCharFormat@@QEBA?AV?$QList@VQString@@@@XZ
       2475  9AA 000A9420 ?anchorRectangle@QInputMethod@@QEBA?AVQRectF@@XZ
       2476  9AB 000BF800 ?anchorRectangle@QPlatformInputContext@@SA?AVQRectF@@XZ
       2477  9AC 000A9450 ?anchorRectangleChanged@QInputMethod@@QEAAXXZ
       2478  9AD 00004200 ?angle@QConicalGradient@@QEBANXZ
       2479  9AE 001D1380 ?angleAtPercent@QPainterPath@@QEBANN@Z
       2480  9AF 000C32D0 ?angleBetween@QPlatformScreen@@SAHW4ScreenOrientation@Qt@@0@Z
       2481  9B0 000D5480 ?angleBetween@QScreen@@QEBAHW4ScreenOrientation@Qt@@0@Z
       2482  9B1 00002CA0 ?angleDelta@QWheelEvent@@QEBA?AVQPoint@@XZ
       2483  9B2 000A9470 ?animatingChanged@QInputMethod@@QEAAXXZ
       2484  9B3 00002CB0 ?answerRect@QDragMoveEvent@@QEBA?AVQRect@@XZ
       2485  9B4 003F3F20 ?answerRect@QPlatformDragQtResponse@@QEBA?AVQRect@@XZ
       2486  9B5 00005A20 ?api@QPlatformBackingStoreRhiConfig@@QEBA?AW4Api@1@XZ
       2487  9B6 00106A10 ?apiToRhiBackend@QBackingStoreRhiSupport@@SA?AW4Implementation@QRhi@@W4Api@QPlatformBackingStoreRhiConfig@@@Z
       2488  9B7 000C5350 ?appCommitData@QPlatformSessionManager@@QEAAXXZ
       2489  9B8 000C5370 ?appSaveState@QPlatformSessionManager@@QEAAXXZ
       2490  9B9 00752CE0 ?app_font@QGuiApplicationPrivate@@2PEAVQFont@@EA
       2491  9BA 00752C68 ?app_icon@QGuiApplicationPrivate@@2PEAVQIcon@@EA
       2492  9BB 00752CB8 ?app_pal@QGuiApplicationPrivate@@2PEAVQPalette@@EA
       2493  9BC 00349730 ?appendColumn@QStandardItem@@QEAAXAEBV?$QList@PEAVQStandardItem@@@@@Z
       2494  9BD 003497E0 ?appendColumn@QStandardItemModel@@QEAAXAEBV?$QList@PEAVQStandardItem@@@@@Z
       2495  9BE 0032ACA0 ?appendColumns@QTextTable@@QEAAXH@Z
       2496  9BF 00349890 ?appendRow@QStandardItem@@QEAAXAEBV?$QList@PEAVQStandardItem@@@@@Z
       2497  9C0 00349940 ?appendRow@QStandardItem@@QEAAXPEAV1@@Z
       2498  9C1 00349950 ?appendRow@QStandardItemModel@@QEAAXAEBV?$QList@PEAVQStandardItem@@@@@Z
       2499  9C2 00349A00 ?appendRow@QStandardItemModel@@QEAAXPEAVQStandardItem@@@Z
       2500  9C3 00349B60 ?appendRows@QStandardItem@@QEAAXAEBV?$QList@PEAVQStandardItem@@@@@Z
       2501  9C4 0032ACF0 ?appendRows@QTextTable@@QEAAXH@Z
       2502  9C5 0020B9E0 ?appendTexture@QPlatformTextureList@@QEAAXPEAXPEAVQRhiTexture@@1AEBVQRect@@2V?$QFlags@W4Flag@QPlatformTextureList@@@@@Z
       2503  9C6 0020BA70 ?appendTexture@QPlatformTextureList@@QEAAXPEAXPEAVQRhiTexture@@AEBVQRect@@2V?$QFlags@W4Flag@QPlatformTextureList@@@@@Z
       2504  9C7 002B7100 ?appendUndoItem@QTextDocument@@QEAAXPEAVQAbstractUndoItem@@@Z
       2505  9C8 002C79C0 ?appendUndoItem@QTextDocumentPrivate@@AEAAXAEBVQTextUndoCommand@@@Z
       2506  9C9 002C7D90 ?appendUndoItem@QTextDocumentPrivate@@QEAAXPEAVQAbstractUndoItem@@@Z
       2507  9CA 0008FC90 ?applicationDisplayName@QGuiApplication@@SA?AVQString@@XZ
       2508  9CB 0008FD00 ?applicationDisplayNameChanged@QGuiApplication@@QEAAXXZ
       2509  9CC 00287000 ?applicationFallbackFontFamilies@QFontDatabase@@SA?AV?$QList@VQString@@@@W4Script@QChar@@@Z
       2510  9CD 00287240 ?applicationFontFamilies@QFontDatabase@@SA?AV?$QList@VQString@@@@H@Z
       2511  9CE 00002CC0 ?applicationState@QApplicationStateChangeEvent@@QEBA?AW4ApplicationState@Qt@@XZ
       2512  9CF 0008FD20 ?applicationState@QGuiApplication@@SA?AW4ApplicationState@Qt@@XZ
       2513  9D0 007352D8 ?applicationState@QGuiApplicationPrivate@@2W4ApplicationState@Qt@@A
       2514  9D1 0008FD30 ?applicationStateChanged@QGuiApplication@@QEAAXW4ApplicationState@Qt@@@Z
       2515  9D2 0002E080 ?apply@QColorTransferTable@@QEBAMM@Z
       2516  9D3 0002E170 ?apply@QColorTrc@@QEBAMM@Z
       2517  9D4 0002E250 ?applyColorTransform@QImage@@QEAAXAEBVQColorTransform@@@Z
       2518  9D5 0002EA60 ?applyColorTransform@QImage@@QEAAXAEBVQColorTransform@@W4Format@1@V?$QFlags@W4ImageConversionFlag@Qt@@@@@Z
       2519  9D6 000E04C0 ?applyCursor@QWindowPrivate@@QEAA_NXZ
       2520  9D7 0002EB70 ?applyExtended@QColorTrc@@QEBAMM@Z
       2521  9D8 0002EC60 ?applyInverse@QColorTransferTable@@QEBAMMM@Z
       2522  9D9 0002EEA0 ?applyInverse@QColorTrc@@QEBAMM@Z
       2523  9DA 0002F0A0 ?applyInverseExtended@QColorTrc@@QEBAMM@Z
       2524  9DB 00009B90 ?applyQIconStyleHelper@QGuiApplicationPrivate@@UEBA?AVQPixmap@@W4Mode@QIcon@@AEBV2@@Z
       2525  9DC 0008FF90 ?applyWindowGeometrySpecificationTo@QGuiApplicationPrivate@@SAXPEAVQWindow@@@Z
       2526  9DD 001D15C0 ?arcMoveTo@QPainterPath@@QEAAXAEBVQRectF@@N@Z
       2527  9DE 0002F110 ?arcMoveTo@QPainterPath@@QEAAXNNNNN@Z
       2528  9DF 00229A00 ?arcPoints@QTriangulatingStroker@@AEAAXMMMMMMAEAV?$QVarLengthArray@M$0BAA@@@@Z
       2529  9E0 001D1620 ?arcTo@QPainterPath@@QEAAXAEBVQRectF@@NN@Z
       2530  9E1 0002F150 ?arcTo@QPainterPath@@QEAAXNNNNNN@Z
       2531  9E2 00356100 ?areSharing@QOpenGLContext@@SA_NPEAV1@0@Z
       2532  9E3 00101D20 ?arrayRangeLength@QRhiTexture@@QEBAHXZ
       2533  9E4 00005150 ?arrayRangeStart@QRhiTexture@@QEBAHXZ
       2534  9E5 00002E40 ?arraySize@QRhiTexture@@QEBAHXZ
       2535  9E6 00002CD0 ?asAffineMatrix@QTransform@@QEAA@XZ
       2536  9E7 0002F190 ?asColorTransferFunction@QColorTransferTable@@QEAA_NPEAVQColorTransferFunction@@@Z
       2537  9E8 00299580 ?ascent@QFontEngine@@UEBA?AUQFixed@@XZ
       2538  9E9 002995D0 ?ascent@QFontEngineMulti@@UEBA?AUQFixed@@XZ
       2539  9EA 002A1340 ?ascent@QFontMetrics@@QEBAHXZ
       2540  9EB 002A1380 ?ascent@QFontMetricsF@@QEBANXZ
       2541  9EC 002A6E70 ?ascent@QRawFont@@QEBANXZ
       2542  9ED 0031A170 ?ascent@QTextInlineObject@@QEBANXZ
       2543  9EE 0019B7B0 ?ascent@QTextItem@@QEBANXZ
       2544  9EF 0031A1A0 ?ascent@QTextLine@@QEBANXZ
       2545  9F0 003F76D0 ?assign@QKeySequence@@AEAAHAEBVQString@@@Z
       2546  9F1 003F76E0 ?assign@QKeySequence@@AEAAHAEBVQString@@W4SequenceFormat@1@@Z
       2547  9F2 003EE0D0 ?associatedObjects@QAction@@QEBA?AV?$QList@PEAVQObject@@@@XZ
       2548  9F3 002AD9D0 ?atBlockEnd@QTextCursor@@QEBA_NXZ
       2549  9F4 002ADAE0 ?atBlockStart@QTextCursor@@QEBA_NXZ
       2550  9F5 002ADB80 ?atEnd@QTextCursor@@QEBA_NXZ
       2551  9F6 002ADBF0 ?atStart@QTextCursor@@QEBA_NXZ
       2552  9F7 002F3500 ?atWordSeparator@QTextEngine@@QEBA_NH@Z
       2553  9F8 0043BF00 ?attachmentValue@Declaration@QCss@@QEBA?AW4Attachment@2@XZ
       2554  9F9 00101D30 ?attributeAt@QRhiVertexInputLayout@@QEBAPEBVQRhiVertexInputAttribute@@_J@Z
       2555  9FA 00101D40 ?attributeCount@QRhiVertexInputLayout@@QEBA_JXZ
       2556  9FB 00002CE0 ?attributes@QInputMethodEvent@@QEBAAEBV?$QList@VAttribute@QInputMethodEvent@@@@XZ
       2557  9FC 002F35C0 ?attributes@QTextEngine@@QEBAPEBUQCharAttributes@@XZ
       2558  9FD 0008FFA0 ?attributesInterface@QAccessibleInterface@@QEAAPEAVQAccessibleAttributesInterface@@XZ
       2559  9FE 0002F480 ?autoDestruct@QPaintEngine@@AEBA_NXZ
       2560  9FF 00056400 ?autoDetectImageFormat@QImageReader@@QEBA_NXZ
       2561  A00 003EE100 ?autoRepeat@QAction@@QEBA_NXZ
       2562  A01 003FAC40 ?autoRepeat@QShortcut@@QEBA_NXZ
       2563  A02 00056410 ?autoTransform@QImageReader@@QEBA_NXZ
       2564  A03 00006310 ?availableGeometry@QPlatformPlaceholderScreen@@UEBA?AVQRect@@XZ
       2565  A04 00006330 ?availableGeometry@QPlatformScreen@@UEBA?AVQRect@@XZ
       2566  A05 000D54B0 ?availableGeometry@QScreen@@QEBA?AVQRect@@XZ
       2567  A06 000D54D0 ?availableGeometryChanged@QScreen@@QEAAXAEBVQRect@@@Z
       2568  A07 0002F490 ?availableGlyphs@QTextEngine@@QEBA?AUQGlyphLayout@@PEBUQScriptItem@@@Z
       2569  A08 002B7110 ?availableRedoSteps@QTextDocument@@QEBAHXZ
       2570  A09 0002F4E0 ?availableRedoSteps@QTextDocumentPrivate@@QEBAHXZ
       2571  A0A 00250030 ?availableShaders@QShader@@QEBA?AV?$QList@VQShaderKey@@@@XZ
       2572  A0B 000D5500 ?availableSize@QScreen@@QEBA?AVQSize@@XZ
       2573  A0C 000127F0 ?availableSizes@QIcon@@QEBA?AV?$QList@VQSize@@@@W4Mode@1@W4State@1@@Z
       2574  A0D 000176D0 ?availableSizes@QIconEngine@@UEAA?AV?$QList@VQSize@@@@W4Mode@QIcon@@W4State@4@@Z
       2575  A0E 00012840 ?availableSizes@QPixmapIconEngine@@UEAA?AV?$QList@VQSize@@@@W4Mode@QIcon@@W4State@4@@Z
       2576  A0F 002B7140 ?availableUndoSteps@QTextDocument@@QEBAHXZ
       2577  A10 0002F510 ?availableUndoSteps@QTextDocumentPrivate@@QEBAHXZ
       2578  A11 000A6D40 ?availableVirtualGeometry@QInputDevice@@QEBA?AVQRect@@XZ
       2579  A12 000D5530 ?availableVirtualGeometry@QScreen@@QEBA?AVQRect@@XZ
       2580  A13 000A6D60 ?availableVirtualGeometryChanged@QInputDevice@@QEAAXVQRect@@@Z
       2581  A14 000D55F0 ?availableVirtualSize@QScreen@@QEBA?AVQSize@@XZ
       2582  A15 00299600 ?averageCharWidth@QFontEngine@@UEBA?AUQFixed@@XZ
       2583  A16 00299660 ?averageCharWidth@QFontEngineMulti@@UEBA?AUQFixed@@XZ
       2584  A17 002A13D0 ?averageCharWidth@QFontMetrics@@QEBAHXZ
       2585  A18 002A1410 ?averageCharWidth@QFontMetricsF@@QEBANXZ
       2586  A19 002A6EC0 ?averageCharWidth@QRawFont@@QEBANXZ
       2587  A1A 000DBD50 ?backend@QRhi@@QEBA?AW4Implementation@1@XZ
       2588  A1B 00240170 ?backendName@QRhi@@QEBAPEBDXZ
       2589  A1C 002401E0 ?backendName@QRhi@@SAPEBDW4Implementation@1@@Z
       2590  A1D 001BC350 ?background@QPainter@@QEBAAEBVQBrush@@XZ
       2591  A1E 00349B80 ?background@QStandardItem@@QEBA?AVQBrush@@XZ
       2592  A1F 0002F530 ?background@QTextFormat@@QEBA?AVQBrush@@XZ
       2593  A20 001BC3B0 ?backgroundBrush@QPaintEngineState@@QEBA?AVQBrush@@XZ
       2594  A21 003E3890 ?backgroundColor@QAccessibleInterface@@UEBA?AVQColor@@XZ
       2595  A22 00056430 ?backgroundColor@QImageReader@@QEBA?AVQColor@@XZ
       2596  A23 00401490 ?backgroundColor@QMovie@@QEBA?AVQColor@@XZ
       2597  A24 001BC3E0 ?backgroundMode@QPaintEngineState@@QEBA?AW4BGMode@Qt@@XZ
       2598  A25 001BC400 ?backgroundMode@QPainter@@QEBA?AW4BGMode@Qt@@XZ
       2599  A26 000551B0 ?backingStore@QPlatformBackingStore@@QEBAPEAVQBackingStore@@XZ
       2600  A27 00012C80 ?base@QPalette@@QEBAAEBVQBrush@@XZ
       2601  A28 0008FFC0 ?basePalette@QGuiApplicationPrivate@@MEBA?AVQPalette@@XZ
       2602  A29 000E05C0 ?baseSize@QWindow@@QEBA?AVQSize@@XZ
       2603  A2A 002B7160 ?baseUrl@QTextDocument@@QEBA?AVQUrl@@XZ
       2604  A2B 002B7190 ?baseUrlChanged@QTextDocument@@QEAAXAEBVQUrl@@@Z
       2605  A2C 0002F550 ?baselineOffset@QTextCharFormat@@QEBANXZ
       2606  A2D 002B71C0 ?baselineOffset@QTextDocument@@QEBANXZ
       2607  A2E 0043C0D0 ?basicSelectorMatches@StyleSelector@QCss@@AEAA_NAEBUBasicSelector@2@TNodePtr@12@@Z
       2608  A2F 000074A0 ?beep@QPlatformIntegration@@UEBAXXZ
       2609  A30 00002CF0 ?before@QActionEvent@@QEBAPEAVQAction@@XZ
       2610  A31 0019E110 ?begin@QBlitterPaintEngine@@UEAA_NPEAVQPaintDevice@@@Z
       2611  A32 0002F590 ?begin@QDashStroker@@UEAAXPEAX@Z
       2612  A33 001BC450 ?begin@QPainter@@QEAA_NPEAVQPaintDevice@@@Z
       2613  A34 001A4260 ?begin@QRasterPaintEngine@@UEAA_NPEAVQPaintDevice@@@Z
       2614  A35 00217BA0 ?begin@QRegion@@QEBAPEBVQRect@@XZ
       2615  A36 0021DFA0 ?begin@QStrokerOps@@UEAAXPEAX@Z
       2616  A37 00326270 ?begin@QTextBlock@@QEBA?AViterator@1@XZ
       2617  A38 002B7220 ?begin@QTextDocument@@QEBA?AVQTextBlock@@XZ
       2618  A39 0002F5D0 ?begin@QTextDocumentPrivate@@QEBA?AVConstIterator@?$QFragmentMap@VQTextFragmentData@@@@XZ
       2619  A3A 003263D0 ?begin@QTextFrame@@QEBA?AViterator@1@XZ
       2620  A3B 0032B030 ?begin@QTextTableCell@@QEBA?AViterator@QTextFrame@@XZ
       2621  A3C 00240250 ?beginComputePass@QRhiCommandBuffer@@QEAAXPEAVQRhiResourceUpdateBatch@@V?$QFlags@W4BeginPassFlag@QRhiCommandBuffer@@@@@Z
       2622  A3D 002ADC10 ?beginEditBlock@QTextCursor@@QEAAXXZ
       2623  A3E 0002F610 ?beginEditBlock@QTextDocumentPrivate@@QEAAXXZ
       2624  A3F 00240280 ?beginExternal@QRhiCommandBuffer@@QEAAXXZ
       2625  A40 000074A0 ?beginFillTexture@QTextureGlyphCache@@UEAAXXZ
       2626  A41 000074A0 ?beginFrame@QPlatformOpenGLContext@@UEAAXXZ
       2627  A42 002402A0 ?beginFrame@QRhi@@QEAA?AW4FrameOpResult@1@PEAVQRhiSwapChain@@V?$QFlags@W4BeginFrameFlag@QRhi@@@@@Z
       2628  A43 000031E0 ?beginFullDynamicBufferUpdateForCurrentFrame@QRhiBuffer@@UEAAPEADXZ
       2629  A44 0031A1D0 ?beginLayout@QTextLayout@@QEAAXXZ
       2630  A45 0045D320 ?beginMacro@QUndoStack@@QEAAXAEBVQString@@@Z
       2631  A46 000074A0 ?beginNativePainting@QPaintEngineEx@@UEAAXXZ
       2632  A47 001BCBE0 ?beginNativePainting@QPainter@@QEAAXXZ
       2633  A48 00240360 ?beginOffscreenFrame@QRhi@@QEAA?AW4FrameOpResult@1@PEAPEAVQRhiCommandBuffer@@V?$QFlags@W4BeginFrameFlag@QRhi@@@@@Z
       2634  A49 000FE600 ?beginPaint@QBackingStore@@QEAAXAEBVQRegion@@@Z
       2635  A4A 000074A0 ?beginPaint@QPaintDeviceWindowPrivate@@UEAAXAEBVQRegion@@@Z
       2636  A4B 000074A0 ?beginPaint@QPlatformBackingStore@@UEAAXAEBVQRegion@@@Z
       2637  A4C 00240420 ?beginPass@QRhiCommandBuffer@@QEAAXPEAVQRhiRenderTarget@@AEBVQColor@@AEBVQRhiDepthStencilClearValue@@PEAVQRhiResourceUpdateBatch@@V?$QFlags@W4BeginPassFlag@QRhiCommandBuffer@@@@@Z
       2638  A4D 002F37C0 ?beginningOfLine@QTextEngine@@AEAAHH@Z
       2639  A4E 002876A0 ?bestFoundry@QFontDatabasePrivate@@CAIHIHPEBUQtFontFamily@@AEBVQString@@UKey@QtFontStyle@@HDPEAUQtFontDesc@@1@Z
       2640  A4F 00012C90 ?bestMatch@QPixmapIconEngine@@QEAAPEAUQPixmapIconEngineEntry@@AEBVQSize@@NW4Mode@QIcon@@W4State@5@@Z
       2641  A50 0010A1D0 ?bezierOnInterval@QBezier@@QEBA?AV1@NN@Z
       2642  A51 002F3850 ?bidiReorder@QTextEngine@@SAXHPEBEPEAH@Z
       2643  A52 00004BC0 ?bindToTexture@QPlatformGraphicsBuffer@@UEBA_NAEBVQRect@@@Z
       2644  A53 004014B0 ?bindableCacheMode@QMovie@@QEAA?AV?$QBindable@W4CacheMode@QMovie@@@@XZ
       2645  A54 00349BE0 ?bindableSortRole@QStandardItemModel@@QEAA?AV?$QBindable@H@@XZ
       2646  A55 004014D0 ?bindableSpeed@QMovie@@QEAA?AV?$QBindable@H@@XZ
       2647  A56 00005A10 ?binding@QRhiVertexInputAttribute@@QEBAHXZ
       2648  A57 00101D50 ?bindingAt@QRhiShaderResourceBindings@@QEBAPEBVQRhiShaderResourceBinding@@_J@Z
       2649  A58 00101D60 ?bindingAt@QRhiVertexInputLayout@@QEBAPEBVQRhiVertexInputBinding@@_J@Z
       2650  A59 00005080 ?bindingCount@QRhiShaderResourceBindings@@QEBA_JXZ
       2651  A5A 000030F0 ?bindingCount@QRhiVertexInputLayout@@QEBA_JXZ
       2652  A5B 0002F630 ?bitPlaneCount@QImage@@QEBAHXZ
       2653  A5C 000AFF80 ?bitPosition@QPalettePrivate@@SA_KW4ColorGroup@QPalette@@W4ColorRole@3@@Z
       2654  A5D 00002D00 ?bitmap@QCursor@@QEBA?AVQBitmap@@W4ReturnByValueConstant@Qt@@@Z
       2655  A5E 00078830 ?bitmap@QCursor@@QEBA?AVQBitmap@@XZ
       2656  A5F 0020C650 ?bitmapForGlyph@QFontEngine@@UEAA?AVQImage@@IAEBUQFixedPoint@@AEBVQTransform@@AEBVQColor@@@Z
       2657  A60 00454590 ?bitmapForGlyph@QWindowsFontEngineDirectWrite@@UEAA?AVQImage@@IAEBUQFixedPoint@@AEBVQTransform@@AEBVQColor@@@Z
       2658  A61 0026B930 ?bits@QDistanceField@@QEAAPEAEXZ
       2659  A62 0005DC80 ?bits@QDistanceField@@QEBAPEBEXZ
       2660  A63 0002F730 ?bits@QImage@@QEAAPEAEXZ
       2661  A64 0002F760 ?bits@QImage@@QEBAPEBEXZ
       2662  A65 00124A40 ?black@QColor@@QEBAHXZ
       2663  A66 00124A80 ?blackF@QColor@@QEBAMXZ
       2664  A67 000684C0 ?blittable@QBlittablePlatformPixmap@@QEBAPEAVQBlittable@@XZ
       2665  A68 002ADCB0 ?block@QTextCursor@@QEBA?AVQTextBlock@@XZ
       2666  A69 002ADD40 ?block@QTextCursorPrivate@@QEBA?AVQTextBlock@@XZ
       2667  A6A 0002F770 ?block@QTextDocumentPrivate@@SAPEBVQTextBlockData@@AEBVQTextBlock@@@Z
       2668  A6B 002DA1F0 ?blockBoundingRect@QTextDocumentLayout@@UEBA?AVQRectF@@AEBVQTextBlock@@@Z
       2669  A6C 002ADDC0 ?blockCharFormat@QTextCursor@@QEBA?AVQTextCharFormat@@XZ
       2670  A6D 002C7E10 ?blockCharFormatIndex@QTextDocumentPrivate@@QEBAHH@Z
       2671  A6E 002B7260 ?blockCount@QTextDocument@@QEBAHXZ
       2672  A6F 002B7270 ?blockCountChanged@QTextDocument@@QEAAXH@Z
       2673  A70 003265C0 ?blockFormat@QTextBlock@@QEBA?AVQTextBlockFormat@@XZ
       2674  A71 002ADE70 ?blockFormat@QTextCursor@@QEBA?AVQTextBlockFormat@@XZ
       2675  A72 002ADF20 ?blockFormat@QTextCursorPrivate@@QEBA?AVQTextBlockFormat@@XZ
       2676  A73 0002F790 ?blockFormat@QTextFormatCollection@@QEBA?AVQTextBlockFormat@@H@Z
       2677  A74 000074A0 ?blockFormatChanged@QTextBlockGroup@@MEAAXAEBVQTextBlock@@@Z
       2678  A75 00326630 ?blockFormatIndex@QTextBlock@@QEBAHXZ
       2679  A76 00326660 ?blockInserted@QTextBlockGroup@@MEAAXAEBVQTextBlock@@@Z
       2680  A77 002ADFB0 ?blockLayout@QTextCursorPrivate@@QEBAPEAVQTextLayout@@AEAVQTextBlock@@@Z
       2681  A78 00326750 ?blockList@QTextBlockGroup@@IEBA?AV?$QList@VQTextBlock@@@@XZ
       2682  A79 0002F7D0 ?blockMap@QTextDocumentPrivate@@QEAAAEAV?$QFragmentMap@VQTextBlockData@@@@XZ
       2683  A7A 0002F7D0 ?blockMap@QTextDocumentPrivate@@QEBAAEBV?$QFragmentMap@VQTextBlockData@@@@XZ
       2684  A7B 00326780 ?blockNumber@QTextBlock@@QEBAHXZ
       2685  A7C 002AE020 ?blockNumber@QTextCursor@@QEBAHXZ
       2686  A7D 003267F0 ?blockRemoved@QTextBlockGroup@@MEAAXAEBVQTextBlock@@@Z
       2687  A7E 00264FC0 ?blockWithMarkerAt@QAbstractTextDocumentLayout@@QEBA?AVQTextBlock@@AEBVQPointF@@@Z
       2688  A7F 0002F7E0 ?blocksBegin@QTextDocumentPrivate@@QEBA?AVQTextBlock@@XZ
       2689  A80 0002F810 ?blocksEnd@QTextDocumentPrivate@@QEBA?AVQTextBlock@@XZ
       2690  A81 0002F820 ?blocksFind@QTextDocumentPrivate@@QEBA?AVQTextBlock@@H@Z
       2691  A82 00124AC0 ?blue@QColor@@QEBAHXZ
       2692  A83 000DB470 ?blueBufferSize@QSurfaceFormat@@QEBAHXZ
       2693  A84 00124B00 ?blueF@QColor@@QEBAMXZ
       2694  A85 00002D20 ?bold@QFont@@QEBA_NXZ
       2695  A86 00288550 ?bold@QFontDatabase@@SA_NAEBVQString@@0@Z
       2696  A87 00002D40 ?bold@QFontInfo@@QEBA_NXZ
       2697  A88 003046A0 ?boolProperty@QTextFormat@@QEBA_NH@Z
       2698  A89 0002F890 ?border@QTextFrameFormat@@QEBANXZ
       2699  A8A 0002F8A0 ?borderBrush@QTextFrameFormat@@QEBA?AVQBrush@@XZ
       2700  A8B 0002F8C0 ?borderCollapse@QTextTableFormat@@QEBA_NXZ
       2701  A8C 0043C770 ?borderCollapseValue@Declaration@QCss@@QEBA_NXZ
       2702  A8D 0043C880 ?borderImageValue@Declaration@QCss@@QEBAXPEAVQString@@PEAHPEAW4TileMode@2@2@Z
       2703  A8E 0002F8D0 ?borderStyle@QTextFrameFormat@@QEBA?AW4BorderStyle@1@XZ
       2704  A8F 0043CCA0 ?borderValue@ValueExtractor@QCss@@AEAAXAEBUDeclaration@2@PEAHPEAW4BorderStyle@2@PEAVQBrush@@@Z
       2705  A90 00004FD0 ?bottom@QDoubleValidator@@QEBANXZ
       2706  A91 00002CC0 ?bottom@QIntValidator@@QEBAHXZ
       2707  A92 0002F8E0 ?bottomBorder@QTextTableCellFormat@@QEBANXZ
       2708  A93 0002F8F0 ?bottomBorderBrush@QTextTableCellFormat@@QEBA?AVQBrush@@XZ
       2709  A94 0002F910 ?bottomBorderStyle@QTextTableCellFormat@@QEBA?AW4BorderStyle@QTextFrameFormat@@XZ
       2710  A95 00342210 ?bottomChanged@QDoubleValidator@@QEAAXN@Z
       2711  A96 00342250 ?bottomChanged@QIntValidator@@QEAAXH@Z
       2712  A97 0002F920 ?bottomMargin@QTextBlockFormat@@QEBANXZ
       2713  A98 00304770 ?bottomMargin@QTextFrameFormat@@QEBANXZ
       2714  A99 0002F930 ?bottomPadding@QTextTableCellFormat@@QEBANXZ
       2715  A9A 00299690 ?boundingBox@QFontEngine@@UEAA?AUglyph_metrics_t@@AEBUQGlyphLayout@@@Z
       2716  A9B 00299850 ?boundingBox@QFontEngine@@UEAA?AUglyph_metrics_t@@IAEBVQTransform@@@Z
       2717  A9C 00299950 ?boundingBox@QFontEngineMulti@@UEAA?AUglyph_metrics_t@@AEBUQGlyphLayout@@@Z
       2718  A9D 0029A090 ?boundingBox@QFontEngineMulti@@UEAA?AUglyph_metrics_t@@I@Z
       2719  A9E 002F3B10 ?boundingBox@QTextEngine@@QEBA?AUglyph_metrics_t@@HH@Z
       2720  A9F 00454610 ?boundingBox@QWindowsFontEngineDirectWrite@@UEAA?AUglyph_metrics_t@@AEBUQGlyphLayout@@@Z
       2721  AA0 00454760 ?boundingBox@QWindowsFontEngineDirectWrite@@UEAA?AUglyph_metrics_t@@I@Z
       2722  AA1 002A1460 ?boundingRect@QFontMetrics@@QEBA?AVQRect@@AEBV2@HAEBVQString@@HPEAH@Z
       2723  AA2 002A1560 ?boundingRect@QFontMetrics@@QEBA?AVQRect@@AEBVQString@@@Z
       2724  AA3 002A1640 ?boundingRect@QFontMetrics@@QEBA?AVQRect@@AEBVQString@@AEBVQTextOption@@@Z
       2725  AA4 00002D60 ?boundingRect@QFontMetrics@@QEBA?AVQRect@@HHHHHAEBVQString@@HPEAH@Z
       2726  AA5 002A1740 ?boundingRect@QFontMetrics@@QEBA?AVQRect@@VQChar@@@Z
       2727  AA6 002A1830 ?boundingRect@QFontMetricsF@@QEBA?AVQRectF@@AEBV2@HAEBVQString@@HPEAH@Z
       2728  AA7 002A1900 ?boundingRect@QFontMetricsF@@QEBA?AVQRectF@@AEBVQString@@@Z
       2729  AA8 002A1A10 ?boundingRect@QFontMetricsF@@QEBA?AVQRectF@@AEBVQString@@AEBVQTextOption@@@Z
       2730  AA9 002A1B30 ?boundingRect@QFontMetricsF@@QEBA?AVQRectF@@VQChar@@@Z
       2731  AAA 002A3F50 ?boundingRect@QGlyphRun@@QEBA?AVQRectF@@XZ
       2732  AAB 001BCC40 ?boundingRect@QPainter@@QEAA?AVQRect@@AEBV2@HAEBVQString@@@Z
       2733  AAC 00002DE0 ?boundingRect@QPainter@@QEAA?AVQRect@@HHHHHAEBVQString@@@Z
       2734  AAD 001BCDA0 ?boundingRect@QPainter@@QEAA?AVQRectF@@AEBV2@AEBVQString@@AEBVQTextOption@@@Z
       2735  AAE 001BCE50 ?boundingRect@QPainter@@QEAA?AVQRectF@@AEBV2@HAEBVQString@@@Z
       2736  AAF 001D1C70 ?boundingRect@QPainterPath@@QEBA?AVQRectF@@XZ
       2737  AB0 00061B50 ?boundingRect@QPicture@@QEBA?AVQRect@@XZ
       2738  AB1 0020E370 ?boundingRect@QPolygon@@QEBA?AVQRect@@XZ
       2739  AB2 0020E420 ?boundingRect@QPolygonF@@QEBA?AVQRectF@@XZ
       2740  AB3 002A6F10 ?boundingRect@QRawFont@@QEBA?AVQRectF@@I@Z
       2741  AB4 00217BC0 ?boundingRect@QRegion@@QEBA?AVQRect@@XZ
       2742  AB5 0031A210 ?boundingRect@QTextLayout@@QEBA?AVQRectF@@XZ
       2743  AB6 0010A480 ?bounds@QBezier@@QEBA?AVQRectF@@XZ
       2744  AB7 00333DF0 ?box@QGridLayoutItem@@QEBA?AVQGridLayoutBox@@W4Orientation@Qt@@_NN@Z
       2745  AB8 00013B40 ?brightText@QPalette@@QEBAAEBVQBrush@@XZ
       2746  AB9 001BCF90 ?brush@QPaintEngineState@@QEBA?AVQBrush@@XZ
       2747  ABA 001BCFC0 ?brush@QPainter@@QEBAAEBVQBrush@@XZ
       2748  ABB 000AFFA0 ?brush@QPalette@@QEBAAEBVQBrush@@W4ColorGroup@1@W4ColorRole@1@@Z
       2749  ABC 00013B50 ?brush@QPalette@@QEBAAEBVQBrush@@W4ColorRole@1@@Z
       2750  ABD 001EC0E0 ?brush@QPen@@QEBA?AVQBrush@@XZ
       2751  ABE 0019E140 ?brushChanged@QBlitterPaintEngine@@UEAAXXZ
       2752  ABF 001A4A30 ?brushChanged@QRasterPaintEngine@@UEAAXXZ
       2753  AC0 001BD020 ?brushNeedsResolving@QPaintEngineState@@QEBA_NXZ
       2754  AC1 001BD090 ?brushOrigin@QPaintEngineState@@QEBA?AVQPointF@@XZ
       2755  AC2 001BD0B0 ?brushOrigin@QPainter@@QEBA?AVQPoint@@XZ
       2756  AC3 001A4A50 ?brushOriginChanged@QRasterPaintEngine@@UEAAXXZ
       2757  AC4 003047C0 ?brushProperty@QTextFormat@@QEBA?AVQBrush@@H@Z
       2758  AC5 0043D1C0 ?brushValue@Declaration@QCss@@QEBA?AVQBrush@@AEBVQPalette@@@Z
       2759  AC6 0043D390 ?brushValues@Declaration@QCss@@QEBAXPEAVQBrush@@AEBVQPalette@@@Z
       2760  AC7 00068540 ?buffer@QBlittablePlatformPixmap@@UEAAPEAVQImage@@XZ
       2761  AC8 000031E0 ?buffer@QPlatformPixmap@@UEAAPEAVQImage@@XZ
       2762  AC9 000048B0 ?buffer@QRasterPlatformPixmap@@UEAAPEAVQImage@@XZ
       2763  ACA 0002F940 ?buffer@QTextDocumentPrivate@@QEBA?AVQString@@XZ
       2764  ACB 00240470 ?bufferLoad@QRhiShaderResourceBinding@@SA?AV1@HV?$QFlags@W4StageFlag@QRhiShaderResourceBinding@@@@PEAVQRhiBuffer@@@Z
       2765  ACC 00240490 ?bufferLoad@QRhiShaderResourceBinding@@SA?AV1@HV?$QFlags@W4StageFlag@QRhiShaderResourceBinding@@@@PEAVQRhiBuffer@@II@Z
       2766  ACD 002404C0 ?bufferLoadStore@QRhiShaderResourceBinding@@SA?AV1@HV?$QFlags@W4StageFlag@QRhiShaderResourceBinding@@@@PEAVQRhiBuffer@@@Z
       2767  ACE 002404E0 ?bufferLoadStore@QRhiShaderResourceBinding@@SA?AV1@HV?$QFlags@W4StageFlag@QRhiShaderResourceBinding@@@@PEAVQRhiBuffer@@II@Z
       2768  ACF 00240510 ?bufferStore@QRhiShaderResourceBinding@@SA?AV1@HV?$QFlags@W4StageFlag@QRhiShaderResourceBinding@@@@PEAVQRhiBuffer@@@Z
       2769  AD0 00240530 ?bufferStore@QRhiShaderResourceBinding@@SA?AV1@HV?$QFlags@W4StageFlag@QRhiShaderResourceBinding@@@@PEAVQRhiBuffer@@II@Z
       2770  AD1 0043D8F0 ?buildIndexes@StyleSheet@QCss@@QEAAXW4CaseSensitivity@Qt@@@Z
       2771  AD2 00013B60 ?button@QPalette@@QEBAAEBVQBrush@@XZ
       2772  AD3 00002E40 ?button@QSinglePointEvent@@QEBA?AW4MouseButton@Qt@@XZ
       2773  AD4 000D0710 ?buttonCount@QPointingDevice@@QEBAHXZ
       2774  AD5 000B8DA0 ?buttonLayout@QPlatformDialogHelper@@SAPEBHW4Orientation@Qt@@W4ButtonLayout@1@@Z
       2775  AD6 000B8DD0 ?buttonRole@QPlatformDialogHelper@@SA?AW4ButtonRole@1@W4StandardButton@1@@Z
       2776  AD7 00013B70 ?buttonText@QPalette@@QEBAAEBVQBrush@@XZ
       2777  AD8 00002E50 ?buttons@QDropEvent@@QEBA?AV?$QFlags@W4MouseButton@Qt@@@@XZ
       2778  AD9 00002E60 ?buttons@QSinglePointEvent@@QEBA?AV?$QFlags@W4MouseButton@Qt@@@@XZ
       2779  ADA 000BD100 ?byteCount@QPlatformGraphicsBuffer@@QEBAHXZ
       2780  ADB 0002F970 ?bytesPerLine@QImage@@QEBA_JXZ
       2781  ADC 000031E0 ?bytesPerLine@QPlatformGraphicsBuffer@@UEBAHXZ
       2782  ADD 0031A390 ?cacheEnabled@QTextLayout@@QEBA_NXZ
       2783  ADE 003632A0 ?cacheFileName@QOpenGLProgramBinaryCache@@AEBA?AVQString@@AEBVQByteArray@@@Z
       2784  ADF 003633F0 ?cacheKey@ProgramDesc@QOpenGLProgramBinaryCache@@QEBA?AVQByteArray@@XZ
       2785  AE0 00006B40 ?cacheKey@QAbstractFileIconEngine@@MEBA?AVQString@@XZ
       2786  AE1 00013B80 ?cacheKey@QIcon@@QEBA_JXZ
       2787  AE2 0002F980 ?cacheKey@QImage@@QEBA_JXZ
       2788  AE3 000B0020 ?cacheKey@QPalette@@QEBA_JXZ
       2789  AE4 00065EF0 ?cacheKey@QPixmap@@QEBA_JXZ
       2790  AE5 00006350 ?cacheKey@QPlatformPixmap@@QEBA_JXZ
       2791  AE6 0006B0F0 ?cacheLimit@QPixmapCache@@SAHXZ
       2792  AE7 004015A0 ?cacheMode@QMovie@@QEBA?AW4CacheMode@1@XZ
       2793  AE8 000074A0 ?cacheStatistics@QFont@@SAXXZ
       2794  AE9 0002F9A0 ?calculateImageParameters@QImageData@@SA?AUImageSizeParameters@1@_J00@Z
       2795  AEA 00222270 ?calculateSubPixelPositionCount@QTextureGlyphCache@@IEBAHI@Z
       2796  AEB 002F3B90 ?calculateTabWidth@QTextEngine@@QEBA?AUQFixed@@HU2@@Z
       2797  AEC 0029A0D0 ?calculatedCapHeight@QFontEngine@@IEBA?AUQFixed@@XZ
       2798  AED 002AE0B0 ?canDelete@QTextCursorPrivate@@QEBA_NH@Z
       2799  AEE 000C13B0 ?canDrop@QBasicDrag@@IEBA_NXZ
       2800  AEF 0046C350 ?canFetchMore@QFileSystemModel@@UEBA_NAEBVQModelIndex@@@Z
       2801  AF0 0002FA80 ?canLayout@QTextDocumentPrivate@@QEBA_NXZ
       2802  AF1 00090070 ?canQuitAutomatically@QGuiApplicationPrivate@@UEAA_NXZ
       2803  AF2 000565C0 ?canRead@QImageReader@@QEBA_NXZ
       2804  AF3 00340830 ?canRead@QTextureFileReader@@QEAA_NXZ
       2805  AF4 000AA7B0 ?canReadData@QInternalMimeData@@SA_NAEBVQString@@@Z
       2806  AF5 004602D0 ?canRedo@QUndoGroup@@QEBA_NXZ
       2807  AF6 0045D5E0 ?canRedo@QUndoStack@@QEBA_NXZ
       2808  AF7 00460300 ?canRedoChanged@QUndoGroup@@QEAAX_N@Z
       2809  AF8 0045D610 ?canRedoChanged@QUndoStack@@QEAAX_N@Z
       2810  AF9 0002FAB0 ?canRender@QFontEngine@@QEBA_NI@Z
       2811  AFA 0029A130 ?canRender@QFontEngine@@UEBA_NPEBVQChar@@H@Z
       2812  AFB 0029A1F0 ?canRender@QFontEngineMulti@@UEBA_NPEBVQChar@@H@Z
       2813  AFC 00460340 ?canUndo@QUndoGroup@@QEBA_NXZ
       2814  AFD 0045D650 ?canUndo@QUndoStack@@QEBA_NXZ
       2815  AFE 00460370 ?canUndoChanged@QUndoGroup@@QEAAX_N@Z
       2816  AFF 0045D670 ?canUndoChanged@QUndoStack@@QEAAX_N@Z
       2817  B00 0005D140 ?canWrite@QImageWriter@@QEBA_NXZ
       2818  B01 003F4AE0 ?cancel@QBasicDrag@@MEAAXXZ
       2819  B02 003F3320 ?cancel@QDrag@@SAXXZ
       2820  B03 000074A0 ?cancel@QPlatformSessionManager@@UEAAXXZ
       2821  B04 000D6FD0 ?cancel@QSessionManager@@QEAAXXZ
       2822  B05 003F4B30 ?cancel@QSimpleDrag@@MEAAXXZ
       2823  B06 003F4BC0 ?cancelDrag@QBasicDrag@@UEAAXXZ
       2824  B07 003F3F30 ?cancelDrag@QPlatformDrag@@UEAAXXZ
       2825  B08 0021DFB0 ?capForJoinMode@QStroker@@KA?AW4PenCapStyle@Qt@@W4LineJoinMode@1@@Z
       2826  B09 0029A360 ?capHeight@QFontEngineMulti@@UEBA?AUQFixed@@XZ
       2827  B0A 002A1C40 ?capHeight@QFontMetrics@@QEBAHXZ
       2828  B0B 002A1C80 ?capHeight@QFontMetricsF@@QEBANXZ
       2829  B0C 002A6FB0 ?capHeight@QRawFont@@QEBANXZ
       2830  B0D 004548F0 ?capHeight@QWindowsFontEngineDirectWrite@@UEBA?AUQFixed@@XZ
       2831  B0E 001D1CD0 ?capStyle@QPainterPathStroker@@QEBA?AW4PenCapStyle@Qt@@XZ
       2832  B0F 000DBD50 ?capStyle@QPen@@QEBA?AW4PenCapStyle@Qt@@XZ
       2833  B10 0002FAD0 ?capStyle@QStroker@@QEBA?AW4PenCapStyle@Qt@@XZ
       2834  B11 0002FAE0 ?capStyleMode@QStroker@@QEBA?AW4LineJoinMode@1@XZ
       2835  B12 0011D4C0 ?capabilities@QBlittable@@QEBA?AV?$QFlags@W4Capability@QBlittable@@@@XZ
       2836  B13 000A6D90 ?capabilities@QInputDevice@@QEBA?AV?$QFlags@W4Capability@QInputDevice@@@@XZ
       2837  B14 00078900 ?capabilities@QPlatformCursor@@SA?AV?$QFlags@W4Capability@QPlatformCursor@@@@XZ
       2838  B15 001D1CE0 ?capacity@QPainterPath@@QEBAHXZ
       2839  B16 00278B90 ?capitalization@QFont@@QEBA?AW4Capitalization@1@XZ
       2840  B17 000900A0 ?captureGlobalModifierState@QGuiApplicationPrivate@@SAXPEAVQEvent@@@Z
       2841  B18 00422A20 ?cbEnterBlock@QTextMarkdownImporter@@QEAAHHPEAX@Z
       2842  B19 004236A0 ?cbEnterSpan@QTextMarkdownImporter@@QEAAHHPEAX@Z
       2843  B1A 00423C90 ?cbLeaveBlock@QTextMarkdownImporter@@QEAAHHPEAX@Z
       2844  B1B 00424340 ?cbLeaveSpan@QTextMarkdownImporter@@QEAAHHPEAX@Z
       2845  B1C 00424680 ?cbText@QTextMarkdownImporter@@QEAAHHPEBDI@Z
       2846  B1D 00002E70 ?cbegin@QRegion@@QEBAPEBVQRect@@XZ
       2847  B1E 00101D70 ?cbeginAttributes@QRhiVertexInputLayout@@QEBAPEBVQRhiVertexInputAttribute@@XZ
       2848  B1F 00005B10 ?cbeginBindings@QRhiShaderResourceBindings@@QEBAPEBVQRhiShaderResourceBinding@@XZ
       2849  B20 00002C80 ?cbeginBindings@QRhiVertexInputLayout@@QEBAPEBVQRhiVertexInputBinding@@XZ
       2850  B21 00002C80 ?cbeginColorAttachments@QRhiTextureRenderTargetDescription@@QEBAPEBVQRhiColorAttachment@@XZ
       2851  B22 00002C80 ?cbeginEntries@QRhiTextureUploadDescription@@QEBAPEBVQRhiTextureUploadEntry@@XZ
       2852  B23 00101D80 ?cbeginShaderStages@QRhiGraphicsPipeline@@QEBAPEBVQRhiShaderStage@@XZ
       2853  B24 000C15D0 ?cbeginTargetBlends@QRhiGraphicsPipeline@@QEBAPEBUTargetBlend@1@XZ
       2854  B25 0032B220 ?cellAt@QTextTable@@QEBA?AVQTextTableCell@@AEBVQTextCursor@@@Z
       2855  B26 0032B260 ?cellAt@QTextTable@@QEBA?AVQTextTableCell@@H@Z
       2856  B27 0032B410 ?cellAt@QTextTable@@QEBA?AVQTextTableCell@@HH@Z
       2857  B28 0002FAF0 ?cellPadding@QTextTableFormat@@QEBANXZ
       2858  B29 003350A0 ?cellRect@QGridLayoutEngine@@QEBA?AVQRectF@@AEBV2@HHHHPEBVQAbstractLayoutStyleInfo@@@Z
       2859  B2A 0002FB00 ?cellSpacing@QTextTableFormat@@QEBANXZ
       2860  B2B 00002E80 ?cend@QRegion@@QEBAPEBVQRect@@XZ
       2861  B2C 00101D90 ?cendAttributes@QRhiVertexInputLayout@@QEBAPEBVQRhiVertexInputAttribute@@XZ
       2862  B2D 00101DB0 ?cendBindings@QRhiShaderResourceBindings@@QEBAPEBVQRhiShaderResourceBinding@@XZ
       2863  B2E 00101DC0 ?cendBindings@QRhiVertexInputLayout@@QEBAPEBVQRhiVertexInputBinding@@XZ
       2864  B2F 00101DE0 ?cendColorAttachments@QRhiTextureRenderTargetDescription@@QEBAPEBVQRhiColorAttachment@@XZ
       2865  B30 00101E00 ?cendEntries@QRhiTextureUploadDescription@@QEBAPEBVQRhiTextureUploadEntry@@XZ
       2866  B31 00101E10 ?cendShaderStages@QRhiGraphicsPipeline@@QEBAPEBVQRhiShaderStage@@XZ
       2867  B32 00101E30 ?cendTargetBlends@QRhiGraphicsPipeline@@QEBAPEBUTargetBlend@1@XZ
       2868  B33 0010B2B0 ?center@QConicalGradient@@QEBA?AVQPointF@@XZ
       2869  B34 0010B2B0 ?center@QRadialGradient@@QEBA?AVQPointF@@XZ
       2870  B35 00005010 ?centerRadius@QRadialGradient@@QEBANXZ
       2871  B36 002C7EE0 ?changeObjectFormat@QTextDocumentPrivate@@QEAAXPEAVQTextObject@@H@Z
       2872  B37 000901E0 ?changeOverrideCursor@QGuiApplication@@SAXAEBVQCursor@@@Z
       2873  B38 00005EA0 ?changePosition@QAccessibleTextInsertEvent@@QEBAHXZ
       2874  B39 00005EA0 ?changePosition@QAccessibleTextRemoveEvent@@QEBAHXZ
       2875  B3A 00005EA0 ?changePosition@QAccessibleTextUpdateEvent@@QEBAHXZ
       2876  B3B 003EE110 ?changed@QAction@@QEAAXXZ
       2877  B3C 00076210 ?changed@QClipboard@@QEAAXW4Mode@1@@Z
       2878  B3D 00342290 ?changed@QValidator@@QEAAXXZ
       2879  B3E 00090290 ?changedStates@QAccessibleStateChangeEvent@@QEBA?AUState@QAccessible@@XZ
       2880  B3F 00326860 ?charFormat@QTextBlock@@QEBA?AVQTextCharFormat@@XZ
       2881  B40 002AE190 ?charFormat@QTextCursor@@QEBA?AVQTextCharFormat@@XZ
       2882  B41 0002F790 ?charFormat@QTextFormatCollection@@QEBA?AVQTextCharFormat@@H@Z
       2883  B42 003268D0 ?charFormat@QTextFragment@@QEBA?AVQTextCharFormat@@XZ
       2884  B43 00326940 ?charFormatIndex@QTextBlock@@QEBAHXZ
       2885  B44 00326960 ?charFormatIndex@QTextFragment@@QEBAHXZ
       2886  B45 002B72B0 ?characterAt@QTextDocument@@QEBA?AVQChar@@H@Z
       2887  B46 002B7400 ?characterCount@QTextDocument@@QEBAHXZ
       2888  B47 000B8EB0 ?checkBoxLabel@QMessageDialogOptions@@QEBA?AVQString@@XZ
       2889  B48 000B8EE0 ?checkBoxState@QMessageDialogOptions@@QEBA?AW4CheckState@Qt@@XZ
       2890  B49 000B8EF0 ?checkBoxStateChanged@QPlatformMessageDialogHelper@@QEAAXW4CheckState@Qt@@@Z
       2891  B4A 0002FB10 ?checkForAlphaPixels@QImageData@@QEBA_NXZ
       2892  B4B 00106A70 ?checkForceRhi@QBackingStoreRhiSupport@@SA_NPEAUQPlatformBackingStoreRhiConfig@@PEAW4SurfaceType@QSurface@@@Z
       2893  B4C 00030280 ?checkInvertibility@QColorTransferTable@@QEBA_NXZ
       2894  B4D 00349CE0 ?checkState@QStandardItem@@QEBA?AW4CheckState@Qt@@XZ
       2895  B4E 00030300 ?checkValidity@QColorTransferTable@@QEBA_NXZ
       2896  B4F 003EE130 ?checkableChanged@QAction@@QEAAX_N@Z
       2897  B50 003F1740 ?checkedAction@QActionGroup@@QEBAPEAVQAction@@XZ
       2898  B51 003EAF50 ?child@QAccessibleApplication@@UEBAPEAVQAccessibleInterface@@H@Z
       2899  B52 000049D0 ?child@QAccessibleEvent@@QEBAHXZ
       2900  B53 00002C80 ?child@QChildWindowEvent@@QEBAPEAVQWindow@@XZ
       2901  B54 00349E00 ?child@QStandardItem@@QEBAPEAV1@HH@Z
       2902  B55 0045D7C0 ?child@QUndoCommand@@QEBAPEBV1@H@Z
       2903  B56 003EAFB0 ?childAt@QAccessibleObject@@UEBAPEAVQAccessibleInterface@@HH@Z
       2904  B57 003EB080 ?childCount@QAccessibleApplication@@UEBAHXZ
       2905  B58 0045D7E0 ?childCount@QUndoCommand@@QEBAHXZ
       2906  B59 00326990 ?childFrames@QTextFrame@@QEBA?AV?$QList@PEAVQTextFrame@@@@XZ
       2907  B5A 00006380 ?classId@QPlatformPixmap@@QEBA?AW4ClassId@1@XZ
       2908  B5B 00005A20 ?classification@QRhiVertexInputBinding@@QEBA?AW4Classification@1@XZ
       2909  B5C 004603B0 ?cleanChanged@QUndoGroup@@QEAAX_N@Z
       2910  B5D 0045D7F0 ?cleanChanged@QUndoStack@@QEAAX_N@Z
       2911  B5E 000B8F30 ?cleanFilterList@QPlatformFileDialogHelper@@SA?AV?$QList@VQString@@@@AEBVQString@@@Z
       2912  B5F 0045D830 ?cleanIndex@QUndoStack@@QEBAHXZ
       2913  B60 001BB8D0 ?cleanUp@QRawFontPrivate@@QEAAXXZ
       2914  B61 00217D90 ?cleanUp@QRegion@@CAXPEAUQRegionData@1@@Z
       2915  B62 003E38B0 ?cleanup@QAccessible@@SAXXZ
       2916  B63 00278BA0 ?cleanup@QFont@@SAXXZ
       2917  B64 00278BA0 ?cleanup@QFontCache@@SAXXZ
       2918  B65 00356120 ?cleanup@QOpenGLContextGroupPrivate@@QEAAXXZ
       2919  B66 003565B0 ?cleanup@QOpenGLMultiGroupSharedResource@@QEAAXPEAVQOpenGLContextGroup@@PEAVQOpenGLSharedResource@@@Z
       2920  B67 003EB770 ?cleanup@QPlatformAccessibility@@UEAAXXZ
       2921  B68 00002E90 ?clear@QBitmap@@QEAAXXZ
       2922  B69 00076250 ?clear@QClipboard@@QEAAXW4Mode@1@@Z
       2923  B6A 00463B40 ?clear@QFileInfoGatherer@@QEAAXXZ
       2924  B6B 00278E80 ?clear@QFontCache@@QEAAXXZ
       2925  B6C 002A4150 ?clear@QGlyphRun@@QEAAXXZ
       2926  B6D 00195FB0 ?clear@QPageRanges@@QEAAXXZ
       2927  B6E 001D1D00 ?clear@QPainterPath@@QEAAXXZ
       2928  B6F 0006B3D0 ?clear@QPixmapCache@@SAXXZ
       2929  B70 0020BB00 ?clear@QPlatformTextureList@@QEAAXXZ
       2930  B71 0034A110 ?clear@QStandardItemModel@@QEAAXXZ
       2931  B72 002B7500 ?clear@QTextDocument@@UEAAXXZ
       2932  B73 002C81E0 ?clear@QTextDocumentPrivate@@QEAAXXZ
       2933  B74 003049A0 ?clear@QTextFormatCollection@@QEAAXXZ
       2934  B75 0033EE00 ?clear@QTextureFileData@@QEAAXXZ
       2935  B76 0045D840 ?clear@QUndoStack@@QEAAXXZ
       2936  B77 00384F40 ?clearAllThemeCaches@QWindowsThemeCache@@YAXXZ
       2937  B78 000303B0 ?clearBackground@QTextFormat@@QEAAXXZ
       2938  B79 002AE370 ?clearCells@QTextCursorPrivate@@QEAAXPEAVQTextTable@@HHHHW4Operation@QTextUndoCommand@@@Z
       2939  B7A 000303C0 ?clearColumnWidthConstraints@QTextTableFormat@@QEAAXXZ
       2940  B7B 000B91D0 ?clearCustomButtons@QMessageDialogOptions@@QEAAXXZ
       2941  B7C 0034A3F0 ?clearData@QStandardItem@@QEAAXXZ
       2942  B7D 002F4340 ?clearDecorations@QTextEngine@@QEAAXXZ
       2943  B7E 000303D0 ?clearDirty@QPaintEngine@@QEAAXV?$QFlags@W4DirtyFlag@QPaintEngine@@@@@Z
       2944  B7F 00288950 ?clearFamilies@QFontDatabasePrivate@@QEAAXXZ
       2945  B80 002795B0 ?clearFeatures@QFont@@QEAAXXZ
       2946  B81 000074A0 ?clearFocusObject@QWindowPrivate@@UEAAXXZ
       2947  B82 000303E0 ?clearForeground@QTextFormat@@QEAAXXZ
       2948  B83 0031A540 ?clearFormats@QTextLayout@@QEAAXXZ
       2949  B84 002C8AF0 ?clearFrame@QTextDocumentPrivate@@CAXPEAVQTextFrame@@@Z
       2950  B85 0029A390 ?clearGlyphCache@QFontEngine@@QEAAXPEBX@Z
       2951  B86 00009BB0 ?clearIconTypeCache@QAbstractFileIconProviderPrivate@@SAXXZ
       2952  B87 0034A470 ?clearItemData@QStandardItemModel@@UEAA_NAEBVQModelIndex@@@Z
       2953  B88 003269C0 ?clearLayout@QTextBlock@@QEAAXXZ
       2954  B89 0031A600 ?clearLayout@QTextLayout@@QEAAXXZ
       2955  B8A 002F4380 ?clearLineData@QTextEngine@@QEAAXXZ
       2956  B8B 000074A0 ?clearOverrideCursor@QPlatformCursor@@UEAAXXZ
       2957  B8C 000902A0 ?clearPalette@QGuiApplicationPrivate@@CAXXZ
       2958  B8D 00084180 ?clearPassiveGrabbers@QPointerEvent@@QEAAXAEBVQEventPoint@@@Z
       2959  B8E 000D0870 ?clearPassiveGrabbers@QPointingDevicePrivate@@QEAAXPEBVQPointerEvent@@AEBVQEventPoint@@@Z
       2960  B8F 00304B20 ?clearProperty@QTextFormat@@QEAAXH@Z
       2961  B90 002AE480 ?clearSelection@QTextCursor@@QEAAXXZ
       2962  B91 003FC580 ?clearSequence@QShortcutMap@@AEAAXAEAV?$QList@VQKeySequence@@@@@Z
       2963  B92 00385140 ?clearThemeCache@QWindowsThemeCache@@YAXPEAUHWND__@@@Z
       2964  B93 001A4D30 ?clearTypeFontsEnabled@QRasterPaintEngine@@SA_NXZ
       2965  B94 002B7550 ?clearUndoRedoStacks@QTextDocument@@QEAAXW4Stacks@1@@Z
       2966  B95 002C8C00 ?clearUndoRedoStacks@QTextDocumentPrivate@@QEAAXW4Stacks@QTextDocument@@_N@Z
       2967  B96 002796D0 ?clearVariableAxes@QFont@@QEAAXXZ
       2968  B97 000B9300 ?clicked@QPlatformMessageDialogHelper@@QEAAXW4StandardButton@QPlatformDialogHelper@@W4ButtonRole@3@@Z
       2969  B98 001B5B40 ?clip@QPaintEngineEx@@UEAAXAEBVQPainterPath@@W4ClipOperation@Qt@@@Z
       2970  B99 001B5CC0 ?clip@QPaintEngineEx@@UEAAXAEBVQRect@@W4ClipOperation@Qt@@@Z
       2971  B9A 001B5E00 ?clip@QPaintEngineEx@@UEAAXAEBVQRegion@@W4ClipOperation@Qt@@@Z
       2972  B9B 001DF6E0 ?clip@QPathClipper@@QEAA?AVQPainterPath@@W4Operation@1@@Z
       2973  B9C 001A4DB0 ?clip@QRasterPaintEngine@@UEAAXAEBVQRect@@W4ClipOperation@Qt@@@Z
       2974  B9D 001A4EE0 ?clip@QRasterPaintEngine@@UEAAXAEBVQRegion@@W4ClipOperation@Qt@@@Z
       2975  B9E 001A5120 ?clip@QRasterPaintEngine@@UEAAXAEBVQVectorPath@@W4ClipOperation@Qt@@@Z
       2976  B9F 001BD3E0 ?clipBoundingRect@QPainter@@QEBA?AVQRectF@@XZ
       2977  BA0 001A5540 ?clipBoundingRect@QRasterPaintEngine@@QEBA?AVQRectF@@XZ
       2978  BA1 000303F0 ?clipData@QRasterPaintEngine@@QEBAPEBVQClipData@@XZ
       2979  BA2 0019E5D0 ?clipEnabledChanged@QBlitterPaintEngine@@UEAAXXZ
       2980  BA3 001A5640 ?clipEnabledChanged@QRasterPaintEngine@@UEAAXXZ
       2981  BA4 001BD680 ?clipOperation@QPaintEngineState@@QEBA?AW4ClipOperation@Qt@@XZ
       2982  BA5 001BD6A0 ?clipPath@QPaintEngineState@@QEBA?AVQPainterPath@@XZ
       2983  BA6 001BD6D0 ?clipPath@QPainter@@QEBA?AVQPainterPath@@XZ
       2984  BA7 00056710 ?clipRect@QImageReader@@QEBA?AVQRect@@XZ
       2985  BA8 0020BBB0 ?clipRect@QPlatformTextureList@@QEBA?AVQRect@@H@Z
       2986  BA9 00030450 ?clipRect@QStrokerOps@@QEBA?AVQRectF@@XZ
       2987  BAA 001BD8B0 ?clipRegion@QPaintEngineState@@QEBA?AVQRegion@@XZ
       2988  BAB 001BD8E0 ?clipRegion@QPainter@@QEBA?AVQRegion@@XZ
       2989  BAC 00240560 ?clipSpaceCorrMatrix@QRhi@@QEBA?AVQMatrix4x4@@XZ
       2990  BAD 001A56D0 ?clipType@QRasterPaintEngine@@QEBA?AW4ClipType@1@XZ
       2991  BAE 000902E0 ?clipboard@QGuiApplication@@SAPEAVQClipboard@@XZ
       2992  BAF 000C13C0 ?clipboard@QPlatformIntegration@@UEBAPEAVQPlatformClipboard@@XZ
       2993  BB0 000841C0 ?clone@QActionEvent@@UEBAPEAV1@XZ
       2994  BB1 00084210 ?clone@QApplicationStateChangeEvent@@UEBAPEAV1@XZ
       2995  BB2 00084260 ?clone@QChildWindowEvent@@UEBAPEAV1@XZ
       2996  BB3 000842B0 ?clone@QCloseEvent@@UEBAPEAV1@XZ
       2997  BB4 000B9360 ?clone@QColorDialogOptions@@QEBA?AV?$QSharedPointer@VQColorDialogOptions@@@@XZ
       2998  BB5 000842F0 ?clone@QContextMenuEvent@@UEBAPEAV1@XZ
       2999  BB6 00084370 ?clone@QDragEnterEvent@@UEBAPEAV1@XZ
       3000  BB7 00084400 ?clone@QDragLeaveEvent@@UEBAPEAV1@XZ
       3001  BB8 00084440 ?clone@QDragMoveEvent@@UEBAPEAV1@XZ
       3002  BB9 000844C0 ?clone@QDropEvent@@UEBAPEAV1@XZ
       3003  BBA 00084530 ?clone@QEnterEvent@@UEBAPEAV1@XZ
       3004  BBB 000845F0 ?clone@QExposeEvent@@UEBAPEAV1@XZ
       3005  BBC 000B9430 ?clone@QFileDialogOptions@@QEBA?AV?$QSharedPointer@VQFileDialogOptions@@@@XZ
       3006  BBD 00084640 ?clone@QFileOpenEvent@@UEBAPEAV1@XZ
       3007  BBE 000846A0 ?clone@QFocusEvent@@UEBAPEAV1@XZ
       3008  BBF 000B94F0 ?clone@QFontDialogOptions@@QEBA?AV?$QSharedPointer@VQFontDialogOptions@@@@XZ
       3009  BC0 000846F0 ?clone@QHelpEvent@@UEBAPEAV1@XZ
       3010  BC1 00084740 ?clone@QHideEvent@@UEBAPEAV1@XZ
       3011  BC2 00084780 ?clone@QHoverEvent@@UEBAPEAV1@XZ
       3012  BC3 00084840 ?clone@QIconDragEvent@@UEBAPEAV1@XZ
       3013  BC4 00084880 ?clone@QInputEvent@@UEBAPEAV1@XZ
       3014  BC5 000848E0 ?clone@QInputMethodEvent@@UEBAPEAV1@XZ
       3015  BC6 00084970 ?clone@QInputMethodQueryEvent@@UEBAPEAV1@XZ
       3016  BC7 000849E0 ?clone@QKeyEvent@@UEBAPEAV1@XZ
       3017  BC8 000B95C0 ?clone@QMessageDialogOptions@@QEBA?AV?$QSharedPointer@VQMessageDialogOptions@@@@XZ
       3018  BC9 00084AA0 ?clone@QMouseEvent@@UEBAPEAV1@XZ
       3019  BCA 00084B60 ?clone@QMoveEvent@@UEBAPEAV1@XZ
       3020  BCB 00084BB0 ?clone@QNativeGestureEvent@@UEBAPEAV1@XZ
       3021  BCC 00084CB0 ?clone@QPaintEvent@@UEBAPEAV1@XZ
       3022  BCD 00013C50 ?clone@QPixmapIconEngine@@UEBAPEAVQIconEngine@@XZ
       3023  BCE 00084D10 ?clone@QPlatformSurfaceEvent@@UEBAPEAV1@XZ
       3024  BCF 00084D60 ?clone@QPointerEvent@@UEBAPEAV1@XZ
       3025  BD0 00084E60 ?clone@QResizeEvent@@UEBAPEAV1@XZ
       3026  BD1 00084EB0 ?clone@QScreenOrientationChangeEvent@@UEBAPEAV1@XZ
       3027  BD2 00084F00 ?clone@QScrollEvent@@UEBAPEAV1@XZ
       3028  BD3 00084F60 ?clone@QScrollPrepareEvent@@UEBAPEAV1@XZ
       3029  BD4 00084FD0 ?clone@QShortcutEvent@@UEBAPEAV1@XZ
       3030  BD5 00085030 ?clone@QShowEvent@@UEBAPEAV1@XZ
       3031  BD6 00085070 ?clone@QSinglePointEvent@@UEBAPEAV1@XZ
       3032  BD7 0034A580 ?clone@QStandardItem@@UEBAPEAV1@XZ
       3033  BD8 00085120 ?clone@QStatusTipEvent@@UEBAPEAV1@XZ
       3034  BD9 00085170 ?clone@QTabletEvent@@UEBAPEAV1@XZ
       3035  BDA 002B7560 ?clone@QTextDocument@@QEBAPEAV1@PEAVQObject@@@Z
       3036  BDB 00085240 ?clone@QToolBarChangeEvent@@UEBAPEAV1@XZ
       3037  BDC 00085290 ?clone@QTouchEvent@@UEBAPEAV1@XZ
       3038  BDD 000853C0 ?clone@QWhatsThisClickedEvent@@UEBAPEAV1@XZ
       3039  BDE 00085410 ?clone@QWheelEvent@@UEBAPEAV1@XZ
       3040  BDF 000854E0 ?clone@QWindowStateChangeEvent@@UEBAPEAV1@XZ
       3041  BE0 000031E0 ?cloneWithSize@QFontEngine@@UEBAPEAV1@N@Z
       3042  BE1 00454920 ?cloneWithSize@QWindowsFontEngineDirectWrite@@UEBAPEAVQFontEngine@@N@Z
       3043  BE2 000CCE70 ?close@QPlatformWindow@@UEAA_NXZ
       3044  BE3 000E05E0 ?close@QWindow@@QEAA_NXZ
       3045  BE4 00090350 ?closeAllPopups@QGuiApplicationPrivate@@SA_NXZ
       3046  BE5 000074A0 ?closeEvent@QWindow@@MEAAXPEAVQCloseEvent@@@Z
       3047  BE6 000903A0 ?closePopup@QGuiApplicationPrivate@@SA_NPEAVQWindow@@@Z
       3048  BE7 001D2000 ?closeSubpath@QPainterPath@@QEAAXXZ
       3049  BE8 000CCE90 ?closestAcceptableGeometry@QPlatformWindow@@SA?AVQRectF@@PEBVQWindow@@AEBV2@@Z
       3050  BE9 000BFC10 ?closestAcceptableGeometry@QWindowPrivate@@UEBA?AVQRectF@@AEBV2@@Z
       3051  BEA 0010A550 ?coefficients@QBezier@@SAXNAEAN000@Z
       3052  BEB 004549D0 ?collectMetrics@QWindowsFontEngineDirectWrite@@AEAAXXZ
       3053  BEC 00002EE0 ?color@QBrush@@QEBAAEBVQColor@@XZ
       3054  BED 00030470 ?color@QFontEngineGlyphCache@@QEBAAEBVQColor@@XZ
       3055  BEE 00030480 ?color@QImage@@QEBAIH@Z
       3056  BEF 00013CB0 ?color@QPalette@@QEBAAEBVQColor@@W4ColorGroup@1@W4ColorRole@1@@Z
       3057  BF0 00013CD0 ?color@QPalette@@QEBAAEBVQColor@@W4ColorRole@1@@Z
       3058  BF1 001EC110 ?color@QPen@@QEBA?AVQColor@@XZ
       3059  BF2 00101E40 ?colorAttachmentAt@QRhiTextureRenderTargetDescription@@QEBAPEBVQRhiColorAttachment@@_J@Z
       3060  BF3 000030F0 ?colorAttachmentCount@QRhiTextureRenderTargetDescription@@QEBA_JXZ
       3061  BF4 000304A0 ?colorCount@QImage@@QEBAHXZ
       3062  BF5 00002EF0 ?colorCount@QPaintDevice@@QEBAHXZ
       3063  BF6 00006390 ?colorCount@QPlatformPixmap@@QEBAHXZ
       3064  BF7 0012FC80 ?colorModel@QColorSpace@@QEBA?AW4ColorModel@1@XZ
       3065  BF8 00124BC0 ?colorNames@QColor@@SA?AV?$QList@VQString@@@@XZ
       3066  BF9 000C4DE0 ?colorPicked@QPlatformServiceColorPicker@@QEAAXAEBVQColor@@@Z
       3067  BFA 000031E0 ?colorPicker@QPlatformServices@@UEAAPEAVQPlatformServiceColorPicker@@PEAVQWindow@@@Z
       3068  BFB 00090650 ?colorProfileForA32Text@QGuiApplicationPrivate@@QEAAPEBVQColorTrcLut@@XZ
       3069  BFC 00090760 ?colorProfileForA8Text@QGuiApplicationPrivate@@QEAAPEBVQColorTrcLut@@XZ
       3070  BFD 00304C80 ?colorProperty@QTextFormat@@QEBA?AVQColor@@H@Z
       3071  BFE 000B0040 ?colorRoleOffset@QPalettePrivate@@SA_KW4ColorGroup@QPalette@@@Z
       3072  BFF 000031E0 ?colorScheme@QPlatformTheme@@UEBA?AW4ColorScheme@Qt@@XZ
       3073  C00 000D7DD0 ?colorScheme@QStyleHints@@QEBA?AW4ColorScheme@Qt@@XZ
       3074  C01 000D7DE0 ?colorSchemeChanged@QStyleHints@@QEAAXW4ColorScheme@Qt@@@Z
       3075  C02 000B97E0 ?colorSelected@QPlatformColorDialogHelper@@QEAAXAEBVQColor@@@Z
       3076  C03 000304B0 ?colorSpace@QImage@@QEBA?AVQColorSpace@@XZ
       3077  C04 000063B0 ?colorSpace@QPlatformScreen@@UEBA?AVQColorSpace@@XZ
       3078  C05 000DB480 ?colorSpace@QSurfaceFormat@@QEBAAEBVQColorSpace@@XZ
       3079  C06 000304F0 ?colorTable@QImage@@QEBA?AV?$QList@I@@XZ
       3080  C07 000305D0 ?colorTransformed@QImage@@QEGBA?AV1@AEBVQColorTransform@@@Z
       3081  C08 000308B0 ?colorTransformed@QImage@@QEGBA?AV1@AEBVQColorTransform@@W4Format@1@V?$QFlags@W4ImageConversionFlag@Qt@@@@@Z
       3082  C09 00032220 ?colorTransformed@QImage@@QEHAA?AV1@AEBVQColorTransform@@@Z
       3083  C0A 000324A0 ?colorTransformed@QImage@@QEHAA?AV1@AEBVQColorTransform@@W4Format@1@V?$QFlags@W4ImageConversionFlag@Qt@@@@@Z
       3084  C0B 0043DF70 ?colorValue@Declaration@QCss@@QEBA?AVQColor@@AEBVQPalette@@@Z
       3085  C0C 0043E240 ?colorValues@Declaration@QCss@@QEBAXPEAVQColor@@AEBVQPalette@@@Z
       3086  C0D 000A0AA0 ?column@QMatrix4x4@@QEBA?AVQVector4D@@H@Z
       3087  C0E 0034A600 ?column@QStandardItem@@QEBAHXZ
       3088  C0F 0032B4B0 ?column@QTextTableCell@@QEBAHXZ
       3089  C10 0046C4E0 ?columnCount@QFileSystemModel@@UEBAHAEBVQModelIndex@@@Z
       3090  C11 00335410 ?columnCount@QGridLayoutEngine@@QEBAHW4Orientation@Qt@@@Z
       3091  C12 00101D20 ?columnCount@QGridLayoutEngine@@QEBAHXZ
       3092  C13 0034A6E0 ?columnCount@QStandardItem@@QEBAHXZ
       3093  C14 0034A6F0 ?columnCount@QStandardItemModel@@UEBAHAEBVQModelIndex@@@Z
       3094  C15 002AE4E0 ?columnNumber@QTextCursor@@QEBAHXZ
       3095  C16 00335470 ?columnSpan@QGridLayoutItem@@QEBAHW4Orientation@Qt@@@Z
       3096  C17 00002CC0 ?columnSpan@QGridLayoutItem@@QEBAHXZ
       3097  C18 0032B520 ?columnSpan@QTextTableCell@@QEBAHXZ
       3098  C19 000324C0 ?columnWidthConstraints@QTextTableFormat@@QEBA?AV?$QList@VQTextLength@@@@XZ
       3099  C1A 0032B600 ?columns@QTextTable@@QEBAHXZ
       3100  C1B 000324E0 ?columns@QTextTableFormat@@QEBAHXZ
       3101  C1C 00335490 ?combine@QGridLayoutBox@@QEAAXAEBV1@@Z
       3102  C1D 0025CAC0 ?combinedImageSamplers@QShaderDescription@@QEBA?AV?$QList@UInOutVariable@QShaderDescription@@@@XZ
       3103  C1E 00330090 ?combinedLayoutSpacing@QAbstractLayoutStyleInfo@@UEBANV?$QFlags@W4ControlType@QLayoutPolicy@@@@0W4Orientation@Qt@@@Z
       3104  C1F 001BE1E0 ?combinedTransform@QPainter@@QEBA?AVQTransform@@XZ
       3105  C20 0045DB30 ?command@QUndoStack@@QEBAPEBVQUndoCommand@@H@Z
       3106  C21 000A9490 ?commit@QInputMethod@@QEAAXXZ
       3107  C22 000074A0 ?commit@QPlatformInputContext@@UEAAXXZ
       3108  C23 000DC9F0 ?commit@QTouchEventSequence@QTest@@UEAA_N_N@Z
       3109  C24 00090870 ?commitData@QGuiApplicationPrivate@@QEAAXXZ
       3110  C25 000908C0 ?commitDataRequest@QGuiApplication@@QEAAXAEAVQSessionManager@@@Z
       3111  C26 00002F10 ?commitString@QInputMethodEvent@@QEBAAEBVQString@@XZ
       3112  C27 00143FE0 ?compare@QColorTransform@@AEBA_NAEBV1@@Z
       3113  C28 002AE620 ?complexSelectionTable@QTextCursorPrivate@@QEBAPEAVQTextTable@@XZ
       3114  C29 001BE430 ?compositionMode@QPaintEngineState@@QEBA?AW4CompositionMode@QPainter@@XZ
       3115  C2A 001BE450 ?compositionMode@QPainter@@QEBA?AW4CompositionMode@1@XZ
       3116  C2B 0019E670 ?compositionModeChanged@QBlitterPaintEngine@@UEAAXXZ
       3117  C2C 001A5AC0 ?compositionModeChanged@QRasterPaintEngine@@UEAAXXZ
       3118  C2D 000908F0 ?compressEvent@QGuiApplication@@MEAA_NPEAVQEvent@@PEAVQObject@@PEAVQPostEventList@@@Z
       3119  C2E 002C8F90 ?compressPieceTable@QTextDocumentPrivate@@AEAAXXZ
       3120  C2F 0005D380 ?compression@QImageWriter@@QEBAHXZ
       3121  C30 001D2040 ?computeBoundingRect@QPainterPath@@AEBAXXZ
       3122  C31 001D2260 ?computeControlPointRect@QPainterPath@@AEBAXXZ
       3123  C32 0025CAF0 ?computeShaderLocalSize@QShaderDescription@@QEBA?AV?$array@I$02@std@@XZ
       3124  C33 000A0AD0 ?conjugated@QQuaternion@@QEBA?AV1@XZ
       3125  C34 001D2330 ?connectPath@QPainterPath@@QEAAXAEBV1@@Z
       3126  C35 000E06C0 ?connectToScreen@QWindowPrivate@@QEAAXPEAVQScreen@@@Z
       3127  C36 0005DC80 ?constBits@QDistanceField@@QEBAPEBEXZ
       3128  C37 0002F760 ?constBits@QImage@@QEBAPEBEXZ
       3129  C38 000016C0 ?constData@QMatrix4x4@@QEBAPEBMXZ
       3130  C39 0026B950 ?constScanLine@QDistanceField@@QEBAPEBEH@Z
       3131  C3A 00032500 ?constScanLine@QImage@@QEBAPEBEH@Z
       3132  C3B 000CD130 ?constrainWindowSize@QPlatformWindow@@KA?AVQSize@@AEBV2@@Z
       3133  C3C 00335580 ?constraintOrientation@QGridLayoutEngine@@QEBA?AW4Orientation@Qt@@XZ
       3134  C3D 00196010 ?contains@QPageRanges@@QEBA_NH@Z
       3135  C3E 001D2510 ?contains@QPainterPath@@QEBA_NAEBV1@@Z
       3136  C3F 001D25D0 ?contains@QPainterPath@@QEBA_NAEBVQPointF@@@Z
       3137  C40 001D2C30 ?contains@QPainterPath@@QEBA_NAEBVQRectF@@@Z
       3138  C41 001DFC00 ?contains@QPathClipper@@QEAA_NXZ
       3139  C42 00217DF0 ?contains@QRegion@@QEBA_NAEBVQPoint@@@Z
       3140  C43 00217EF0 ?contains@QRegion@@QEBA_NAEBVQRect@@@Z
       3141  C44 003269F0 ?contains@QTextBlock@@QEBA_NH@Z
       3142  C45 00326A90 ?contains@QTextFragment@@QEBA_NH@Z
       3143  C46 003E9100 ?containsObject@QAccessibleCache@@QEBA_NPEAVQObject@@@Z
       3144  C47 0020E4C0 ?containsPoint@QPolygon@@QEBA_NAEBVQPoint@@W4FillRule@Qt@@@Z
       3145  C48 0020E7F0 ?containsPoint@QPolygonF@@QEBA_NAEBVQPointF@@W4FillRule@Qt@@@Z
       3146  C49 002DAB00 ?contentHasAlignment@QTextDocumentLayout@@QEBA_NXZ
       3147  C4A 000E07A0 ?contentOrientation@QWindow@@QEBA?AW4ScreenOrientation@Qt@@XZ
       3148  C4B 000E07B0 ?contentOrientationChanged@QWindow@@QEAAXW4ScreenOrientation@Qt@@@Z
       3149  C4C 00002F20 ?contentPos@QScrollEvent@@QEBA?AVQPointF@@XZ
       3150  C4D 00002F30 ?contentPos@QScrollPrepareEvent@@QEBA?AVQPointF@@XZ
       3151  C4E 00002F40 ?contentPosRange@QScrollPrepareEvent@@QEBA?AVQRectF@@XZ
       3152  C4F 002B7C30 ?contentsChange@QTextDocument@@QEAAXHHH@Z
       3153  C50 002B7CA0 ?contentsChanged@QTextDocument@@QEAAXXZ
       3154  C51 002C91B0 ?contentsChanged@QTextDocumentPrivate@@AEAAXXZ
       3155  C52 0020C6F0 ?context@QPlatformOpenGLContext@@QEBAPEAVQOpenGLContext@@XZ
       3156  C53 003FAC50 ?context@QShortcut@@QEBA?AW4ShortcutContext@Qt@@XZ
       3157  C54 003EE170 ?contextMatcher@QActionPrivate@@UEBAP6A_NPEAVQObject@@W4ShortcutContext@Qt@@@ZXZ
       3158  C55 003FAC60 ?contextMatcher@QShortcutPrivate@@UEBAP6A_NPEAVQObject@@W4ShortcutContext@Qt@@@ZXZ
       3159  C56 00090900 ?contextMenuEventType@QGuiApplicationPrivate@@SA?AW4Type@QEvent@@XZ
       3160  C57 000C89B0 ?contextMenuRequested@QPlatformSystemTrayIcon@@QEAAXVQPoint@@PEBVQPlatformScreen@@@Z
       3161  C58 000D7E20 ?contextMenuTrigger@QStyleHints@@QEBA?AW4ContextMenuTrigger@Qt@@XZ
       3162  C59 000D7F30 ?contextMenuTriggerChanged@QStyleHints@@QEAAXW4ContextMenuTrigger@Qt@@@Z
       3163  C5A 001D2F40 ?controlPointRect@QPainterPath@@QEBA?AVQRectF@@XZ
       3164  C5B 001B62B0 ?controlPointRect@QVectorPath@@QEBA?AVQRectF@@XZ
       3165  C5C 0033E0A0 ?controlType@QLayoutPolicy@@QEBA?AW4ControlType@1@XZ
       3166  C5D 003355A0 ?controlTypes@QGridLayoutEngine@@QEBA?AV?$QFlags@W4ControlType@QLayoutPolicy@@@@W4LayoutSide@@@Z
       3167  C5E 00335720 ?controlTypes@QGridLayoutItem@@UEBA?AV?$QFlags@W4ControlType@QLayoutPolicy@@@@W4LayoutSide@@@Z
       3168  C5F 00065F30 ?convertFromImage@QPixmap@@QEAA_NAEBVQImage@@V?$QFlags@W4ImageConversionFlag@Qt@@@@@Z
       3169  C60 002B7CC0 ?convertFromPlainText@Qt@@YA?AVQString@@AEBV2@W4WhiteSpaceMode@1@@Z
       3170  C61 00032520 ?convertInPlace@QImageData@@QEAA_NW4Format@QImage@@V?$QFlags@W4ImageConversionFlag@Qt@@@@@Z
       3171  C62 00124BE0 ?convertTo@QColor@@QEBA?AV1@W4Spec@1@@Z
       3172  C63 00032650 ?convertTo@QImage@@QEAAXW4Format@1@V?$QFlags@W4ImageConversionFlag@Qt@@@@@Z
       3173  C64 00032720 ?convertToColorSpace@QImage@@QEAAXAEBVQColorSpace@@@Z
       3174  C65 00032900 ?convertToColorSpace@QImage@@QEAAXAEBVQColorSpace@@W4Format@1@V?$QFlags@W4ImageConversionFlag@Qt@@@@@Z
       3175  C66 00032B10 ?convertToFormat@QImage@@QEBA?AV1@W4Format@1@AEBV?$QList@I@@V?$QFlags@W4ImageConversionFlag@Qt@@@@@Z
       3176  C67 00002F60 ?convertToFormat@QImage@@QEGBA?AV1@W4Format@1@V?$QFlags@W4ImageConversionFlag@Qt@@@@@Z
       3177  C68 00002F80 ?convertToFormat@QImage@@QEHAA?AV1@W4Format@1@V?$QFlags@W4ImageConversionFlag@Qt@@@@@Z
       3178  C69 00032C30 ?convertToFormat_helper@QImage@@IEBA?AV1@W4Format@1@V?$QFlags@W4ImageConversionFlag@Qt@@@@@Z
       3179  C6A 00032EC0 ?convertToFormat_inplace@QImage@@IEAA_NW4Format@1@V?$QFlags@W4ImageConversionFlag@Qt@@@@@Z
       3180  C6B 00172CF0 ?convertToPainterPath@QVectorPath@@QEBA?BVQPainterPath@@XZ
       3181  C6C 0029A6E0 ?convertToPostscriptFontFamilyName@QFontEngine@@SA?AVQByteArray@@AEBV2@@Z
       3182  C6D 00033720 ?convertWithTable@QColorTrcLut@@CA?AVQRgba64@@V2@PEBG@Z
       3183  C6E 00033790 ?convertWithTable@QColorTrcLut@@CAIIPEBG@Z
       3184  C6F 00002F60 ?convertedTo@QImage@@QEGBA?AV1@W4Format@1@V?$QFlags@W4ImageConversionFlag@Qt@@@@@Z
       3185  C70 00002F60 ?convertedTo@QImage@@QEHAA?AV1@W4Format@1@V?$QFlags@W4ImageConversionFlag@Qt@@@@@Z
       3186  C71 000337F0 ?convertedToColorSpace@QImage@@QEBA?AV1@AEBVQColorSpace@@@Z
       3187  C72 00033940 ?convertedToColorSpace@QImage@@QEGBA?AV1@AEBVQColorSpace@@W4Format@1@V?$QFlags@W4ImageConversionFlag@Qt@@@@@Z
       3188  C73 00033BB0 ?convertedToColorSpace@QImage@@QEHAA?AV1@AEBVQColorSpace@@W4Format@1@V?$QFlags@W4ImageConversionFlag@Qt@@@@@Z
       3189  C74 00101D20 ?coordinateMode@QGradient@@QEBA?AW4CoordinateMode@1@XZ
       3190  C75 0019B7D0 ?coordinateOffset@QPaintEngine@@UEBA?AVQPoint@@XZ
       3191  C76 0019B7D0 ?coordinateOffset@QRasterPaintEngine@@UEBA?AVQPoint@@XZ
       3192  C77 0026B970 ?copy@QDistanceField@@QEBA?AV1@AEBVQRect@@@Z
       3193  C78 0026C030 ?copy@QDistanceField@@QEBA?AV1@HHHH@Z
       3194  C79 00033DD0 ?copy@QImage@@QEBA?AV1@AEBVQRect@@@Z
       3195  C7A 00003000 ?copy@QImage@@QEBA?AV1@HHHH@Z
       3196  C7B 00066210 ?copy@QPixmap@@QEBA?AV1@AEBVQRect@@@Z
       3197  C7C 00003050 ?copy@QPixmap@@QEBA?AV1@HHHH@Z
       3198  C7D 0006E1B0 ?copy@QPlatformPixmap@@UEAAXPEBV1@AEBVQRect@@@Z
       3199  C7E 00069000 ?copy@QRasterPlatformPixmap@@UEAAXPEBVQPlatformPixmap@@AEBVQRect@@@Z
       3200  C7F 00218020 ?copy@QRegion@@AEBA?AV1@XZ
       3201  C80 000F6F70 ?copyDataTo@QMatrix4x4@@QEBAXPEAM@Z
       3202  C81 00240750 ?copyTexture@QRhiResourceUpdateBatch@@QEAAXPEAVQRhiTexture@@0AEBVQRhiTextureCopyDescription@@@Z
       3203  C82 000030A0 ?count@QKeyEvent@@QEBAHXZ
       3204  C83 003F78A0 ?count@QKeySequence@@QEBAHXZ
       3205  C84 0020BBD0 ?count@QPlatformTextureList@@QEBAHXZ
       3206  C85 003248C0 ?count@QTextList@@QEBAHXZ
       3207  C86 0020BBD0 ?count@QUndoStack@@QEBAHXZ
       3208  C87 000030B0 ?crbegin@QRegion@@QEBA?AV?$reverse_iterator@PEBVQRect@@@std@@XZ
       3209  C88 001BE4A0 ?create@PixmapFragment@QPainter@@SA?AV12@AEBVQPointF@@AEBVQRectF@@NNNN@Z
       3210  C89 001070E0 ?create@QBackingStoreRhiSupport@@QEAA_NXZ
       3211  C8A 000B9810 ?create@QColorDialogOptions@@SA?AV?$QSharedPointer@VQColorDialogOptions@@@@XZ
       3212  C8B 00148CB0 ?create@QColorTrcLut@@CA?AV?$shared_ptr@VQColorTrcLut@@@std@@XZ
       3213  C8C 0026C080 ?create@QDistanceFieldData@@SAPEAV1@AEBVQPainterPath@@_N@Z
       3214  C8D 0026C1A0 ?create@QDistanceFieldData@@SAPEAV1@AEBVQSize@@@Z
       3215  C8E 0026C200 ?create@QDistanceFieldData@@SAPEAV1@VQSize@@AEBVQPainterPath@@_N@Z
       3216  C8F 000B98D0 ?create@QFileDialogOptions@@SA?AV?$QSharedPointer@VQFileDialogOptions@@@@XZ
       3217  C90 000B9AA0 ?create@QFontDialogOptions@@SA?AV?$QSharedPointer@VQFontDialogOptions@@@@XZ
       3218  C91 00087B40 ?create@QGenericPluginFactory@@SAPEAVQObject@@AEBVQString@@0@Z
       3219  C92 00034AB0 ?create@QImageData@@SAPEAU1@AEBVQSize@@W4Format@QImage@@@Z
       3220  C93 00034C90 ?create@QImageData@@SAPEAU1@PEAEHH_JW4Format@QImage@@_NP6AXPEAX@Z4@Z
       3221  C94 000B9B60 ?create@QMessageDialogOptions@@SA?AV?$QSharedPointer@VQMessageDialogOptions@@@@XZ
       3222  C95 000ACFD0 ?create@QOffscreenSurface@@QEAAXXZ
       3223  C96 003566C0 ?create@QOpenGLContext@@QEAA_NXZ
       3224  C97 000C0510 ?create@QPlatformInputContextFactory@@SAPEAVQPlatformInputContext@@AEBV?$QList@VQString@@@@@Z
       3225  C98 000C0560 ?create@QPlatformInputContextFactory@@SAPEAVQPlatformInputContext@@AEBVQString@@@Z
       3226  C99 000C0820 ?create@QPlatformInputContextFactory@@SAPEAVQPlatformInputContext@@XZ
       3227  C9A 000C1A10 ?create@QPlatformIntegrationFactory@@SAPEAVQPlatformIntegration@@AEBVQString@@AEBV?$QList@VQString@@@@AEAHPEAPEAD0@Z
       3228  C9B 000031E0 ?create@QPlatformIntegrationPlugin@@UEAAPEAVQPlatformIntegration@@AEBVQString@@AEBV?$QList@VQString@@@@@Z
       3229  C9C 000C1E60 ?create@QPlatformIntegrationPlugin@@UEAAPEAVQPlatformIntegration@@AEBVQString@@AEBV?$QList@VQString@@@@AEAHPEAPEAD@Z
       3230  C9D 0006E210 ?create@QPlatformPixmap@@SAPEAV1@HHW4PixelType@1@@Z
       3231  C9E 000CC5F0 ?create@QPlatformThemeFactory@@SAPEAVQPlatformTheme@@AEBVQString@@0@Z
       3232  C9F 002409E0 ?create@QRhi@@SAPEAV1@W4Implementation@1@PEAUQRhiInitParams@@V?$QFlags@W4Flag@QRhi@@@@PEAUQRhiNativeHandles@@@Z
       3233  CA0 000E07F0 ?create@QWindow@@QEAAXXZ
       3234  CA1 000E0800 ?create@QWindowPrivate@@QEAAX_N@Z
       3235  CA2 003EE180 ?createActionPrivate@QGuiApplicationPrivate@@UEBAPEAVQActionPrivate@@XZ
       3236  CA3 00034DE0 ?createAlphaMask@QImage@@QEBA?AV1@V?$QFlags@W4ImageConversionFlag@Qt@@@@@Z
       3237  CA4 00034F60 ?createCache@QTextureGlyphCache@@QEAAXHH@Z
       3238  CA5 0006E2A0 ?createCompatiblePlatformPixmap@QPlatformPixmap@@UEBAPEAV1@XZ
       3239  CA6 00069090 ?createCompatiblePlatformPixmap@QRasterPlatformPixmap@@UEBAPEAVQPlatformPixmap@@XZ
       3240  CA7 003DA190 ?createDirectWriteFace@QWindowsFontDatabaseBase@@IEAAPEAUIDWriteFontFace@@AEBVQByteArray@@@Z
       3241  CA8 003DA210 ?createDirectWriteFaces@QWindowsFontDatabaseBase@@IEBA?AV?$QList@PEAUIDWriteFontFace@@@@AEBVQByteArray@@_N@Z
       3242  CA9 003DABC0 ?createDirectWriteFactory@QWindowsFontDatabaseBase@@SAXPEAPEAUIDWriteFactory@@@Z
       3243  CAA 003D36E0 ?createEngine@QWindowsFontDatabase@@SAPEAVQFontEngine@@AEBUQFontDef@@AEBVQString@@HAEBV?$QSharedPointer@VQWindowsFontEngineData@@@@@Z
       3244  CAB 00090960 ?createEventDispatcher@QGuiApplicationPrivate@@UEAAXXZ
       3245  CAC 000031E0 ?createForeignWindow@QPlatformIntegration@@UEBAPEAVQPlatformWindow@@PEAVQWindow@@_K@Z
       3246  CAD 00004BC0 ?createFrom@QRhiRenderBuffer@@UEAA_NUNativeRenderBuffer@1@@Z
       3247  CAE 00004BC0 ?createFrom@QRhiTexture@@UEAA_NUNativeTexture@1@@Z
       3248  CAF 00454C70 ?createHFONT@QWindowsFontEngineDirectWrite@@QEBAPEAUHFONT__@@XZ
       3249  CB0 00034F80 ?createHeuristicMask@QImage@@QEBA?AV1@_N@Z
       3250  CB1 00066300 ?createHeuristicMask@QPixmap@@QEBA?AVQBitmap@@_N@Z
       3251  CB2 000CA450 ?createIconEngine@QPlatformTheme@@UEBAPEAVQIconEngine@@AEBVQString@@@Z
       3252  CB3 000031E0 ?createImagePaintEngine@QPlatformIntegration@@UEBAPEAVQPaintEngine@@PEAVQPaintDevice@@@Z
       3253  CB4 0031A610 ?createLine@QTextLayout@@QEAA?AVQTextLine@@XZ
       3254  CB5 002AE6B0 ?createList@QTextCursor@@QEAAPEAVQTextList@@AEBVQTextListFormat@@@Z
       3255  CB6 002AE770 ?createList@QTextCursor@@QEAAPEAVQTextList@@W4Style@QTextListFormat@@@Z
       3256  CB7 000360A0 ?createMaskFromColor@QImage@@QEBA?AV1@IW4MaskMode@Qt@@@Z
       3257  CB8 00066390 ?createMaskFromColor@QPixmap@@QEBA?AVQBitmap@@AEBVQColor@@W4MaskMode@Qt@@@Z
       3258  CB9 000C28F0 ?createMenu@QPlatformMenuBar@@UEBAPEAVQPlatformMenu@@XZ
       3259  CBA 000C28F0 ?createMenu@QPlatformSystemTrayIcon@@UEBAPEAVQPlatformMenu@@XZ
       3260  CBB 000C2910 ?createMenuItem@QPlatformMenu@@UEBAPEAVQPlatformMenuItem@@XZ
       3261  CBC 0029A8B0 ?createMultiFontEngine@QFontEngineMulti@@SAPEAVQFontEngine@@PEAV2@H@Z
       3262  CBD 003FC5B0 ?createNewSequences@QShortcutMap@@AEAAXPEAVQKeyEvent@@AEAV?$QList@VQKeySequence@@@@H@Z
       3263  CBE 002B7FD0 ?createObject@QTextDocument@@MEAAPEAVQTextObject@@AEBVQTextFormat@@@Z
       3264  CBF 002C9210 ?createObject@QTextDocumentPrivate@@QEAAPEAVQTextObject@@AEBVQTextFormat@@H@Z
       3265  CC0 00304D70 ?createObjectIndex@QTextFormatCollection@@QEAAHAEBVQTextFormat@@@Z
       3266  CC1 0019B7E0 ?createPixmap@QPaintEngine@@UEAA?AVQPixmap@@VQSize@@@Z
       3267  CC2 000690E0 ?createPixmapForImage@QRasterPlatformPixmap@@IEAAXVQImage@@V?$QFlags@W4ImageConversionFlag@Qt@@@@@Z
       3268  CC3 0019B8A0 ?createPixmapFromImage@QPaintEngine@@UEAA?AVQPixmap@@VQImage@@V?$QFlags@W4ImageConversionFlag@Qt@@@@@Z
       3269  CC4 000031E0 ?createPlatformDialogHelper@QPlatformTheme@@UEBAPEAVQPlatformDialogHelper@@W4DialogType@1@@Z
       3270  CC5 000909A0 ?createPlatformIntegration@QGuiApplicationPrivate@@QEAAXXZ
       3271  CC6 000031E0 ?createPlatformMenu@QPlatformTheme@@UEBAPEAVQPlatformMenu@@XZ
       3272  CC7 000031E0 ?createPlatformMenuBar@QPlatformTheme@@UEBAPEAVQPlatformMenuBar@@XZ
       3273  CC8 000031E0 ?createPlatformMenuItem@QPlatformTheme@@UEBAPEAVQPlatformMenuItem@@XZ
       3274  CC9 000031E0 ?createPlatformOffscreenSurface@QPlatformIntegration@@UEBAPEAVQPlatformOffscreenSurface@@PEAVQOffscreenSurface@@@Z
       3275  CCA 000C13F0 ?createPlatformOpenGLContext@QPlatformIntegration@@UEBAPEAVQPlatformOpenGLContext@@PEAVQOpenGLContext@@@Z
       3276  CCB 000C1420 ?createPlatformPixmap@QPlatformIntegration@@UEBAPEAVQPlatformPixmap@@W4PixelType@2@@Z
       3277  CCC 000C1450 ?createPlatformSessionManager@QPlatformIntegration@@UEBAPEAVQPlatformSessionManager@@AEBVQString@@0@Z
       3278  CCD 000C1490 ?createPlatformSharedGraphicsCache@QPlatformIntegration@@UEBAPEAVQPlatformSharedGraphicsCache@@PEBD@Z
       3279  CCE 000031E0 ?createPlatformSystemTrayIcon@QPlatformTheme@@UEBAPEAVQPlatformSystemTrayIcon@@XZ
       3280  CCF 000C14D0 ?createPlatformTheme@QPlatformIntegration@@UEBAPEAVQPlatformTheme@@AEBVQString@@@Z
       3281  CD0 004603F0 ?createRedoAction@QUndoGroup@@QEBAPEAVQAction@@PEAVQObject@@AEBVQString@@@Z
       3282  CD1 0045DB60 ?createRedoAction@QUndoStack@@QEBAPEAVQAction@@PEAVQObject@@AEBVQString@@@Z
       3283  CD2 0020BBE0 ?createRhi@QPlatformBackingStore@@QEAAXPEAVQWindow@@UQPlatformBackingStoreRhiConfig@@@Z
       3284  CD3 003FAC70 ?createShortcutPrivate@QGuiApplicationPrivate@@UEBAPEAVQShortcutPrivate@@XZ
       3285  CD4 001B6400 ?createState@QPaintEngineEx@@UEBAPEAVQPainterState@@PEAV2@@Z
       3286  CD5 001A5BA0 ?createState@QRasterPaintEngine@@UEBAPEAVQPainterState@@PEAV2@@Z
       3287  CD6 001D3060 ?createStroke@QPainterPathStroker@@QEBA?AVQPainterPath@@AEBV2@@Z
       3288  CD7 000C28F0 ?createSubMenu@QPlatformMenu@@UEBAPEAV1@XZ
       3289  CD8 000B2F70 ?createSystemCursor@QPlatformCursorImage@@CAXH@Z
       3290  CD9 00222510 ?createTextureData@QImageTextureGlyphCache@@UEAAXHH@Z
       3291  CDA 003853B0 ?createTheme@QWindowsThemeCache@@YAPEAXHPEAUHWND__@@@Z
       3292  CDB 000EFA70 ?createTouchDevice@QTest@@YAPEAVQPointingDevice@@W4DeviceType@QInputDevice@@V?$QFlags@W4Capability@QInputDevice@@@@@Z
       3293  CDC 00460720 ?createUndoAction@QUndoGroup@@QEBAPEAVQAction@@PEAVQObject@@AEBVQString@@@Z
       3294  CDD 0045DF00 ?createUndoAction@QUndoStack@@QEBAPEAVQAction@@PEAVQObject@@AEBVQString@@@Z
       3295  CDE 00463D70 ?createWatcher@QFileInfoGatherer@@AEAAXXZ
       3296  CDF 000030D0 ?crend@QRegion@@QEBA?AV?$reverse_iterator@PEBVQRect@@@std@@XZ
       3297  CE0 001D34E0 ?cubicTo@QPainterPath@@QEAAXAEBVQPointF@@00@Z
       3298  CE1 000368E0 ?cubicTo@QPainterPath@@QEAAXNNNNNN@Z
       3299  CE2 00036940 ?cubicTo@QStrokerOps@@QEAAXNNNNNN@Z
       3300  CE3 0022A0C0 ?cubicTo@QTriangulatingStroker@@AEAAXPEBN@Z
       3301  CE4 00096950 ?cullMode@QRhiGraphicsPipeline@@QEBA?AW4CullMode@1@XZ
       3302  CE5 002AB910 ?currentBlock@QSyntaxHighlighter@@IEBA?AVQTextBlock@@XZ
       3303  CE6 00326B30 ?currentBlock@iterator@QTextFrame@@QEBA?AVQTextBlock@@XZ
       3304  CE7 002AB930 ?currentBlockState@QSyntaxHighlighter@@IEBAHXZ
       3305  CE8 002AB970 ?currentBlockUserData@QSyntaxHighlighter@@IEBAPEAVQTextBlockUserData@@XZ
       3306  CE9 000B9C80 ?currentChanged@QPlatformFileDialogHelper@@QEAAXAEBVQUrl@@@Z
       3307  CEA 000B9CB0 ?currentColorChanged@QPlatformColorDialogHelper@@QEAAXAEBVQColor@@@Z
       3308  CEB 00005560 ?currentColorGroup@QPalette@@QEBA?AW4ColorGroup@1@XZ
       3309  CEC 003567D0 ?currentContext@QOpenGLContext@@SAPEAV1@XZ
       3310  CED 00356890 ?currentContextGroup@QOpenGLContextGroup@@SAPEAV1@XZ
       3311  CEE 003F3F60 ?currentDrag@QPlatformDrag@@QEBAPEAVQDrag@@XZ
       3312  CEF 00752D20 ?currentDragWindow@QGuiApplicationPrivate@@2V?$QPointer@VQWindow@@@@A
       3313  CF0 000B9CE0 ?currentFontChanged@QPlatformFontDialogHelper@@QEAAXAEBVQFont@@@Z
       3314  CF1 002AE890 ?currentFrame@QTextCursor@@QEBAPEAVQTextFrame@@XZ
       3315  CF2 000D7DD0 ?currentFrameNumber@QMovie@@QEBAHXZ
       3316  CF3 00240CF0 ?currentFrameRenderTarget@QRhiSwapChain@@UEAAPEAVQRhiRenderTarget@@W4StereoTargetBuffer@1@@Z
       3317  CF4 000DB460 ?currentFrameSlot@QRhi@@QEBAHXZ
       3318  CF5 004015E0 ?currentImage@QMovie@@QEBA?AVQImage@@XZ
       3319  CF6 000031E0 ?currentImageNumber@QImageIOHandler@@UEBAHXZ
       3320  CF7 00057630 ?currentImageNumber@QImageReader@@QEBAHXZ
       3321  CF8 00006310 ?currentImageRect@QImageIOHandler@@UEBA?AVQRect@@XZ
       3322  CF9 00057670 ?currentImageRect@QImageReader@@QEBA?AVQRect@@XZ
       3323  CFA 000CA480 ?currentKeyPlatforms@QPlatformThemePrivate@@SAIXZ
       3324  CFB 002AE8B0 ?currentList@QTextCursor@@QEBAPEAVQTextList@@XZ
       3325  CFC 000031E0 ?currentMode@QPlatformScreen@@UEBAHXZ
       3326  CFD 00752CA8 ?currentMousePressWindow@QGuiApplicationPrivate@@2PEAVQWindow@@EA
       3327  CFE 00752CA0 ?currentMouseWindow@QGuiApplicationPrivate@@2PEAVQWindow@@EA
       3328  CFF 00002CA0 ?currentPixelSize@QRhiSwapChain@@QEBA?AVQSize@@XZ
       3329  D00 00401610 ?currentPixmap@QMovie@@QEBA?AVQPixmap@@XZ
       3330  D01 001D3830 ?currentPosition@QPainterPath@@QEBA?AVQPointF@@XZ
       3331  D02 002AE990 ?currentTable@QTextCursor@@QEBAPEAVQTextTable@@XZ
       3332  D03 00002C80 ?currentTarget@QDragManager@@QEBAPEAVQObject@@XZ
       3333  D04 000031E0 ?cursor@QPlatformScreen@@UEBAPEAVQPlatformCursor@@XZ
       3334  D05 000E0C40 ?cursor@QWindow@@QEBA?AVQCursor@@XZ
       3335  D06 000D7F70 ?cursorFlashTime@QStyleHints@@QEBAHXZ
       3336  D07 000D8080 ?cursorFlashTimeChanged@QStyleHints@@QEAAXH@Z
       3337  D08 0031A800 ?cursorMoveStyle@QTextLayout@@QEBA?AW4CursorMoveStyle@Qt@@XZ
       3338  D09 00006440 ?cursorPosition@QAccessibleTextCursorEvent@@QEBAHXZ
       3339  D0A 000A8140 ?cursorPositionChangeRequested@QInputDeviceManager@@QEAAXAEBVQPoint@@@Z
       3340  D0B 002B8090 ?cursorPositionChanged@QTextDocument@@QEAAXAEBVQTextCursor@@@Z
       3341  D0C 000A94E0 ?cursorRectangle@QInputMethod@@QEBA?AVQRectF@@XZ
       3342  D0D 000BF850 ?cursorRectangle@QPlatformInputContext@@SA?AVQRectF@@XZ
       3343  D0E 000A9510 ?cursorRectangleChanged@QInputMethod@@QEAAXXZ
       3344  D0F 00036B20 ?cursorToX@QTextLine@@QEBANHW4Edge@1@@Z
       3345  D10 0031A810 ?cursorToX@QTextLine@@QEBANPEAHW4Edge@1@@Z
       3346  D11 002DACF0 ?cursorWidth@QTextDocumentLayout@@QEBAHXZ
       3347  D12 001D3880 ?curveThreshold@QPainterPathStroker@@QEBANXZ
       3348  D13 00005010 ?curveThreshold@QStrokerOps@@QEBANXZ
       3349  D14 000B9D10 ?customButton@QMessageDialogOptions@@QEAAPEBUCustomButton@1@H@Z
       3350  D15 000B9E00 ?customButtons@QMessageDialogOptions@@QEAAAEBV?$QList@UCustomButton@QMessageDialogOptions@@@@XZ
       3351  D16 000B9E10 ?customColor@QColorDialogOptions@@SAIH@Z
       3352  D17 000B9E40 ?customColorCount@QColorDialogOptions@@SAHXZ
       3353  D18 000B9E50 ?customColors@QColorDialogOptions@@SAPEAIXZ
       3354  D19 00124C80 ?cyan@QColor@@QEBAHXZ
       3355  D1A 00124CC0 ?cyanF@QColor@@QEBAMXZ
       3356  D1B 00003100 ?d@QOpenGLExtensions@@QEBAPEAVQOpenGLExtensionsPrivate@@XZ
       3357  D1C 000030F0 ?d_func@QAbstractFileIconProvider@@AEAAPEAVQAbstractFileIconProviderPrivate@@XZ
       3358  D1D 000030F0 ?d_func@QAbstractFileIconProvider@@AEBAPEBVQAbstractFileIconProviderPrivate@@XZ
       3359  D1E 000030F0 ?d_func@QAbstractTextDocumentLayout@@AEAAPEAVQAbstractTextDocumentLayoutPrivate@@XZ
       3360  D1F 000030F0 ?d_func@QAbstractTextDocumentLayout@@AEBAPEBVQAbstractTextDocumentLayoutPrivate@@XZ
       3361  D20 000030F0 ?d_func@QAction@@AEAAPEAVQActionPrivate@@XZ
       3362  D21 000030F0 ?d_func@QAction@@AEBAPEBVQActionPrivate@@XZ
       3363  D22 000030F0 ?d_func@QActionGroup@@AEAAPEAVQActionGroupPrivate@@XZ
       3364  D23 000030F0 ?d_func@QActionGroup@@AEBAPEBVQActionGroupPrivate@@XZ
       3365  D24 000030F0 ?d_func@QBlittable@@AEAAPEAVQBlittablePrivate@@XZ
       3366  D25 000030F0 ?d_func@QBlittable@@AEBAPEBVQBlittablePrivate@@XZ
       3367  D26 00002CF0 ?d_func@QBlitterPaintEngine@@AEAAPEAVQBlitterPaintEnginePrivate@@XZ
       3368  D27 00002CF0 ?d_func@QBlitterPaintEngine@@AEBAPEBVQBlitterPaintEnginePrivate@@XZ
       3369  D28 000030F0 ?d_func@QDoubleValidator@@AEAAPEAVQDoubleValidatorPrivate@@XZ
       3370  D29 000030F0 ?d_func@QDoubleValidator@@AEBAPEBVQDoubleValidatorPrivate@@XZ
       3371  D2A 000030F0 ?d_func@QDrag@@AEAAPEAVQDragPrivate@@XZ
       3372  D2B 000030F0 ?d_func@QDrag@@AEBAPEBVQDragPrivate@@XZ
       3373  D2C 000030F0 ?d_func@QFileSystemModel@@AEAAPEAVQFileSystemModelPrivate@@XZ
       3374  D2D 000030F0 ?d_func@QFileSystemModel@@AEBAPEBVQFileSystemModelPrivate@@XZ
       3375  D2E 000030F0 ?d_func@QGuiApplication@@AEAAPEAVQGuiApplicationPrivate@@XZ
       3376  D2F 000030F0 ?d_func@QGuiApplication@@AEBAPEBVQGuiApplicationPrivate@@XZ
       3377  D30 000030F0 ?d_func@QImageIOHandler@@AEAAPEAVQImageIOHandlerPrivate@@XZ
       3378  D31 000030F0 ?d_func@QImageIOHandler@@AEBAPEBVQImageIOHandlerPrivate@@XZ
       3379  D32 000030F0 ?d_func@QInputDevice@@AEAAPEAVQInputDevicePrivate@@XZ
       3380  D33 000030F0 ?d_func@QInputDevice@@AEBAPEBVQInputDevicePrivate@@XZ
       3381  D34 000030F0 ?d_func@QInputDeviceManager@@AEAAPEAVQInputDeviceManagerPrivate@@XZ
       3382  D35 000030F0 ?d_func@QInputDeviceManager@@AEBAPEBVQInputDeviceManagerPrivate@@XZ
       3383  D36 000030F0 ?d_func@QInputMethod@@AEAAPEAVQInputMethodPrivate@@XZ
       3384  D37 000030F0 ?d_func@QInputMethod@@AEBAPEBVQInputMethodPrivate@@XZ
       3385  D38 000030F0 ?d_func@QMovie@@AEAAPEAVQMoviePrivate@@XZ
       3386  D39 000030F0 ?d_func@QMovie@@AEBAPEBVQMoviePrivate@@XZ
       3387  D3A 000030F0 ?d_func@QOffscreenSurface@@AEAAPEAVQOffscreenSurfacePrivate@@XZ
       3388  D3B 000030F0 ?d_func@QOffscreenSurface@@AEBAPEBVQOffscreenSurfacePrivate@@XZ
       3389  D3C 000030F0 ?d_func@QOpenGLContext@@AEAAPEAVQOpenGLContextPrivate@@XZ
       3390  D3D 000030F0 ?d_func@QOpenGLContext@@AEBAPEBVQOpenGLContextPrivate@@XZ
       3391  D3E 000030F0 ?d_func@QOpenGLContextGroup@@AEAAPEAVQOpenGLContextGroupPrivate@@XZ
       3392  D3F 000030F0 ?d_func@QOpenGLContextGroup@@AEBAPEBVQOpenGLContextGroupPrivate@@XZ
       3393  D40 00003100 ?d_func@QOpenGLExtensions@@AEAAPEAVQOpenGLExtensionsPrivate@@XZ
       3394  D41 00003100 ?d_func@QOpenGLExtensions@@AEBAPEBVQOpenGLExtensionsPrivate@@XZ
       3395  D42 00003100 ?d_func@QOpenGLExtraFunctions@@AEAAPEAVQOpenGLExtraFunctionsPrivate@@XZ
       3396  D43 00003100 ?d_func@QOpenGLExtraFunctions@@AEBAPEBVQOpenGLExtraFunctionsPrivate@@XZ
       3397  D44 000030F0 ?d_func@QPaintDeviceWindow@@AEAAPEAVQPaintDeviceWindowPrivate@@XZ
       3398  D45 000030F0 ?d_func@QPaintDeviceWindow@@AEBAPEBVQPaintDeviceWindowPrivate@@XZ
       3399  D46 00002CF0 ?d_func@QPaintEngine@@AEAAPEAVQPaintEnginePrivate@@XZ
       3400  D47 00002CF0 ?d_func@QPaintEngine@@AEBAPEBVQPaintEnginePrivate@@XZ
       3401  D48 00002CF0 ?d_func@QPaintEngineEx@@AEAAPEAVQPaintEngineExPrivate@@XZ
       3402  D49 00002CF0 ?d_func@QPaintEngineEx@@AEBAPEBVQPaintEngineExPrivate@@XZ
       3403  D4A 00003100 ?d_func@QPainter@@AEAAPEAVQPainterPrivate@@XZ
       3404  D4B 00003100 ?d_func@QPainter@@AEBAPEBVQPainterPrivate@@XZ
       3405  D4C 00003100 ?d_func@QPainterPath@@AEBAPEAVQPainterPathPrivate@@XZ
       3406  D4D 00003100 ?d_func@QPainterPathStroker@@AEAAPEAVQPainterPathStrokerPrivate@@XZ
       3407  D4E 00003100 ?d_func@QPainterPathStroker@@AEBAPEBVQPainterPathStrokerPrivate@@XZ
       3408  D4F 00002C80 ?d_func@QPicture@@AEAAPEAVQPicturePrivate@@XZ
       3409  D50 00002C80 ?d_func@QPicture@@AEBAPEBVQPicturePrivate@@XZ
       3410  D51 000030F0 ?d_func@QPlatformDrag@@AEAAPEAVQPlatformDragPrivate@@XZ
       3411  D52 000030F0 ?d_func@QPlatformDrag@@AEBAPEBVQPlatformDragPrivate@@XZ
       3412  D53 000030F0 ?d_func@QPlatformInputContext@@AEAAPEAVQPlatformInputContextPrivate@@XZ
       3413  D54 000030F0 ?d_func@QPlatformInputContext@@AEBAPEBVQPlatformInputContextPrivate@@XZ
       3414  D55 00002C80 ?d_func@QPlatformOffscreenSurface@@AEAAPEAVQPlatformOffscreenSurfacePrivate@@XZ
       3415  D56 00002C80 ?d_func@QPlatformOffscreenSurface@@AEBAPEBVQPlatformOffscreenSurfacePrivate@@XZ
       3416  D57 000030F0 ?d_func@QPlatformOpenGLContext@@AEAAPEAVQPlatformOpenGLContextPrivate@@XZ
       3417  D58 000030F0 ?d_func@QPlatformOpenGLContext@@AEBAPEBVQPlatformOpenGLContextPrivate@@XZ
       3418  D59 000030F0 ?d_func@QPlatformScreen@@AEAAPEAVQPlatformScreenPrivate@@XZ
       3419  D5A 000030F0 ?d_func@QPlatformScreen@@AEBAPEBVQPlatformScreenPrivate@@XZ
       3420  D5B 000030F0 ?d_func@QPlatformTextureList@@AEAAPEAVQPlatformTextureListPrivate@@XZ
       3421  D5C 000030F0 ?d_func@QPlatformTextureList@@AEBAPEBVQPlatformTextureListPrivate@@XZ
       3422  D5D 000030F0 ?d_func@QPlatformTheme@@AEAAPEAVQPlatformThemePrivate@@XZ
       3423  D5E 000030F0 ?d_func@QPlatformTheme@@AEBAPEBVQPlatformThemePrivate@@XZ
       3424  D5F 00002C80 ?d_func@QPlatformWindow@@AEAAPEAVQPlatformWindowPrivate@@XZ
       3425  D60 00002C80 ?d_func@QPlatformWindow@@AEBAPEBVQPlatformWindowPrivate@@XZ
       3426  D61 000030F0 ?d_func@QPointingDevice@@AEAAPEAVQPointingDevicePrivate@@XZ
       3427  D62 000030F0 ?d_func@QPointingDevice@@AEBAPEBVQPointingDevicePrivate@@XZ
       3428  D63 00002CF0 ?d_func@QRasterPaintEngine@@AEAAPEAVQRasterPaintEnginePrivate@@XZ
       3429  D64 00002CF0 ?d_func@QRasterPaintEngine@@AEBAPEBVQRasterPaintEnginePrivate@@XZ
       3430  D65 000030F0 ?d_func@QRasterWindow@@AEAAPEAVQRasterWindowPrivate@@XZ
       3431  D66 000030F0 ?d_func@QRasterWindow@@AEBAPEBVQRasterWindowPrivate@@XZ
       3432  D67 000030F0 ?d_func@QRegularExpressionValidator@@AEAAPEAVQRegularExpressionValidatorPrivate@@XZ
       3433  D68 000030F0 ?d_func@QRegularExpressionValidator@@AEBAPEBVQRegularExpressionValidatorPrivate@@XZ
       3434  D69 000030F0 ?d_func@QScreen@@AEAAPEAVQScreenPrivate@@XZ
       3435  D6A 000030F0 ?d_func@QScreen@@AEBAPEBVQScreenPrivate@@XZ
       3436  D6B 000030F0 ?d_func@QSessionManager@@AEAAPEAVQSessionManagerPrivate@@XZ
       3437  D6C 000030F0 ?d_func@QSessionManager@@AEBAPEBVQSessionManagerPrivate@@XZ
       3438  D6D 000030F0 ?d_func@QShortcut@@AEAAPEAVQShortcutPrivate@@XZ
       3439  D6E 000030F0 ?d_func@QShortcut@@AEBAPEBVQShortcutPrivate@@XZ
       3440  D6F 00003100 ?d_func@QShortcutMap@@AEAAPEAVQShortcutMapPrivate@@XZ
       3441  D70 00003100 ?d_func@QShortcutMap@@AEBAPEBVQShortcutMapPrivate@@XZ
       3442  D71 000030F0 ?d_func@QStandardItem@@AEAAPEAVQStandardItemPrivate@@XZ
       3443  D72 000030F0 ?d_func@QStandardItem@@AEBAPEBVQStandardItemPrivate@@XZ
       3444  D73 000030F0 ?d_func@QStandardItemModel@@AEAAPEAVQStandardItemModelPrivate@@XZ
       3445  D74 000030F0 ?d_func@QStandardItemModel@@AEBAPEBVQStandardItemModelPrivate@@XZ
       3446  D75 000030F0 ?d_func@QStyleHints@@AEAAPEAVQStyleHintsPrivate@@XZ
       3447  D76 000030F0 ?d_func@QStyleHints@@AEBAPEBVQStyleHintsPrivate@@XZ
       3448  D77 000030F0 ?d_func@QSyntaxHighlighter@@AEAAPEAVQSyntaxHighlighterPrivate@@XZ
       3449  D78 000030F0 ?d_func@QSyntaxHighlighter@@AEBAPEBVQSyntaxHighlighterPrivate@@XZ
       3450  D79 000030F0 ?d_func@QTextBlockGroup@@AEAAPEAVQTextBlockGroupPrivate@@XZ
       3451  D7A 000030F0 ?d_func@QTextBlockGroup@@AEBAPEBVQTextBlockGroupPrivate@@XZ
       3452  D7B 000030F0 ?d_func@QTextDocument@@AEAAPEAVQTextDocumentPrivate@@XZ
       3453  D7C 000030F0 ?d_func@QTextDocument@@AEBAPEBVQTextDocumentPrivate@@XZ
       3454  D7D 000030F0 ?d_func@QTextDocumentLayout@@AEAAPEAVQTextDocumentLayoutPrivate@@XZ
       3455  D7E 000030F0 ?d_func@QTextDocumentLayout@@AEBAPEBVQTextDocumentLayoutPrivate@@XZ
       3456  D7F 000030F0 ?d_func@QTextFrame@@AEAAPEAVQTextFramePrivate@@XZ
       3457  D80 000030F0 ?d_func@QTextFrame@@AEBAPEBVQTextFramePrivate@@XZ
       3458  D81 000030F0 ?d_func@QTextList@@AEAAPEAVQTextListPrivate@@XZ
       3459  D82 000030F0 ?d_func@QTextList@@AEBAPEBVQTextListPrivate@@XZ
       3460  D83 000030F0 ?d_func@QTextObject@@AEAAPEAVQTextObjectPrivate@@XZ
       3461  D84 000030F0 ?d_func@QTextObject@@AEBAPEBVQTextObjectPrivate@@XZ
       3462  D85 000030F0 ?d_func@QTextTable@@AEAAPEAVQTextTablePrivate@@XZ
       3463  D86 000030F0 ?d_func@QTextTable@@AEBAPEBVQTextTablePrivate@@XZ
       3464  D87 000030F0 ?d_func@QUndoGroup@@AEAAPEAVQUndoGroupPrivate@@XZ
       3465  D88 000030F0 ?d_func@QUndoGroup@@AEBAPEBVQUndoGroupPrivate@@XZ
       3466  D89 000030F0 ?d_func@QUndoStack@@AEAAPEAVQUndoStackPrivate@@XZ
       3467  D8A 000030F0 ?d_func@QUndoStack@@AEBAPEBVQUndoStackPrivate@@XZ
       3468  D8B 000030F0 ?d_func@QValidator@@AEAAPEAVQValidatorPrivate@@XZ
       3469  D8C 000030F0 ?d_func@QValidator@@AEBAPEBVQValidatorPrivate@@XZ
       3470  D8D 000030F0 ?d_func@QWindow@@AEAAPEAVQWindowPrivate@@XZ
       3471  D8E 000030F0 ?d_func@QWindow@@AEBAPEBVQWindowPrivate@@XZ
       3472  D8F 00013CF0 ?dark@QPalette@@QEBAAEBVQBrush@@XZ
       3473  D90 00124D00 ?darker@QColor@@QEBA?AV1@H@Z
       3474  D91 0043E6D0 ?dashArray@Declaration@QCss@@QEBA?AV?$QList@N@@XZ
       3475  D92 00036B40 ?dashOffset@QDashStroker@@QEBANXZ
       3476  D93 001D3890 ?dashOffset@QPainterPathStroker@@QEBANXZ
       3477  D94 001D3880 ?dashOffset@QPen@@QEBANXZ
       3478  D95 00036B50 ?dashPattern@QDashStroker@@QEBA?AV?$QList@N@@XZ
       3479  D96 000BC590 ?dashPattern@QPainterPathStroker@@QEBA?AV?$QList@N@@XZ
       3480  D97 001EC130 ?dashPattern@QPen@@QEBA?AV?$QList@N@@XZ
       3481  D98 003EE1A0 ?data@QAction@@QEBA?AVQVariant@@XZ
       3482  D99 0046C930 ?data@QFileSystemModel@@UEBA?AVQVariant@@AEBVQModelIndex@@H@Z
       3483  D9A 0009FC90 ?data@QMatrix4x4@@QEAAPEAMXZ
       3484  D9B 000016C0 ?data@QMatrix4x4@@QEBAPEBMXZ
       3485  D9C 00061ED0 ?data@QPicture@@QEBAPEBDXZ
       3486  D9D 000031E0 ?data@QPlatformGraphicsBuffer@@UEAAPEAEXZ
       3487  D9E 000031E0 ?data@QPlatformGraphicsBuffer@@UEBAPEBEXZ
       3488  D9F 001025E0 ?data@QRhiTextureSubresourceUploadDescription@@QEBA?AVQByteArray@@XZ
       3489  DA0 0034A9D0 ?data@QStandardItem@@UEBA?AVQVariant@@H@Z
       3490  DA1 0034AA40 ?data@QStandardItemModel@@UEBA?AVQVariant@@AEBVQModelIndex@@H@Z
       3491  DA2 0033EE30 ?data@QTextureFileData@@QEBA?AVQByteArray@@XZ
       3492  DA3 003DAE60 ?data@QWindowsFontDatabaseBase@@SA?AV?$QSharedPointer@VQWindowsFontEngineData@@@@XZ
       3493  DA4 000762B0 ?dataChanged@QClipboard@@QEAAXXZ
       3494  DA5 0033EEA0 ?dataLength@QTextureFileData@@QEBAHHH@Z
       3495  DA6 0033EEE0 ?dataOffset@QTextureFileData@@QEBAHHH@Z
       3496  DA7 00004970 ?dataStride@QRhiTextureSubresourceUploadDescription@@QEBAIXZ
       3497  DA8 000016C0 ?data_ptr@QBrush@@QEAAAEAV?$unique_ptr@UQBrushData@@UQBrushDataPointerDeleter@@@std@@XZ
       3498  DA9 000016C0 ?data_ptr@QIcon@@QEAAAEAPEAVQIconPrivate@@XZ
       3499  DAA 00003110 ?data_ptr@QImage@@QEAAAEAPEAUQImageData@@XZ
       3500  DAB 000016C0 ?data_ptr@QKeySequence@@QEAAAEAPEAVQKeySequencePrivate@@XZ
       3501  DAC 000016C0 ?data_ptr@QPen@@QEAAAEAV?$QExplicitlySharedDataPointer@VQPenPrivate@@@@XZ
       3502  DAD 00003110 ?data_ptr@QPicture@@QEAAAEAV?$QExplicitlySharedDataPointer@VQPicturePrivate@@@@XZ
       3503  DAE 00003110 ?data_ptr@QPixmap@@QEAAAEAV?$QExplicitlySharedDataPointer@VQPlatformPixmap@@@@XZ
       3504  DAF 00002C80 ?dd@QPagedPaintDevice@@IEAAPEAVQPagedPaintDevicePrivate@@XZ
       3505  DB0 003D4070 ?debugFormat@QWindowsFontDatabase@@SAXAEAVQDebug@@AEBUtagLOGFONTW@@@Z
       3506  DB1 00240D00 ?debugMarkBegin@QRhiCommandBuffer@@QEAAXAEBVQByteArray@@@Z
       3507  DB2 00240D20 ?debugMarkEnd@QRhiCommandBuffer@@QEAAXXZ
       3508  DB3 00240D40 ?debugMarkMsg@QRhiCommandBuffer@@QEAAXAEBVQByteArray@@@Z
       3509  DB4 000579C0 ?decideFormatFromContent@QImageReader@@QEBA_NXZ
       3510  DB5 00006440 ?decimals@QDoubleValidator@@QEBAHXZ
       3511  DB6 003422B0 ?decimalsChanged@QDoubleValidator@@QEAAXH@Z
       3512  DB7 0043E980 ?declarationsForNode@StyleSelector@QCss@@QEAA?AV?$QList@UDeclaration@QCss@@@@TNodePtr@12@PEBD@Z
       3513  DB8 003E3900 ?decreaseAction@QAccessibleActionInterface@@SAAEBVQString@@XZ
       3514  DB9 002797B0 ?decreaseCache@QFontCache@@AEAAXXZ
       3515  DBA 0027A1D0 ?decreaseCost@QFontCache@@AEAAXI@Z
       3516  DBB 003F3360 ?defaultAction@QDrag@@QEBA?AW4DropAction@Qt@@XZ
       3517  DBC 003F3FB0 ?defaultAction@QPlatformDrag@@UEBA?AW4DropAction@Qt@@V?$QFlags@W4DropAction@Qt@@@@V?$QFlags@W4KeyboardModifier@Qt@@@@@Z
       3518  DBD 000B9E60 ?defaultButton@QMessageDialogOptions@@QEBAHXZ
       3519  DBE 002B80C0 ?defaultCursorMoveStyle@QTextDocument@@QEBA?AW4CursorMoveStyle@Qt@@XZ
       3520  DBF 000664F0 ?defaultDepth@QPixmap@@SAHXZ
       3521  DC0 0027A1F0 ?defaultFamily@QFont@@QEBA?AVQString@@XZ
       3522  DC1 002A58E0 ?defaultFont@QPlatformFontDatabase@@UEBA?AVQFont@@XZ
       3523  DC2 002B80D0 ?defaultFont@QTextDocument@@QEBA?AVQFont@@XZ
       3524  DC3 00036B80 ?defaultFont@QTextDocumentPrivate@@QEBA?AVQFont@@XZ
       3525  DC4 00036BB0 ?defaultFont@QTextFormatCollection@@QEBA?AVQFont@@XZ
       3526  DC5 003D4210 ?defaultFont@QWindowsFontDatabase@@UEBA?AVQFont@@XZ
       3527  DC6 000DB490 ?defaultFormat@QSurfaceFormat@@SA?AV1@XZ
       3528  DC7 00356960 ?defaultFramebufferObject@QOpenGLContext@@QEBAIXZ
       3529  DC8 000031E0 ?defaultFramebufferObject@QPlatformOpenGLContext@@UEBAIPEAVQPlatformSurface@@@Z
       3530  DC9 000031E0 ?defaultModality@QGuiApplicationPrivate@@UEBA?AW4WindowModality@Qt@@XZ
       3531  DCA 000B9E70 ?defaultNameFilterString@QFileDialogOptions@@SA?AVQString@@XZ
       3532  DCB 003F40C0 ?defaultPixmap@QPlatformDrag@@SA?AVQPixmap@@XZ
       3533  DCC 002B8100 ?defaultResourceProvider@QTextDocument@@SA?AV?$function@$$A6A?AVQVariant@@AEBVQUrl@@@Z@std@@XZ
       3534  DCD 000CA7E0 ?defaultStandardButtonText@QPlatformTheme@@SA?AVQString@@H@Z
       3535  DCE 000B9EB0 ?defaultStyleHint@QPlatformDialogHelper@@SA?AVQVariant@@W4StyleHint@1@@Z
       3536  DCF 002B8140 ?defaultStyleSheet@QTextDocument@@QEBA?AVQString@@XZ
       3537  DD0 000B9ED0 ?defaultSuffix@QFileDialogOptions@@QEBA?AVQString@@XZ
       3538  DD1 00036BD0 ?defaultTextFormat@QTextFormatCollection@@QEBA?AVQTextCharFormat@@XZ
       3539  DD2 002B8170 ?defaultTextOption@QTextDocument@@QEBA?AVQTextOption@@XZ
       3540  DD3 000CA980 ?defaultThemeHint@QPlatformTheme@@SA?AVQVariant@@W4ThemeHint@1@@Z
       3541  DD4 003DB150 ?defaultVerticalDPI@QWindowsFontDatabaseBase@@SAHXZ
       3542  DD5 000C14F0 ?defaultWindowState@QPlatformIntegration@@UEBA?AW4WindowState@Qt@@V?$QFlags@W4WindowType@Qt@@@@@Z
       3543  DD6 000EFB70 ?deferredFlushWindowSystemEvents@QWindowSystemInterface@@SAXV?$QFlags@W4ProcessEventsFlag@QEventLoop@@@@@Z
       3544  DD7 00198740 ?definitionSize@QPageSize@@QEBA?AVQSizeF@@XZ
       3545  DD8 001987A0 ?definitionSize@QPageSize@@SA?AVQSizeF@@W4PageSizeId@1@@Z
       3546  DD9 00198810 ?definitionUnits@QPageSize@@QEBA?AW4Unit@1@XZ
       3547  DDA 00198840 ?definitionUnits@QPageSize@@SA?AW4Unit@1@W4PageSizeId@1@@Z
       3548  DDB 0046CD10 ?delayedSort@QFileSystemModelPrivate@@QEAAXXZ
       3549  DDC 003E3990 ?deleteAccessibleInterface@QAccessible@@SAXI@Z
       3550  DDD 002AE9F0 ?deleteChar@QTextCursor@@QEAAXXZ
       3551  DDE 003E9220 ?deleteInterface@QAccessibleCache@@QEAAXIPEAVQObject@@@Z
       3552  DDF 00335730 ?deleteItems@QGridLayoutEngine@@QEAAXXZ
       3553  DE0 00240D60 ?deleteLater@QRhiResource@@QEAAXXZ
       3554  DE1 002C92A0 ?deleteObject@QTextDocumentPrivate@@QEAAXPEAVQTextObject@@@Z
       3555  DE2 00356A40 ?deletePendingResources@QOpenGLContextGroupPrivate@@QEAAXPEAVQOpenGLContext@@@Z
       3556  DE3 002AEAE0 ?deletePreviousChar@QTextCursor@@QEAAXXZ
       3557  DE4 000CD180 ?deliverUpdateRequest@QPlatformWindow@@UEAAXXZ
       3558  DE5 00003120 ?delta@QNativeGestureEvent@@QEBA?AVQPointF@@XZ
       3559  DE6 00036BF0 ?depth@QImage@@QEBAHXZ
       3560  DE7 00003140 ?depth@QPaintDevice@@QEBAHXZ
       3561  DE8 00066540 ?depth@QPixmap@@QEBAHXZ
       3562  DE9 00002CC0 ?depth@QPlatformPixmap@@QEBAHXZ
       3563  DEA 000063D0 ?depth@QPlatformPlaceholderScreen@@UEBAHXZ
       3564  DEB 00039560 ?depth@QRhiTexture@@QEBAHXZ
       3565  DEC 000D56B0 ?depth@QScreen@@QEBAHXZ
       3566  DED 00102600 ?depthBias@QRhiGraphicsPipeline@@QEBAHXZ
       3567  DEE 000DB590 ?depthBufferSize@QSurfaceFormat@@QEBAHXZ
       3568  DEF 000A1580 ?depthClearValue@QRhiDepthStencilClearValue@@QEBAMXZ
       3569  DF0 00102610 ?depthOp@QRhiGraphicsPipeline@@QEBA?AW4CompareOp@1@XZ
       3570  DF1 00102620 ?depthResolveTexture@QRhiTextureRenderTargetDescription@@QEBAPEAVQRhiTexture@@XZ
       3571  DF2 00005B10 ?depthStencil@QRhiSwapChain@@QEBAPEAVQRhiRenderBuffer@@XZ
       3572  DF3 00102630 ?depthStencilBuffer@QRhiTextureRenderTargetDescription@@QEBAPEAVQRhiRenderBuffer@@XZ
       3573  DF4 00102640 ?depthTexture@QRhiTextureRenderTargetDescription@@QEBAPEAVQRhiTexture@@XZ
       3574  DF5 003D4230 ?derefUniqueFont@QWindowsFontDatabase@@QEAAXAEBVQString@@@Z
       3575  DF6 0010A5C0 ?derivedAt@QBezier@@QEBA?AVQPointF@@N@Z
       3576  DF7 0029AE10 ?descent@QFontEngine@@UEBA?AUQFixed@@XZ
       3577  DF8 0029AE60 ?descent@QFontEngineMulti@@UEBA?AUQFixed@@XZ
       3578  DF9 002A1CD0 ?descent@QFontMetrics@@QEBAHXZ
       3579  DFA 002A1D10 ?descent@QFontMetricsF@@QEBANXZ
       3580  DFB 002A7000 ?descent@QRawFont@@QEBANXZ
       3581  DFC 0031B230 ?descent@QTextInlineObject@@QEBANXZ
       3582  DFD 0019B990 ?descent@QTextItem@@QEBANXZ
       3583  DFE 0031B260 ?descent@QTextLine@@QEBANXZ
       3584  DFF 0012FEC0 ?description@QColorSpace@@QEBA?AVQString@@XZ
       3585  E00 00102650 ?description@QRhiTextureRenderTarget@@QEBA?AVQRhiTextureRenderTargetDescription@@XZ
       3586  E01 001026C0 ?description@QRhiTextureUploadEntry@@QEBA?AVQRhiTextureSubresourceUploadDescription@@XZ
       3587  E02 002502E0 ?description@QShader@@QEBA?AVQShaderDescription@@XZ
       3588  E03 0025CB10 ?deserialize@QShaderDescription@@SA?AV1@PEAVQDataStream@@H@Z
       3589  E04 000C4E10 ?desktopEnvironment@QPlatformServices@@UEBA?AVQByteArray@@XZ
       3590  E05 00090FF0 ?desktopFileName@QGuiApplication@@SA?AVQString@@XZ
       3591  E06 00752C80 ?desktopFileName@QGuiApplicationPrivate@@2PEAVQString@@EA
       3592  E07 00091060 ?desktopSettingsAware@QGuiApplication@@SA_NXZ
       3593  E08 000049D0 ?destinationLayer@QRhiTextureCopyDescription@@QEBAHXZ
       3594  E09 00004A40 ?destinationLevel@QRhiTextureCopyDescription@@QEBAHXZ
       3595  E0A 00090290 ?destinationTopLeft@QRhiTextureCopyDescription@@QEBA?AVQPoint@@XZ
       3596  E0B 00102720 ?destinationTopLeft@QRhiTextureSubresourceUploadDescription@@QEBA?AVQPoint@@XZ
       3597  E0C 000074A0 ?destroy@QActionPrivate@@UEAAXXZ
       3598  E0D 000AD260 ?destroy@QOffscreenSurface@@QEAAXXZ
       3599  E0E 00356BB0 ?destroy@QOpenGLContext@@AEAAXXZ
       3600  E0F 000074A0 ?destroy@QPlatformIntegration@@UEAAXXZ
       3601  E10 000E0C80 ?destroy@QWindow@@QEAAXXZ
       3602  E11 000E0CC0 ?destroy@QWindowPrivate@@QEAAXXZ
       3603  E12 001207D0 ?detach@QBrush@@AEAAXW4BrushStyle@Qt@@@Z
       3604  E13 0012FF10 ?detach@QColorSpace@@QEAAXXZ
       3605  E14 0027A8D0 ?detach@QFont@@AEAAXXZ
       3606  E15 002A4290 ?detach@QGlyphRun@@AEAAXXZ
       3607  E16 00013D50 ?detach@QIcon@@QEAAXXZ
       3608  E17 00036E00 ?detach@QImage@@QEAAXXZ
       3609  E18 0007B090 ?detach@QMutableEventPoint@@SAXAEAVQEventPoint@@@Z
       3610  E19 00196270 ?detach@QPageRanges@@QEAAXXZ
       3611  E1A 001D38A0 ?detach@QPainterPath@@AEAAXXZ
       3612  E1B 000B0180 ?detach@QPalette@@AEAAXXZ
       3613  E1C 001EC290 ?detach@QPen@@AEAAXXZ
       3614  E1D 000620B0 ?detach@QPicture@@QEAAXXZ
       3615  E1E 00066550 ?detach@QPixmap@@QEAAXXZ
       3616  E1F 00218180 ?detach@QRegion@@AEAAXXZ
       3617  E20 00250CD0 ?detach@QShader@@QEAAXXZ
       3618  E21 0025D8D0 ?detach@QShaderDescription@@QEAAXXZ
       3619  E22 002A8F40 ?detach@QStaticText@@AEAAXXZ
       3620  E23 002A5940 ?detach@QSupportedWritingSystems@@AEAAXXZ
       3621  E24 000DB5A0 ?detach@QSurfaceFormat@@AEAAXXZ
       3622  E25 0027ABE0 ?detachButKeepEngineData@QFontPrivate@@SAXPEAVQFont@@@Z
       3623  E26 00036F40 ?detachMetadata@QImage@@IEAAX_N@Z
       3624  E27 000BA010 ?detailedText@QMessageDialogOptions@@QEBA?AVQString@@XZ
       3625  E28 000F70A0 ?determinant@QMatrix4x4@@QEBANXZ
       3626  E29 00003160 ?determinant@QTransform@@QEBANXZ
       3627  E2A 00037080 ?devType@QImage@@UEBAHXZ
       3628  E2B 000031E0 ?devType@QPaintDevice@@UEBAHXZ
       3629  E2C 000620C0 ?devType@QPicture@@UEBAHXZ
       3630  E2D 00066810 ?devType@QPixmap@@UEBAHXZ
       3631  E2E 0007B170 ?device@QEventPoint@@QEBAPEBVQPointingDevice@@XZ
       3632  E2F 000551B0 ?device@QImageIOHandler@@QEBAPEAVQIODevice@@XZ
       3633  E30 000579D0 ?device@QImageReader@@QEBAPEAVQIODevice@@XZ
       3634  E31 0005DC80 ?device@QImageWriter@@QEBAPEAVQIODevice@@XZ
       3635  E32 00002C80 ?device@QInputEvent@@QEBAPEBVQInputDevice@@XZ
       3636  E33 00401840 ?device@QMovie@@QEBAPEAVQIODevice@@XZ
       3637  E34 001BE5D0 ?device@QPainter@@QEBAPEAVQPaintDevice@@XZ
       3638  E35 0005DC80 ?device@QTextDocumentWriter@@QEBAPEAVQIODevice@@XZ
       3639  E36 000A8170 ?deviceCount@QInputDeviceManager@@QEBAHW4DeviceType@1@@Z
       3640  E37 000A8180 ?deviceCount@QInputDeviceManagerPrivate@@QEBAHW4DeviceType@QInputDeviceManager@@@Z
       3641  E38 00037090 ?deviceIndependentSize@QImage@@QEBA?AVQSizeF@@XZ
       3642  E39 00066820 ?deviceIndependentSize@QPixmap@@QEBA?AVQSizeF@@XZ
       3643  E3A 000A8190 ?deviceListChanged@QInputDeviceManager@@QEAAXW4DeviceType@1@@Z
       3644  E3B 000685B0 ?devicePixelRatio@QBlittablePlatformPixmap@@UEBANXZ
       3645  E3C 00091070 ?devicePixelRatio@QGuiApplication@@QEBANXZ
       3646  E3D 000370D0 ?devicePixelRatio@QImage@@QEBANXZ
       3647  E3E 0019B300 ?devicePixelRatio@QPaintDevice@@QEBANXZ
       3648  E3F 000668A0 ?devicePixelRatio@QPixmap@@QEBANXZ
       3649  E40 000C3360 ?devicePixelRatio@QPlatformScreen@@UEBANXZ
       3650  E41 000C3360 ?devicePixelRatio@QPlatformWindow@@UEBANXZ
       3651  E42 00069340 ?devicePixelRatio@QRasterPlatformPixmap@@UEBANXZ
       3652  E43 000D56D0 ?devicePixelRatio@QScreen@@QEBANXZ
       3653  E44 000E0F30 ?devicePixelRatio@QWindow@@QEBANXZ
       3654  E45 000031F0 ?devicePixelRatioF@QPaintDevice@@QEBANXZ
       3655  E46 00003200 ?devicePixelRatioFScale@QPaintDevice@@SANXZ
       3656  E47 001BE600 ?deviceTransform@QPainter@@QEBAAEBVQTransform@@XZ
       3657  E48 00003210 ?deviceType@QInputEvent@@QEBA?AW4DeviceType@QInputDevice@@XZ
       3658  E49 000A6DA0 ?devices@QInputDevice@@SA?AV?$QList@PEBVQInputDevice@@@@XZ
       3659  E4A 003D4590 ?directWriteFontFace@QWindowsFontEngineDirectWrite@@QEBAPEAUIDWriteFontFace@@XZ
       3660  E4B 0046CFE0 ?directoryChanged@QFileSystemModelPrivate@@QEAAXAEBVQString@@AEBV?$QList@VQString@@@@@Z
       3661  E4C 000BA040 ?directoryEntered@QPlatformFileDialogHelper@@QEAAXAEBVQUrl@@@Z
       3662  E4D 00464020 ?directoryLoaded@QFileInfoGatherer@@QEAAXAEBVQString@@@Z
       3663  E4E 0046D5D0 ?directoryLoaded@QFileSystemModel@@QEAAXAEBVQString@@@Z
       3664  E4F 003F4C00 ?disableEventFilter@QBasicDrag@@AEAAXXZ
       3665  E50 000C5390 ?discardCommand@QPlatformSessionManager@@UEBA?AV?$QList@VQString@@@@XZ
       3666  E51 000D6FF0 ?discardCommand@QSessionManager@@QEBA?AV?$QList@VQString@@@@XZ
       3667  E52 00360700 ?discardFramebuffer@QOpenGLExtensions@@QEAAXIHPEBI@Z
       3668  E53 000E0F40 ?disconnectFromScreen@QWindowPrivate@@QEAAXXZ
       3669  E54 000074A0 ?dismiss@QPlatformMenu@@UEAAXXZ
       3670  E55 00240FD0 ?dispatch@QRhiCommandBuffer@@QEAAXHHH@Z
       3671  E56 003FC9C0 ?dispatchEvent@QShortcutMap@@AEAAXPEAVQKeyEvent@@@Z
       3672  E57 0046D600 ?displayName@QFileSystemModelPrivate@@QEBA?AVQString@@AEBVQModelIndex@@@Z
       3673  E58 00752C78 ?displayName@QGuiApplicationPrivate@@2PEAVQString@@EA
       3674  E59 001DFE70 ?doClip@QPathClipper@@AEAA_NAEAVQWingedEdge@@W4ClipperMode@1@@Z
       3675  E5A 000ADAE0 ?doFlush@QPaintDeviceWindowPrivate@@QEAAXAEBVQRegion@@@Z
       3676  E5B 000370F0 ?doImageIO@QImageData@@QEBA_NPEBVQImage@@PEAVQImageWriter@@H@Z
       3677  E5C 000668D0 ?doImageIO@QPixmap@@AEBA_NPEAVQImageWriter@@H@Z
       3678  E5D 00066990 ?doInit@QPixmap@@AEAAXHHH@Z
       3679  E5E 0029B010 ?doKerning@QFontEngine@@UEBAXPEAUQGlyphLayout@@V?$QFlags@W4ShaperFlag@QFontEngine@@@@@Z
       3680  E5F 0029B180 ?doKerning@QFontEngineMulti@@UEBAXPEAUQGlyphLayout@@V?$QFlags@W4ShaperFlag@QFontEngine@@@@@Z
       3681  E60 002DAD00 ?doLayout@QTextDocumentLayout@@AEAA?AVQRectF@@HHH@Z
       3682  E61 002258C0 ?do_map@QTransform@@AEBAXNNAEAN0@Z
       3683  E62 000375D0 ?docLayout@QTextEngine@@QEBAPEAVQAbstractTextDocumentLayout@@XZ
       3684  E63 000E26C0 ?document@QAbstractTextDocumentLayout@@QEBAPEAVQTextDocument@@XZ
       3685  E64 002AB9B0 ?document@QSyntaxHighlighter@@QEBAPEAVQTextDocument@@XZ
       3686  E65 0007B170 ?document@QTextBlock@@QEBAPEBVQTextDocument@@XZ
       3687  E66 002AEE70 ?document@QTextCursor@@QEBAPEAVQTextDocument@@XZ
       3688  E67 000030F0 ?document@QTextDocumentPrivate@@QEAAPEAVQTextDocument@@XZ
       3689  E68 000030F0 ?document@QTextDocumentPrivate@@QEBAPEBVQTextDocument@@XZ
       3690  E69 00326B80 ?document@QTextObject@@QEBAPEAVQTextDocument@@XZ
       3691  E6A 002C92F0 ?documentChange@QTextDocumentPrivate@@QEAAXHH@Z
       3692  E6B 002DAE60 ?documentChanged@QTextDocumentLayout@@MEAAXHHH@Z
       3693  E6C 002B81A0 ?documentLayout@QTextDocument@@QEBAPEAVQAbstractTextDocumentLayout@@XZ
       3694  E6D 002B81F0 ?documentLayoutChanged@QTextDocument@@QEAAXXZ
       3695  E6E 002B8210 ?documentMargin@QTextDocument@@QEBANXZ
       3696  E6F 002DB370 ?documentSize@QTextDocumentLayout@@UEBA?AVQSizeF@@XZ
       3697  E70 002653D0 ?documentSizeChanged@QAbstractTextDocumentLayout@@QEAAXAEBVQSizeF@@@Z
       3698  E71 00356DE0 ?doneCurrent@QOpenGLContext@@QEAAXXZ
       3699  E72 000A0B10 ?dotProduct@QQuaternion@@SAMAEBV1@0@Z
       3700  E73 000375E0 ?dotsPerMeterX@QImage@@QEBAHXZ
       3701  E74 00037620 ?dotsPerMeterY@QImage@@QEBAHXZ
       3702  E75 003053C0 ?doubleProperty@QTextFormat@@QEBANH@Z
       3703  E76 000C15D0 ?drag@QBasicDrag@@IEBAPEAVQDrag@@XZ
       3704  E77 003F4C30 ?drag@QBasicDrag@@UEAA?AW4DropAction@Qt@@PEAVQDrag@@@Z
       3705  E78 003F1E40 ?drag@QDragManager@@QEAA?AW4DropAction@Qt@@PEAVQDrag@@@Z
       3706  E79 000C15E0 ?drag@QPlatformIntegration@@UEBAPEAVQPlatformDrag@@XZ
       3707  E7A 003F3550 ?dragCursor@QDrag@@QEBA?AVQPixmap@@W4DropAction@Qt@@@Z
       3708  E7B 001B6440 ?draw@QPaintEngineEx@@UEAAXAEBVQVectorPath@@@Z
       3709  E7C 00241000 ?draw@QRhiCommandBuffer@@QEAAXIIII@Z
       3710  E7D 002DB3F0 ?draw@QTextDocumentLayout@@UEAAXPEAVQPainter@@AEBUPaintContext@QAbstractTextDocumentLayout@@@Z
       3711  E7E 0031B290 ?draw@QTextLayout@@QEBAXPEAVQPainter@@AEBVQPointF@@AEBV?$QList@UFormatRange@QTextLayout@@@@AEBVQRectF@@@Z
       3712  E7F 0031C0C0 ?draw@QTextLine@@QEBAXPEAVQPainter@@AEBVQPointF@@@Z
       3713  E80 00003220 ?drawArc@QPainter@@QEAAXAEBVQRect@@HH@Z
       3714  E81 001BE660 ?drawArc@QPainter@@QEAAXAEBVQRectF@@HH@Z
       3715  E82 00003270 ?drawArc@QPainter@@QEAAXHHHHHH@Z
       3716  E83 001A61E0 ?drawBitmap@QRasterPaintEngine@@AEAAXAEBVQPointF@@AEBVQImage@@PEAUQSpanData@@@Z
       3717  E84 0019B9B0 ?drawBoxTextItem@QPaintEnginePrivate@@QEAAXAEBVQPointF@@AEBVQTextItemInt@@@Z
       3718  E85 000685C0 ?drawCachedGlyphs@QBlittable@@UEAA_NPEBVQPaintEngineState@@W4GlyphFormat@QFontEngine@@HPEBIPEBUQFixedPoint@@PEAV4@@Z
       3719  E86 0019E6E0 ?drawCachedGlyphs@QBlitterPaintEngine@@UEAA_NHPEBIPEBUQFixedPoint@@PEAVQFontEngine@@@Z
       3720  E87 001A65C0 ?drawCachedGlyphs@QRasterPaintEngine@@UEAA_NHPEBIPEBUQFixedPoint@@PEAVQFontEngine@@@Z
       3721  E88 000032D0 ?drawChord@QPainter@@QEAAXAEBVQRect@@HH@Z
       3722  E89 001BE760 ?drawChord@QPainter@@QEAAXAEBVQRectF@@HH@Z
       3723  E8A 00003320 ?drawChord@QPainter@@QEAAXHHHHHH@Z
       3724  E8B 002B8220 ?drawContents@QTextDocument@@QEAAXPEAVQPainter@@AEBVQRectF@@@Z
       3725  E8C 00003380 ?drawConvexPolygon@QPainter@@QEAAXAEBVQPolygon@@@Z
       3726  E8D 00003390 ?drawConvexPolygon@QPainter@@QEAAXAEBVQPolygonF@@@Z
       3727  E8E 001BE8F0 ?drawConvexPolygon@QPainter@@QEAAXPEBVQPoint@@H@Z
       3728  E8F 001BEA50 ?drawConvexPolygon@QPainter@@QEAAXPEBVQPointF@@H@Z
       3729  E90 0031C0D0 ?drawCursor@QTextLayout@@QEBAXPEAVQPainter@@AEBVQPointF@@H@Z
       3730  E91 0031C0F0 ?drawCursor@QTextLayout@@QEBAXPEAVQPainter@@AEBVQPointF@@HH@Z
       3731  E92 002F45D0 ?drawDecorations@QTextEngine@@QEAAXPEAVQPainter@@@Z
       3732  E93 0019E8F0 ?drawEllipse@QBlitterPaintEngine@@UEAAXAEBVQRectF@@@Z
       3733  E94 0019BC30 ?drawEllipse@QPaintEngine@@UEAAXAEBVQRect@@@Z
       3734  E95 0019BC70 ?drawEllipse@QPaintEngine@@UEAAXAEBVQRectF@@@Z
       3735  E96 0019BC30 ?drawEllipse@QPaintEngineEx@@UEAAXAEBVQRect@@@Z
       3736  E97 001B6510 ?drawEllipse@QPaintEngineEx@@UEAAXAEBVQRectF@@@Z
       3737  E98 000033A0 ?drawEllipse@QPainter@@QEAAXAEBVQPoint@@HH@Z
       3738  E99 000033F0 ?drawEllipse@QPainter@@QEAAXAEBVQPointF@@NN@Z
       3739  E9A 001BEB70 ?drawEllipse@QPainter@@QEAAXAEBVQRect@@@Z
       3740  E9B 001BED00 ?drawEllipse@QPainter@@QEAAXAEBVQRectF@@@Z
       3741  E9C 00003440 ?drawEllipse@QPainter@@QEAAXHHHH@Z
       3742  E9D 001A6D60 ?drawEllipse@QRasterPaintEngine@@UEAAXAEBVQRectF@@@Z
       3743  E9E 001BEE30 ?drawGlyphRun@QPainter@@QEAAXAEBVQPointF@@AEBVQGlyphRun@@@Z
       3744  E9F 0019E970 ?drawImage@QBlitterPaintEngine@@UEAAXAEBVQPointF@@AEBVQImage@@@Z
       3745  EA0 0019EA30 ?drawImage@QBlitterPaintEngine@@UEAAXAEBVQRectF@@AEBVQImage@@0V?$QFlags@W4ImageConversionFlag@Qt@@@@@Z
       3746  EA1 0019BDD0 ?drawImage@QPaintEngine@@UEAAXAEBVQRectF@@AEBVQImage@@0V?$QFlags@W4ImageConversionFlag@Qt@@@@@Z
       3747  EA2 001B6630 ?drawImage@QPaintEngineEx@@UEAAXAEBVQPointF@@AEBVQImage@@@Z
       3748  EA3 00003480 ?drawImage@QPainter@@QEAAXAEBVQPoint@@AEBVQImage@@@Z
       3749  EA4 000034A0 ?drawImage@QPainter@@QEAAXAEBVQPoint@@AEBVQImage@@AEBVQRect@@V?$QFlags@W4ImageConversionFlag@Qt@@@@@Z
       3750  EA5 001BF790 ?drawImage@QPainter@@QEAAXAEBVQPointF@@AEBVQImage@@@Z
       3751  EA6 00003530 ?drawImage@QPainter@@QEAAXAEBVQPointF@@AEBVQImage@@AEBVQRectF@@V?$QFlags@W4ImageConversionFlag@Qt@@@@@Z
       3752  EA7 00003570 ?drawImage@QPainter@@QEAAXAEBVQRect@@AEBVQImage@@0V?$QFlags@W4ImageConversionFlag@Qt@@@@@Z
       3753  EA8 000035E0 ?drawImage@QPainter@@QEAAXAEBVQRect@@AEBVQImage@@@Z
       3754  EA9 001BFC40 ?drawImage@QPainter@@QEAAXAEBVQRectF@@AEBVQImage@@0V?$QFlags@W4ImageConversionFlag@Qt@@@@@Z
       3755  EAA 00003680 ?drawImage@QPainter@@QEAAXAEBVQRectF@@AEBVQImage@@@Z
       3756  EAB 00003710 ?drawImage@QPainter@@QEAAXHHAEBVQImage@@HHHHV?$QFlags@W4ImageConversionFlag@Qt@@@@@Z
       3757  EAC 001A7C10 ?drawImage@QRasterPaintEngine@@UEAAXAEBVQPointF@@AEBVQImage@@@Z
       3758  EAD 001A8070 ?drawImage@QRasterPaintEngine@@UEAAXAEBVQRectF@@AEBVQImage@@0V?$QFlags@W4ImageConversionFlag@Qt@@@@@Z
       3759  EAE 00241040 ?drawIndexed@QRhiCommandBuffer@@QEAAXIIIHI@Z
       3760  EAF 00265400 ?drawInlineObject@QAbstractTextDocumentLayout@@MEAAXPEAVQPainter@@AEBVQRectF@@VQTextInlineObject@@HAEBVQTextFormat@@@Z
       3761  EB0 002DF320 ?drawInlineObject@QTextDocumentLayout@@MEAAXPEAVQPainter@@AEBVQRectF@@VQTextInlineObject@@HAEBVQTextFormat@@@Z
       3762  EB1 002F47A0 ?drawItemDecorationList@QTextEngine@@AEAAXPEAVQPainter@@AEBV?$QList@UItemDecoration@QTextEngine@@@@@Z
       3763  EB2 00003810 ?drawLine@QPainter@@QEAAXAEBVQLine@@@Z
       3764  EB3 00003820 ?drawLine@QPainter@@QEAAXAEBVQLineF@@@Z
       3765  EB4 00003830 ?drawLine@QPainter@@QEAAXAEBVQPoint@@0@Z
       3766  EB5 00003860 ?drawLine@QPainter@@QEAAXAEBVQPointF@@0@Z
       3767  EB6 00003890 ?drawLine@QPainter@@QEAAXHHHH@Z
       3768  EB7 0019C000 ?drawLines@QPaintEngine@@UEAAXPEBVQLine@@H@Z
       3769  EB8 0019C160 ?drawLines@QPaintEngine@@UEAAXPEBVQLineF@@H@Z
       3770  EB9 001B66D0 ?drawLines@QPaintEngineEx@@UEAAXPEBVQLine@@H@Z
       3771  EBA 001B6940 ?drawLines@QPaintEngineEx@@UEAAXPEBVQLineF@@H@Z
       3772  EBB 000038D0 ?drawLines@QPainter@@QEAAXAEBV?$QList@VQLine@@@@@Z
       3773  EBC 000038E0 ?drawLines@QPainter@@QEAAXAEBV?$QList@VQLineF@@@@@Z
       3774  EBD 000038F0 ?drawLines@QPainter@@QEAAXAEBV?$QList@VQPoint@@@@@Z
       3775  EBE 00003910 ?drawLines@QPainter@@QEAAXAEBV?$QList@VQPointF@@@@@Z
       3776  EBF 001C0320 ?drawLines@QPainter@@QEAAXPEBVQLine@@H@Z
       3777  EC0 001C04F0 ?drawLines@QPainter@@QEAAXPEBVQLineF@@H@Z
       3778  EC1 001C0690 ?drawLines@QPainter@@QEAAXPEBVQPoint@@H@Z
       3779  EC2 001C06A0 ?drawLines@QPainter@@QEAAXPEBVQPointF@@H@Z
       3780  EC3 001A9750 ?drawLines@QRasterPaintEngine@@UEAAXPEBVQLine@@H@Z
       3781  EC4 001A9930 ?drawLines@QRasterPaintEngine@@UEAAXPEBVQLineF@@H@Z
       3782  EC5 003185A0 ?drawObject@QTextImageHandler@@UEAAXPEAVQPainter@@AEBVQRectF@@PEAVQTextDocument@@HAEBVQTextFormat@@@Z
       3783  EC6 0019C240 ?drawPath@QPaintEngine@@UEAAXAEBVQPainterPath@@@Z
       3784  EC7 001B6A60 ?drawPath@QPaintEngineEx@@UEAAXAEBVQPainterPath@@@Z
       3785  EC8 001C08F0 ?drawPath@QPainter@@QEAAXAEBVQPainterPath@@@Z
       3786  EC9 00003930 ?drawPicture@QPainter@@QEAAXAEBVQPoint@@AEBVQPicture@@@Z
       3787  ECA 001C09D0 ?drawPicture@QPainter@@QEAAXAEBVQPointF@@AEBVQPicture@@@Z
       3788  ECB 00003950 ?drawPicture@QPainter@@QEAAXHHAEBVQPicture@@@Z
       3789  ECC 00003990 ?drawPie@QPainter@@QEAAXAEBVQRect@@HH@Z
       3790  ECD 001C0AD0 ?drawPie@QPainter@@QEAAXAEBVQRectF@@HH@Z
       3791  ECE 000039E0 ?drawPie@QPainter@@QEAAXHHHHHH@Z
       3792  ECF 0019EAD0 ?drawPixmap@QBlitterPaintEngine@@UEAAXAEBVQPointF@@AEBVQPixmap@@@Z
       3793  ED0 0019EB90 ?drawPixmap@QBlitterPaintEngine@@UEAAXAEBVQRectF@@AEBVQPixmap@@0@Z
       3794  ED1 001B6B40 ?drawPixmap@QPaintEngineEx@@UEAAXAEBVQPointF@@AEBVQPixmap@@@Z
       3795  ED2 00003A40 ?drawPixmap@QPainter@@QEAAXAEBVQPoint@@AEBVQPixmap@@@Z
       3796  ED3 00003A60 ?drawPixmap@QPainter@@QEAAXAEBVQPoint@@AEBVQPixmap@@AEBVQRect@@@Z
       3797  ED4 001C0CB0 ?drawPixmap@QPainter@@QEAAXAEBVQPointF@@AEBVQPixmap@@@Z
       3798  ED5 00003AD0 ?drawPixmap@QPainter@@QEAAXAEBVQPointF@@AEBVQPixmap@@AEBVQRectF@@@Z
       3799  ED6 00003B00 ?drawPixmap@QPainter@@QEAAXAEBVQRect@@AEBVQPixmap@@0@Z
       3800  ED7 00003B70 ?drawPixmap@QPainter@@QEAAXAEBVQRect@@AEBVQPixmap@@@Z
       3801  ED8 001C1020 ?drawPixmap@QPainter@@QEAAXAEBVQRectF@@AEBVQPixmap@@0@Z
       3802  ED9 00003BC0 ?drawPixmap@QPainter@@QEAAXHHAEBVQPixmap@@@Z
       3803  EDA 00003C00 ?drawPixmap@QPainter@@QEAAXHHAEBVQPixmap@@HHHH@Z
       3804  EDB 00003CA0 ?drawPixmap@QPainter@@QEAAXHHHHAEBVQPixmap@@@Z
       3805  EDC 00003D10 ?drawPixmap@QPainter@@QEAAXHHHHAEBVQPixmap@@HHHH@Z
       3806  EDD 001A9AD0 ?drawPixmap@QRasterPaintEngine@@UEAAXAEBVQPointF@@AEBVQPixmap@@@Z
       3807  EDE 001A9DE0 ?drawPixmap@QRasterPaintEngine@@UEAAXAEBVQRectF@@AEBVQPixmap@@0@Z
       3808  EDF 001B6BE0 ?drawPixmapFragments@QPaintEngineEx@@UEAAXPEBVPixmapFragment@QPainter@@HAEBVQPixmap@@V?$QFlags@W4PixmapFragmentHint@QPainter@@@@@Z
       3809  EE0 001C1810 ?drawPixmapFragments@QPainter@@QEAAXPEBVPixmapFragment@1@HAEBVQPixmap@@V?$QFlags@W4PixmapFragmentHint@QPainter@@@@@Z
       3810  EE1 000685F0 ?drawPixmapOpacity@QBlittable@@UEAAXAEBVQRectF@@AEBVQPixmap@@0W4CompositionMode@QPainter@@N@Z
       3811  EE2 00003DC0 ?drawPoint@QPainter@@QEAAXAEBVQPoint@@@Z
       3812  EE3 00003DD0 ?drawPoint@QPainter@@QEAAXAEBVQPointF@@@Z
       3813  EE4 00003DE0 ?drawPoint@QPainter@@QEAAXHH@Z
       3814  EE5 0019EE80 ?drawPoints@QBlitterPaintEngine@@UEAAXPEBVQPoint@@H@Z
       3815  EE6 0019EF10 ?drawPoints@QBlitterPaintEngine@@UEAAXPEBVQPointF@@H@Z
       3816  EE7 0019C280 ?drawPoints@QPaintEngine@@UEAAXPEBVQPoint@@H@Z
       3817  EE8 0019C430 ?drawPoints@QPaintEngine@@UEAAXPEBVQPointF@@H@Z
       3818  EE9 001B6EF0 ?drawPoints@QPaintEngineEx@@UEAAXPEBVQPoint@@H@Z
       3819  EEA 001B72C0 ?drawPoints@QPaintEngineEx@@UEAAXPEBVQPointF@@H@Z
       3820  EEB 00003E10 ?drawPoints@QPainter@@QEAAXAEBVQPolygon@@@Z
       3821  EEC 00003E20 ?drawPoints@QPainter@@QEAAXAEBVQPolygonF@@@Z
       3822  EED 001C1D30 ?drawPoints@QPainter@@QEAAXPEBVQPoint@@H@Z
       3823  EEE 001C1FD0 ?drawPoints@QPainter@@QEAAXPEBVQPointF@@H@Z
       3824  EEF 001AA250 ?drawPoints@QRasterPaintEngine@@UEAAXPEBVQPoint@@H@Z
       3825  EF0 001AA3C0 ?drawPoints@QRasterPaintEngine@@UEAAXPEBVQPointF@@H@Z
       3826  EF1 0019EFA0 ?drawPolygon@QBlitterPaintEngine@@UEAAXPEBVQPoint@@HW4PolygonDrawMode@QPaintEngine@@@Z
       3827  EF2 0019F040 ?drawPolygon@QBlitterPaintEngine@@UEAAXPEBVQPointF@@HW4PolygonDrawMode@QPaintEngine@@@Z
       3828  EF3 0019C6A0 ?drawPolygon@QPaintEngine@@UEAAXPEBVQPoint@@HW4PolygonDrawMode@1@@Z
       3829  EF4 0019C8A0 ?drawPolygon@QPaintEngine@@UEAAXPEBVQPointF@@HW4PolygonDrawMode@1@@Z
       3830  EF5 001B7690 ?drawPolygon@QPaintEngineEx@@UEAAXPEBVQPoint@@HW4PolygonDrawMode@QPaintEngine@@@Z
       3831  EF6 001B78D0 ?drawPolygon@QPaintEngineEx@@UEAAXPEBVQPointF@@HW4PolygonDrawMode@QPaintEngine@@@Z
       3832  EF7 00003E30 ?drawPolygon@QPainter@@QEAAXAEBVQPolygon@@W4FillRule@Qt@@@Z
       3833  EF8 00003E40 ?drawPolygon@QPainter@@QEAAXAEBVQPolygonF@@W4FillRule@Qt@@@Z
       3834  EF9 001C2250 ?drawPolygon@QPainter@@QEAAXPEBVQPoint@@HW4FillRule@Qt@@@Z
       3835  EFA 001C2390 ?drawPolygon@QPainter@@QEAAXPEBVQPointF@@HW4FillRule@Qt@@@Z
       3836  EFB 001AA530 ?drawPolygon@QRasterPaintEngine@@UEAAXPEBVQPoint@@HW4PolygonDrawMode@QPaintEngine@@@Z
       3837  EFC 001AAB70 ?drawPolygon@QRasterPaintEngine@@UEAAXPEBVQPointF@@HW4PolygonDrawMode@QPaintEngine@@@Z
       3838  EFD 00003E50 ?drawPolyline@QPainter@@QEAAXAEBVQPolygon@@@Z
       3839  EFE 00003E60 ?drawPolyline@QPainter@@QEAAXAEBVQPolygonF@@@Z
       3840  EFF 001C24A0 ?drawPolyline@QPainter@@QEAAXPEBVQPoint@@H@Z
       3841  F00 001C25E0 ?drawPolyline@QPainter@@QEAAXPEBVQPointF@@H@Z
       3842  F01 00003E70 ?drawRect@QPainter@@QEAAXAEBVQRect@@@Z
       3843  F02 00003E80 ?drawRect@QPainter@@QEAAXAEBVQRectF@@@Z
       3844  F03 00003E90 ?drawRect@QPainter@@QEAAXHHHH@Z
       3845  F04 0019F0E0 ?drawRects@QBlitterPaintEngine@@UEAAXPEBVQRect@@H@Z
       3846  F05 0019F1A0 ?drawRects@QBlitterPaintEngine@@UEAAXPEBVQRectF@@H@Z
       3847  F06 0019CB30 ?drawRects@QPaintEngine@@UEAAXPEBVQRect@@H@Z
       3848  F07 0019CE30 ?drawRects@QPaintEngine@@UEAAXPEBVQRectF@@H@Z
       3849  F08 001B7A10 ?drawRects@QPaintEngineEx@@UEAAXPEBVQRect@@H@Z
       3850  F09 001B7BA0 ?drawRects@QPaintEngineEx@@UEAAXPEBVQRectF@@H@Z
       3851  F0A 00003ED0 ?drawRects@QPainter@@QEAAXAEBV?$QList@VQRect@@@@@Z
       3852  F0B 00003EE0 ?drawRects@QPainter@@QEAAXAEBV?$QList@VQRectF@@@@@Z
       3853  F0C 001C26E0 ?drawRects@QPainter@@QEAAXPEBVQRect@@H@Z
       3854  F0D 001C2980 ?drawRects@QPainter@@QEAAXPEBVQRectF@@H@Z
       3855  F0E 001AAEB0 ?drawRects@QRasterPaintEngine@@UEAAXPEBVQRect@@H@Z
       3856  F0F 001AB340 ?drawRects@QRasterPaintEngine@@UEAAXPEBVQRectF@@H@Z
       3857  F10 001B7D20 ?drawRoundedRect@QPaintEngineEx@@UEAAXAEBVQRectF@@NNW4SizeMode@Qt@@@Z
       3858  F11 00003EF0 ?drawRoundedRect@QPainter@@QEAAXAEBVQRect@@NNW4SizeMode@Qt@@@Z
       3859  F12 001C2BD0 ?drawRoundedRect@QPainter@@QEAAXAEBVQRectF@@NNW4SizeMode@Qt@@@Z
       3860  F13 00003F40 ?drawRoundedRect@QPainter@@QEAAXHHHHNNW4SizeMode@Qt@@@Z
       3861  F14 00003FB0 ?drawStaticText@QPainter@@QEAAXAEBVQPoint@@AEBVQStaticText@@@Z
       3862  F15 001C2CE0 ?drawStaticText@QPainter@@QEAAXAEBVQPointF@@AEBVQStaticText@@@Z
       3863  F16 00003FD0 ?drawStaticText@QPainter@@QEAAXHHAEBVQStaticText@@@Z
       3864  F17 0019F250 ?drawStaticTextItem@QBlitterPaintEngine@@UEAAXPEAVQStaticTextItem@@@Z
       3865  F18 001B7FF0 ?drawStaticTextItem@QPaintEngineEx@@UEAAXPEAVQStaticTextItem@@@Z
       3866  F19 001AB7C0 ?drawStaticTextItem@QRasterPaintEngine@@UEAAXPEAVQStaticTextItem@@@Z
       3867  F1A 00004010 ?drawText@QPainter@@QEAAXAEBVQPoint@@AEBVQString@@@Z
       3868  F1B 001C4170 ?drawText@QPainter@@QEAAXAEBVQPointF@@AEBVQString@@@Z
       3869  F1C 001C4190 ?drawText@QPainter@@QEAAXAEBVQPointF@@AEBVQString@@HH@Z
       3870  F1D 001C4760 ?drawText@QPainter@@QEAAXAEBVQRect@@HAEBVQString@@PEAV2@@Z
       3871  F1E 001C4880 ?drawText@QPainter@@QEAAXAEBVQRectF@@AEBVQString@@AEBVQTextOption@@@Z
       3872  F1F 001C4930 ?drawText@QPainter@@QEAAXAEBVQRectF@@HAEBVQString@@PEAV2@@Z
       3873  F20 00004030 ?drawText@QPainter@@QEAAXHHAEBVQString@@@Z
       3874  F21 00004070 ?drawText@QPainter@@QEAAXHHHHHAEBVQString@@PEAVQRect@@@Z
       3875  F22 0019F2D0 ?drawTextItem@QBlitterPaintEngine@@UEAAXAEBVQPointF@@AEBVQTextItem@@@Z
       3876  F23 0019CF90 ?drawTextItem@QPaintEngine@@UEAAXAEBVQPointF@@AEBVQTextItem@@@Z
       3877  F24 000040C0 ?drawTextItem@QPainter@@QEAAXAEBVQPoint@@AEBVQTextItem@@@Z
       3878  F25 001C49F0 ?drawTextItem@QPainter@@QEAAXAEBVQPointF@@AEBVQTextItem@@@Z
       3879  F26 000040E0 ?drawTextItem@QPainter@@QEAAXHHAEBVQTextItem@@@Z
       3880  F27 001ABA90 ?drawTextItem@QRasterPaintEngine@@UEAAXAEBVQPointF@@AEBVQTextItem@@@Z
       3881  F28 0019F360 ?drawTiledPixmap@QBlitterPaintEngine@@UEAAXAEBVQRectF@@AEBVQPixmap@@AEBVQPointF@@@Z
       3882  F29 0019D490 ?drawTiledPixmap@QPaintEngine@@UEAAXAEBVQRectF@@AEBVQPixmap@@AEBVQPointF@@@Z
       3883  F2A 001B8210 ?drawTiledPixmap@QPaintEngineEx@@UEAAXAEBVQRectF@@AEBVQPixmap@@AEBVQPointF@@@Z
       3884  F2B 00004120 ?drawTiledPixmap@QPainter@@QEAAXAEBVQRect@@AEBVQPixmap@@AEBVQPoint@@@Z
       3885  F2C 001C5E80 ?drawTiledPixmap@QPainter@@QEAAXAEBVQRectF@@AEBVQPixmap@@AEBVQPointF@@@Z
       3886  F2D 00004170 ?drawTiledPixmap@QPainter@@QEAAXHHHHAEBVQPixmap@@HH@Z
       3887  F2E 001ABF90 ?drawTiledPixmap@QRasterPaintEngine@@UEAAXAEBVQRectF@@AEBVQPixmap@@AEBVQPointF@@@Z
       3888  F2F 0031C6B0 ?draw_internal@QTextLine@@AEBAXPEAVQPainter@@AEBVQPointF@@PEBUFormatRange@QTextLayout@@@Z
       3889  F30 00464050 ?driveAdded@QFileInfoGatherer@@AEAAXXZ
       3890  F31 00464100 ?driveRemoved@QFileInfoGatherer@@AEAAXXZ
       3891  F32 00241090 ?driverInfo@QRhi@@QEBA?AUQRhiDriverInfo@@XZ
       3892  F33 003F4AE0 ?drop@QBasicDrag@@MEAAXAEBVQPoint@@V?$QFlags@W4MouseButton@Qt@@@@V?$QFlags@W4KeyboardModifier@Qt@@@@@Z
       3893  F34 003F4CE0 ?drop@QSimpleDrag@@MEAAXAEBVQPoint@@V?$QFlags@W4MouseButton@Qt@@@@V?$QFlags@W4KeyboardModifier@Qt@@@@@Z
       3894  F35 000041F0 ?dropAction@QDropEvent@@QEBA?AW4DropAction@Qt@@XZ
       3895  F36 0046D660 ?dropMimeData@QFileSystemModel@@UEAA_NPEBVQMimeData@@W4DropAction@Qt@@HHAEBVQModelIndex@@@Z
       3896  F37 0034AD30 ?dropMimeData@QStandardItemModel@@UEAA_NPEBVQMimeData@@W4DropAction@Qt@@HHAEBVQModelIndex@@@Z
       3897  F38 00004200 ?dx@QTransform@@QEBANXZ
       3898  F39 00004210 ?dy@QTransform@@QEBANXZ
       3899  F3A 000BE9A0 ?dynamicConstraintOrientation@QGridLayoutItem@@UEBA?AW4Orientation@Qt@@XZ
       3900  F3B 002E1130 ?dynamicDocumentSize@QTextDocumentLayout@@QEBA?AVQSizeF@@XZ
       3901  F3C 002E11A0 ?dynamicPageCount@QTextDocumentLayout@@QEBAHXZ
       3902  F3D 00091110 ?editableTextInterface@QAccessibleInterface@@QEAAPEAVQAccessibleEditableTextInterface@@XZ
       3903  F3E 003E6E70 ?effectiveActionNames@QAccessibleBridgeUtils@@YA?AV?$QList@VQString@@@@PEAVQAccessibleInterface@@@Z
       3904  F3F 003362C0 ?effectiveAlignment@QGridLayoutEngine@@QEBA?AV?$QFlags@W4AlignmentFlag@Qt@@@@PEBVQGridLayoutItem@@@Z
       3905  F40 00336350 ?effectiveFirstRow@QGridLayoutEngine@@QEBAHW4Orientation@Qt@@@Z
       3906  F41 00336380 ?effectiveLastRow@QGridLayoutEngine@@QEBAHW4Orientation@Qt@@@Z
       3907  F42 000A2E30 ?effectiveLogicalDpi@QHighDpiScaling@@CA?AU?$pair@NN@std@@PEBVQPlatformScreen@@NN@Z
       3908  F43 003363B0 ?effectiveMaxSize@QGridLayoutItem@@QEBA?AVQSizeF@@AEBV2@@Z
       3909  F44 000E0F90 ?effectiveState@QWindowPrivate@@SA?AW4WindowState@Qt@@V?$QFlags@W4WindowState@Qt@@@@@Z
       3910  F45 001D3AA0 ?elementAt@QPainterPath@@QEBA?AVElement@1@H@Z
       3911  F46 00006440 ?elementCount@QDashedStrokeProcessor@@QEBAHXZ
       3912  F47 001D3AD0 ?elementCount@QPainterPath@@QEBAHXZ
       3913  F48 00002CC0 ?elementCount@QVectorPath@@QEBAHXZ
       3914  F49 0022A510 ?elementTypes@QDashedStrokeProcessor@@QEBAPEAW4ElementType@QPainterPath@@XZ
       3915  F4A 00003100 ?elements@QVectorPath@@QEBAPEBW4ElementType@QPainterPath@@XZ
       3916  F4B 002A1D60 ?elidedText@QFontMetrics@@QEBA?AVQString@@AEBV2@W4TextElideMode@Qt@@HH@Z
       3917  F4C 002A2010 ?elidedText@QFontMetricsF@@QEBA?AVQString@@AEBV2@W4TextElideMode@Qt@@NH@Z
       3918  F4D 002F4830 ?elidedText@QTextEngine@@QEBA?AVQString@@W4TextElideMode@Qt@@UQFixed@@HHH@Z
       3919  F4E 0007B180 ?ellipseDiameters@QEventPoint@@QEBA?AVQSizeF@@XZ
       3920  F4F 00037660 ?emSquareSize@QFontEngine@@UEBA?AUQFixed@@XZ
       3921  F50 00454D20 ?emSquareSize@QWindowsFontEngineDirectWrite@@UEBA?AUQFixed@@XZ
       3922  F51 000BF8A0 ?emitAnimatingChanged@QPlatformInputContext@@QEAAXXZ
       3923  F52 000762D0 ?emitChanged@QClipboard@@AEAAXW4Mode@1@@Z
       3924  F53 000B2D90 ?emitChanged@QPlatformClipboard@@QEAAXW4Mode@QClipboard@@@Z
       3925  F54 00037690 ?emitCubicTo@QStroker@@QEAAXNNNNNN@Z
       3926  F55 00037780 ?emitCubicTo@QStrokerOps@@IEAAXNNNNNN@Z
       3927  F56 0034B820 ?emitDataChanged@QStandardItem@@IEAAXXZ
       3928  F57 000BF8C0 ?emitInputDirectionChanged@QPlatformInputContext@@QEAAXW4LayoutDirection@Qt@@@Z
       3929  F58 000BF900 ?emitInputPanelVisibleChanged@QPlatformInputContext@@QEAAXXZ
       3930  F59 000BF920 ?emitKeyboardRectChanged@QPlatformInputContext@@QEAAXXZ
       3931  F5A 0022A520 ?emitLineSegment@QTriangulatingStroker@@AEAAXMMMM@Z
       3932  F5B 000377F0 ?emitLineTo@QStroker@@QEAAXNN@Z
       3933  F5C 00037840 ?emitLineTo@QStrokerOps@@IEAAXNN@Z
       3934  F5D 000BF940 ?emitLocaleChanged@QPlatformInputContext@@QEAAXXZ
       3935  F5E 00037860 ?emitMoveTo@QStroker@@QEAAXNN@Z
       3936  F5F 000378B0 ?emitMoveTo@QStrokerOps@@IEAAXNN@Z
       3937  F60 002C9360 ?emitRedoAvailable@QTextDocumentPrivate@@QEAAX_N@Z
       3938  F61 000E0FB0 ?emitScreenChangedRecursion@QWindowPrivate@@QEAAXPEAVQScreen@@@Z
       3939  F62 000074A0 ?emitSignal@QActionGroupPrivate@@UEAAXW4Signal@1@PEAVQAction@@@Z
       3940  F63 002C9390 ?emitUndoAvailable@QTextDocumentPrivate@@QEAAX_N@Z
       3941  F64 000557B0 ?enableCleanupHooks@QImagePixmapCleanupHooks@@SAXAEBVQImage@@@Z
       3942  F65 000557C0 ?enableCleanupHooks@QImagePixmapCleanupHooks@@SAXAEBVQPixmap@@@Z
       3943  F66 000557D0 ?enableCleanupHooks@QImagePixmapCleanupHooks@@SAXPEAVQPlatformPixmap@@@Z
       3944  F67 000378D0 ?enableDelayDecorations@QTextEngine@@QEAAX_N@Z
       3945  F68 003F4EF0 ?enableEventFilter@QBasicDrag@@AEAAXXZ
       3946  F69 002C93C0 ?enableUndoRedo@QTextDocumentPrivate@@QEAAX_N@Z
       3947  F6A 003EE1D0 ?enabledChanged@QAction@@QEAAX_N@Z
       3948  F6B 00004220 ?encodeMetricF@QPaintDevice@@SAHW4PaintDeviceMetric@1@N@Z
       3949  F6C 0019F400 ?end@QBlitterPaintEngine@@UEAA_NXZ
       3950  F6D 000378F0 ?end@QDashStroker@@UEAAXXZ
       3951  F6E 001C72F0 ?end@QPainter@@QEAA_NXZ
       3952  F6F 00004DA0 ?end@QRasterPaintEngine@@UEAA_NXZ
       3953  F70 00218220 ?end@QRegion@@QEBAPEBVQRect@@XZ
       3954  F71 0021DFD0 ?end@QStrokerOps@@UEAAXXZ
       3955  F72 00326B90 ?end@QTextBlock@@QEBA?AViterator@1@XZ
       3956  F73 002C00B0 ?end@QTextDocument@@QEBA?AVQTextBlock@@XZ
       3957  F74 00037920 ?end@QTextDocumentPrivate@@QEBA?AVConstIterator@?$QFragmentMap@VQTextFragmentData@@@@XZ
       3958  F75 00326CF0 ?end@QTextFrame@@QEBA?AViterator@1@XZ
       3959  F76 0032B8E0 ?end@QTextTableCell@@QEBA?AViterator@QTextFrame@@XZ
       3960  F77 0022A730 ?endCap@QTriangulatingStroker@@AEAAXPEBN@Z
       3961  F78 0022AA30 ?endCapOrJoinClosed@QTriangulatingStroker@@AEAAXPEBN0_N1@Z
       3962  F79 002413A0 ?endComputePass@QRhiCommandBuffer@@QEAAXPEAVQRhiResourceUpdateBatch@@@Z
       3963  F7A 000074A0 ?endDrag@QBasicDrag@@MEAAXXZ
       3964  F7B 002AEE90 ?endEditBlock@QTextCursor@@QEAAXXZ
       3965  F7C 002C9550 ?endEditBlock@QTextDocumentPrivate@@QEAAXXZ
       3966  F7D 002413C0 ?endExternal@QRhiCommandBuffer@@QEAAXXZ
       3967  F7E 000074A0 ?endFillTexture@QTextureGlyphCache@@UEAAXXZ
       3968  F7F 000074A0 ?endFrame@QPlatformOpenGLContext@@UEAAXXZ
       3969  F80 002413E0 ?endFrame@QRhi@@QEAA?AW4FrameOpResult@1@PEAVQRhiSwapChain@@V?$QFlags@W4EndFrameFlag@QRhi@@@@@Z
       3970  F81 000074A0 ?endFullDynamicBufferUpdateForCurrentFrame@QRhiBuffer@@UEAAXXZ
       3971  F82 0031DDB0 ?endLayout@QTextLayout@@QEAAXXZ
       3972  F83 0045E2B0 ?endMacro@QUndoStack@@QEAAXXZ
       3973  F84 000074A0 ?endNativePainting@QPaintEngineEx@@UEAAXXZ
       3974  F85 001C7580 ?endNativePainting@QPainter@@QEAAXXZ
       3975  F86 002F51F0 ?endOfLine@QTextEngine@@AEAAHH@Z
       3976  F87 002414B0 ?endOffscreenFrame@QRhi@@QEAA?AW4FrameOpResult@1@V?$QFlags@W4EndFrameFlag@QRhi@@@@@Z
       3977  F88 000FE9A0 ?endPaint@QBackingStore@@QEAAXXZ
       3978  F89 000074A0 ?endPaint@QPaintDeviceWindowPrivate@@UEAAXXZ
       3979  F8A 000074A0 ?endPaint@QPlatformBackingStore@@UEAAXXZ
       3980  F8B 00241570 ?endPass@QRhiCommandBuffer@@QEAAXPEAVQRhiResourceUpdateBatch@@@Z
       3981  F8C 0010A680 ?endTangent@QBezier@@QEBA?AVQLineF@@XZ
       3982  F8D 00037940 ?engine@QFontEngineMulti@@QEBAPEAVQFontEngine@@H@Z
       3983  F8E 00003100 ?engine@QTextLayout@@QEBAPEAVQTextEngine@@XZ
       3984  F8F 0027AF00 ?engineForScript@QFontPrivate@@QEBAPEAVQFontEngine@@H@Z
       3985  F90 00037950 ?ensureBrush@QRasterPaintEngine@@AEAAXAEBVQBrush@@@Z
       3986  F91 00037990 ?ensureBrush@QRasterPaintEngine@@AEAAXXZ
       3987  F92 003364E0 ?ensureColumnAndRowData@QGridLayoutEngine@@AEBAXPEAVQGridLayoutRowData@@PEAVQGridLayoutBox@@PEBN2W4Orientation@Qt@@PEBVQAbstractLayoutStyleInfo@@@Z
       3988  F93 000379E0 ?ensureData@QPainterPath@@AEAAXXZ
       3989  F94 001D3AE0 ?ensureData_helper@QPainterPath@@AEAAXXZ
       3990  F95 00336770 ?ensureDynamicConstraint@QGridLayoutEngine@@QEBA_NXZ
       3991  F96 00336870 ?ensureEffectiveFirstAndLastRows@QGridLayoutEngine@@AEBAXXZ
       3992  F97 0029B730 ?ensureEngineAt@QFontEngineMulti@@QEAAXH@Z
       3993  F98 0029B810 ?ensureFallbackFamiliesQueried@QFontEngineMulti@@MEAAXXZ
       3994  F99 00288D60 ?ensureFontDatabase@QFontDatabasePrivate@@SAPEAV1@XZ
       3995  F9A 00336950 ?ensureGeometries@QGridLayoutEngine@@AEBAXAEBVQSizeF@@PEBVQAbstractLayoutStyleInfo@@@Z
       3996  F9B 0001C390 ?ensureInitialized@QIconLoader@@QEAAXXZ
       3997  F9C 002E1230 ?ensureLayouted@QTextDocumentLayout@@QEAAXN@Z
       3998  F9D 002C9620 ?ensureMaximumBlockCount@QTextDocumentPrivate@@QEAA_NXZ
       3999  F9E 000379F0 ?ensureOutlineMapper@QRasterPaintEngine@@AEAAXXZ
       4000  F9F 00037A10 ?ensurePen@QRasterPaintEngine@@AEAAXAEBVQPen@@@Z
       4001  FA0 00037A80 ?ensurePen@QRasterPaintEngine@@AEAAXXZ
       4002  FA1 00288FD0 ?ensurePopulated@QtFontFamily@@QEAA_NXZ
       4003  FA2 00037B00 ?ensureRasterState@QRasterPaintEngine@@AEAAXXZ
       4004  FA3 00037B30 ?ensureSpace@QTextEngine@@QEBA_NH@Z
       4005  FA4 00103450 ?entryAt@QRhiTextureUploadDescription@@QEBAPEBVQRhiTextureUploadEntry@@_J@Z
       4006  FA5 000030F0 ?entryCount@QRhiTextureUploadDescription@@QEBA_JXZ
       4007  FA6 0001C800 ?entryForSize@QIconLoaderEngine@@SAPEAVQIconLoaderEngineEntry@@AEBUQThemeIconInfo@@AEBVQSize@@H@Z
       4008  FA7 001025E0 ?entryPoint@QShaderCode@@QEBA?AVQByteArray@@XZ
       4009  FA8 001E6640 ?equals@Gpu@QOpenGLConfig@@QEBA_NAEBU12@@Z
       4010  FA9 0012FFF0 ?equals@QColorSpace@@AEBA_NAEBV1@@Z
       4011  FAA 00192D70 ?equals@QPageLayout@@AEBA_NAEBV1@@Z
       4012  FAB 00198920 ?equals@QPageSize@@AEBA_NAEBV1@@Z
       4013  FAC 000DB690 ?equals@QSurfaceFormat@@AEBA_NAEBV1@@Z
       4014  FAD 00004240 ?eraseRect@QPainter@@QEAAXAEBVQRect@@@Z
       4015  FAE 001C75F0 ?eraseRect@QPainter@@QEAAXAEBVQRectF@@@Z
       4016  FAF 00004270 ?eraseRect@QPainter@@QEAAXHHHH@Z
       4017  FB0 00057AF0 ?error@QImageReader@@QEBA?AW4ImageReaderError@1@XZ
       4018  FB1 0005DC90 ?error@QImageWriter@@QEBA?AW4ImageWriterError@1@XZ
       4019  FB2 00401850 ?error@QMovie@@QEAAXW4ImageReaderError@QImageReader@@@Z
       4020  FB3 00057B00 ?errorString@QImageReader@@QEBA?AVQString@@XZ
       4021  FB4 0005DCA0 ?errorString@QImageWriter@@QEBA?AVQString@@XZ
       4022  FB5 0043EBC0 ?errorSymbol@Parser@QCss@@QEAA?AUSymbol@2@XZ
       4023  FB6 000BA320 ?escapeButton@QMessageDialogOptions@@QEBAHXZ
       4024  FB7 003EE210 ?event@QAction@@MEAA_NPEAVQEvent@@@Z
       4025  FB8 00464720 ?event@QFileInfoGatherer@@MEAA_NPEAVQEvent@@@Z
       4026  FB9 0046E1B0 ?event@QFileSystemModel@@MEAA_NPEAVQEvent@@@Z
       4027  FBA 00091130 ?event@QGuiApplication@@MEAA_NPEAVQEvent@@@Z
       4028  FBB 000ADBD0 ?event@QPaintDeviceWindow@@MEAA_NPEAVQEvent@@@Z
       4029  FBC 003FAD00 ?event@QShortcut@@MEAA_NPEAVQEvent@@@Z
       4030  FBD 000E1050 ?event@QWindow@@MEAA_NPEAVQEvent@@@Z
       4031  FBE 00753438 ?eventAccepted@QWindowSystemInterfacePrivate@@2VQAtomicInt@@A
       4032  FBF 00091440 ?eventDispatcherReady@QGuiApplicationPrivate@@UEAAXXZ
       4033  FC0 003F4F20 ?eventFilter@QBasicDrag@@UEAA_NPEAVQObject@@PEAVQEvent@@@Z
       4034  FC1 00753440 ?eventHandler@QWindowSystemInterfacePrivate@@2PEAVQWindowSystemEventHandler@@EA
       4035  FC2 000030F0 ?eventReceiver@QWindowPrivate@@UEAAPEAVQWindow@@XZ
       4036  FC3 00738EE8 ?eventTime@QWindowSystemInterfacePrivate@@2VQElapsedTimer@@A
       4037  FC4 00753448 ?eventsFlushed@QWindowSystemInterfacePrivate@@2VQWaitCondition@@A
       4038  FC5 0027BC80 ?exactMatch@QFont@@QEBA_NXZ
       4039  FC6 0027BC80 ?exactMatch@QFontInfo@@QEBA_NXZ
       4040  FC7 003F1770 ?exclusionPolicy@QActionGroup@@QEBA?AW4ExclusionPolicy@1@XZ
       4041  FC8 000857F0 ?exclusiveGrabber@QPointerEvent@@QEBAPEAVQObject@@AEBVQEventPoint@@@Z
       4042  FC9 000042C0 ?exclusivePointGrabber@QSinglePointEvent@@QEBAPEAVQObject@@XZ
       4043  FCA 003F3610 ?exec@QDrag@@QEAA?AW4DropAction@Qt@@V?$QFlags@W4DropAction@Qt@@@@@Z
       4044  FCB 003F3730 ?exec@QDrag@@QEAA?AW4DropAction@Qt@@V?$QFlags@W4DropAction@Qt@@@@W423@@Z
       4045  FCC 00091480 ?exec@QGuiApplication@@SAHXZ
       4046  FCD 000620D0 ?exec@QPicture@@AEAA_NPEAVQPainter@@AEAVQDataStream@@H@Z
       4047  FCE 00218250 ?exec@QRegion@@AEAAXAEBVQByteArray@@HW4ByteOrder@QDataStream@@@Z
       4048  FCF 000557E0 ?executeImageHooks@QImagePixmapCleanupHooks@@SAX_J@Z
       4049  FD0 000558D0 ?executePlatformPixmapDestructionHooks@QImagePixmapCleanupHooks@@SAXPEAVQPlatformPixmap@@@Z
       4050  FD1 000559C0 ?executePlatformPixmapModificationHooks@QImagePixmapCleanupHooks@@SAXPEAVQPlatformPixmap@@@Z
       4051  FD2 00005170 ?executedDropAction@QBasicDrag@@IEBA?AW4DropAction@Qt@@XZ
       4052  FD3 003F5490 ?exitDndEventLoop@QBasicDrag@@AEAAXXZ
       4053  FD4 00004DA0 ?expectsGammaCorrectedBlending@QFontEngine@@UEBA_NXZ
       4054  FD5 000ADD20 ?exposeEvent@QPaintDeviceWindow@@MEAAXPEAVQExposeEvent@@@Z
       4055  FD6 000E15F0 ?exposeEvent@QWindow@@MEAAXPEAVQExposeEvent@@@Z
       4056  FD7 00356EE0 ?extensions@QOpenGLContext@@QEBA?AV?$QSet@VQByteArray@@@@XZ
       4057  FD8 001E6740 ?extensions@QOpenGLExtensionMatcher@@QEBA?AV?$QSet@VQByteArray@@@@XZ
       4058  FD9 00356FC0 ?extraFunctions@QOpenGLContext@@QEBAPEAVQOpenGLExtraFunctions@@XZ
       4059  FDA 003DB4C0 ?extraTryFontsForFamily@QWindowsFontDatabaseBase@@SA?AV?$QList@VQString@@@@AEBVQString@@@Z
       4060  FDB 0043EC40 ?extractBackground@ValueExtractor@QCss@@QEAA_NPEAVQBrush@@PEAVQString@@PEAW4Repeat@2@PEAV?$QFlags@W4AlignmentFlag@Qt@@@@PEAW4Origin@2@PEAW4Attachment@2@4@Z
       4061  FDC 0043F360 ?extractBorder@ValueExtractor@QCss@@QEAA_NPEAHPEAVQBrush@@PEAW4BorderStyle@2@PEAVQSize@@@Z
       4062  FDD 0043F830 ?extractBox@ValueExtractor@QCss@@QEAA_NPEAH00@Z
       4063  FDE 0043FA00 ?extractFont@ValueExtractor@QCss@@AEAAXXZ
       4064  FDF 0043FA30 ?extractFont@ValueExtractor@QCss@@QEAA_NPEAVQFont@@PEAH@Z
       4065  FE0 00440060 ?extractGeometry@ValueExtractor@QCss@@QEAA_NPEAH00000@Z
       4066  FE1 004401A0 ?extractIcon@ValueExtractor@QCss@@QEAA_NPEAVQIcon@@PEAVQSize@@@Z
       4067  FE2 00440370 ?extractImage@ValueExtractor@QCss@@QEAA_NPEAVQIcon@@PEAV?$QFlags@W4AlignmentFlag@Qt@@@@PEAVQSize@@@Z
       4068  FE3 004405C0 ?extractOutline@ValueExtractor@QCss@@QEAA_NPEAHPEAVQBrush@@PEAW4BorderStyle@2@PEAVQSize@@0@Z
       4069  FE4 00440840 ?extractPalette@ValueExtractor@QCss@@QEAA_NPEAVQBrush@@00000@Z
       4070  FE5 00440AA0 ?extractPosition@ValueExtractor@QCss@@QEAA_NPEAH000PEAW4Origin@2@PEAV?$QFlags@W4AlignmentFlag@Qt@@@@PEAW4PositionMode@2@2@Z
       4071  FE6 00440DA0 ?extractStyleFeatures@ValueExtractor@QCss@@QEAAHXZ
       4072  FE7 00037B60 ?faceId@QFontEngine@@UEBA?AUFaceId@1@XZ
       4073  FE8 00454D60 ?faceId@QWindowsFontEngineDirectWrite@@UEBA?AUFaceId@QFontEngine@@XZ
       4074  FE9 00037BA0 ?fallbackFamilyAt@QFontEngineMulti@@QEBA?AVQString@@H@Z
       4075  FEA 00037BD0 ?fallbackFamilyCount@QFontEngineMulti@@QEBAHXZ
       4076  FEB 00014210 ?fallbackSearchPaths@QIcon@@SA?AV?$QList@VQString@@@@XZ
       4077  FEC 0001CB40 ?fallbackSearchPaths@QIconLoader@@QEBA?AV?$QList@VQString@@@@XZ
       4078  FED 00014240 ?fallbackThemeName@QIcon@@SA?AVQString@@XZ
       4079  FEE 0001CD20 ?fallbackThemeName@QIconLoader@@QEBA?AVQString@@XZ
       4080  FEF 00289E70 ?fallbacksForFamily@QPlatformFontDatabase@@UEBA?AV?$QList@VQString@@@@AEBVQString@@W4Style@QFont@@W4StyleHint@5@W4Script@QChar@@@Z
       4081  FF0 00458EC0 ?fallbacksForFamily@QWindowsDirectWriteFontDatabase@@UEBA?AV?$QList@VQString@@@@AEBVQString@@W4Style@QFont@@W4StyleHint@5@W4Script@QChar@@@Z
       4082  FF1 003D4920 ?fallbacksForFamily@QWindowsFontDatabase@@UEBA?AV?$QList@VQString@@@@AEBVQString@@W4Style@QFont@@W4StyleHint@5@W4Script@QChar@@@Z
       4083  FF2 0025DBC0 ?families@QFont@@QEBA?AV?$QList@VQString@@@@XZ
       4084  FF3 0028A300 ?families@QFontDatabase@@SA?AV?$QList@VQString@@@@W4WritingSystem@1@@Z
       4085  FF4 0027C0B0 ?family@QFont@@QEBA?AVQString@@XZ
       4086  FF5 0028AC50 ?family@QFontDatabasePrivate@@QEAAPEAUQtFontFamily@@AEBVQString@@W4FamilyRequestFlags@1@@Z
       4087  FF6 0027C120 ?family@QFontInfo@@QEBA?AVQString@@XZ
       4088  FF7 003DBDA0 ?familyForStyleHint@QWindowsFontDatabaseBase@@SA?AVQString@@W4StyleHint@QFont@@@Z
       4089  FF8 002A7130 ?familyName@QRawFont@@QEBA?AVQString@@XZ
       4090  FF9 0027C230 ?featureTags@QFont@@QEBA?AV?$QList@UTag@QFont@@@@XZ
       4091  FFA 0027C2F0 ?featureValue@QFont@@QEBAIUTag@1@@Z
       4092  FFB 00464860 ?fetch@QFileInfoGatherer@@AEAAXAEBVQFileInfo@@AEAVQElapsedTimer@@AEA_NAEAV?$QList@U?$pair@VQString@@VQFileInfo@@@std@@@@AEBVQString@@@Z
       4093  FFC 004649B0 ?fetchExtendedInformation@QFileInfoGatherer@@QEAAXAEBVQString@@AEBV?$QList@VQString@@@@@Z
       4094  FFD 0046E220 ?fetchMore@QFileSystemModel@@UEAAXAEBVQModelIndex@@@Z
       4095  FFE 000042D0 ?file@QFileOpenEvent@@QEBA?AVQString@@XZ
       4096  FFF 0046E290 ?fileIcon@QFileSystemModel@@QEBA?AVQIcon@@AEBVQModelIndex@@@Z
       4097 1000 000CAF00 ?fileIcon@QPlatformTheme@@UEBA?AVQIcon@@AEBVQFileInfo@@V?$QFlags@W4IconOption@QPlatformTheme@@@@@Z
       4098 1001 00006D00 ?fileInfo@QAbstractFileIconEngine@@QEBA?AVQFileInfo@@XZ
       4099 1002 0046E440 ?fileInfo@QFileSystemModel@@QEBA?AVQFileInfo@@AEBVQModelIndex@@@Z
       4100 1003 000BA330 ?fileMode@QFileDialogOptions@@QEBA?AW4FileMode@1@XZ
       4101 1004 0046E4A0 ?fileName@QFileSystemModel@@QEBA?AVQString@@AEBVQModelIndex@@@Z
       4102 1005 00057B60 ?fileName@QImageReader@@QEBA?AVQString@@XZ
       4103 1006 0005DCD0 ?fileName@QImageWriter@@QEBA?AVQString@@XZ
       4104 1007 00401890 ?fileName@QMovie@@QEBA?AVQString@@XZ
       4105 1008 002EE6F0 ?fileName@QTextDocumentWriter@@QEBA?AVQString@@XZ
       4106 1009 0046E550 ?filePath@QFileSystemModel@@QEBA?AVQString@@AEBVQModelIndex@@@Z
       4107 100A 0046E770 ?filePath@QFileSystemModelPrivate@@QEBA?AVQString@@AEBVQModelIndex@@@Z
       4108 100B 000E1600 ?filePath@QWindow@@QEBA?AVQString@@XZ
       4109 100C 0046E960 ?fileRenamed@QFileSystemModel@@QEAAXAEBVQString@@00@Z
       4110 100D 000BA340 ?fileSelected@QPlatformFileDialogHelper@@QEAAXAEBVQUrl@@@Z
       4111 100E 0046E9C0 ?fileSystemChanged@QFileSystemModelPrivate@@QEAAXAEBVQString@@AEBV?$QList@U?$pair@VQString@@VQFileInfo@@@std@@@@@Z
       4112 100F 00454DC0 ?filenameFromFontFile@QWindowsFontEngineDirectWrite@@CA?AVQString@@PEAUIDWriteFontFile@@@Z
       4113 1010 000BA370 ?filesSelected@QPlatformFileDialogHelper@@QEAAXAEBV?$QList@VQUrl@@@@@Z
       4114 1011 00068620 ?fill@QBlittablePlatformPixmap@@UEAAXAEBVQColor@@@Z
       4115 1012 0019F410 ?fill@QBlitterPaintEngine@@UEAAXAEBVQVectorPath@@AEBVQBrush@@@Z
       4116 1013 00037BE0 ?fill@QImage@@QEAAXAEBVQColor@@@Z
       4117 1014 00038440 ?fill@QImage@@QEAAXI@Z
       4118 1015 00038870 ?fill@QImage@@QEAAXW4GlobalColor@Qt@@@Z
       4119 1016 000A0B50 ?fill@QMatrix4x4@@QEAAXM@Z
       4120 1017 00066A20 ?fill@QPixmap@@QEAAXAEBVQColor@@@Z
       4121 1018 001ACC70 ?fill@QRasterPaintEngine@@UEAAXAEBVQVectorPath@@AEBVQBrush@@@Z
       4122 1019 00069350 ?fill@QRasterPlatformPixmap@@UEAAXAEBVQColor@@@Z
       4123 101A 002226E0 ?fillInPendingGlyphs@QTextureGlyphCache@@QEAAXXZ
       4124 101B 0019F4E0 ?fillPath@QBlitterPaintEngine@@UEAAXAEBVQPainterPath@@PEAUQSpanData@@@Z
       4125 101C 001C7700 ?fillPath@QPainter@@QEAAXAEBVQPainterPath@@AEBVQBrush@@@Z
       4126 101D 001AD090 ?fillPath@QRasterPaintEngine@@UEAAXAEBVQPainterPath@@PEAUQSpanData@@@Z
       4127 101E 0019F570 ?fillPolygon@QBlitterPaintEngine@@UEAAXPEBVQPointF@@HW4PolygonDrawMode@QPaintEngine@@@Z
       4128 101F 001AD280 ?fillPolygon@QRasterPaintEngine@@UEAAXPEBVQPointF@@HW4PolygonDrawMode@QPaintEngine@@@Z
       4129 1020 0019F610 ?fillRect@QBlitterPaintEngine@@UEAAXAEBVQRectF@@AEBVQBrush@@@Z
       4130 1021 0019FDE0 ?fillRect@QBlitterPaintEngine@@UEAAXAEBVQRectF@@AEBVQColor@@@Z
       4131 1022 001B8420 ?fillRect@QPaintEngineEx@@UEAAXAEBVQRectF@@AEBVQBrush@@@Z
       4132 1023 001B8540 ?fillRect@QPaintEngineEx@@UEAAXAEBVQRectF@@AEBVQColor@@@Z
       4133 1024 001C7A40 ?fillRect@QPainter@@QEAAXAEBVQRect@@AEBVQBrush@@@Z
       4134 1025 001C7E60 ?fillRect@QPainter@@QEAAXAEBVQRect@@AEBVQColor@@@Z
       4135 1026 000042F0 ?fillRect@QPainter@@QEAAXAEBVQRect@@W4BrushStyle@Qt@@@Z
       4136 1027 00004350 ?fillRect@QPainter@@QEAAXAEBVQRect@@W4GlobalColor@Qt@@@Z
       4137 1028 000043B0 ?fillRect@QPainter@@QEAAXAEBVQRect@@W4Preset@QGradient@@@Z
       4138 1029 001C7F30 ?fillRect@QPainter@@QEAAXAEBVQRectF@@AEBVQBrush@@@Z
       4139 102A 001C8340 ?fillRect@QPainter@@QEAAXAEBVQRectF@@AEBVQColor@@@Z
       4140 102B 00004440 ?fillRect@QPainter@@QEAAXAEBVQRectF@@W4BrushStyle@Qt@@@Z
       4141 102C 00004480 ?fillRect@QPainter@@QEAAXAEBVQRectF@@W4GlobalColor@Qt@@@Z
       4142 102D 000044E0 ?fillRect@QPainter@@QEAAXAEBVQRectF@@W4Preset@QGradient@@@Z
       4143 102E 00004570 ?fillRect@QPainter@@QEAAXHHHHAEBVQBrush@@@Z
       4144 102F 000045B0 ?fillRect@QPainter@@QEAAXHHHHAEBVQColor@@@Z
       4145 1030 000045F0 ?fillRect@QPainter@@QEAAXHHHHW4BrushStyle@Qt@@@Z
       4146 1031 00004690 ?fillRect@QPainter@@QEAAXHHHHW4GlobalColor@Qt@@@Z
       4147 1032 00004730 ?fillRect@QPainter@@QEAAXHHHHW4Preset@QGradient@@@Z
       4148 1033 001AD5E0 ?fillRect@QRasterPaintEngine@@AEAAXAEBVQRectF@@PEAUQSpanData@@@Z
       4149 1034 001AD9D0 ?fillRect@QRasterPaintEngine@@UEAAXAEBVQRectF@@AEBVQBrush@@@Z
       4150 1035 001ADA60 ?fillRect@QRasterPaintEngine@@UEAAXAEBVQRectF@@AEBVQColor@@@Z
       4151 1036 003375C0 ?fillRowData@QGridLayoutEngine@@AEBAXPEAVQGridLayoutRowData@@PEBN1W4Orientation@Qt@@PEBVQAbstractLayoutStyleInfo@@@Z
       4152 1037 001D3EF0 ?fillRule@QPainterPath@@QEBA?AW4FillRule@Qt@@XZ
       4153 1038 00222B20 ?fillTexture@QImageTextureGlyphCache@@UEAAXAEBUCoord@QTextureGlyphCache@@IAEBUQFixedPoint@@@Z
       4154 1039 000BA3A0 ?filter@QFileDialogOptions@@QEBA?AV?$QFlags@W4Filter@QDir@@@@XZ
       4155 103A 0046FCE0 ?filter@QFileSystemModel@@QEBA?AV?$QFlags@W4Filter@QDir@@@@XZ
       4156 103B 00004BC0 ?filterEvent@QPlatformInputContext@@UEAA_NPEBVQEvent@@@Z
       4157 103C 0058FA10 ?filterRegExp@QPlatformFileDialogHelper@@2QBDB
       4158 103D 000BA3B0 ?filterSelected@QPlatformFileDialogHelper@@QEAAXAEBVQString@@@Z
       4159 103E 0046FCF0 ?filtersAcceptsNode@QFileSystemModelPrivate@@QEBA_NPEBVQFileSystemNode@1@@Z
       4160 103F 0010B2D0 ?finalStop@QLinearGradient@@QEBA?AVQPointF@@XZ
       4161 1040 0006BB70 ?find@QPixmapCache@@SA_NAEBVKey@1@PEAVQPixmap@@@Z
       4162 1041 0006BC70 ?find@QPixmapCache@@SA_NAEBVQString@@PEAVQPixmap@@@Z
       4163 1042 003FCFD0 ?find@QShortcutMap@@AEAA?AW4SequenceMatch@QKeySequence@@PEAVQKeyEvent@@H@Z
       4164 1043 002C0260 ?find@QTextDocument@@QEBA?AVQTextCursor@@AEBVQRegularExpression@@AEBV2@V?$QFlags@W4FindFlag@QTextDocument@@@@@Z
       4165 1044 002C02E0 ?find@QTextDocument@@QEBA?AVQTextCursor@@AEBVQRegularExpression@@HV?$QFlags@W4FindFlag@QTextDocument@@@@@Z
       4166 1045 002C04F0 ?find@QTextDocument@@QEBA?AVQTextCursor@@AEBVQString@@AEBV2@V?$QFlags@W4FindFlag@QTextDocument@@@@@Z
       4167 1046 002C0570 ?find@QTextDocument@@QEBA?AVQTextCursor@@AEBVQString@@HV?$QFlags@W4FindFlag@QTextDocument@@@@@Z
       4168 1047 000389E0 ?find@QTextDocumentPrivate@@QEBA?AVConstIterator@?$QFragmentMap@VQTextFragmentData@@@@H@Z
       4169 1048 002C0770 ?findBlock@QTextDocument@@QEBA?AVQTextBlock@@H@Z
       4170 1049 002C07F0 ?findBlockByLineNumber@QTextDocument@@QEBA?AVQTextBlock@@H@Z
       4171 104A 002C0870 ?findBlockByNumber@QTextDocument@@QEBA?AVQTextBlock@@H@Z
       4172 104B 00076360 ?findBufferChanged@QClipboard@@QEAAXXZ
       4173 104C 0027C650 ?findEngine@QFontCache@@QEAAPEAVQFontEngine@@AEBUKey@1@@Z
       4174 104D 0027C710 ?findEngineData@QFontCache@@QEBAPEAVQFontEngineData@@AEBUQFontDef@@@Z
       4175 104E 0028B0D0 ?findFont@QFontDatabasePrivate@@SAPEAVQFontEngine@@AEBUQFontDef@@H_N@Z
       4176 104F 0001CE00 ?findIconHelper@QIconLoader@@AEBA?AUQThemeIconInfo@@AEBVQString@@0AEAV?$QList@VQString@@@@W4DashRule@1@@Z
       4177 1050 002F5280 ?findItem@QTextEngine@@QEBAHHH@Z
       4178 1051 0034BA10 ?findItems@QStandardItemModel@@QEBA?AV?$QList@PEAVQStandardItem@@@@AEBVQString@@V?$QFlags@W4MatchFlag@Qt@@@@H@Z
       4179 1052 00004800 ?fingerCount@QNativeGestureEvent@@QEBAHXZ
       4180 1053 002418C0 ?finish@QRhi@@QEAA?AW4FrameOpResult@1@XZ
       4181 1054 002CB250 ?finishEdit@QTextDocumentPrivate@@QEAAXXZ
       4182 1055 004018B0 ?finished@QMovie@@QEAAXXZ
       4183 1056 000D0D90 ?firstActiveTarget@QPointingDevicePrivate@@QEBAPEAVQObject@@XZ
       4184 1057 000D0DE0 ?firstActiveWindow@QPointingDevicePrivate@@QEBAPEAVQWindow@@XZ
       4185 1058 002B7220 ?firstBlock@QTextDocument@@QEBA?AVQTextBlock@@XZ
       4186 1059 00005EA0 ?firstColumn@QAccessibleTableModelChangeEvent@@QEBAHXZ
       4187 105A 00338C40 ?firstColumn@QGridLayoutItem@@QEBAHW4Orientation@Qt@@@Z
       4188 105B 00005560 ?firstColumn@QGridLayoutItem@@QEBAHXZ
       4189 105C 00326EF0 ?firstCursorPosition@QTextFrame@@QEBA?AVQTextCursor@@XZ
       4190 105D 0032BC60 ?firstCursorPosition@QTextTableCell@@QEBA?AVQTextCursor@@XZ
       4191 105E 0029BC60 ?firstLeftBearing@QFontEngine@@IEAA?AUQFixed@@AEBUQGlyphLayout@@@Z
       4192 105F 00326F70 ?firstLineNumber@QTextBlock@@QEBAHXZ
       4193 1060 00196430 ?firstPage@QPageRanges@@QEBAHXZ
       4194 1061 000D0E30 ?firstPointExclusiveGrabber@QPointingDevicePrivate@@QEBAPEAVQObject@@XZ
       4195 1062 00326FE0 ?firstPosition@QTextFrame@@QEBAHXZ
       4196 1063 0032BCF0 ?firstPosition@QTextTableCell@@QEBAHXZ
       4197 1064 00006380 ?firstRow@QAccessibleTableModelChangeEvent@@QEBAHXZ
       4198 1065 00338C60 ?firstRow@QGridLayoutItem@@QEBAHW4Orientation@Qt@@@Z
       4199 1066 00006400 ?firstRow@QGridLayoutItem@@QEBAHXZ
       4200 1067 00038A50 ?fix_neg_rect@QPaintEngine@@QEAAXPEAH000@Z
       4201 1068 0027C7E0 ?fixedPitch@QFont@@QEBA_NXZ
       4202 1069 0027C7F0 ?fixedPitch@QFontInfo@@QEBA_NXZ
       4203 106A 003422F0 ?fixup@QDoubleValidator@@UEBAXAEAVQString@@@Z
       4204 106B 00342350 ?fixup@QIntValidator@@UEBAXAEAVQString@@@Z
       4205 106C 000074A0 ?fixup@QValidator@@UEBAXAEAVQString@@@Z
       4206 106D 00470230 ?flags@QFileSystemModel@@UEBA?AV?$QFlags@W4ItemFlag@Qt@@@@AEBVQModelIndex@@@Z
       4207 106E 002A4480 ?flags@QGlyphRun@@QEBA?AV?$QFlags@W4GlyphRunFlag@QGlyphRun@@@@XZ
       4208 106F 000A0B70 ?flags@QMatrix4x4@@QEBA?AV?$QFlags@W4Flag@QMatrix4x4@@@@XZ
       4209 1070 000858C0 ?flags@QMouseEvent@@QEBA?AV?$QFlags@W4MouseEventFlag@Qt@@@@XZ
       4210 1071 000031E0 ?flags@QPaintEngineEx@@UEBAIXZ
       4211 1072 0020BF70 ?flags@QPlatformTextureList@@QEBA?AV?$QFlags@W4Flag@QPlatformTextureList@@@@H@Z
       4212 1073 00103460 ?flags@QRhiComputePipeline@@QEBA?AV?$QFlags@W4Flag@QRhiComputePipeline@@@@XZ
       4213 1074 00103460 ?flags@QRhiGraphicsPipeline@@QEBA?AV?$QFlags@W4Flag@QRhiGraphicsPipeline@@@@XZ
       4214 1075 000A0B70 ?flags@QRhiRenderBuffer@@QEBA?AV?$QFlags@W4Flag@QRhiRenderBuffer@@@@XZ
       4215 1076 00103470 ?flags@QRhiSwapChain@@QEBA?AV?$QFlags@W4Flag@QRhiSwapChain@@@@XZ
       4216 1077 00005B80 ?flags@QRhiTexture@@QEBA?AV?$QFlags@W4Flag@QRhiTexture@@@@XZ
       4217 1078 00103480 ?flags@QRhiTextureRenderTarget@@QEBA?AV?$QFlags@W4Flag@QRhiTextureRenderTarget@@@@XZ
       4218 1079 00004810 ?flags@QShaderVersion@@QEBA?AV?$QFlags@W4Flag@QShaderVersion@@@@XZ
       4219 107A 0034BEE0 ?flags@QStandardItem@@QEBA?AV?$QFlags@W4ItemFlag@Qt@@@@XZ
       4220 107B 0034BF60 ?flags@QStandardItemModel@@UEBA?AV?$QFlags@W4ItemFlag@Qt@@@@AEBVQModelIndex@@@Z
       4221 107C 00004810 ?flags@QTextOption@@QEBA?AV?$QFlags@W4Flag@QTextOption@@@@XZ
       4222 107D 000E1630 ?flags@QWindow@@QEBA?AV?$QFlags@W4WindowType@Qt@@@@XZ
       4223 107E 000F72B0 ?flipCoordinates@QMatrix4x4@@QEAAXXZ
       4224 107F 000FEA30 ?flush@QBackingStore@@QEAAXAEBVQRegion@@PEAVQWindow@@AEBVQPoint@@@Z
       4225 1080 000074A0 ?flush@QPaintDeviceWindowPrivate@@UEAAXAEBVQRegion@@@Z
       4226 1081 000074A0 ?flush@QPlatformBackingStore@@UEAAXPEAVQWindow@@AEBVQRegion@@AEBVQPoint@@@Z
       4227 1082 00753470 ?flushEventMutex@QWindowSystemInterfacePrivate@@2VQMutex@@A
       4228 1083 00360740 ?flushShared@QOpenGLExtensions@@QEAAXXZ
       4229 1084 000EFBB0 ?flushWindowSystemEvents@QWindowSystemInterface@@SA_NV?$QFlags@W4ProcessEventsFlag@QEventLoop@@@@@Z
       4230 1085 0010B2D0 ?focalPoint@QRadialGradient@@QEBA?AVQPointF@@XZ
       4231 1086 000685B0 ?focalRadius@QRadialGradient@@QEBANXZ
       4232 1087 003EB0C0 ?focusChild@QAccessibleApplication@@UEBAPEAVQAccessibleInterface@@XZ
       4233 1088 000031E0 ?focusChild@QAccessibleInterface@@UEBAPEAV1@XZ
       4234 1089 000E15F0 ?focusInEvent@QWindow@@MEAAXPEAVQFocusEvent@@@Z
       4235 108A 000914A0 ?focusObject@QGuiApplication@@SAPEAVQObject@@XZ
       4236 108B 000016C0 ?focusObject@QWindow@@UEBAPEAVQObject@@XZ
       4237 108C 000914C0 ?focusObjectChanged@QGuiApplication@@QEAAXPEAVQObject@@@Z
       4238 108D 000E1680 ?focusObjectChanged@QWindow@@QEAAXPEAVQObject@@@Z
       4239 108E 000E15F0 ?focusOutEvent@QWindow@@MEAAXPEAVQFocusEvent@@@Z
       4240 108F 00091500 ?focusWindow@QGuiApplication@@SAPEAVQWindow@@XZ
       4241 1090 00091510 ?focusWindowChanged@QGuiApplication@@QEAAXPEAVQWindow@@@Z
       4242 1091 00752CC8 ?focus_window@QGuiApplicationPrivate@@2PEAVQWindow@@EA
       4243 1092 003EE340 ?font@QAction@@QEBA?AVQFont@@XZ
       4244 1093 0028C1A0 ?font@QFontDatabase@@SA?AVQFont@@AEBVQString@@0H@Z
       4245 1094 00091550 ?font@QGuiApplication@@SA?AVQFont@@XZ
       4246 1095 001C83C0 ?font@QPaintEngineState@@QEBA?AVQFont@@XZ
       4247 1096 001C83F0 ?font@QPainter@@QEBAAEBVQFont@@XZ
       4248 1097 000031E0 ?font@QPlatformTheme@@UEBAPEBVQFont@@W4Font@1@@Z
       4249 1098 0034C080 ?font@QStandardItem@@QEBA?AVQFont@@XZ
       4250 1099 00305A10 ?font@QTextCharFormat@@QEBA?AVQFont@@XZ
       4251 109A 002F5330 ?font@QTextEngine@@QEBA?AVQFont@@AEBUQScriptItem@@@Z
       4252 109B 00036BD0 ?font@QTextEngine@@QEBA?AVQFont@@XZ
       4253 109C 0019D860 ?font@QTextItem@@QEBA?AVQFont@@XZ
       4254 109D 0031DE70 ?font@QTextLayout@@QEBA?AVQFont@@XZ
       4255 109E 00038A80 ?fontCapitalization@QTextCharFormat@@QEBA?AW4Capitalization@QFont@@XZ
       4256 109F 00091670 ?fontChanged@QGuiApplication@@QEAAXAEBVQFont@@@Z
       4257 10A0 000C1610 ?fontDatabase@QPlatformIntegration@@UEBAPEAVQPlatformFontDatabase@@XZ
       4258 10A1 000916A0 ?fontDatabaseChanged@QGuiApplication@@QEAAXXZ
       4259 10A2 003DC0D0 ?fontDefToLOGFONT@QWindowsFontDatabaseBase@@SA?AUtagLOGFONTW@@AEBUQFontDef@@AEBVQString@@@Z
       4260 10A3 002A5A00 ?fontDir@QPlatformFontDatabase@@UEBA?AVQString@@XZ
       4261 10A4 003D54A0 ?fontDir@QWindowsFontDatabase@@UEBA?AVQString@@XZ
       4262 10A5 002A2280 ?fontDpi@QFontMetrics@@QEBANXZ
       4263 10A6 002A2280 ?fontDpi@QFontMetricsF@@QEBANXZ
       4264 10A7 002A5B80 ?fontEngine@QPlatformFontDatabase@@UEAAPEAVQFontEngine@@AEBUQFontDef@@PEAX@Z
       4265 10A8 002A5BB0 ?fontEngine@QPlatformFontDatabase@@UEAAPEAVQFontEngine@@AEBVQByteArray@@NW4HintingPreference@QFont@@@Z
       4266 10A9 00005B10 ?fontEngine@QStaticTextItem@@QEBAPEAVQFontEngine@@XZ
       4267 10AA 002F5550 ?fontEngine@QTextEngine@@QEBAPEAVQFontEngine@@AEBUQScriptItem@@PEAUQFixed@@11@Z
       4268 10AB 004597D0 ?fontEngine@QWindowsDirectWriteFontDatabase@@UEAAPEAVQFontEngine@@AEBUQFontDef@@PEAX@Z
       4269 10AC 00459CB0 ?fontEngine@QWindowsDirectWriteFontDatabase@@UEAAPEAVQFontEngine@@AEBVQByteArray@@NW4HintingPreference@QFont@@@Z
       4270 10AD 003D5530 ?fontEngine@QWindowsFontDatabase@@UEAAPEAVQFontEngine@@AEBUQFontDef@@PEAX@Z
       4271 10AE 003D56B0 ?fontEngine@QWindowsFontDatabase@@UEAAPEAVQFontEngine@@AEBVQByteArray@@NW4HintingPreference@QFont@@@Z
       4272 10AF 003DC420 ?fontEngine@QWindowsFontDatabaseBase@@UEAAPEAVQFontEngine@@AEBUQFontDef@@PEAX@Z
       4273 10B0 003DC430 ?fontEngine@QWindowsFontDatabaseBase@@UEAAPEAVQFontEngine@@AEBVQByteArray@@NW4HintingPreference@QFont@@@Z
       4274 10B1 003D60D0 ?fontEngineData@QWindowsFontEngineDirectWrite@@QEBAAEBV?$QSharedPointer@VQWindowsFontEngineData@@@@XZ
       4275 10B2 002A5BE0 ?fontEngineMulti@QPlatformFontDatabase@@UEAAPEAVQFontEngineMulti@@PEAVQFontEngine@@W4Script@QChar@@@Z
       4276 10B3 00038A90 ?fontFamilies@QTextCharFormat@@QEBA?AVQVariant@@XZ
       4277 10B4 00038AB0 ?fontFamily@QTextCharFormat@@QEBA?AVQString@@XZ
       4278 10B5 00038BA0 ?fontFixedPitch@QTextCharFormat@@QEBA_NXZ
       4279 10B6 00038BB0 ?fontHintingPreference@QTextCharFormat@@QEBA?AW4HintingPreference@QFont@@XZ
       4280 10B7 001C8450 ?fontInfo@QPainter@@QEBA?AVQFontInfo@@XZ
       4281 10B8 00038BC0 ?fontItalic@QTextCharFormat@@QEBA_NXZ
       4282 10B9 00038BD0 ?fontKerning@QTextCharFormat@@QEBA_NXZ
       4283 10BA 00038BE0 ?fontLetterSpacing@QTextCharFormat@@QEBANXZ
       4284 10BB 00038BF0 ?fontLetterSpacingType@QTextCharFormat@@QEBA?AW4SpacingType@QFont@@XZ
       4285 10BC 001C84D0 ?fontMetrics@QPainter@@QEBA?AVQFontMetrics@@XZ
       4286 10BD 00455080 ?fontNameSubstitute@QWindowsFontEngineDirectWrite@@SA?AVQString@@AEBV2@@Z
       4287 10BE 003D60E0 ?fontOptions@QWindowsFontDatabase@@SAIXZ
       4288 10BF 00038C00 ?fontOverline@QTextCharFormat@@QEBA_NXZ
       4289 10C0 00038C10 ?fontPointSize@QTextCharFormat@@QEBANXZ
       4290 10C1 000BA3E0 ?fontSelected@QPlatformFontDialogHelper@@QEAAXAEBVQFont@@@Z
       4291 10C2 000D80C0 ?fontSmoothingGamma@QStyleHints@@QEBANXZ
       4292 10C3 003D60F0 ?fontSmoothingGamma@QWindowsFontDatabase@@SANXZ
       4293 10C4 00038C20 ?fontStretch@QTextCharFormat@@QEBAHXZ
       4294 10C5 00038C30 ?fontStrikeOut@QTextCharFormat@@QEBA_NXZ
       4295 10C6 00038C40 ?fontStyleHint@QTextCharFormat@@QEBA?AW4StyleHint@QFont@@XZ
       4296 10C7 00038C50 ?fontStyleName@QTextCharFormat@@QEBA?AVQVariant@@XZ
       4297 10C8 00038C70 ?fontStyleStrategy@QTextCharFormat@@QEBA?AW4StyleStrategy@QFont@@XZ
       4298 10C9 002A71A0 ?fontTable@QRawFont@@QEBA?AVQByteArray@@PEBD@Z
       4299 10CA 002A7230 ?fontTable@QRawFont@@QEBA?AVQByteArray@@UTag@QFont@@@Z
       4300 10CB 00305AA0 ?fontUnderline@QTextCharFormat@@QEBA_NXZ
       4301 10CC 00038C80 ?fontWeight@QTextCharFormat@@QEBAHXZ
       4302 10CD 00038CC0 ?fontWordSpacing@QTextCharFormat@@QEBANXZ
       4303 10CE 00004BC0 ?fontsAlwaysScalable@QPlatformFontDatabase@@UEBA_NXZ
       4304 10CF 00004BC0 ?fontsAlwaysScalable@QWindowsFontDatabase@@UEBA_NXZ
       4305 10D0 00038CD0 ?forceOpen@QStroker@@QEBA_NXZ
       4306 10D1 0034C1C0 ?foreground@QStandardItem@@QEBA?AVQBrush@@XZ
       4307 10D2 00038CE0 ?foreground@QTextFormat@@QEBA?AVQBrush@@XZ
       4308 10D3 003E3890 ?foregroundColor@QAccessibleInterface@@UEBA?AVQColor@@XZ
       4309 10D4 002658A0 ?format@QAbstractTextDocumentLayout@@IEAA?AVQTextCharFormat@@H@Z
       4310 10D5 00038D00 ?format@QImage@@QEBA?AW4Format@1@XZ
       4311 10D6 000551C0 ?format@QImageIOHandler@@QEBA?AVQByteArray@@XZ
       4312 10D7 00057BF0 ?format@QImageReader@@QEBA?AVQByteArray@@XZ
       4313 10D8 0005DD60 ?format@QImageWriter@@QEBA?AVQByteArray@@XZ
       4314 10D9 004018D0 ?format@QMovie@@QEBA?AVQByteArray@@XZ
       4315 10DA 000AD300 ?format@QOffscreenSurface@@UEBA?AVQSurfaceFormat@@XZ
       4316 10DB 00356FD0 ?format@QOpenGLContext@@QEBA?AVQSurfaceFormat@@XZ
       4317 10DC 00078AF0 ?format@QPlatformGraphicsBuffer@@QEBA?AVQPixelFormat@@XZ
       4318 10DD 000C3070 ?format@QPlatformOffscreenSurface@@UEBA?AVQSurfaceFormat@@XZ
       4319 10DE 000063E0 ?format@QPlatformPlaceholderScreen@@UEBA?AW4Format@QImage@@XZ
       4320 10DF 000C3070 ?format@QPlatformWindow@@UEBA?AVQSurfaceFormat@@XZ
       4321 10E0 00039560 ?format@QRhiSwapChain@@QEBA?AW4Format@1@XZ
       4322 10E1 00004970 ?format@QRhiTexture@@QEBA?AW4Format@1@XZ
       4323 10E2 00005560 ?format@QRhiVertexInputAttribute@@QEBA?AW4Format@1@XZ
       4324 10E3 002ABD40 ?format@QSyntaxHighlighter@@IEBA?AVQTextCharFormat@@H@Z
       4325 10E4 0005DD60 ?format@QTextDocumentWriter@@QEBA?AVQByteArray@@XZ
       4326 10E5 002F5AB0 ?format@QTextEngine@@QEBA?AVQTextCharFormat@@PEBUQScriptItem@@@Z
       4327 10E6 00305B00 ?format@QTextFormatCollection@@QEBA?AVQTextFormat@@H@Z
       4328 10E7 0031DEA0 ?format@QTextInlineObject@@QEBA?AVQTextFormat@@XZ
       4329 10E8 00038EC0 ?format@QTextList@@QEBA?AVQTextListFormat@@XZ
       4330 10E9 00327040 ?format@QTextObject@@QEBA?AVQTextFormat@@XZ
       4331 10EA 00038EC0 ?format@QTextTable@@QEBA?AVQTextTableFormat@@XZ
       4332 10EB 0032BD50 ?format@QTextTableCell@@QEBA?AVQTextCharFormat@@XZ
       4333 10EC 000E16C0 ?format@QWindow@@UEBA?AVQSurfaceFormat@@XZ
       4334 10ED 00265960 ?formatAt@QAbstractTextDocumentLayout@@QEBA?AVQTextFormat@@AEBVQPointF@@@Z
       4335 10EE 00038D10 ?formatCollection@QTextDocumentPrivate@@QEAAPEAVQTextFormatCollection@@XZ
       4336 10EF 00038D10 ?formatCollection@QTextDocumentPrivate@@QEBAPEBVQTextFormatCollection@@XZ
       4337 10F0 00038D20 ?formatCollection@QTextEngine@@QEBAPEAVQTextFormatCollection@@XZ
       4338 10F1 00265B60 ?formatIndex@QAbstractTextDocumentLayout@@IEAAHH@Z
       4339 10F2 002F5B40 ?formatIndex@QTextEngine@@QEBAHPEBUQScriptItem@@@Z
       4340 10F3 0031DF30 ?formatIndex@QTextInlineObject@@QEBAHXZ
       4341 10F4 00327090 ?formatIndex@QTextObject@@QEBAHXZ
       4342 10F5 000CD240 ?formatWindowTitle@QPlatformWindow@@KA?AVQString@@AEBV2@0@Z
       4343 10F6 000AA8C0 ?formats@QInternalMimeData@@UEBA?AV?$QList@VQString@@@@XZ
       4344 10F7 00038D50 ?formats@QTextEngine@@QEBA?AV?$QList@UFormatRange@QTextLayout@@@@XZ
       4345 10F8 0031DF90 ?formats@QTextLayout@@QEBA?AV?$QList@UFormatRange@QTextLayout@@@@XZ
       4346 10F9 000AAAC0 ?formatsHelper@QInternalMimeData@@SA?AV?$QList@VQString@@@@PEBVQMimeData@@@Z
       4347 10FA 000E1710 ?forwardToPopup@QWindowPrivate@@QEAAPEBVQWindow@@PEAVQEvent@@PEBV2@@Z
       4348 10FB 0028C610 ?foundry@QtFontFamily@@QEAAPEAUQtFontFoundry@@AEBVQString@@_N@Z
       4349 10FC 003270B0 ?fragment@iterator@QTextBlock@@QEBA?AVQTextFragment@@XZ
       4350 10FD 00005560 ?fragmentIndex@QTextBlock@@QEBAHXZ
       4351 10FE 00038EB0 ?fragmentMap@QTextDocumentPrivate@@QEAAAEAV?$QFragmentMap@VQTextFragmentData@@@@XZ
       4352 10FF 00038EB0 ?fragmentMap@QTextDocumentPrivate@@QEBAAEBV?$QFragmentMap@VQTextFragmentData@@@@XZ
       4353 1100 002C1310 ?frameAt@QTextDocument@@QEBAPEAVQTextFrame@@H@Z
       4354 1101 002CB5D0 ?frameAt@QTextDocumentPrivate@@QEBAPEAVQTextFrame@@H@Z
       4355 1102 002E1D80 ?frameBoundingRect@QTextDocumentLayout@@UEBA?AVQRectF@@PEAVQTextFrame@@@Z
       4356 1103 004018F0 ?frameChanged@QMovie@@QEAAXH@Z
       4357 1104 00401930 ?frameCount@QMovie@@QEBAHXZ
       4358 1105 00038EC0 ?frameFormat@QTextFrame@@QEBA?AVQTextFrameFormat@@XZ
       4359 1106 000E1C70 ?frameGeometry@QWindow@@QEBA?AVQRect@@XZ
       4360 1107 000CD2F0 ?frameMargins@QPlatformWindow@@UEBA?AVQMargins@@XZ
       4361 1108 000E1E80 ?frameMargins@QWindow@@QEBA?AVQMargins@@XZ
       4362 1109 000E1FB0 ?framePosition@QWindow@@QEBA?AVQPoint@@XZ
       4363 110A 000D5720 ?frameRect@QMovie@@QEBA?AVQRect@@XZ
       4364 110B 00004BC0 ?frameStrutEventsEnabled@QPlatformWindow@@UEBA_NXZ
       4365 110C 00357020 ?free@QOpenGLSharedResource@@QEAAXXZ
       4366 110D 002F5CA0 ?freeMemory@QTextEngine@@QEAAXXZ
       4367 110E 000074A0 ?freeResource@QOpenGLProgramBinarySupportCheck@@UEAAXPEAVQOpenGLContext@@@Z
       4368 110F 00357270 ?freeResource@QOpenGLSharedResourceGuard@@MEAAXPEAVQOpenGLContext@@@Z
       4369 1110 000016C0 ?from@QMutableSinglePointEvent@@SAAEAV1@AEAVQSinglePointEvent@@@Z
       4370 1111 000016C0 ?from@QMutableSinglePointEvent@@SAPEAV1@PEAVQSinglePointEvent@@@Z
       4371 1112 000016C0 ?from@QMutableTouchEvent@@SAAEAV1@AEAVQTouchEvent@@@Z
       4372 1113 000016C0 ?from@QMutableTouchEvent@@SAPEAV1@PEAVQTouchEvent@@@Z
       4373 1114 000FB970 ?fromAxes@QQuaternion@@SA?AV1@AEBVQVector3D@@00@Z
       4374 1115 000FB9F0 ?fromAxisAndAngle@QQuaternion@@SA?AV1@AEBVQVector3D@@M@Z
       4375 1116 000FBBD0 ?fromAxisAndAngle@QQuaternion@@SA?AV1@MMMM@Z
       4376 1117 00124E90 ?fromCmyk@QColor@@SA?AV1@HHHHH@Z
       4377 1118 00124F70 ?fromCmykF@QColor@@SA?AV1@MMMMM@Z
       4378 1119 0035D4F0 ?fromContext@Gpu@QOpenGLConfig@@SA?AU12@XZ
       4379 111A 0000B9D0 ?fromData@QBitmap@@SA?AV1@AEBVQSize@@PEBEW4Format@QImage@@@Z
       4380 111B 00004820 ?fromData@QImage@@SA?AV1@AEBVQByteArray@@PEBD@Z
       4381 111C 00038F00 ?fromData@QImage@@SA?AV1@PEBEHPEBD@Z
       4382 111D 00038FC0 ?fromData@QImage@@SA?AV1@VQByteArrayView@@PEBD@Z
       4383 111E 0006E2C0 ?fromData@QPlatformPixmap@@UEAA_NPEBEIPEBDV?$QFlags@W4ImageConversionFlag@Qt@@@@@Z
       4384 111F 000695A0 ?fromData@QRasterPlatformPixmap@@UEAA_NPEBEIPEBDV?$QFlags@W4ImageConversionFlag@Qt@@@@@Z
       4385 1120 001E6F70 ?fromDevice@Gpu@QOpenGLConfig@@SA?AU12@IIVQVersionNumber@@AEBVQByteArray@@@Z
       4386 1121 000FBD60 ?fromDirection@QQuaternion@@SA?AV1@AEBVQVector3D@@0@Z
       4387 1122 000A0B80 ?fromEulerAngles@QQuaternion@@SA?AV1@AEBVQVector3D@@@Z
       4388 1123 000FC0A0 ?fromEulerAngles@QQuaternion@@SA?AV1@MMM@Z
       4389 1124 0006E420 ?fromFile@QPlatformPixmap@@UEAA_NAEBVQString@@PEBDV?$QFlags@W4ImageConversionFlag@Qt@@@@@Z
       4390 1125 002A7270 ?fromFont@QRawFont@@SA?AV1@AEBVQFont@@W4WritingSystem@QFontDatabase@@@Z
       4391 1126 001E70D0 ?fromGLVendor@Gpu@QOpenGLConfig@@SA?AU12@AEBVQByteArray@@@Z
       4392 1127 00148D10 ?fromGamma@QColorTrcLut@@SA?AV?$shared_ptr@VQColorTrcLut@@@std@@MW4Direction@1@@Z
       4393 1128 00382830 ?fromHBITMAP@QImage@@SA?AV1@PEAUHBITMAP__@@@Z
       4394 1129 00382850 ?fromHICON@QImage@@SA?AV1@PEAUHICON__@@@Z
       4395 112A 00218C90 ?fromHRGN@QRegion@@SA?AV1@PEAUHRGN__@@@Z
       4396 112B 00125100 ?fromHsl@QColor@@SA?AV1@HHHH@Z
       4397 112C 00125210 ?fromHslF@QColor@@SA?AV1@MMMM@Z
       4398 112D 00125390 ?fromHsv@QColor@@SA?AV1@HHHH@Z
       4399 112E 001254A0 ?fromHsvF@QColor@@SA?AV1@MMMM@Z
       4400 112F 002D4360 ?fromHtml@QTextDocumentFragment@@SA?AV1@AEBVQString@@PEBVQTextDocument@@@Z
       4401 1130 00130380 ?fromIccProfile@QColorSpace@@SA?AV1@AEBVQByteArray@@@Z
       4402 1131 000A6E80 ?fromId@QInputDevicePrivate@@SAPEBVQInputDevice@@_J@Z
       4403 1132 0000BBB0 ?fromImage@QBitmap@@SA?AV1@$$QEAVQImage@@V?$QFlags@W4ImageConversionFlag@Qt@@@@@Z
       4404 1133 0000BC90 ?fromImage@QBitmap@@SA?AV1@AEBVQImage@@V?$QFlags@W4ImageConversionFlag@Qt@@@@@Z
       4405 1134 00068940 ?fromImage@QBlittablePlatformPixmap@@UEAAXAEBVQImage@@V?$QFlags@W4ImageConversionFlag@Qt@@@@@Z
       4406 1135 00004880 ?fromImage@QPixmap@@SA?AV1@$$QEAVQImage@@V?$QFlags@W4ImageConversionFlag@Qt@@@@@Z
       4407 1136 00066B90 ?fromImage@QPixmap@@SA?AV1@AEBVQImage@@V?$QFlags@W4ImageConversionFlag@Qt@@@@@Z
       4408 1137 000696C0 ?fromImage@QRasterPlatformPixmap@@UEAAXAEBVQImage@@V?$QFlags@W4ImageConversionFlag@Qt@@@@@Z
       4409 1138 00066C80 ?fromImageInPlace@QPixmap@@KA?AV1@AEAVQImage@@V?$QFlags@W4ImageConversionFlag@Qt@@@@@Z
       4410 1139 000063F0 ?fromImageInPlace@QPlatformPixmap@@UEAAXAEAVQImage@@V?$QFlags@W4ImageConversionFlag@Qt@@@@@Z
       4411 113A 00069730 ?fromImageInPlace@QRasterPlatformPixmap@@UEAAXAEAVQImage@@V?$QFlags@W4ImageConversionFlag@Qt@@@@@Z
       4412 113B 00066D70 ?fromImageReader@QPixmap@@SA?AV1@PEAVQImageReader@@V?$QFlags@W4ImageConversionFlag@Qt@@@@@Z
       4413 113C 0006E520 ?fromImageReader@QPlatformPixmap@@UEAAXPEAVQImageReader@@V?$QFlags@W4ImageConversionFlag@Qt@@@@@Z
       4414 113D 00069790 ?fromImageReader@QRasterPlatformPixmap@@UEAAXPEAVQImageReader@@V?$QFlags@W4ImageConversionFlag@Qt@@@@@Z
       4415 113E 00039080 ?fromLinear64@QColorTrcLut@@QEBAIVQRgba64@@@Z
       4416 113F 000390F0 ?fromLinear@QColorTrcLut@@QEBA?AVQRgba64@@V2@@Z
       4417 1140 00039160 ?fromLinear@QColorTrcLut@@QEBAII@Z
       4418 1141 000391C0 ?fromLinear@QColorTrcLut@@QEBAMM@Z
       4419 1142 002D4410 ?fromMarkdown@QTextDocumentFragment@@SA?AV1@AEBVQString@@V?$QFlags@W4MarkdownFeature@QTextDocument@@@@@Z
       4420 1143 00384530 ?fromNative@QWGLContext@QNativeInterface@@SAPEAVQOpenGLContext@@PEAUHGLRC__@@PEAUHWND__@@PEAV3@@Z
       4421 1144 000EFEC0 ?fromNativeTouchPoints@QWindowSystemInterfacePrivate@@SA?AV?$QList@VQEventPoint@@@@AEBV?$QList@UTouchPoint@QWindowSystemInterface@@@@PEBVQWindow@@PEAW4Type@QEvent@@@Z
       4422 1145 000278C0 ?fromNumericId@QPointingDeviceUniqueId@@SA?AV1@_J@Z
       4423 1146 0000BD30 ?fromPixmap@QBitmap@@SA?AV1@AEBVQPixmap@@@Z
       4424 1147 002D44C0 ?fromPlainText@QTextDocumentFragment@@SA?AV1@AEBVQString@@@Z
       4425 1148 0010A710 ?fromPoints@QBezier@@SA?AV1@AEBVQPointF@@000@Z
       4426 1149 002ACF30 ?fromPosition@QTextCursorPrivate@@SA?AVQTextCursor@@PEAVQTextDocumentPrivate@@H@Z
       4427 114A 00125610 ?fromRgb@QColor@@SA?AV1@HHHH@Z
       4428 114B 001256E0 ?fromRgb@QColor@@SA?AV1@I@Z
       4429 114C 00125750 ?fromRgbF@QColor@@SA?AV1@MMMM@Z
       4430 114D 00125A60 ?fromRgba64@QColor@@SA?AV1@GGGG@Z
       4431 114E 00123CA0 ?fromRgba64@QColor@@SA?AV1@VQRgba64@@@Z
       4432 114F 00125AD0 ?fromRgba@QColor@@SA?AV1@I@Z
       4433 1150 000FC1F0 ?fromRotationMatrix@QQuaternion@@SA?AV1@AEBV?$QGenericMatrix@$02$02M@@@Z
       4434 1151 00225A30 ?fromScale@QTransform@@SA?AV1@NN@Z
       4435 1152 00252600 ?fromSerialized@QShader@@SA?AV1@AEBVQByteArray@@@Z
       4436 1153 00125B40 ?fromString@QColor@@SA?AV1@VQAnyStringView@@@Z
       4437 1154 0027C990 ?fromString@QFont@@QEAA_NAEBVQString@@@Z
       4438 1155 003F6B50 ?fromString@QKeySequence@@SA?AV1@AEBVQString@@W4SequenceFormat@1@@Z
       4439 1156 00196450 ?fromString@QPageRanges@@SA?AV1@AEBVQString@@@Z
       4440 1157 0027CF00 ?fromString@Tag@QFont@@SA?AV?$optional@UTag@QFont@@@std@@VQAnyStringView@@@Z
       4441 1158 00014350 ?fromTheme@QIcon@@SA?AV1@AEBVQString@@@Z
       4442 1159 000144E0 ?fromTheme@QIcon@@SA?AV1@AEBVQString@@AEBV1@@Z
       4443 115A 00014620 ?fromTheme@QIcon@@SA?AV1@W4ThemeIcon@1@@Z
       4444 115B 000146A0 ?fromTheme@QIcon@@SA?AV1@W4ThemeIcon@1@AEBV1@@Z
       4445 115C 00225AA0 ?fromTranslate@QTransform@@SA?AV1@NN@Z
       4446 115D 00148D90 ?fromTrc@QColorTrcLut@@SA?AV?$shared_ptr@VQColorTrcLut@@@std@@AEBVQColorTrc@@W4Direction@1@@Z
       4447 115E 000E21B0 ?fromWinId@QWindow@@SAPEAV1@_K@Z
       4448 115F 00039560 ?frontFace@QRhiGraphicsPipeline@@QEBA?AW4FrontFace@1@XZ
       4449 1160 000F7310 ?frustum@QMatrix4x4@@QEAAXMMMMMM@Z
       4450 1161 00241B50 ?fullDynamicBufferUpdateForCurrentFrame@QRhiBuffer@@UEAAXPEBXI@Z
       4451 1162 00192E00 ?fullRect@QPageLayout@@QEBA?AVQRectF@@W4Unit@1@@Z
       4452 1163 00192F10 ?fullRect@QPageLayout@@QEBA?AVQRectF@@XZ
       4453 1164 00192FA0 ?fullRectPixels@QPageLayout@@QEBA?AVQRect@@H@Z
       4454 1165 00193080 ?fullRectPoints@QPageLayout@@QEBA?AVQRect@@XZ
       4455 1166 000393F0 ?fun@QColorTrc@@QEBAAEBVQColorTransferFunction@@XZ
       4456 1167 003572B0 ?functions@QOpenGLContext@@QEBAPEAVQOpenGLFunctions@@XZ
       4457 1168 001304A0 ?gamma@QColorSpace@@QEBAMXZ
       4458 1169 00241BB0 ?generateMips@QRhiResourceUpdateBatch@@QEAAXPEAVQRhiTexture@@@Z
       4459 116A 00752DA8 ?generic_plugin_list@QGuiApplicationPrivate@@2V?$QList@PEAVQObject@@@@A
       4460 116B 00006310 ?geometry@QPlatformPlaceholderScreen@@UEBA?AVQRect@@XZ
       4461 116C 0020BF90 ?geometry@QPlatformTextureList@@QEBA?AVQRect@@H@Z
       4462 116D 000CD300 ?geometry@QPlatformWindow@@UEBA?AVQRect@@XZ
       4463 116E 000D5720 ?geometry@QScreen@@QEBA?AVQRect@@XZ
       4464 116F 000E2320 ?geometry@QWindow@@QEBA?AVQRect@@XZ
       4465 1170 000D5740 ?geometryChanged@QScreen@@QEAAXAEBVQRect@@@Z
       4466 1171 00338C70 ?geometryWithin@QGridLayoutItem@@QEBA?AVQRectF@@NNNNNV?$QFlags@W4AlignmentFlag@Qt@@@@_N@Z
       4467 1172 000048A0 ?gestureType@QNativeGestureEvent@@QEBA?AW4NativeGestureType@Qt@@XZ
       4468 1173 000030F0 ?get@QAbstractTextDocumentLayoutPrivate@@SAPEAV1@PEAVQAbstractTextDocumentLayout@@@Z
       4469 1174 000030F0 ?get@QActionPrivate@@SAPEAV1@PEAVQAction@@@Z
       4470 1175 00003100 ?get@QFontPrivate@@SAPEAV1@AEBVQFont@@@Z
       4471 1176 00002C80 ?get@QImageData@@SAPEAU1@AEAVQImage@@@Z
       4472 1177 00002C80 ?get@QImageData@@SAPEBU1@AEBVQImage@@@Z
       4473 1178 000030F0 ?get@QInputDeviceManagerPrivate@@SAPEAV1@PEAVQInputDeviceManager@@@Z
       4474 1179 0007B1D0 ?get@QInputDevicePrivate@@SAPEAV1@PEAVQInputDevice@@@Z
       4475 117A 0007B1E0 ?get@QInputDevicePrivate@@SAPEBV1@PEBVQInputDevice@@@Z
       4476 117B 00091840 ?get@QOffscreenSurfacePrivate@@SAPEAV1@PEAVQOffscreenSurface@@@Z
       4477 117C 00091840 ?get@QOpenGLContextPrivate@@SAPEAV1@PEAVQOpenGLContext@@@Z
       4478 117D 00002C80 ?get@QPagedPaintDevicePrivate@@SAPEAV1@PEAVQPagedPaintDevice@@@Z
       4479 117E 00002CF0 ?get@QPaintEnginePrivate@@SAPEAV1@PEAVQPaintEngine@@@Z
       4480 117F 0007B1D0 ?get@QPointingDevicePrivate@@SAPEAV1@PEAVQPointingDevice@@@Z
       4481 1180 0007B1E0 ?get@QPointingDevicePrivate@@SAPEBV1@PEBVQPointingDevice@@@Z
       4482 1181 00003100 ?get@QRawFontPrivate@@SAPEAV1@AEBVQRawFont@@@Z
       4483 1182 00003100 ?get@QShaderDescriptionPrivate@@SAPEAU1@PEAVQShaderDescription@@@Z
       4484 1183 00003100 ?get@QShaderDescriptionPrivate@@SAPEBU1@PEBVQShaderDescription@@@Z
       4485 1184 00003100 ?get@QShaderPrivate@@SAPEAU1@PEAVQShader@@@Z
       4486 1185 00003100 ?get@QShaderPrivate@@SAPEBU1@PEBVQShader@@@Z
       4487 1186 00003100 ?get@QTextDocumentPrivate@@SAPEAV1@AEAVQTextBlock@@@Z
       4488 1187 000030F0 ?get@QTextDocumentPrivate@@SAPEAV1@PEAVQTextDocument@@@Z
       4489 1188 00039400 ?get@QTextDocumentPrivate@@SAPEAV1@PEAVQTextObject@@@Z
       4490 1189 00003100 ?get@QTextDocumentPrivate@@SAPEBV1@AEBVQTextBlock@@@Z
       4491 118A 000030F0 ?get@QTextDocumentPrivate@@SAPEBV1@PEBVQTextDocument@@@Z
       4492 118B 00039400 ?get@QTextDocumentPrivate@@SAPEBV1@PEBVQTextObject@@@Z
       4493 118C 000030F0 ?get@QWindowPrivate@@SAPEAV1@PEAVQWindow@@@Z
       4494 118D 000FC3D0 ?getAxes@QQuaternion@@QEBAXPEAVQVector3D@@00@Z
       4495 118E 000FC540 ?getAxisAndAngle@QQuaternion@@QEBAXPEAM000@Z
       4496 118F 000A0BB0 ?getAxisAndAngle@QQuaternion@@QEBAXPEAVQVector3D@@PEAM@Z
       4497 1190 0029BE10 ?getCMap@QFontEngine@@SAPEBEPEBEIPEA_NPEAH@Z
       4498 1191 002F6EE0 ?getClusterLength@QTextEngine@@AEAAHPEAGPEBUQCharAttributes@@HHHPEAH@Z
       4499 1192 00125D50 ?getCmyk@QColor@@QEBAXPEAH0000@Z
       4500 1193 00125E50 ?getCmykF@QColor@@QEBAXPEAM0000@Z
       4501 1194 001AF6C0 ?getDC@QRasterPaintEngine@@QEBAPEAUHDC__@@XZ
       4502 1195 0033F1B0 ?getDataView@QTextureFileData@@QEBA?AVQByteArrayView@@HH@Z
       4503 1196 0019B3C0 ?getDecodedMetricF@QPaintDevice@@IEBANW4PaintDeviceMetric@1@0@Z
       4504 1197 000FC670 ?getEulerAngles@QQuaternion@@QEBAXPEAM00@Z
       4505 1198 00464D90 ?getFileInfos@QFileInfoGatherer@@AEAAXAEBVQString@@AEBV?$QList@VQString@@@@@Z
       4506 1199 0000A010 ?getFileType@QAbstractFileIconProviderPrivate@@SA?AVQString@@AEBVQFileInfo@@@Z
       4507 119A 0029C0A0 ?getGlyphBearings@QFontEngine@@UEAAXIPEAN0@Z
       4508 119B 0029C140 ?getGlyphBearings@QFontEngineMulti@@UEAAXIPEAN0@Z
       4509 119C 0029C1C0 ?getGlyphPositions@QFontEngine@@QEAAXAEBUQGlyphLayout@@AEBVQTransform@@V?$QFlags@W4RenderFlag@QTextItem@@@@AEAV?$QVarLengthArray@I$0BAA@@@AEAV?$QVarLengthArray@UQFixedPoint@@$0BAA@@@@Z
       4510 119D 00125F50 ?getHsl@QColor@@QEBAXPEAH000@Z
       4511 119E 00126030 ?getHslF@QColor@@QEBAXPEAM000@Z
       4512 119F 00126120 ?getHsv@QColor@@QEBAXPEAH000@Z
       4513 11A0 00126200 ?getHsvF@QColor@@QEBAXPEAM000@Z
       4514 11A1 0000A1A0 ?getIconThemeIcon@QAbstractFileIconProviderPrivate@@QEBA?AVQIcon@@AEBVQFileInfo@@@Z
       4515 11A2 0000A290 ?getIconThemeIcon@QAbstractFileIconProviderPrivate@@QEBA?AVQIcon@@W4IconType@QAbstractFileIconProvider@@@Z
       4516 11A3 00465A30 ?getInfo@QFileInfoGatherer@@QEBA?AVQExtendedInformation@@AEBVQFileInfo@@@Z
       4517 11A4 000F0270 ?getNonUserInputWindowSystemEvent@QWindowSystemInterfacePrivate@@SAPEAVWindowSystemEvent@1@XZ
       4518 11A5 00091850 ?getPixmapCursor@QGuiApplicationPrivate@@QEAA?AVQPixmap@@W4CursorShape@Qt@@@Z
       4519 11A6 0000A380 ?getPlatformThemeIcon@QAbstractFileIconProviderPrivate@@QEBA?AVQIcon@@AEBVQFileInfo@@@Z
       4520 11A7 0000A480 ?getPlatformThemeIcon@QAbstractFileIconProviderPrivate@@QEBA?AVQIcon@@W4IconType@QAbstractFileIconProvider@@@Z
       4521 11A8 0029C8A0 ?getPointInOutline@QFontEngine@@UEAAHIHIPEAUQFixed@@0PEAI@Z
       4522 11A9 002AEED0 ?getPrivate@QTextCursorPrivate@@SAPEAV1@PEAVQTextCursor@@@Z
       4523 11AA 003573C0 ?getProcAddress@QOpenGLContext@@QEBAP6AXXZAEBVQByteArray@@@Z
       4524 11AB 00357400 ?getProcAddress@QOpenGLContext@@QEBAP6AXXZPEBD@Z
       4525 11AC 001262F0 ?getRgb@QColor@@QEBAXPEAH000@Z
       4526 11AD 001263C0 ?getRgbF@QColor@@QEBAXPEAM000@Z
       4527 11AE 0029C8B0 ?getSfntTable@QFontEngine@@QEBA?AVQByteArray@@I@Z
       4528 11AF 00004BC0 ?getSfntTableData@QFontEngine@@UEBA_NIPEAEPEAI@Z
       4529 11B0 00455150 ?getSfntTableData@QWindowsFontEngineDirectWrite@@UEBA_NIPEAEPEAI@Z
       4530 11B1 0010A760 ?getSubRange@QBezier@@QEBA?AV1@NN@Z
       4531 11B2 0029C980 ?getTrueTypeGlyphIndex@QFontEngine@@SAIPEBEHI@Z
       4532 11B3 0029CCF0 ?getUnscaledGlyph@QFontEngine@@UEAAXIPEAVQPainterPath@@PEAUglyph_metrics_t@@@Z
       4533 11B4 00455230 ?getUnscaledGlyph@QWindowsFontEngineDirectWrite@@UEAAXIPEAVQPainterPath@@PEAUglyph_metrics_t@@@Z
       4534 11B5 000F03B0 ?getWindowSystemEvent@QWindowSystemInterfacePrivate@@SAPEAVWindowSystemEvent@1@XZ
       4535 11B6 00357430 ?glActiveShaderProgram@QOpenGLExtraFunctions@@QEAAXII@Z
       4536 11B7 000BD130 ?glActiveTexture@QOpenGLFunctions@@QEAAXI@Z
       4537 11B8 000BD150 ?glAttachShader@QOpenGLFunctions@@QEAAXII@Z
       4538 11B9 0033F2F0 ?glBaseInternalFormat@QTextureFileData@@QEBAIXZ
       4539 11BA 00357450 ?glBeginQuery@QOpenGLExtraFunctions@@QEAAXII@Z
       4540 11BB 00357470 ?glBeginTransformFeedback@QOpenGLExtraFunctions@@QEAAXI@Z
       4541 11BC 000BD170 ?glBindAttribLocation@QOpenGLFunctions@@QEAAXIIPEBD@Z
       4542 11BD 000BD190 ?glBindBuffer@QOpenGLFunctions@@QEAAXII@Z
       4543 11BE 00357490 ?glBindBufferBase@QOpenGLExtraFunctions@@QEAAXIII@Z
       4544 11BF 003574B0 ?glBindBufferRange@QOpenGLExtraFunctions@@QEAAXIII_J0@Z
       4545 11C0 000BD1B0 ?glBindFramebuffer@QOpenGLFunctions@@QEAAXII@Z
       4546 11C1 003574F0 ?glBindImageTexture@QOpenGLExtraFunctions@@QEAAXIIHEHII@Z
       4547 11C2 00357540 ?glBindProgramPipeline@QOpenGLExtraFunctions@@QEAAXI@Z
       4548 11C3 000BD200 ?glBindRenderbuffer@QOpenGLFunctions@@QEAAXII@Z
       4549 11C4 00357560 ?glBindSampler@QOpenGLExtraFunctions@@QEAAXII@Z
       4550 11C5 000BD220 ?glBindTexture@QOpenGLFunctions@@QEAAXII@Z
       4551 11C6 00357580 ?glBindTransformFeedback@QOpenGLExtraFunctions@@QEAAXII@Z
       4552 11C7 003575A0 ?glBindVertexArray@QOpenGLExtraFunctions@@QEAAXI@Z
       4553 11C8 003575C0 ?glBindVertexBuffer@QOpenGLExtraFunctions@@QEAAXII_JH@Z
       4554 11C9 00357600 ?glBlendBarrier@QOpenGLExtraFunctions@@QEAAXXZ
       4555 11CA 000BD240 ?glBlendColor@QOpenGLFunctions@@QEAAXMMMM@Z
       4556 11CB 000BD280 ?glBlendEquation@QOpenGLFunctions@@QEAAXI@Z
       4557 11CC 000BD2A0 ?glBlendEquationSeparate@QOpenGLFunctions@@QEAAXII@Z
       4558 11CD 00357620 ?glBlendEquationSeparatei@QOpenGLExtraFunctions@@QEAAXIII@Z
       4559 11CE 00357640 ?glBlendEquationi@QOpenGLExtraFunctions@@QEAAXII@Z
       4560 11CF 000BD2C0 ?glBlendFunc@QOpenGLFunctions@@QEAAXII@Z
       4561 11D0 000BD2E0 ?glBlendFuncSeparate@QOpenGLFunctions@@QEAAXIIII@Z
       4562 11D1 00357660 ?glBlendFuncSeparatei@QOpenGLExtraFunctions@@QEAAXIIIII@Z
       4563 11D2 003576A0 ?glBlendFunci@QOpenGLExtraFunctions@@QEAAXIII@Z
       4564 11D3 003576C0 ?glBlitFramebuffer@QOpenGLExtraFunctions@@QEAAXHHHHHHHHII@Z
       4565 11D4 000BD320 ?glBufferData@QOpenGLFunctions@@QEAAXI_JPEBXI@Z
       4566 11D5 000BD360 ?glBufferSubData@QOpenGLFunctions@@QEAAXI_J0PEBX@Z
       4567 11D6 000BD3A0 ?glCheckFramebufferStatus@QOpenGLFunctions@@QEAAII@Z
       4568 11D7 000BD3C0 ?glClear@QOpenGLFunctions@@QEAAXI@Z
       4569 11D8 00357750 ?glClearBufferfi@QOpenGLExtraFunctions@@QEAAXIHMH@Z
       4570 11D9 00357780 ?glClearBufferfv@QOpenGLExtraFunctions@@QEAAXIHPEBM@Z
       4571 11DA 003577A0 ?glClearBufferiv@QOpenGLExtraFunctions@@QEAAXIHPEBH@Z
       4572 11DB 003577C0 ?glClearBufferuiv@QOpenGLExtraFunctions@@QEAAXIHPEBI@Z
       4573 11DC 000BD3D0 ?glClearColor@QOpenGLFunctions@@QEAAXMMMM@Z
       4574 11DD 000BD400 ?glClearDepthf@QOpenGLFunctions@@QEAAXM@Z
       4575 11DE 000BD420 ?glClearStencil@QOpenGLFunctions@@QEAAXH@Z
       4576 11DF 003577E0 ?glClientWaitSync@QOpenGLExtraFunctions@@QEAAIPEAU__GLsync@@I_K@Z
       4577 11E0 000BD430 ?glColorMask@QOpenGLFunctions@@QEAAXEEEE@Z
       4578 11E1 00357800 ?glColorMaski@QOpenGLExtraFunctions@@QEAAXIEEEE@Z
       4579 11E2 000BD470 ?glCompileShader@QOpenGLFunctions@@QEAAXI@Z
       4580 11E3 000BD490 ?glCompressedTexImage2D@QOpenGLFunctions@@QEAAXIHIHHHHPEBX@Z
       4581 11E4 00357840 ?glCompressedTexImage3D@QOpenGLExtraFunctions@@QEAAXIHIHHHHHPEBX@Z
       4582 11E5 000BD500 ?glCompressedTexSubImage2D@QOpenGLFunctions@@QEAAXIHHHHHIHPEBX@Z
       4583 11E6 003578B0 ?glCompressedTexSubImage3D@QOpenGLExtraFunctions@@QEAAXIHHHHHHHIHPEBX@Z
       4584 11E7 00357940 ?glCopyBufferSubData@QOpenGLExtraFunctions@@QEAAXII_J00@Z
       4585 11E8 00357980 ?glCopyImageSubData@QOpenGLExtraFunctions@@QEAAXIIHHHHIIHHHHHHH@Z
       4586 11E9 000BD570 ?glCopyTexImage2D@QOpenGLFunctions@@QEAAXIHIHHHHH@Z
       4587 11EA 000BD5D0 ?glCopyTexSubImage2D@QOpenGLFunctions@@QEAAXIHHHHHHH@Z
       4588 11EB 00357A50 ?glCopyTexSubImage3D@QOpenGLExtraFunctions@@QEAAXIHHHHHHHH@Z
       4589 11EC 000BD630 ?glCreateProgram@QOpenGLFunctions@@QEAAIXZ
       4590 11ED 000BD650 ?glCreateShader@QOpenGLFunctions@@QEAAII@Z
       4591 11EE 00357AC0 ?glCreateShaderProgramv@QOpenGLExtraFunctions@@QEAAIIHPEBQEBD@Z
       4592 11EF 000BD670 ?glCullFace@QOpenGLFunctions@@QEAAXI@Z
       4593 11F0 00357AE0 ?glDebugMessageCallback@QOpenGLExtraFunctions@@QEAAXP6AXIIIIHPEBDPEBX@Z1@Z
       4594 11F1 00357B00 ?glDebugMessageControl@QOpenGLExtraFunctions@@QEAAXIIIHPEBIE@Z
       4595 11F2 00357B50 ?glDebugMessageInsert@QOpenGLExtraFunctions@@QEAAXIIIIHPEBD@Z
       4596 11F3 000BD680 ?glDeleteBuffers@QOpenGLFunctions@@QEAAXHPEBI@Z
       4597 11F4 000BD6A0 ?glDeleteFramebuffers@QOpenGLFunctions@@QEAAXHPEBI@Z
       4598 11F5 000BD6C0 ?glDeleteProgram@QOpenGLFunctions@@QEAAXI@Z
       4599 11F6 00357BA0 ?glDeleteProgramPipelines@QOpenGLExtraFunctions@@QEAAXHPEBI@Z
       4600 11F7 00357BC0 ?glDeleteQueries@QOpenGLExtraFunctions@@QEAAXHPEBI@Z
       4601 11F8 000BD6E0 ?glDeleteRenderbuffers@QOpenGLFunctions@@QEAAXHPEBI@Z
       4602 11F9 00357BE0 ?glDeleteSamplers@QOpenGLExtraFunctions@@QEAAXHPEBI@Z
       4603 11FA 000BD700 ?glDeleteShader@QOpenGLFunctions@@QEAAXI@Z
       4604 11FB 00357C00 ?glDeleteSync@QOpenGLExtraFunctions@@QEAAXPEAU__GLsync@@@Z
       4605 11FC 000BD720 ?glDeleteTextures@QOpenGLFunctions@@QEAAXHPEBI@Z
       4606 11FD 00357C20 ?glDeleteTransformFeedbacks@QOpenGLExtraFunctions@@QEAAXHPEBI@Z
       4607 11FE 00357C40 ?glDeleteVertexArrays@QOpenGLExtraFunctions@@QEAAXHPEBI@Z
       4608 11FF 000BD740 ?glDepthFunc@QOpenGLFunctions@@QEAAXI@Z
       4609 1200 000BD750 ?glDepthMask@QOpenGLFunctions@@QEAAXE@Z
       4610 1201 000BD770 ?glDepthRangef@QOpenGLFunctions@@QEAAXMM@Z
       4611 1202 000BD790 ?glDetachShader@QOpenGLFunctions@@QEAAXII@Z
       4612 1203 000BD7B0 ?glDisable@QOpenGLFunctions@@QEAAXI@Z
       4613 1204 000BD7C0 ?glDisableVertexAttribArray@QOpenGLFunctions@@QEAAXI@Z
       4614 1205 00357C60 ?glDisablei@QOpenGLExtraFunctions@@QEAAXII@Z
       4615 1206 00357C80 ?glDispatchCompute@QOpenGLExtraFunctions@@QEAAXIII@Z
       4616 1207 00357CA0 ?glDispatchComputeIndirect@QOpenGLExtraFunctions@@QEAAX_J@Z
       4617 1208 000BD7E0 ?glDrawArrays@QOpenGLFunctions@@QEAAXIHH@Z
       4618 1209 00357CC0 ?glDrawArraysIndirect@QOpenGLExtraFunctions@@QEAAXIPEBX@Z
       4619 120A 00357CE0 ?glDrawArraysInstanced@QOpenGLExtraFunctions@@QEAAXIHHH@Z
       4620 120B 00357D20 ?glDrawBuffers@QOpenGLExtraFunctions@@QEAAXHPEBI@Z
       4621 120C 000BD800 ?glDrawElements@QOpenGLFunctions@@QEAAXIHIPEBX@Z
       4622 120D 00357D40 ?glDrawElementsBaseVertex@QOpenGLExtraFunctions@@QEAAXIHIPEBXH@Z
       4623 120E 00357D80 ?glDrawElementsIndirect@QOpenGLExtraFunctions@@QEAAXIIPEBX@Z
       4624 120F 00357DA0 ?glDrawElementsInstanced@QOpenGLExtraFunctions@@QEAAXIHIPEBXH@Z
       4625 1210 00357DE0 ?glDrawElementsInstancedBaseVertex@QOpenGLExtraFunctions@@QEAAXIHIPEBXHH@Z
       4626 1211 00357E30 ?glDrawRangeElements@QOpenGLExtraFunctions@@QEAAXIIIHIPEBX@Z
       4627 1212 00357E80 ?glDrawRangeElementsBaseVertex@QOpenGLExtraFunctions@@QEAAXIIIHIPEBXH@Z
       4628 1213 000BD840 ?glEnable@QOpenGLFunctions@@QEAAXI@Z
       4629 1214 000BD860 ?glEnableVertexAttribArray@QOpenGLFunctions@@QEAAXI@Z
       4630 1215 00357EE0 ?glEnablei@QOpenGLExtraFunctions@@QEAAXII@Z
       4631 1216 00357F00 ?glEndQuery@QOpenGLExtraFunctions@@QEAAXI@Z
       4632 1217 00357F20 ?glEndTransformFeedback@QOpenGLExtraFunctions@@QEAAXXZ
       4633 1218 00357F40 ?glFenceSync@QOpenGLExtraFunctions@@QEAAPEAU__GLsync@@II@Z
       4634 1219 000BD880 ?glFinish@QOpenGLFunctions@@QEAAXXZ
       4635 121A 000BD8A0 ?glFlush@QOpenGLFunctions@@QEAAXXZ
       4636 121B 00357F60 ?glFlushMappedBufferRange@QOpenGLExtraFunctions@@QEAAXI_J0@Z
       4637 121C 0033F300 ?glFormat@QTextureFileData@@QEBAIXZ
       4638 121D 00357F80 ?glFramebufferParameteri@QOpenGLExtraFunctions@@QEAAXIIH@Z
       4639 121E 000BD8C0 ?glFramebufferRenderbuffer@QOpenGLFunctions@@QEAAXIIII@Z
       4640 121F 000BD900 ?glFramebufferTexture2D@QOpenGLFunctions@@QEAAXIIIIH@Z
       4641 1220 00357FA0 ?glFramebufferTexture@QOpenGLExtraFunctions@@QEAAXIIIH@Z
       4642 1221 00357FE0 ?glFramebufferTextureLayer@QOpenGLExtraFunctions@@QEAAXIIIHH@Z
       4643 1222 000BD940 ?glFrontFace@QOpenGLFunctions@@QEAAXI@Z
       4644 1223 000BD960 ?glGenBuffers@QOpenGLFunctions@@QEAAXHPEAI@Z
       4645 1224 000BD980 ?glGenFramebuffers@QOpenGLFunctions@@QEAAXHPEAI@Z
       4646 1225 00358020 ?glGenProgramPipelines@QOpenGLExtraFunctions@@QEAAXHPEAI@Z
       4647 1226 00358040 ?glGenQueries@QOpenGLExtraFunctions@@QEAAXHPEAI@Z
       4648 1227 000BD9A0 ?glGenRenderbuffers@QOpenGLFunctions@@QEAAXHPEAI@Z
       4649 1228 00358060 ?glGenSamplers@QOpenGLExtraFunctions@@QEAAXHPEAI@Z
       4650 1229 000BD9C0 ?glGenTextures@QOpenGLFunctions@@QEAAXHPEAI@Z
       4651 122A 00358080 ?glGenTransformFeedbacks@QOpenGLExtraFunctions@@QEAAXHPEAI@Z
       4652 122B 003580A0 ?glGenVertexArrays@QOpenGLExtraFunctions@@QEAAXHPEAI@Z
       4653 122C 000BD9E0 ?glGenerateMipmap@QOpenGLFunctions@@QEAAXI@Z
       4654 122D 000BDA00 ?glGetActiveAttrib@QOpenGLFunctions@@QEAAXIIHPEAH0PEAIPEAD@Z
       4655 122E 000BDA60 ?glGetActiveUniform@QOpenGLFunctions@@QEAAXIIHPEAH0PEAIPEAD@Z
       4656 122F 003580C0 ?glGetActiveUniformBlockName@QOpenGLExtraFunctions@@QEAAXIIHPEAHPEAD@Z
       4657 1230 00358100 ?glGetActiveUniformBlockiv@QOpenGLExtraFunctions@@QEAAXIIIPEAH@Z
       4658 1231 00358140 ?glGetActiveUniformsiv@QOpenGLExtraFunctions@@QEAAXIHPEBIIPEAH@Z
       4659 1232 000BDAC0 ?glGetAttachedShaders@QOpenGLFunctions@@QEAAXIHPEAHPEAI@Z
       4660 1233 000BDB00 ?glGetAttribLocation@QOpenGLFunctions@@QEAAHIPEBD@Z
       4661 1234 00358180 ?glGetBooleani_v@QOpenGLExtraFunctions@@QEAAXIIPEAE@Z
       4662 1235 000BDB20 ?glGetBooleanv@QOpenGLFunctions@@QEAAXIPEAE@Z
       4663 1236 003581A0 ?glGetBufferParameteri64v@QOpenGLExtraFunctions@@QEAAXIIPEA_J@Z
       4664 1237 000BDB40 ?glGetBufferParameteriv@QOpenGLFunctions@@QEAAXIIPEAH@Z
       4665 1238 003581C0 ?glGetBufferPointerv@QOpenGLExtraFunctions@@QEAAXIIPEAPEAX@Z
       4666 1239 003581E0 ?glGetBufferSubData@QOpenGLExtensions@@QEAAXI_J0PEAX@Z
       4667 123A 00358220 ?glGetDebugMessageLog@QOpenGLExtraFunctions@@QEAAIIHPEAI000PEAHPEAD@Z
       4668 123B 000BDB60 ?glGetError@QOpenGLFunctions@@QEAAIXZ
       4669 123C 000BDB80 ?glGetFloatv@QOpenGLFunctions@@QEAAXIPEAM@Z
       4670 123D 00358290 ?glGetFragDataLocation@QOpenGLExtraFunctions@@QEAAHIPEBD@Z
       4671 123E 000BDBA0 ?glGetFramebufferAttachmentParameteriv@QOpenGLFunctions@@QEAAXIIIPEAH@Z
       4672 123F 003582B0 ?glGetFramebufferParameteriv@QOpenGLExtraFunctions@@QEAAXIIPEAH@Z
       4673 1240 003582D0 ?glGetGraphicsResetStatus@QOpenGLExtraFunctions@@QEAAIXZ
       4674 1241 003582F0 ?glGetInteger64i_v@QOpenGLExtraFunctions@@QEAAXIIPEA_J@Z
       4675 1242 00358310 ?glGetInteger64v@QOpenGLExtraFunctions@@QEAAXIPEA_J@Z
       4676 1243 00358330 ?glGetIntegeri_v@QOpenGLExtraFunctions@@QEAAXIIPEAH@Z
       4677 1244 000BDBE0 ?glGetIntegerv@QOpenGLFunctions@@QEAAXIPEAH@Z
       4678 1245 00358350 ?glGetInternalformativ@QOpenGLExtraFunctions@@QEAAXIIIHPEAH@Z
       4679 1246 00358390 ?glGetMultisamplefv@QOpenGLExtraFunctions@@QEAAXIIPEAM@Z
       4680 1247 003583B0 ?glGetObjectLabel@QOpenGLExtraFunctions@@QEAAXIIHPEAHPEAD@Z
       4681 1248 003583F0 ?glGetObjectPtrLabel@QOpenGLExtraFunctions@@QEAAXPEBXHPEAHPEAD@Z
       4682 1249 00358430 ?glGetPointerv@QOpenGLExtraFunctions@@QEAAXIPEAPEAX@Z
       4683 124A 00358450 ?glGetProgramBinary@QOpenGLExtraFunctions@@QEAAXIHPEAHPEAIPEAX@Z
       4684 124B 000BDC00 ?glGetProgramInfoLog@QOpenGLFunctions@@QEAAXIHPEAHPEAD@Z
       4685 124C 00358490 ?glGetProgramInterfaceiv@QOpenGLExtraFunctions@@QEAAXIIIPEAH@Z
       4686 124D 003584D0 ?glGetProgramPipelineInfoLog@QOpenGLExtraFunctions@@QEAAXIHPEAHPEAD@Z
       4687 124E 00358510 ?glGetProgramPipelineiv@QOpenGLExtraFunctions@@QEAAXIIPEAH@Z
       4688 124F 00358530 ?glGetProgramResourceIndex@QOpenGLExtraFunctions@@QEAAIIIPEBD@Z
       4689 1250 00358550 ?glGetProgramResourceLocation@QOpenGLExtraFunctions@@QEAAHIIPEBD@Z
       4690 1251 00358570 ?glGetProgramResourceName@QOpenGLExtraFunctions@@QEAAXIIIHPEAHPEAD@Z
       4691 1252 003585C0 ?glGetProgramResourceiv@QOpenGLExtraFunctions@@QEAAXIIIHPEBIHPEAH1@Z
       4692 1253 000BDC40 ?glGetProgramiv@QOpenGLFunctions@@QEAAXIIPEAH@Z
       4693 1254 00358630 ?glGetQueryObjectuiv@QOpenGLExtraFunctions@@QEAAXIIPEAI@Z
       4694 1255 00358650 ?glGetQueryiv@QOpenGLExtraFunctions@@QEAAXIIPEAH@Z
       4695 1256 000BDC60 ?glGetRenderbufferParameteriv@QOpenGLFunctions@@QEAAXIIPEAH@Z
       4696 1257 00358670 ?glGetSamplerParameterIiv@QOpenGLExtraFunctions@@QEAAXIIPEAH@Z
       4697 1258 00358690 ?glGetSamplerParameterIuiv@QOpenGLExtraFunctions@@QEAAXIIPEAI@Z
       4698 1259 003586B0 ?glGetSamplerParameterfv@QOpenGLExtraFunctions@@QEAAXIIPEAM@Z
       4699 125A 003586D0 ?glGetSamplerParameteriv@QOpenGLExtraFunctions@@QEAAXIIPEAH@Z
       4700 125B 000BDC80 ?glGetShaderInfoLog@QOpenGLFunctions@@QEAAXIHPEAHPEAD@Z
       4701 125C 000BDCC0 ?glGetShaderPrecisionFormat@QOpenGLFunctions@@QEAAXIIPEAH0@Z
       4702 125D 000BDD00 ?glGetShaderSource@QOpenGLFunctions@@QEAAXIHPEAHPEAD@Z
       4703 125E 000BDD40 ?glGetShaderiv@QOpenGLFunctions@@QEAAXIIPEAH@Z
       4704 125F 000BDD60 ?glGetString@QOpenGLFunctions@@QEAAPEBEI@Z
       4705 1260 003586F0 ?glGetStringi@QOpenGLExtraFunctions@@QEAAPEBEII@Z
       4706 1261 00358710 ?glGetSynciv@QOpenGLExtraFunctions@@QEAAXPEAU__GLsync@@IHPEAH1@Z
       4707 1262 00358750 ?glGetTexLevelParameterfv@QOpenGLExtraFunctions@@QEAAXIHIPEAM@Z
       4708 1263 00358790 ?glGetTexLevelParameteriv@QOpenGLExtraFunctions@@QEAAXIHIPEAH@Z
       4709 1264 003587D0 ?glGetTexParameterIiv@QOpenGLExtraFunctions@@QEAAXIIPEAH@Z
       4710 1265 003587F0 ?glGetTexParameterIuiv@QOpenGLExtraFunctions@@QEAAXIIPEAI@Z
       4711 1266 000BDD80 ?glGetTexParameterfv@QOpenGLFunctions@@QEAAXIIPEAM@Z
       4712 1267 000BDDA0 ?glGetTexParameteriv@QOpenGLFunctions@@QEAAXIIPEAH@Z
       4713 1268 00358810 ?glGetTransformFeedbackVarying@QOpenGLExtraFunctions@@QEAAXIIHPEAH0PEAIPEAD@Z
       4714 1269 00358870 ?glGetUniformBlockIndex@QOpenGLExtraFunctions@@QEAAIIPEBD@Z
       4715 126A 00358890 ?glGetUniformIndices@QOpenGLExtraFunctions@@QEAAXIHPEBQEBDPEAI@Z
       4716 126B 000BDDC0 ?glGetUniformLocation@QOpenGLFunctions@@QEAAHIPEBD@Z
       4717 126C 000BDDE0 ?glGetUniformfv@QOpenGLFunctions@@QEAAXIHPEAM@Z
       4718 126D 000BDE00 ?glGetUniformiv@QOpenGLFunctions@@QEAAXIHPEAH@Z
       4719 126E 003588D0 ?glGetUniformuiv@QOpenGLExtraFunctions@@QEAAXIHPEAI@Z
       4720 126F 003588F0 ?glGetVertexAttribIiv@QOpenGLExtraFunctions@@QEAAXIIPEAH@Z
       4721 1270 00358910 ?glGetVertexAttribIuiv@QOpenGLExtraFunctions@@QEAAXIIPEAI@Z
       4722 1271 000BDE20 ?glGetVertexAttribPointerv@QOpenGLFunctions@@QEAAXIIPEAPEAX@Z
       4723 1272 000BDE40 ?glGetVertexAttribfv@QOpenGLFunctions@@QEAAXIIPEAM@Z
       4724 1273 000BDE60 ?glGetVertexAttribiv@QOpenGLFunctions@@QEAAXIIPEAH@Z
       4725 1274 00358930 ?glGetnUniformfv@QOpenGLExtraFunctions@@QEAAXIHHPEAM@Z
       4726 1275 00358970 ?glGetnUniformiv@QOpenGLExtraFunctions@@QEAAXIHHPEAH@Z
       4727 1276 003589B0 ?glGetnUniformuiv@QOpenGLExtraFunctions@@QEAAXIHHPEAI@Z
       4728 1277 000BDE80 ?glHint@QOpenGLFunctions@@QEAAXII@Z
       4729 1278 0033F460 ?glInternalFormat@QTextureFileData@@QEBAIXZ
       4730 1279 003589F0 ?glInvalidateFramebuffer@QOpenGLExtraFunctions@@QEAAXIHPEBI@Z
       4731 127A 00358A10 ?glInvalidateSubFramebuffer@QOpenGLExtraFunctions@@QEAAXIHPEBIHHHH@Z
       4732 127B 000BDEA0 ?glIsBuffer@QOpenGLFunctions@@QEAAEI@Z
       4733 127C 000BDEC0 ?glIsEnabled@QOpenGLFunctions@@QEAAEI@Z
       4734 127D 00358A60 ?glIsEnabledi@QOpenGLExtraFunctions@@QEAAEII@Z
       4735 127E 000BDEE0 ?glIsFramebuffer@QOpenGLFunctions@@QEAAEI@Z
       4736 127F 000BDF00 ?glIsProgram@QOpenGLFunctions@@QEAAEI@Z
       4737 1280 00358A80 ?glIsProgramPipeline@QOpenGLExtraFunctions@@QEAAEI@Z
       4738 1281 00358AA0 ?glIsQuery@QOpenGLExtraFunctions@@QEAAEI@Z
       4739 1282 000BDF20 ?glIsRenderbuffer@QOpenGLFunctions@@QEAAEI@Z
       4740 1283 00358AC0 ?glIsSampler@QOpenGLExtraFunctions@@QEAAEI@Z
       4741 1284 000BDF40 ?glIsShader@QOpenGLFunctions@@QEAAEI@Z
       4742 1285 00358AE0 ?glIsSync@QOpenGLExtraFunctions@@QEAAEPEAU__GLsync@@@Z
       4743 1286 000BDF60 ?glIsTexture@QOpenGLFunctions@@QEAAEI@Z
       4744 1287 00358B00 ?glIsTransformFeedback@QOpenGLExtraFunctions@@QEAAEI@Z
       4745 1288 00358B20 ?glIsVertexArray@QOpenGLExtraFunctions@@QEAAEI@Z
       4746 1289 000BDF80 ?glLineWidth@QOpenGLFunctions@@QEAAXM@Z
       4747 128A 000BDFA0 ?glLinkProgram@QOpenGLFunctions@@QEAAXI@Z
       4748 128B 00358B40 ?glMapBuffer@QOpenGLExtensions@@QEAAPEAXII@Z
       4749 128C 00358B60 ?glMapBufferRange@QOpenGLExtraFunctions@@QEAAPEAXI_J0I@Z
       4750 128D 00358BA0 ?glMemoryBarrier@QOpenGLExtraFunctions@@QEAAXI@Z
       4751 128E 00358BC0 ?glMemoryBarrierByRegion@QOpenGLExtraFunctions@@QEAAXI@Z
       4752 128F 00358BE0 ?glMinSampleShading@QOpenGLExtraFunctions@@QEAAXM@Z
       4753 1290 00358C00 ?glObjectLabel@QOpenGLExtraFunctions@@QEAAXIIHPEBD@Z
       4754 1291 00358C40 ?glObjectPtrLabel@QOpenGLExtraFunctions@@QEAAXPEBXHPEBD@Z
       4755 1292 00358C60 ?glPatchParameteri@QOpenGLExtraFunctions@@QEAAXIH@Z
       4756 1293 00358C80 ?glPauseTransformFeedback@QOpenGLExtraFunctions@@QEAAXXZ
       4757 1294 000BDFC0 ?glPixelStorei@QOpenGLFunctions@@QEAAXIH@Z
       4758 1295 000BDFE0 ?glPolygonOffset@QOpenGLFunctions@@QEAAXMM@Z
       4759 1296 00358CA0 ?glPopDebugGroup@QOpenGLExtraFunctions@@QEAAXXZ
       4760 1297 00358CC0 ?glPrimitiveBoundingBox@QOpenGLExtraFunctions@@QEAAXMMMMMMMM@Z
       4761 1298 00358D50 ?glProgramBinary@QOpenGLExtraFunctions@@QEAAXIIPEBXH@Z
       4762 1299 00358D90 ?glProgramParameteri@QOpenGLExtraFunctions@@QEAAXIIH@Z
       4763 129A 00358DB0 ?glProgramUniform1f@QOpenGLExtraFunctions@@QEAAXIHM@Z
       4764 129B 00358DD0 ?glProgramUniform1fv@QOpenGLExtraFunctions@@QEAAXIHHPEBM@Z
       4765 129C 00358E10 ?glProgramUniform1i@QOpenGLExtraFunctions@@QEAAXIHH@Z
       4766 129D 00358E30 ?glProgramUniform1iv@QOpenGLExtraFunctions@@QEAAXIHHPEBH@Z
       4767 129E 00358E70 ?glProgramUniform1ui@QOpenGLExtraFunctions@@QEAAXIHI@Z
       4768 129F 00358E90 ?glProgramUniform1uiv@QOpenGLExtraFunctions@@QEAAXIHHPEBI@Z
       4769 12A0 00358ED0 ?glProgramUniform2f@QOpenGLExtraFunctions@@QEAAXIHMM@Z
       4770 12A1 00358F00 ?glProgramUniform2fv@QOpenGLExtraFunctions@@QEAAXIHHPEBM@Z
       4771 12A2 00358F40 ?glProgramUniform2i@QOpenGLExtraFunctions@@QEAAXIHHH@Z
       4772 12A3 00358F80 ?glProgramUniform2iv@QOpenGLExtraFunctions@@QEAAXIHHPEBH@Z
       4773 12A4 00358FC0 ?glProgramUniform2ui@QOpenGLExtraFunctions@@QEAAXIHII@Z
       4774 12A5 00359000 ?glProgramUniform2uiv@QOpenGLExtraFunctions@@QEAAXIHHPEBI@Z
       4775 12A6 00359040 ?glProgramUniform3f@QOpenGLExtraFunctions@@QEAAXIHMMM@Z
       4776 12A7 00359080 ?glProgramUniform3fv@QOpenGLExtraFunctions@@QEAAXIHHPEBM@Z
       4777 12A8 003590C0 ?glProgramUniform3i@QOpenGLExtraFunctions@@QEAAXIHHHH@Z
       4778 12A9 00359100 ?glProgramUniform3iv@QOpenGLExtraFunctions@@QEAAXIHHPEBH@Z
       4779 12AA 00359140 ?glProgramUniform3ui@QOpenGLExtraFunctions@@QEAAXIHIII@Z
       4780 12AB 00359180 ?glProgramUniform3uiv@QOpenGLExtraFunctions@@QEAAXIHHPEBI@Z
       4781 12AC 003591C0 ?glProgramUniform4f@QOpenGLExtraFunctions@@QEAAXIHMMMM@Z
       4782 12AD 00359210 ?glProgramUniform4fv@QOpenGLExtraFunctions@@QEAAXIHHPEBM@Z
       4783 12AE 00359250 ?glProgramUniform4i@QOpenGLExtraFunctions@@QEAAXIHHHHH@Z
       4784 12AF 003592A0 ?glProgramUniform4iv@QOpenGLExtraFunctions@@QEAAXIHHPEBH@Z
       4785 12B0 003592E0 ?glProgramUniform4ui@QOpenGLExtraFunctions@@QEAAXIHIIII@Z
       4786 12B1 00359330 ?glProgramUniform4uiv@QOpenGLExtraFunctions@@QEAAXIHHPEBI@Z
       4787 12B2 00359370 ?glProgramUniformMatrix2fv@QOpenGLExtraFunctions@@QEAAXIHHEPEBM@Z
       4788 12B3 003593B0 ?glProgramUniformMatrix2x3fv@QOpenGLExtraFunctions@@QEAAXIHHEPEBM@Z
       4789 12B4 003593F0 ?glProgramUniformMatrix2x4fv@QOpenGLExtraFunctions@@QEAAXIHHEPEBM@Z
       4790 12B5 00359430 ?glProgramUniformMatrix3fv@QOpenGLExtraFunctions@@QEAAXIHHEPEBM@Z
       4791 12B6 00359470 ?glProgramUniformMatrix3x2fv@QOpenGLExtraFunctions@@QEAAXIHHEPEBM@Z
       4792 12B7 003594B0 ?glProgramUniformMatrix3x4fv@QOpenGLExtraFunctions@@QEAAXIHHEPEBM@Z
       4793 12B8 003594F0 ?glProgramUniformMatrix4fv@QOpenGLExtraFunctions@@QEAAXIHHEPEBM@Z
       4794 12B9 00359530 ?glProgramUniformMatrix4x2fv@QOpenGLExtraFunctions@@QEAAXIHHEPEBM@Z
       4795 12BA 00359570 ?glProgramUniformMatrix4x3fv@QOpenGLExtraFunctions@@QEAAXIHHEPEBM@Z
       4796 12BB 003595B0 ?glPushDebugGroup@QOpenGLExtraFunctions@@QEAAXIIHPEBD@Z
       4797 12BC 003595F0 ?glReadBuffer@QOpenGLExtraFunctions@@QEAAXI@Z
       4798 12BD 000BE000 ?glReadPixels@QOpenGLFunctions@@QEAAXHHHHIIPEAX@Z
       4799 12BE 00359610 ?glReadnPixels@QOpenGLExtraFunctions@@QEAAXHHHHIIHPEAX@Z
       4800 12BF 000BE060 ?glReleaseShaderCompiler@QOpenGLFunctions@@QEAAXXZ
       4801 12C0 000BE080 ?glRenderbufferStorage@QOpenGLFunctions@@QEAAXIIHH@Z
       4802 12C1 00359680 ?glRenderbufferStorageMultisample@QOpenGLExtraFunctions@@QEAAXIHIHH@Z
       4803 12C2 003596C0 ?glResumeTransformFeedback@QOpenGLExtraFunctions@@QEAAXXZ
       4804 12C3 000BE0C0 ?glSampleCoverage@QOpenGLFunctions@@QEAAXME@Z
       4805 12C4 003596E0 ?glSampleMaski@QOpenGLExtraFunctions@@QEAAXII@Z
       4806 12C5 00359700 ?glSamplerParameterIiv@QOpenGLExtraFunctions@@QEAAXIIPEBH@Z
       4807 12C6 00359720 ?glSamplerParameterIuiv@QOpenGLExtraFunctions@@QEAAXIIPEBI@Z
       4808 12C7 00359740 ?glSamplerParameterf@QOpenGLExtraFunctions@@QEAAXIIM@Z
       4809 12C8 00359760 ?glSamplerParameterfv@QOpenGLExtraFunctions@@QEAAXIIPEBM@Z
       4810 12C9 00359780 ?glSamplerParameteri@QOpenGLExtraFunctions@@QEAAXIIH@Z
       4811 12CA 003597A0 ?glSamplerParameteriv@QOpenGLExtraFunctions@@QEAAXIIPEBH@Z
       4812 12CB 000BE0E0 ?glScissor@QOpenGLFunctions@@QEAAXHHHH@Z
       4813 12CC 000BE120 ?glShaderBinary@QOpenGLFunctions@@QEAAXHPEBIIPEBXH@Z
       4814 12CD 000BE160 ?glShaderSource@QOpenGLFunctions@@QEAAXIHPEAPEBDPEBH@Z
       4815 12CE 000BE1A0 ?glStencilFunc@QOpenGLFunctions@@QEAAXIHI@Z
       4816 12CF 000BE1C0 ?glStencilFuncSeparate@QOpenGLFunctions@@QEAAXIIHI@Z
       4817 12D0 000BE200 ?glStencilMask@QOpenGLFunctions@@QEAAXI@Z
       4818 12D1 000BE220 ?glStencilMaskSeparate@QOpenGLFunctions@@QEAAXII@Z
       4819 12D2 000BE240 ?glStencilOp@QOpenGLFunctions@@QEAAXIII@Z
       4820 12D3 000BE260 ?glStencilOpSeparate@QOpenGLFunctions@@QEAAXIIII@Z
       4821 12D4 003597C0 ?glTexBuffer@QOpenGLExtraFunctions@@QEAAXIII@Z
       4822 12D5 003597E0 ?glTexBufferRange@QOpenGLExtraFunctions@@QEAAXIII_J0@Z
       4823 12D6 000BE2A0 ?glTexImage2D@QOpenGLFunctions@@QEAAXIHHHHHIIPEBX@Z
       4824 12D7 00359820 ?glTexImage3D@QOpenGLExtraFunctions@@QEAAXIHHHHHHIIPEBX@Z
       4825 12D8 003598B0 ?glTexParameterIiv@QOpenGLExtraFunctions@@QEAAXIIPEBH@Z
       4826 12D9 003598D0 ?glTexParameterIuiv@QOpenGLExtraFunctions@@QEAAXIIPEBI@Z
       4827 12DA 000BE310 ?glTexParameterf@QOpenGLFunctions@@QEAAXIIM@Z
       4828 12DB 000BE330 ?glTexParameterfv@QOpenGLFunctions@@QEAAXIIPEBM@Z
       4829 12DC 000BE350 ?glTexParameteri@QOpenGLFunctions@@QEAAXIIH@Z
       4830 12DD 000BE370 ?glTexParameteriv@QOpenGLFunctions@@QEAAXIIPEBH@Z
       4831 12DE 003598F0 ?glTexStorage2D@QOpenGLExtraFunctions@@QEAAXIHIHH@Z
       4832 12DF 00359930 ?glTexStorage2DMultisample@QOpenGLExtraFunctions@@QEAAXIHIHHE@Z
       4833 12E0 00359980 ?glTexStorage3D@QOpenGLExtraFunctions@@QEAAXIHIHHH@Z
       4834 12E1 003599D0 ?glTexStorage3DMultisample@QOpenGLExtraFunctions@@QEAAXIHIHHHE@Z
       4835 12E2 000BE390 ?glTexSubImage2D@QOpenGLFunctions@@QEAAXIHHHHHIIPEBX@Z
       4836 12E3 00359A20 ?glTexSubImage3D@QOpenGLExtraFunctions@@QEAAXIHHHHHHHIIPEBX@Z
       4837 12E4 00359AB0 ?glTransformFeedbackVaryings@QOpenGLExtraFunctions@@QEAAXIHPEBQEBDI@Z
       4838 12E5 000BE400 ?glUniform1f@QOpenGLFunctions@@QEAAXHM@Z
       4839 12E6 000BE420 ?glUniform1fv@QOpenGLFunctions@@QEAAXHHPEBM@Z
       4840 12E7 000BE440 ?glUniform1i@QOpenGLFunctions@@QEAAXHH@Z
       4841 12E8 000BE460 ?glUniform1iv@QOpenGLFunctions@@QEAAXHHPEBH@Z
       4842 12E9 00359AF0 ?glUniform1ui@QOpenGLExtraFunctions@@QEAAXHI@Z
       4843 12EA 00359B10 ?glUniform1uiv@QOpenGLExtraFunctions@@QEAAXHHPEBI@Z
       4844 12EB 000BE480 ?glUniform2f@QOpenGLFunctions@@QEAAXHMM@Z
       4845 12EC 000BE4A0 ?glUniform2fv@QOpenGLFunctions@@QEAAXHHPEBM@Z
       4846 12ED 000BE4C0 ?glUniform2i@QOpenGLFunctions@@QEAAXHHH@Z
       4847 12EE 000BE4E0 ?glUniform2iv@QOpenGLFunctions@@QEAAXHHPEBH@Z
       4848 12EF 00359B30 ?glUniform2ui@QOpenGLExtraFunctions@@QEAAXHII@Z
       4849 12F0 00359B50 ?glUniform2uiv@QOpenGLExtraFunctions@@QEAAXHHPEBI@Z
       4850 12F1 000BE500 ?glUniform3f@QOpenGLFunctions@@QEAAXHMMM@Z
       4851 12F2 000BE530 ?glUniform3fv@QOpenGLFunctions@@QEAAXHHPEBM@Z
       4852 12F3 000BE550 ?glUniform3i@QOpenGLFunctions@@QEAAXHHHH@Z
       4853 12F4 000BE590 ?glUniform3iv@QOpenGLFunctions@@QEAAXHHPEBH@Z
       4854 12F5 00359B70 ?glUniform3ui@QOpenGLExtraFunctions@@QEAAXHIII@Z
       4855 12F6 00359BB0 ?glUniform3uiv@QOpenGLExtraFunctions@@QEAAXHHPEBI@Z
       4856 12F7 000BE5B0 ?glUniform4f@QOpenGLFunctions@@QEAAXHMMMM@Z
       4857 12F8 000BE5F0 ?glUniform4fv@QOpenGLFunctions@@QEAAXHHPEBM@Z
       4858 12F9 000BE610 ?glUniform4i@QOpenGLFunctions@@QEAAXHHHHH@Z
       4859 12FA 000BE650 ?glUniform4iv@QOpenGLFunctions@@QEAAXHHPEBH@Z
       4860 12FB 00359BD0 ?glUniform4ui@QOpenGLExtraFunctions@@QEAAXHIIII@Z
       4861 12FC 00359C10 ?glUniform4uiv@QOpenGLExtraFunctions@@QEAAXHHPEBI@Z
       4862 12FD 00359C30 ?glUniformBlockBinding@QOpenGLExtraFunctions@@QEAAXIII@Z
       4863 12FE 000BE670 ?glUniformMatrix2fv@QOpenGLFunctions@@QEAAXHHEPEBM@Z
       4864 12FF 00359C50 ?glUniformMatrix2x3fv@QOpenGLExtraFunctions@@QEAAXHHEPEBM@Z
       4865 1300 00359C90 ?glUniformMatrix2x4fv@QOpenGLExtraFunctions@@QEAAXHHEPEBM@Z
       4866 1301 000BE6B0 ?glUniformMatrix3fv@QOpenGLFunctions@@QEAAXHHEPEBM@Z
       4867 1302 00359CD0 ?glUniformMatrix3x2fv@QOpenGLExtraFunctions@@QEAAXHHEPEBM@Z
       4868 1303 00359D10 ?glUniformMatrix3x4fv@QOpenGLExtraFunctions@@QEAAXHHEPEBM@Z
       4869 1304 000BE6F0 ?glUniformMatrix4fv@QOpenGLFunctions@@QEAAXHHEPEBM@Z
       4870 1305 00359D50 ?glUniformMatrix4x2fv@QOpenGLExtraFunctions@@QEAAXHHEPEBM@Z
       4871 1306 00359D90 ?glUniformMatrix4x3fv@QOpenGLExtraFunctions@@QEAAXHHEPEBM@Z
       4872 1307 00359DD0 ?glUnmapBuffer@QOpenGLExtraFunctions@@QEAAEI@Z
       4873 1308 000BE730 ?glUseProgram@QOpenGLFunctions@@QEAAXI@Z
       4874 1309 00359DF0 ?glUseProgramStages@QOpenGLExtraFunctions@@QEAAXIII@Z
       4875 130A 000BE750 ?glValidateProgram@QOpenGLFunctions@@QEAAXI@Z
       4876 130B 00359E10 ?glValidateProgramPipeline@QOpenGLExtraFunctions@@QEAAXI@Z
       4877 130C 000BE770 ?glVertexAttrib1f@QOpenGLFunctions@@QEAAXIM@Z
       4878 130D 000BE790 ?glVertexAttrib1fv@QOpenGLFunctions@@QEAAXIPEBM@Z
       4879 130E 000BE7B0 ?glVertexAttrib2f@QOpenGLFunctions@@QEAAXIMM@Z
       4880 130F 000BE7D0 ?glVertexAttrib2fv@QOpenGLFunctions@@QEAAXIPEBM@Z
       4881 1310 000BE7F0 ?glVertexAttrib3f@QOpenGLFunctions@@QEAAXIMMM@Z
       4882 1311 000BE820 ?glVertexAttrib3fv@QOpenGLFunctions@@QEAAXIPEBM@Z
       4883 1312 000BE840 ?glVertexAttrib4f@QOpenGLFunctions@@QEAAXIMMMM@Z
       4884 1313 000BE880 ?glVertexAttrib4fv@QOpenGLFunctions@@QEAAXIPEBM@Z
       4885 1314 00359E30 ?glVertexAttribBinding@QOpenGLExtraFunctions@@QEAAXII@Z
       4886 1315 00359E50 ?glVertexAttribDivisor@QOpenGLExtraFunctions@@QEAAXII@Z
       4887 1316 00359E70 ?glVertexAttribFormat@QOpenGLExtraFunctions@@QEAAXIHIEI@Z
       4888 1317 00359EB0 ?glVertexAttribI4i@QOpenGLExtraFunctions@@QEAAXIHHHH@Z
       4889 1318 00359EF0 ?glVertexAttribI4iv@QOpenGLExtraFunctions@@QEAAXIPEBH@Z
       4890 1319 00359F10 ?glVertexAttribI4ui@QOpenGLExtraFunctions@@QEAAXIIIII@Z
       4891 131A 00359F50 ?glVertexAttribI4uiv@QOpenGLExtraFunctions@@QEAAXIPEBI@Z
       4892 131B 00359F70 ?glVertexAttribIFormat@QOpenGLExtraFunctions@@QEAAXIHII@Z
       4893 131C 00359FB0 ?glVertexAttribIPointer@QOpenGLExtraFunctions@@QEAAXIHIHPEBX@Z
       4894 131D 000BE8A0 ?glVertexAttribPointer@QOpenGLFunctions@@QEAAXIHIEHPEBX@Z
       4895 131E 00359FF0 ?glVertexBindingDivisor@QOpenGLExtraFunctions@@QEAAXII@Z
       4896 131F 000BE8F0 ?glViewport@QOpenGLFunctions@@QEAAXHHHH@Z
       4897 1320 0035A010 ?glWaitSync@QOpenGLExtraFunctions@@QEAAXPEAU__GLsync@@I_K@Z
       4898 1321 0007B1F0 ?globalGrabPosition@QEventPoint@@QEBA?AVQPointF@@XZ
       4899 1322 0007B230 ?globalLastPosition@QEventPoint@@QEBA?AVQPointF@@XZ
       4900 1323 000048B0 ?globalPos@QContextMenuEvent@@QEBAAEBVQPoint@@XZ
       4901 1324 000048C0 ?globalPos@QEnterEvent@@QEBA?AVQPoint@@XZ
       4902 1325 00004940 ?globalPos@QHelpEvent@@QEBAAEBVQPoint@@XZ
       4903 1326 000048C0 ?globalPos@QMouseEvent@@QEBA?AVQPoint@@XZ
       4904 1327 000048C0 ?globalPos@QNativeGestureEvent@@QEBA?BVQPoint@@XZ
       4905 1328 000048C0 ?globalPos@QTabletEvent@@QEBA?AVQPoint@@XZ
       4906 1329 00004950 ?globalPosF@QTabletEvent@@QEBA?BVQPointF@@XZ
       4907 132A 0007B270 ?globalPosition@QEventPoint@@QEBA?AVQPointF@@XZ
       4908 132B 00004950 ?globalPosition@QSinglePointEvent@@QEBA?AVQPointF@@XZ
       4909 132C 000E23E0 ?globalPosition@QWindowPrivate@@QEBA?AVQPoint@@XZ
       4910 132D 0007B2B0 ?globalPressPosition@QEventPoint@@QEBA?AVQPointF@@XZ
       4911 132E 00002C80 ?globalResourceId@QRhiResource@@QEBA_KXZ
       4912 132F 0035A030 ?globalShareContext@QOpenGLContext@@SAPEAV1@XZ
       4913 1330 00004970 ?globalX@QContextMenuEvent@@QEBAHXZ
       4914 1331 00004980 ?globalX@QEnterEvent@@QEBAHXZ
       4915 1332 000049D0 ?globalX@QHelpEvent@@QEBAHXZ
       4916 1333 00004980 ?globalX@QMouseEvent@@QEBAHXZ
       4917 1334 00004980 ?globalX@QTabletEvent@@QEBAHXZ
       4918 1335 000049E0 ?globalY@QContextMenuEvent@@QEBAHXZ
       4919 1336 000049F0 ?globalY@QEnterEvent@@QEBAHXZ
       4920 1337 00004A40 ?globalY@QHelpEvent@@QEBAHXZ
       4921 1338 000049F0 ?globalY@QMouseEvent@@QEBAHXZ
       4922 1339 000049F0 ?globalY@QTabletEvent@@QEBAHXZ
       4923 133A 00005AA0 ?glyph@QDistanceField@@QEBAIXZ
       4924 133B 0029CD80 ?glyphCache@QFontEngine@@QEBAPEAVQFontEngineGlyphCache@@PEBXW4GlyphFormat@1@AEBVQTransform@@AEBVQColor@@@Z
       4925 133C 0029CEF0 ?glyphCount@QFontEngine@@UEBAHXZ
       4926 133D 000031E0 ?glyphData@QFontEngine@@UEAAPEAUGlyph@1@IAEBUQFixedPoint@@W4GlyphFormat@1@AEBVQTransform@@@Z
       4927 133E 00006400 ?glyphFormat@QFontEngineGlyphCache@@QEBA?AW4GlyphFormat@QFontEngine@@XZ
       4928 133F 0029CFF0 ?glyphIndex@QFontEngineMulti@@UEBAII@Z
       4929 1340 004553C0 ?glyphIndex@QWindowsFontEngineDirectWrite@@UEBAII@Z
       4930 1341 002A4490 ?glyphIndexes@QGlyphRun@@QEBA?AV?$QList@I@@XZ
       4931 1342 002A7570 ?glyphIndexesForChars@QRawFont@@QEBA_NPEBVQChar@@HPEAIPEAH@Z
       4932 1343 002A75F0 ?glyphIndexesForString@QRawFont@@QEBA?AV?$QList@I@@AEBVQString@@@Z
       4933 1344 00039420 ?glyphMargin@QFontEngine@@UEAAHW4GlyphFormat@1@@Z
       4934 1345 000031E0 ?glyphPadding@QTextureGlyphCache@@UEBAHXZ
       4935 1346 00327210 ?glyphRuns@QTextFragment@@QEBA?AV?$QList@VQGlyphRun@@@@HH@Z
       4936 1347 0031E780 ?glyphRuns@QTextLayout@@QEBA?AV?$QList@VQGlyphRun@@@@HH@Z
       4937 1348 0031E7A0 ?glyphRuns@QTextLayout@@QEBA?AV?$QList@VQGlyphRun@@@@HHV?$QFlags@W4GlyphRunRetrievalFlag@QTextLayout@@@@@Z
       4938 1349 0031EC10 ?glyphRuns@QTextLine@@QEBA?AV?$QList@VQGlyphRun@@@@HH@Z
       4939 134A 0031EC30 ?glyphRuns@QTextLine@@QEBA?AV?$QList@VQGlyphRun@@@@HHV?$QFlags@W4GlyphRunRetrievalFlag@QTextLayout@@@@@Z
       4940 134B 00004A50 ?gotFocus@QFocusEvent@@QEBA_NXZ
       4941 134C 0035D960 ?gpuFeatures@QOpenGLConfig@@SA?AV?$QSet@VQString@@@@AEBUGpu@1@AEBVQJsonDocument@@@Z
       4942 134D 0035DBC0 ?gpuFeatures@QOpenGLConfig@@SA?AV?$QSet@VQString@@@@AEBUGpu@1@AEBVQString@@@Z
       4943 134E 0035DE20 ?gpuFeatures@QOpenGLConfig@@SA?AV?$QSet@VQString@@@@AEBUGpu@1@AEBVQString@@AEBVQVersionNumber@@11@Z
       4944 134F 0035DF00 ?gpuFeatures@QOpenGLConfig@@SA?AV?$QSet@VQString@@@@AEBUGpu@1@AEBVQString@@AEBVQVersionNumber@@1AEBVQJsonDocument@@@Z
       4945 1350 000D0E60 ?grabChanged@QPointingDevice@@QEBAXPEAVQObject@@W4GrabTransition@1@PEBVQPointerEvent@@AEBVQEventPoint@@@Z
       4946 1351 0007B2F0 ?grabPosition@QEventPoint@@QEBA?AVQPointF@@XZ
       4947 1352 00091850 ?grabWindow@QPlatformScreen@@UEBA?AVQPixmap@@_KHHHH@Z
       4948 1353 000D5770 ?grabWindow@QScreen@@QEAA?AVQPixmap@@_KHHHH@Z
       4949 1354 00120BE0 ?gradient@QBrush@@QEBAPEBVQGradient@@XZ
       4950 1355 000031E0 ?graphicsBuffer@QPlatformBackingStore@@UEBAPEAVQPlatformGraphicsBuffer@@XZ
       4951 1356 0020BFB0 ?graphicsDeviceReportedLost@QPlatformBackingStore@@QEAAXPEAVQWindow@@@Z
       4952 1357 00127410 ?green@QColor@@QEBAHXZ
       4953 1358 000DB720 ?greenBufferSize@QSurfaceFormat@@QEBAHXZ
       4954 1359 00127450 ?greenF@QColor@@QEBAMXZ
       4955 135A 00338E90 ?grossRoundUp@QGridLayoutEngine@@CAHH@Z
       4956 135B 000030F0 ?group@QOpenGLSharedResource@@QEBAPEAVQOpenGLContextGroup@@XZ
       4957 135C 000FED50 ?handle@QBackingStore@@QEBAPEAVQPlatformBackingStore@@XZ
       4958 135D 000031E0 ?handle@QFontEngine@@UEBAPEAXXZ
       4959 135E 000AD360 ?handle@QOffscreenSurface@@QEBAPEAVQPlatformOffscreenSurface@@XZ
       4960 135F 000AD360 ?handle@QOpenGLContext@@QEBAPEAVQPlatformOpenGLContext@@XZ
       4961 1360 00002C80 ?handle@QPixmap@@QEBAPEAVQPlatformPixmap@@XZ
       4962 1361 000D59D0 ?handle@QScreen@@QEBAPEAVQPlatformScreen@@XZ
       4963 1362 000E26C0 ?handle@QWindow@@QEBAPEAVQPlatformWindow@@XZ
       4964 1363 003D4590 ?handle@QWindowsFontEngineDirectWrite@@UEBAPEAXXZ
       4965 1364 000074A0 ?handleContentOrientationChange@QPlatformWindow@@UEAAXW4ScreenOrientation@Qt@@@Z
       4966 1365 00006540 ?handleContextMenuEvent@QWindowSystemInterface@@SAXPEAVQWindow@@_NAEBVQPoint@@2V?$QFlags@W4KeyboardModifier@Qt@@@@@Z
       4967 1366 001E07C0 ?handleCrossingEdges@QPathClipper@@AEAA_NAEAVQWingedEdge@@NW4ClipperMode@1@@Z
       4968 1367 000F0430 ?handleDrag@QWindowSystemInterface@@SA?AVQPlatformDragQtResponse@@PEAVQWindow@@PEBVQMimeData@@AEBVQPoint@@V?$QFlags@W4DropAction@Qt@@@@V?$QFlags@W4MouseButton@Qt@@@@V?$QFlags@W4KeyboardModifier@Qt@@@@@Z
       4969 1368 000F0530 ?handleDrop@QWindowSystemInterface@@SA?AVQPlatformDropQtResponse@@PEAVQWindow@@PEBVQMimeData@@AEBVQPoint@@V?$QFlags@W4DropAction@Qt@@@@V?$QFlags@W4MouseButton@Qt@@@@V?$QFlags@W4KeyboardModifier@Qt@@@@@Z
       4970 1369 000F0630 ?handleEnterLeaveEvent@QWindowSystemInterface@@SAXPEAVQWindow@@0AEBVQPointF@@1@Z
       4971 136A 000F0710 ?handleEnterWhatsThisEvent@QWindowSystemInterface@@SAXXZ
       4972 136B 000F07A0 ?handleExtendedKeyEvent@QWindowSystemInterface@@SA_NPEAVQWindow@@KW4Type@QEvent@@HV?$QFlags@W4KeyboardModifier@Qt@@@@IIIAEBVQString@@_NG@Z
       4973 136C 000F0910 ?handleExtendedKeyEvent@QWindowSystemInterface@@SA_NPEAVQWindow@@W4Type@QEvent@@HV?$QFlags@W4KeyboardModifier@Qt@@@@IIIAEBVQString@@_NG@Z
       4974 136D 000F09B0 ?handleFileOpenEvent@QWindowSystemInterface@@SAXAEBVQString@@@Z
       4975 136E 000F0A00 ?handleFileOpenEvent@QWindowSystemInterface@@SAXAEBVQUrl@@@Z
       4976 136F 000F0A50 ?handleGestureEvent@QWindowSystemInterface@@SA_NPEAVQWindow@@KPEBVQPointingDevice@@W4NativeGestureType@Qt@@AEBVQPointF@@3H@Z
       4977 1370 000F0AA0 ?handleGestureEventWithRealValue@QWindowSystemInterface@@SA_NPEAVQWindow@@KPEBVQPointingDevice@@W4NativeGestureType@Qt@@NAEBVQPointF@@3H@Z
       4978 1371 000F0B00 ?handleGestureEventWithValueAndDelta@QWindowSystemInterface@@SA_NPEAVQWindow@@KPEBVQPointingDevice@@W4NativeGestureType@Qt@@NAEBVQPointF@@33H@Z
       4979 1372 000F0E10 ?handleNativeEvent@QWindowSystemInterface@@SA_NPEAVQWindow@@AEBVQByteArray@@PEAXPEA_J@Z
       4980 1373 00091F50 ?handlePaletteChanged@QGuiApplicationPrivate@@MEAAXPEBD@Z
       4981 1374 000F0E20 ?handlePlatformPanelEvent@QWindowSystemInterface@@SAXPEAVQWindow@@@Z
       4982 1375 000F0E30 ?handlePrimaryScreenChanged@QWindowSystemInterface@@SAXPEAVQPlatformScreen@@@Z
       4983 1376 000074A0 ?handleResizeEvent@QPaintDeviceWindowPrivate@@UEAAXXZ
       4984 1377 000F0EE0 ?handleScreenAdded@QWindowSystemInterface@@SAXPEAVQPlatformScreen@@_N@Z
       4985 1378 000F0FA0 ?handleScreenGeometryChange@QWindowSystemInterface@@SAXPEAVQScreen@@AEBVQRect@@1@Z
       4986 1379 000F1100 ?handleScreenLogicalDotsPerInchChange@QWindowSystemInterface@@SAXPEAVQScreen@@NN@Z
       4987 137A 000F1160 ?handleScreenOrientationChange@QWindowSystemInterface@@SAXPEAVQScreen@@W4ScreenOrientation@Qt@@@Z
       4988 137B 000F1170 ?handleScreenRefreshRateChange@QWindowSystemInterface@@SAXPEAVQScreen@@N@Z
       4989 137C 000F1180 ?handleScreenRemoved@QWindowSystemInterface@@SAXPEAVQPlatformScreen@@@Z
       4990 137D 000F14C0 ?handleShortcutEvent@QWindowSystemInterface@@SA_NPEAVQWindow@@KHV?$QFlags@W4KeyboardModifier@Qt@@@@IIIAEBVQString@@_NG@Z
       4991 137E 000F1670 ?handleTabletEnterLeaveProximityEvent@QWindowSystemInterface@@SA_NPEAVQWindow@@KPEBVQPointingDevice@@_NAEBVQPointF@@3V?$QFlags@W4MouseButton@Qt@@@@HHNNHV?$QFlags@W4KeyboardModifier@Qt@@@@@Z
       4992 137F 000F1690 ?handleTabletEnterLeaveProximityEvent@QWindowSystemInterface@@SA_NPEAVQWindow@@PEBVQPointingDevice@@_NAEBVQPointF@@3V?$QFlags@W4MouseButton@Qt@@@@HHNNHV?$QFlags@W4KeyboardModifier@Qt@@@@@Z
       4993 1380 000F16E0 ?handleTabletEnterProximityEvent@QWindowSystemInterface@@SAXHH_J@Z
       4994 1381 000F1750 ?handleTabletEnterProximityEvent@QWindowSystemInterface@@SA_NKHH_J@Z
       4995 1382 000F17A0 ?handleTabletEvent@QWindowSystemInterface@@SA_NPEAVQWindow@@AEBVQPointF@@1HHV?$QFlags@W4MouseButton@Qt@@@@NHHNNH_JV?$QFlags@W4KeyboardModifier@Qt@@@@@Z
       4996 1383 000F18A0 ?handleTabletEvent@QWindowSystemInterface@@SA_NPEAVQWindow@@KAEBVQPointF@@1HHV?$QFlags@W4MouseButton@Qt@@@@NHHNNH_JV?$QFlags@W4KeyboardModifier@Qt@@@@@Z
       4997 1384 000F1990 ?handleTabletEvent@QWindowSystemInterface@@SA_NPEAVQWindow@@KPEBVQPointingDevice@@AEBVQPointF@@2V?$QFlags@W4MouseButton@Qt@@@@NHHNNHV?$QFlags@W4KeyboardModifier@Qt@@@@@Z
       4998 1385 000F1D00 ?handleTabletEvent@QWindowSystemInterface@@SA_NPEAVQWindow@@PEBVQPointingDevice@@AEBVQPointF@@2V?$QFlags@W4MouseButton@Qt@@@@NHHNNHV?$QFlags@W4KeyboardModifier@Qt@@@@@Z
       4999 1386 000F1DC0 ?handleTabletLeaveProximityEvent@QWindowSystemInterface@@SAXHH_J@Z
       5000 1387 000F1E30 ?handleTabletLeaveProximityEvent@QWindowSystemInterface@@SA_NKHH_J@Z
       5001 1388 00091FE0 ?handleThemeChanged@QGuiApplicationPrivate@@MEAAXXZ
       5002 1389 000ADD30 ?handleUpdateEvent@QPaintDeviceWindowPrivate@@QEAAXXZ
       5003 138A 00004BC0 ?handleWhatsThis@QShortcutPrivate@@UEAA_NXZ
       5004 138B 000F1E80 ?handleWheelEvent@QWindowSystemInterface@@SA_NPEAVQWindow@@AEBVQPointF@@1VQPoint@@2V?$QFlags@W4KeyboardModifier@Qt@@@@W4ScrollPhase@Qt@@W4MouseEventSource@7@@Z
       5005 138C 000F1F50 ?handleWheelEvent@QWindowSystemInterface@@SA_NPEAVQWindow@@KAEBVQPointF@@1VQPoint@@2V?$QFlags@W4KeyboardModifier@Qt@@@@W4ScrollPhase@Qt@@W4MouseEventSource@7@_N@Z
       5006 138D 000F2010 ?handleWheelEvent@QWindowSystemInterface@@SA_NPEAVQWindow@@KPEBVQPointingDevice@@AEBVQPointF@@2VQPoint@@3V?$QFlags@W4KeyboardModifier@Qt@@@@W4ScrollPhase@Qt@@W4MouseEventSource@8@_N@Z
       5007 138E 00265BE0 ?handlerForObject@QAbstractTextDocumentLayout@@QEBAPEAVQTextObjectInterface@@H@Z
       5008 138F 0029D240 ?harfbuzzFace@QFontEngine@@QEBAPEAXXZ
       5009 1390 0029D250 ?harfbuzzFont@QFontEngine@@QEBAPEAXXZ
       5010 1391 00066E50 ?hasAlpha@QPixmap@@QEBA_NXZ
       5011 1392 000DB730 ?hasAlpha@QSurfaceFormat@@QEBA_NXZ
       5012 1393 00068AF0 ?hasAlphaChannel@QBlittablePlatformPixmap@@UEBA_NXZ
       5013 1394 00039430 ?hasAlphaChannel@QImage@@QEBA_NXZ
       5014 1395 00066E50 ?hasAlphaChannel@QPixmap@@QEBA_NXZ
       5015 1396 00069810 ?hasAlphaChannel@QRasterPlatformPixmap@@UEBA_NXZ
       5016 1397 000A6FC0 ?hasCapability@QInputDevice@@QEBA_NW4Capability@1@@Z
       5017 1398 00004DA0 ?hasCapability@QPlatformInputContext@@UEBA_NW4Capability@1@@Z
       5018 1399 000C1640 ?hasCapability@QPlatformIntegration@@UEBA_NW4Capability@1@@Z
       5019 139A 00004BC0 ?hasCapability@QPlatformServices@@UEBA_NW4Capability@1@@Z
       5020 139B 00004BC0 ?hasChangedCore@QAbstractLayoutStyleInfo@@UEBA_NXZ
       5021 139C 00470370 ?hasChildren@QFileSystemModel@@UEBA_NAEBVQModelIndex@@@Z
       5022 139D 0034C220 ?hasChildren@QStandardItem@@QEBA_NXZ
       5023 139E 0034C240 ?hasChildren@QStandardItemModel@@UEBA_NAEBVQModelIndex@@@Z
       5024 139F 001B85B0 ?hasClipOperations@QPaintEngineExPrivate@@QEBA_NXZ
       5025 13A0 001C8CE0 ?hasClipping@QPainter@@QEBA_NXZ
       5026 13A1 002AF040 ?hasComplexSelection@QTextCursor@@QEBA_NXZ
       5027 13A2 00104280 ?hasDepthTest@QRhiGraphicsPipeline@@QEBA_NXZ
       5028 13A3 00104290 ?hasDepthWrite@QRhiGraphicsPipeline@@QEBA_NXZ
       5029 13A4 00338EA0 ?hasDynamicConstraint@QGridLayoutEngine@@QEBA_NXZ
       5030 13A5 00004BC0 ?hasDynamicConstraint@QGridLayoutItem@@UEBA_NXZ
       5031 13A6 00039470 ?hasExplicitOpen@QVectorPath@@QEBA_NXZ
       5032 13A7 0035A040 ?hasExtension@QOpenGLContext@@QEBA_NAEBVQByteArray@@@Z
       5033 13A8 0028D240 ?hasFamily@QFontDatabase@@SA_NAEBVQString@@@Z
       5034 13A9 00039480 ?hasFeature@QPaintEngine@@QEBA_NV?$QFlags@W4PaintEngineFeature@QPaintEngine@@@@@Z
       5035 13AA 000AACA0 ?hasFormat@QInternalMimeData@@UEBA_NAEBVQString@@@Z
       5036 13AB 00305B50 ?hasFormatCached@QTextFormatCollection@@QEBA_NAEBVQTextFormat@@@Z
       5037 13AC 000AAE60 ?hasFormatHelper@QInternalMimeData@@SA_NAEBVQString@@PEBVQMimeData@@@Z
       5038 13AD 00039490 ?hasFormats@QTextEngine@@QEBA_NXZ
       5039 13AE 00265D60 ?hasHandlers@QAbstractTextDocumentLayoutPrivate@@QEBA_NXZ
       5040 13AF 000394B0 ?hasImplicitClose@QVectorPath@@QEBA_NXZ
       5041 13B0 00004BC0 ?hasInternalCaching@QFontEngine@@UEBA_NXZ
       5042 13B1 000394C0 ?hasNext@Parser@QCss@@QEBA_NXZ
       5043 13B2 00360810 ?hasOpenGLExtension@QOpenGLExtensions@@QEBA_NW4OpenGLExtension@1@@Z
       5044 13B3 00360870 ?hasOpenGLFeature@QOpenGLFunctions@@QEBA_NW4OpenGLFeature@1@@Z
       5045 13B4 00241E40 ?hasOptimalCapacity@QRhiResourceUpdateBatch@@QEBA_NXZ
       5046 13B5 000394D0 ?hasPendingGlyphs@QTextureGlyphCache@@QEBA_NXZ
       5047 13B6 000CD310 ?hasPendingUpdateRequest@QPlatformWindow@@QEBA_NXZ
       5048 13B7 00004A60 ?hasPixelDelta@QWheelEvent@@QEBA_NXZ
       5049 13B8 003D6C80 ?hasPopulatedFont@QWindowsDirectWriteFontDatabase@@QEBA_NAEBVQString@@@Z
       5050 13B9 00305F20 ?hasProperty@QTextFormat@@QEBA_NH@Z
       5051 13BA 002AF0F0 ?hasSelection@QTextCursor@@QEBA_NXZ
       5052 13BB 003FDFC0 ?hasShortcutForKeySequence@QShortcutMap@@QEBA_NAEBVQKeySequence@@@Z
       5053 13BC 000FEDB0 ?hasStaticContents@QBackingStore@@QEBA_NXZ
       5054 13BD 001042A0 ?hasStencilTest@QRhiGraphicsPipeline@@QEBA_NXZ
       5055 13BE 00014730 ?hasThemeIcon@QIcon@@SA_NAEBVQString@@@Z
       5056 13BF 00014840 ?hasThemeIcon@QIcon@@SA_NW4ThemeIcon@1@@Z
       5057 13C0 0003A1F0 ?hasUnreliableGlyphOutline@QFontEngine@@UEBA_NXZ
       5058 13C1 000149A0 ?hasUserTheme@QIconLoader@@QEBA_NXZ
       5059 13C2 0027D050 ?hasVariableAxis@QFontPrivate@@QEBA_NUTag@QFont@@M@Z
       5060 13C3 000394F0 ?hasWindingFill@QVectorPath@@QEBA_NXZ
       5061 13C4 0006BFF0 ?hash@Key@QPixmapCache@@AEBA_K_K@Z
       5062 13C5 004146A0 ?hb_qt_face_get_for_engine@@YAPEAUhb_face_t@@PEAVQFontEngine@@@Z
       5063 13C6 00414880 ?hb_qt_font_get_for_engine@@YAPEAUhb_font_t@@PEAVQFontEngine@@@Z
       5064 13C7 004148F0 ?hb_qt_font_get_use_design_metrics@@YAIPEAUhb_font_t@@@Z
       5065 13C8 00414900 ?hb_qt_font_set_use_design_metrics@@YAXPEAUhb_font_t@@I@Z
       5066 13C9 00003100 ?hdc@QWindowsNativeImage@@QEBAPEAUHDC__@@XZ
       5067 13CA 00030470 ?hdr@QColorTrc@@QEBAAEBVQColorTransferGenericFunction@@XZ
       5068 13CB 00241E60 ?hdrInfo@QRhiSwapChain@@UEAA?AUQRhiSwapChainHdrInfo@@XZ
       5069 13CC 00470450 ?headerData@QFileSystemModel@@UEBA?AVQVariant@@HW4Orientation@Qt@@H@Z
       5070 13CD 0034C2C0 ?headerData@QStandardItemModel@@UEBA?AVQVariant@@HW4Orientation@Qt@@H@Z
       5071 13CE 00039500 ?headerRowCount@QTextTableFormat@@QEBAHXZ
       5072 13CF 00039510 ?headingLevel@QTextBlockFormat@@QEBAHXZ
       5073 13D0 000DB720 ?height@QDistanceField@@QEBAHXZ
       5074 13D1 002A2290 ?height@QFontMetrics@@QEBAHXZ
       5075 13D2 002A2300 ?height@QFontMetricsF@@QEBANXZ
       5076 13D3 00039520 ?height@QImage@@QEBAHXZ
       5077 13D4 00004A80 ?height@QPaintDevice@@QEBAHXZ
       5078 13D5 00036BF0 ?height@QPixmap@@QEBAHXZ
       5079 13D6 00006400 ?height@QPlatformPixmap@@QEBAHXZ
       5080 13D7 00039530 ?height@QTextFrameFormat@@QEBA?AVQTextLength@@XZ
       5081 13D8 00039550 ?height@QTextImageFormat@@QEBANXZ
       5082 13D9 00320430 ?height@QTextInlineObject@@QEBANXZ
       5083 13DA 00320470 ?height@QTextLine@@QEBANXZ
       5084 13DB 00004AA0 ?height@QWindow@@QEBAHXZ
       5085 13DC 003E0010 ?height@QWindowsNativeImage@@QEBAHXZ
       5086 13DD 000E26D0 ?heightChanged@QWindow@@QEAAXH@Z
       5087 13DE 00004AC0 ?heightMM@QPaintDevice@@QEBAHXZ
       5088 13DF 00004AE0 ?hiResGlobalX@QTabletEvent@@QEBANXZ
       5089 13E0 00004B00 ?hiResGlobalY@QTabletEvent@@QEBANXZ
       5090 13E1 000A95F0 ?hide@QInputMethod@@QEAAXXZ
       5091 13E2 000E2710 ?hide@QWindow@@QEAAXXZ
       5092 13E3 000E15F0 ?hideEvent@QWindow@@MEAAXPEAVQHideEvent@@@Z
       5093 13E4 000074A0 ?hideInputPanel@QPlatformInputContext@@UEAAXXZ
       5094 13E5 00092220 ?hideModalWindow@QGuiApplicationPrivate@@SAXPEAVQWindow@@@Z
       5095 13E6 0029D260 ?highByte@QFontEngineMulti@@SAEI@Z
       5096 13E7 000922C0 ?highDpiScaleFactorRoundingPolicy@QGuiApplication@@SA?AW4HighDpiScaleFactorRoundingPolicy@Qt@@XZ
       5097 13E8 007352DC ?highDpiScaleFactorRoundingPolicy@QGuiApplicationPrivate@@2W4HighDpiScaleFactorRoundingPolicy@Qt@@A
       5098 13E9 000149B0 ?highlight@QPalette@@QEBAAEBVQBrush@@XZ
       5099 13EA 000149C0 ?highlightedText@QPalette@@QEBAAEBVQBrush@@XZ
       5100 13EB 0027D120 ?hintingPreference@QFont@@QEBA?AW4HintingPreference@1@XZ
       5101 13EC 002A78C0 ?hintingPreference@QRawFont@@QEBA?AW4HintingPreference@QFont@@XZ
       5102 13ED 00455420 ?hintingPreferenceToRenderingMode@QWindowsFontEngineDirectWrite@@AEBA?AW4DWRITE_RENDERING_MODE@@AEBUQFontDef@@@Z
       5103 13EE 00005F80 ?hints@QVectorPath@@QEBAIXZ
       5104 13EF 000BA410 ?history@QFileDialogOptions@@QEBA?AV?$QList@VQString@@@@XZ
       5105 13F0 002E25E0 ?hitTest@QTextDocumentLayout@@UEBAHAEBVQPointF@@W4HitTestAccuracy@Qt@@@Z
       5106 13F1 002A2370 ?horizontalAdvance@QFontMetrics@@QEBAHAEBVQString@@AEBVQTextOption@@@Z
       5107 13F2 002A2460 ?horizontalAdvance@QFontMetrics@@QEBAHAEBVQString@@H@Z
       5108 13F3 002A25E0 ?horizontalAdvance@QFontMetrics@@QEBAHVQChar@@@Z
       5109 13F4 002A26C0 ?horizontalAdvance@QFontMetricsF@@QEBANAEBVQString@@AEBVQTextOption@@@Z
       5110 13F5 002A27E0 ?horizontalAdvance@QFontMetricsF@@QEBANAEBVQString@@H@Z
       5111 13F6 002A2980 ?horizontalAdvance@QFontMetricsF@@QEBANVQChar@@@Z
       5112 13F7 003204D0 ?horizontalAdvance@QTextLine@@QEBANXZ
       5113 13F8 0034C410 ?horizontalHeaderItem@QStandardItemModel@@QEBAPEAVQStandardItem@@H@Z
       5114 13F9 00078A40 ?hotSpot@QCursor@@QEBA?AVQPoint@@XZ
       5115 13FA 003F3840 ?hotSpot@QDrag@@QEBA?AVQPoint@@XZ
       5116 13FB 00078AF0 ?hotspot@QPlatformCursorImage@@QEBA?AVQPoint@@XZ
       5117 13FC 003EE370 ?hover@QAction@@QEAAXXZ
       5118 13FD 003EE370 ?hovered@QAction@@QEAAXXZ
       5119 13FE 003F1780 ?hovered@QActionGroup@@QEAAXPEAVQAction@@@Z
       5120 13FF 000C2930 ?hovered@QPlatformMenuItem@@QEAAXXZ
       5121 1400 000042D0 ?href@QWhatsThisClickedEvent@@QEBA?AVQString@@XZ
       5122 1401 00127510 ?hslHue@QColor@@QEBAHXZ
       5123 1402 00127570 ?hslHueF@QColor@@QEBAMXZ
       5124 1403 001275D0 ?hslSaturation@QColor@@QEBAHXZ
       5125 1404 00127610 ?hslSaturationF@QColor@@QEBAMXZ
       5126 1405 00127650 ?hsvHue@QColor@@QEBAHXZ
       5127 1406 001276B0 ?hsvHueF@QColor@@QEBAMXZ
       5128 1407 00127710 ?hsvSaturation@QColor@@QEBAHXZ
       5129 1408 00127750 ?hsvSaturationF@QColor@@QEBAMXZ
       5130 1409 00127790 ?hue@QColor@@QEBAHXZ
       5131 140A 001276B0 ?hueF@QColor@@QEBAMXZ
       5132 140B 000922D0 ?hyperlinkInterface@QAccessibleInterface@@QEAAPEAVQAccessibleHyperlinkInterface@@XZ
       5133 140C 00130570 ?iccProfile@QColorSpace@@QEBA?AVQByteArray@@XZ
       5134 140D 0000AAA0 ?icon@QAbstractFileIconProvider@@UEBA?AVQIcon@@AEBVQFileInfo@@@Z
       5135 140E 0000AAC0 ?icon@QAbstractFileIconProvider@@UEBA?AVQIcon@@W4IconType@1@@Z
       5136 140F 003EE390 ?icon@QAction@@QEBA?AVQIcon@@XZ
       5137 1410 004705F0 ?icon@QFileSystemModelPrivate@@QEBA?AVQIcon@@AEBVQModelIndex@@@Z
       5138 1411 0034C480 ?icon@QStandardItem@@QEBA?AVQIcon@@XZ
       5139 1412 000E2730 ?icon@QWindow@@QEBA?AVQIcon@@XZ
       5140 1413 0001E830 ?iconEngine@QIconLoader@@QEBAPEAVQIconEngine@@AEBVQString@@@Z
       5141 1414 00006420 ?iconName@QIconEngine@@UEAA?AVQString@@XZ
       5142 1415 000BA440 ?iconPixmap@QMessageDialogOptions@@QEBA?AVQPixmap@@XZ
       5143 1416 000C1720 ?iconProvider@QFileInfoGatherer@@QEBAPEAVQAbstractFileIconProvider@@XZ
       5144 1417 00470640 ?iconProvider@QFileSystemModel@@QEBAPEAVQAbstractFileIconProvider@@XZ
       5145 1418 003EE3C0 ?iconText@QAction@@QEBA?AVQString@@XZ
       5146 1419 00441060 ?iconValue@Declaration@QCss@@QEBA?AVQIcon@@XZ
       5147 141A 0007B350 ?id@QEventPoint@@QEBAHXZ
       5148 141B 00039560 ?id@QFontCache@@QEBAHXZ
       5149 141C 00002CC0 ?id@QOpenGLSharedResourceGuard@@QEBAIXZ
       5150 141D 001989E0 ?id@QPageSize@@QEBA?AW4PageSizeId@1@XZ
       5151 141E 00198A10 ?id@QPageSize@@SA?AW4PageSizeId@1@AEBVQSize@@W4SizeMatchPolicy@1@@Z
       5152 141F 00198BB0 ?id@QPageSize@@SA?AW4PageSizeId@1@AEBVQSizeF@@W4Unit@1@W4SizeMatchPolicy@1@@Z
       5153 1420 00198BC0 ?id@QPageSize@@SA?AW4PageSizeId@1@H@Z
       5154 1421 003FAD90 ?id@QShortcut@@QEBAHXZ
       5155 1422 0003B000 ?id@QUndoCommand@@UEBAHXZ
       5156 1423 003E9D40 ?idForInterface@QAccessibleCache@@QEBAIPEAVQAccessibleInterface@@@Z
       5157 1424 003E9E60 ?idForObject@QAccessibleCache@@QEBAIPEAVQObject@@@Z
       5158 1425 002C1320 ?idealWidth@QTextDocument@@QEBANXZ
       5159 1426 002E3C30 ?idealWidth@QTextDocumentLayout@@QEBANXZ
       5160 1427 00004B20 ?ignore@QDragMoveEvent@@QEAAXAEBVQRect@@@Z
       5161 1428 00004B30 ?ignore@QDragMoveEvent@@QEAAXXZ
       5162 1429 00076380 ?image@QClipboard@@QEBA?AVQImage@@W4Mode@1@@Z
       5163 142A 00039570 ?image@QImageTextureGlyphCache@@QEBAAEBVQImage@@XZ
       5164 142B 000016C0 ?image@QPlatformCursorImage@@QEAAPEAVQImage@@XZ
       5165 142C 001042B0 ?image@QRhiTextureSubresourceUploadDescription@@QEBA?AVQImage@@XZ
       5166 142D 003186E0 ?image@QTextImageHandler@@QEAA?AVQImage@@PEAVQTextDocument@@AEBVQTextImageFormat@@@Z
       5167 142E 000099E0 ?image@QWindowsNativeImage@@QEAAAEAVQImage@@XZ
       5168 142F 000099E0 ?image@QWindowsNativeImage@@QEBAAEBVQImage@@XZ
       5169 1430 00265D80 ?imageAt@QAbstractTextDocumentLayout@@QEBA?AVQString@@AEBVQPointF@@@Z
       5170 1431 000551F0 ?imageCount@QImageIOHandler@@UEBAHXZ
       5171 1432 00057E70 ?imageCount@QImageReader@@QEBAHXZ
       5172 1433 00455500 ?imageForGlyph@QWindowsFontEngineDirectWrite@@AEAA?AVQImage@@IAEBUQFixedPoint@@HAEBVQTransform@@AEBVQColor@@@Z
       5173 1434 00057EB0 ?imageFormat@QImageReader@@QEBA?AW4Format@QImage@@XZ
       5174 1435 00057F60 ?imageFormat@QImageReader@@SA?AVQByteArray@@AEBVQString@@@Z
       5175 1436 00058030 ?imageFormat@QImageReader@@SA?AVQByteArray@@PEAVQIODevice@@@Z
       5176 1437 0002F790 ?imageFormat@QTextFormatCollection@@QEBA?AVQTextImageFormat@@H@Z
       5177 1438 000580C0 ?imageFormatsForMimeType@QImageReader@@SA?AV?$QList@VQByteArray@@@@AEBVQByteArray@@@Z
       5178 1439 0005DD80 ?imageFormatsForMimeType@QImageWriter@@SA?AV?$QList@VQByteArray@@@@AEBVQByteArray@@@Z
       5179 143A 000922F0 ?imageInterface@QAccessibleInterface@@QEAAPEAVQAccessibleImageInterface@@XZ
       5180 143B 00241E80 ?imageLoad@QRhiShaderResourceBinding@@SA?AV1@HV?$QFlags@W4StageFlag@QRhiShaderResourceBinding@@@@PEAVQRhiTexture@@H@Z
       5181 143C 00241EA0 ?imageLoadStore@QRhiShaderResourceBinding@@SA?AV1@HV?$QFlags@W4StageFlag@QRhiShaderResourceBinding@@@@PEAVQRhiTexture@@H@Z
       5182 143D 00241EC0 ?imageStore@QRhiShaderResourceBinding@@SA?AV1@HV?$QFlags@W4StageFlag@QRhiShaderResourceBinding@@@@PEAVQRhiTexture@@H@Z
       5183 143E 00425340 ?import@QTextMarkdownImporter@@QEAAXAEBVQString@@@Z
       5184 143F 002A2A70 ?inFont@QFontMetrics@@QEBA_NVQChar@@@Z
       5185 1440 002A2A70 ?inFont@QFontMetricsF@@QEBA_NVQChar@@@Z
       5186 1441 002A2AD0 ?inFontUcs4@QFontMetrics@@QEBA_NI@Z
       5187 1442 002A2AD0 ?inFontUcs4@QFontMetricsF@@QEBA_NI@Z
       5188 1443 003E39B0 ?increaseAction@QAccessibleActionInterface@@SAAEBVQString@@XZ
       5189 1444 0027D130 ?increaseCost@QFontCache@@AEAAXI@Z
       5190 1445 00039600 ?indent@QTextBlockFormat@@QEBAHXZ
       5191 1446 00039610 ?indent@QTextListFormat@@QEBAHXZ
       5192 1447 002C13A0 ?indentWidth@QTextDocument@@QEBANXZ
       5193 1448 00470740 ?index@QFileSystemModel@@QEBA?AVQModelIndex@@AEBVQString@@H@Z
       5194 1449 00470840 ?index@QFileSystemModel@@UEBA?AVQModelIndex@@HHAEBV2@@Z
       5195 144A 00470AE0 ?index@QFileSystemModelPrivate@@QEAA?AVQModelIndex@@AEBVQString@@H@Z
       5196 144B 00470BD0 ?index@QFileSystemModelPrivate@@QEBA?AVQModelIndex@@PEBVQFileSystemNode@1@H@Z
       5197 144C 0034C5E0 ?index@QStandardItem@@QEBA?AVQModelIndex@@XZ
       5198 144D 0034C680 ?index@QStandardItemModel@@UEBA?AVQModelIndex@@HHAEBV2@@Z
       5199 144E 003FAC50 ?index@QUndoStack@@QEBAHXZ
       5200 144F 00460AB0 ?indexChanged@QUndoGroup@@QEAAXH@Z
       5201 1450 0045E4C0 ?indexChanged@QUndoStack@@QEAAXH@Z
       5202 1451 00305F60 ?indexForFormat@QTextFormatCollection@@QEAAHAEBVQTextFormat@@@Z
       5203 1452 002F74E0 ?indexFormats@QTextEngine@@AEAAXXZ
       5204 1453 0034C780 ?indexFromItem@QStandardItemModel@@QEBA?AVQModelIndex@@PEBVQStandardItem@@@Z
       5205 1454 003EB0F0 ?indexOfChild@QAccessibleApplication@@UEBAHPEBVQAccessibleInterface@@@Z
       5206 1455 000BA470 ?informativeText@QMessageDialogOptions@@QEBA?AVQString@@XZ
       5207 1456 00441400 ?init@Parser@QCss@@QEAAXAEBVQString@@_N@Z
       5208 1457 00120CB0 ?init@QBrush@@AEAAXAEBVQColor@@W4BrushStyle@Qt@@@Z
       5209 1458 00470CC0 ?init@QFileSystemModelPrivate@@QEAAXXZ
       5210 1459 00092370 ?init@QGuiApplicationPrivate@@QEAAXXZ
       5211 145A 001C8D40 ?init@QPainterState@@QEAAXPEAVQPainter@@@Z
       5212 145B 000B05B0 ?init@QPalette@@AEAAXXZ
       5213 145C 001AF6D0 ?init@QRasterPaintEngine@@AEAAXXZ
       5214 145D 002CB770 ?init@QTextDocumentPrivate@@QEAAXXZ
       5215 145E 002F7680 ?init@QTextEngine@@CAXPEAV1@@Z
       5216 145F 00340C00 ?init@QTextureFileReader@@AEAA_NXZ
       5217 1460 000E27D0 ?init@QWindowPrivate@@QEAAXPEAVQWindow@@PEAVQScreen@@@Z
       5218 1461 003DC6B0 ?init@QWindowsFontDatabaseBase@@CA_NV?$QSharedPointer@VQWindowsFontEngineData@@@@@Z
       5219 1462 00455D70 ?initFontInfo@QWindowsFontEngineDirectWrite@@QEAAXAEBUQFontDef@@H@Z
       5220 1463 000A2EB0 ?initHighDpiScaling@QHighDpiScaling@@SAXXZ
       5221 1464 000074A0 ?initPainter@QPaintDevice@@MEBAXPEAVQPainter@@@Z
       5222 1465 000BA4A0 ?initialDirectory@QFileDialogOptions@@QEBA?AVQUrl@@XZ
       5223 1466 000CD340 ?initialGeometry@QPlatformWindow@@SA?AVQRect@@PEBVQWindow@@AEBV2@HHPEAPEBVQScreen@@@Z
       5224 1467 000074A0 ?initialize@QFont@@SAXXZ
       5225 1468 003EB850 ?initialize@QPlatformAccessibility@@UEAAXXZ
       5226 1469 000074A0 ?initialize@QPlatformIntegration@@UEAAXXZ
       5227 146A 000074A0 ?initialize@QPlatformOpenGLContext@@UEAAXXZ
       5228 146B 000074A0 ?initialize@QPlatformWindow@@UEAAXXZ
       5229 146C 0029D270 ?initializeHeightMetrics@QFontEngine@@MEBAXXZ
       5230 146D 00455F90 ?initializeHeightMetrics@QWindowsFontEngineDirectWrite@@UEBAXXZ
       5231 146E 003608D0 ?initializeOpenGLFunctions@QOpenGLFunctions@@QEAAXXZ
       5232 146F 000CAF20 ?initializeSystemPalette@QPlatformThemePrivate@@QEAAXXZ
       5233 1470 000BA4D0 ?initiallySelectedFiles@QFileDialogOptions@@QEBA?AV?$QList@VQUrl@@@@XZ
       5234 1471 000BA500 ?initiallySelectedMimeTypeFilter@QFileDialogOptions@@QEBA?AVQString@@XZ
       5235 1472 000BA530 ?initiallySelectedNameFilter@QFileDialogOptions@@QEBA?AVQString@@XZ
       5236 1473 00004B40 ?inline_type@QTransform@@AEBA?AW4TransformationType@1@XZ
       5237 1474 0025DB90 ?inputBuiltinVariables@QShaderDescription@@QEBA?AV?$QList@UBuiltinVariable@QShaderDescription@@@@XZ
       5238 1475 000031E0 ?inputContext@QPlatformIntegration@@UEBAPEAVQPlatformInputContext@@XZ
       5239 1476 00094E10 ?inputDeviceManager@QGuiApplicationPrivate@@SAPEAVQInputDeviceManager@@XZ
       5240 1477 000A9640 ?inputDirection@QInputMethod@@QEBA?AW4LayoutDirection@Qt@@XZ
       5241 1478 000BF9F0 ?inputDirection@QPlatformInputContext@@UEBA?AW4LayoutDirection@Qt@@XZ
       5242 1479 000A9690 ?inputDirectionChanged@QInputMethod@@QEAAXW4LayoutDirection@Qt@@@Z
       5243 147A 000A96D0 ?inputItemClipRectangle@QInputMethod@@QEBA?AVQRectF@@XZ
       5244 147B 000BFA30 ?inputItemClipRectangle@QPlatformInputContext@@SA?AVQRectF@@XZ
       5245 147C 000A9700 ?inputItemClipRectangleChanged@QInputMethod@@QEAAXXZ
       5246 147D 000A9720 ?inputItemRectangle@QInputMethod@@QEBA?AVQRectF@@XZ
       5247 147E 000BFA80 ?inputItemRectangle@QPlatformInputContext@@SA?AVQRectF@@XZ
       5248 147F 000A9740 ?inputItemTransform@QInputMethod@@QEBA?AVQTransform@@XZ
       5249 1480 00094E60 ?inputMethod@QGuiApplication@@SAPEAVQInputMethod@@XZ
       5250 1481 000BFBE0 ?inputMethodAccepted@QPlatformInputContext@@QEBA_NXZ
       5251 1482 0025DBC0 ?inputVariables@QShaderDescription@@QEBA?AV?$QList@UInOutVariable@QShaderDescription@@@@XZ
       5252 1483 003E9FE0 ?insert@QAccessibleCache@@QEBAIPEAVQObject@@PEAVQAccessibleInterface@@@Z
       5253 1484 0035A160 ?insert@QOpenGLMultiGroupSharedResource@@QEAAXPEAVQOpenGLContext@@PEAVQOpenGLSharedResource@@@Z
       5254 1485 0006C560 ?insert@QPixmapCache@@SA?AVKey@1@AEBVQPixmap@@@Z
       5255 1486 0006C6A0 ?insert@QPixmapCache@@SA_NAEBVQString@@AEBVQPixmap@@@Z
       5256 1487 002CBFC0 ?insert@QTextDocumentPrivate@@QEAAXHHHH@Z
       5257 1488 000397D0 ?insert@QTextDocumentPrivate@@QEAAXHVQChar@@H@Z
       5258 1489 002CC100 ?insert@QTextDocumentPrivate@@QEAAXHVQStringView@@H@Z
       5259 148A 002AF110 ?insertBlock@QTextCursor@@QEAAXAEBVQTextBlockFormat@@@Z
       5260 148B 002AF160 ?insertBlock@QTextCursor@@QEAAXAEBVQTextBlockFormat@@AEBVQTextCharFormat@@@Z
       5261 148C 002AF290 ?insertBlock@QTextCursor@@QEAAXXZ
       5262 148D 002AF370 ?insertBlock@QTextCursorPrivate@@QEAAXAEBVQTextBlockFormat@@AEBVQTextCharFormat@@@Z
       5263 148E 002CC180 ?insertBlock@QTextDocumentPrivate@@QEAAHHHHW4Operation@QTextUndoCommand@@@Z
       5264 148F 002CC1B0 ?insertBlock@QTextDocumentPrivate@@QEAAHVQChar@@HHHW4Operation@QTextUndoCommand@@@Z
       5265 1490 00425860 ?insertBlock@QTextMarkdownImporter@@AEAAXXZ
       5266 1491 0034CA60 ?insertColumn@QStandardItem@@QEAAXHAEBV?$QList@PEAVQStandardItem@@@@@Z
       5267 1492 0034CB10 ?insertColumn@QStandardItemModel@@QEAAXHAEBV?$QList@PEAVQStandardItem@@@@@Z
       5268 1493 0034CBD0 ?insertColumn@QStandardItemModel@@QEAA_NHAEBVQModelIndex@@@Z
       5269 1494 0034CBE0 ?insertColumns@QStandardItem@@QEAAXHH@Z
       5270 1495 0034CC20 ?insertColumns@QStandardItemModel@@UEAA_NHHAEBVQModelIndex@@@Z
       5271 1496 0032C0F0 ?insertColumns@QTextTable@@QEAAXHH@Z
       5272 1497 0027DB90 ?insertEngine@QFontCache@@QEAAXAEBUKey@1@PEAVQFontEngine@@_N@Z
       5273 1498 0027DCA0 ?insertEngineData@QFontCache@@QEAAXAEBUQFontDef@@PEAVQFontEngineData@@@Z
       5274 1499 002AF400 ?insertFragment@QTextCursor@@QEAAXAEBVQTextDocumentFragment@@@Z
       5275 149A 002AF4E0 ?insertFrame@QTextCursor@@QEAAPEAVQTextFrame@@AEBVQTextFrameFormat@@@Z
       5276 149B 002CC5C0 ?insertFrame@QTextDocumentPrivate@@QEAAPEAVQTextFrame@@HHAEBVQTextFrameFormat@@@Z
       5277 149C 002AF570 ?insertHtml@QTextCursor@@QEAAXAEBVQString@@@Z
       5278 149D 002AF6A0 ?insertImage@QTextCursor@@QEAAXAEBVQImage@@AEBVQString@@@Z
       5279 149E 002AF830 ?insertImage@QTextCursor@@QEAAXAEBVQString@@@Z
       5280 149F 002AF8E0 ?insertImage@QTextCursor@@QEAAXAEBVQTextImageFormat@@@Z
       5281 14A0 002AF930 ?insertImage@QTextCursor@@QEAAXAEBVQTextImageFormat@@W4Position@QTextFrameFormat@@@Z
       5282 14A1 00339170 ?insertItem@QGridLayoutEngine@@QEAAXPEAVQGridLayoutItem@@H@Z
       5283 14A2 002AFAD0 ?insertList@QTextCursor@@QEAAPEAVQTextList@@AEBVQTextListFormat@@@Z
       5284 14A3 002AFBA0 ?insertList@QTextCursor@@QEAAPEAVQTextList@@W4Style@QTextListFormat@@@Z
       5285 14A4 002AFBD0 ?insertMarkdown@QTextCursor@@QEAAXAEBVQString@@V?$QFlags@W4MarkdownFeature@QTextDocument@@@@@Z
       5286 14A5 003394A0 ?insertOrRemoveRows@QGridLayoutEngine@@AEAAXHHW4Orientation@Qt@@@Z
       5287 14A6 00339740 ?insertOrRemoveRows@QGridLayoutItem@@QEAAXHHW4Orientation@Qt@@@Z
       5288 14A7 00339A40 ?insertRow@QGridLayoutEngine@@QEAAXHW4Orientation@Qt@@@Z
       5289 14A8 0034D040 ?insertRow@QStandardItem@@QEAAXHAEBV?$QList@PEAVQStandardItem@@@@@Z
       5290 14A9 0034D0F0 ?insertRow@QStandardItem@@QEAAXHPEAV1@@Z
       5291 14AA 0034D250 ?insertRow@QStandardItemModel@@QEAAXHAEBV?$QList@PEAVQStandardItem@@@@@Z
       5292 14AB 0034D310 ?insertRow@QStandardItemModel@@QEAAXHPEAVQStandardItem@@@Z
       5293 14AC 0034D470 ?insertRow@QStandardItemModel@@QEAA_NHAEBVQModelIndex@@@Z
       5294 14AD 0034D480 ?insertRows@QStandardItem@@QEAAXHAEBV?$QList@PEAVQStandardItem@@@@@Z
       5295 14AE 0034D490 ?insertRows@QStandardItem@@QEAAXHH@Z
       5296 14AF 0034D4D0 ?insertRows@QStandardItemModel@@UEAA_NHHAEBVQModelIndex@@@Z
       5297 14B0 0032C940 ?insertRows@QTextTable@@QEAAXHH@Z
       5298 14B1 0027DD50 ?insertSubstitution@QFont@@SAXAEBVQString@@0@Z
       5299 14B2 0027DEA0 ?insertSubstitutions@QFont@@SAXAEBVQString@@AEBV?$QList@VQString@@@@@Z
       5300 14B3 002AFE80 ?insertTable@QTextCursor@@QEAAPEAVQTextTable@@HH@Z
       5301 14B4 002AFEE0 ?insertTable@QTextCursor@@QEAAPEAVQTextTable@@HHAEBVQTextTableFormat@@@Z
       5302 14B5 002B0000 ?insertText@QTextCursor@@QEAAXAEBVQString@@@Z
       5303 14B6 002B0050 ?insertText@QTextCursor@@QEAAXAEBVQString@@AEBVQTextCharFormat@@@Z
       5304 14B7 002CC800 ?insert_block@QTextDocumentPrivate@@AEAAHHIHHW4Operation@QTextUndoCommand@@H@Z
       5305 14B8 002CCBD0 ?insert_frame@QTextDocumentPrivate@@AEAAXPEAVQTextFrame@@@Z
       5306 14B9 002CD1D0 ?insert_string@QTextDocumentPrivate@@AEAAXHIIHW4Operation@QTextUndoCommand@@@Z
       5307 14BA 002F7AE0 ?insertionPointsForLine@QTextEngine@@QEAA?AV?$vector@HV?$allocator@H@std@@@std@@H@Z
       5308 14BB 003E3A40 ?installActivationObserver@QAccessible@@SAXPEAVActivationObserver@1@@Z
       5309 14BC 003E3C00 ?installFactory@QAccessible@@SAXP6APEAVQAccessibleInterface@@AEBVQString@@PEAVQObject@@@Z@Z
       5310 14BD 003E3DC0 ?installRootObjectHandler@QAccessible@@SAP6AXPEAVQObject@@@ZP6AX0@Z@Z
       5311 14BE 003E3DD0 ?installUpdateHandler@QAccessible@@SAP6AXPEAVQAccessibleEvent@@@ZP6AX0@Z@Z
       5312 14BF 000F2500 ?installWindowSystemEventHandler@QWindowSystemInterfacePrivate@@SAXPEAVQWindowSystemEventHandler@@@Z
       5313 14C0 003EA240 ?instance@QAccessibleCache@@SAPEAV1@XZ
       5314 14C1 0027E020 ?instance@QFontCache@@SAPEAV1@XZ
       5315 14C2 0028DB80 ?instance@QFontDatabasePrivate@@SAPEAV1@XZ
       5316 14C3 0000AD30 ?instance@QGuiApplicationPrivate@@SAPEAV1@XZ
       5317 14C4 0001F0A0 ?instance@QIconLoader@@SAPEAV1@XZ
       5318 14C5 00055AB0 ?instance@QImagePixmapCleanupHooks@@SAPEAV1@XZ
       5319 14C6 000AC180 ?instance@QKeyMapper@@SAPEAV1@XZ
       5320 14C7 00005560 ?instanceStepRate@QRhiVertexInputBinding@@QEBAIXZ
       5321 14C8 00306890 ?intProperty@QTextFormat@@QEBAHH@Z
       5322 14C9 00441990 ?intValue@Declaration@QCss@@QEBA_NPEAHPEBD@Z
       5323 14CA 003EA2B0 ?interfaceForId@QAccessibleCache@@QEBAPEAVQAccessibleInterface@@I@Z
       5324 14CB 000031E0 ?interface_cast@QAccessibleInterface@@UEAAPEAXW4InterfaceType@QAccessible@@@Z
       5325 14CC 00339A50 ?internalGridColumnCount@QGridLayoutEngine@@AEBAHXZ
       5326 14CD 00339A60 ?internalGridRowCount@QGridLayoutEngine@@AEBAHXZ
       5327 14CE 00120FF0 ?interpolationMode@QGradient@@QEBA?AW4InterpolationMode@1@XZ
       5328 14CF 001E11D0 ?intersect@QPathClipper@@QEAA_NXZ
       5329 14D0 001E14E0 ?intersect@QPathClipper@@SA?AVQPainterPath@@AEBV2@AEBVQRectF@@@Z
       5330 14D1 001CFED0 ?intersected@QPainterPath@@QEBA?AV1@AEBV1@@Z
       5331 14D2 0020EB80 ?intersected@QPolygon@@QEBA?AV1@AEBV1@@Z
       5332 14D3 0020ECF0 ?intersected@QPolygonF@@QEBA?AV1@AEBV1@@Z
       5333 14D4 00218FC0 ?intersected@QRegion@@QEBA?AV1@AEBV1@@Z
       5334 14D5 00219220 ?intersected@QRegion@@QEBA?AV1@AEBVQRect@@@Z
       5335 14D6 001D4510 ?intersects@QPainterPath@@QEBA_NAEBV1@@Z
       5336 14D7 001D45D0 ?intersects@QPainterPath@@QEBA_NAEBVQRectF@@@Z
       5337 14D8 0020EDE0 ?intersects@QPolygon@@QEBA_NAEBV1@@Z
       5338 14D9 0020EEC0 ?intersects@QPolygonF@@QEBA_NAEBV1@@Z
       5339 14DA 00219460 ?intersects@QRegion@@QEBA_NAEBV1@@Z
       5340 14DB 002195D0 ?intersects@QRegion@@QEBA_NAEBVQRect@@@Z
       5341 14DC 00318710 ?intrinsicSize@QTextImageHandler@@UEAA?AVQSizeF@@PEAVQTextDocument@@HAEBVQTextFormat@@@Z
       5342 14DD 000074A0 ?invalidate@QAbstractLayoutStyleInfo@@UEAAXXZ
       5343 14DE 001277F0 ?invalidate@QColor@@AEAAXXZ
       5344 14DF 0028DC80 ?invalidate@QFontDatabasePrivate@@QEAAXXZ
       5345 14E0 00339A70 ?invalidate@QGridLayoutEngine@@QEAAXXZ
       5346 14E1 000074A0 ?invalidate@QPlatformFontDatabase@@UEAAXXZ
       5347 14E2 002F7D80 ?invalidate@QTextEngine@@QEAAXXZ
       5348 14E3 00459CC0 ?invalidate@QWindowsDirectWriteFontDatabase@@MEAAXXZ
       5349 14E4 003D7180 ?invalidate@QWindowsFontDatabase@@UEAAXXZ
       5350 14E5 003DC7B0 ?invalidate@QWindowsFontDatabaseBase@@UEAAXXZ
       5351 14E6 0001F290 ?invalidateKey@QIconLoader@@QEAAXXZ
       5352 14E7 000074A0 ?invalidateResource@QOpenGLProgramBinarySupportCheck@@UEAAXXZ
       5353 14E8 00095200 ?invalidateResource@QOpenGLSharedResourceGuard@@MEAAXXZ
       5354 14E9 000074A0 ?invalidateSurface@QPlatformWindow@@UEAAXXZ
       5355 14EA 00039800 ?invertPixels@QImage@@QEAAXW4InvertMode@1@@Z
       5356 14EB 000F7470 ?inverted@QMatrix4x4@@QEBA?AV1@PEA_N@Z
       5357 14EC 000A0C00 ?inverted@QQuaternion@@QEBA?AV1@XZ
       5358 14ED 00225B00 ?inverted@QTransform@@QEBA?AV1@PEA_N@Z
       5359 14EE 00004B60 ?inverted@QWheelEvent@@QEBA_NXZ
       5360 14EF 0034DB40 ?invisibleRootItem@QStandardItemModel@@QEBAPEAVQStandardItem@@XZ
       5361 14F0 000A9890 ?invokeAction@QInputMethod@@QEAAXW4Action@1@H@Z
       5362 14F1 000BFBF0 ?invokeAction@QPlatformInputContext@@UEAAXW4Action@QInputMethod@@H@Z
       5363 14F2 002A4FD0 ?isAcceptableInput@QInputControl@@QEBA_NPEBVQKeyEvent@@@Z
       5364 14F3 0007B370 ?isAccepted@QEventPoint@@QEBA_NXZ
       5365 14F4 000FEDF0 ?isAccepted@QPlatformDropQtResponse@@QEBA_NXZ
       5366 14F5 003E3DE0 ?isActive@QAccessible@@SA_NXZ
       5367 14F6 00078B90 ?isActive@QHighDpiScaling@@SA_NXZ
       5368 14F7 0003A180 ?isActive@QPaintEngine@@QEBA_NXZ
       5369 14F8 001C8FA0 ?isActive@QPainter@@QEBA_NXZ
       5370 14F9 000C1660 ?isActive@QPlatformAccessibility@@QEBA_NXZ
       5371 14FA 00004BC0 ?isActive@QPlatformWindow@@UEBA_NXZ
       5372 14FB 0045E500 ?isActive@QUndoStack@@QEBA_NXZ
       5373 14FC 000E2A40 ?isActive@QWindow@@QEBA_NXZ
       5374 14FD 000A0CF0 ?isAffine@QMatrix4x4@@QEBA_NXZ
       5375 14FE 00004B70 ?isAffine@QTransform@@QEBA_NXZ
       5376 14FF 00004BC0 ?isAlertState@QPlatformWindow@@UEBA_NXZ
       5377 1500 00004BA0 ?isAmbiguous@QShortcutEvent@@QEBA_NXZ
       5378 1501 000CD8A0 ?isAncestorOf@QPlatformWindow@@UEBA_NPEBV1@@Z
       5379 1502 000E2AD0 ?isAncestorOf@QWindow@@QEBA_NPEBV1@W4AncestorMode@1@@Z
       5380 1503 0003A190 ?isAnchor@QTextCharFormat@@QEBA_NXZ
       5381 1504 000A98F0 ?isAnimating@QInputMethod@@QEBA_NXZ
       5382 1505 00004BC0 ?isAnimating@QPlatformInputContext@@UEBA_NXZ
       5383 1506 0028DE40 ?isApplicationFont@QFontDatabasePrivate@@QEAA_NAEBVQString@@@Z
       5384 1507 00004BB0 ?isAutoRepeat@QKeyEvent@@QEBA_NXZ
       5385 1508 0034DB50 ?isAutoTristate@QStandardItem@@QEBA_NXZ
       5386 1509 00004BC0 ?isBeginEvent@QPointerEvent@@UEBA_NXZ
       5387 150A 00086970 ?isBeginEvent@QSinglePointEvent@@UEBA_NXZ
       5388 150B 00086990 ?isBeginEvent@QTouchEvent@@UEBA_NXZ
       5389 150C 000869A0 ?isBeginEvent@QWheelEvent@@UEBA_NXZ
       5390 150D 0028DF00 ?isBitmapScalable@QFontDatabase@@SA_NAEBVQString@@0@Z
       5391 150E 0003A1A0 ?isBlockFormat@QTextFormat@@QEBA_NXZ
       5392 150F 000B0670 ?isBrushSet@QPalette@@QEBA_NW4ColorGroup@1@W4ColorRole@1@@Z
       5393 1510 0003A1C0 ?isCacheable@QVectorPath@@QEBA_NXZ
       5394 1511 0003A1D0 ?isCharFormat@QTextFormat@@QEBA_NXZ
       5395 1512 003EE4C0 ?isCheckable@QAction@@QEBA_NXZ
       5396 1513 0034DBD0 ?isCheckable@QStandardItem@@QEBA_NXZ
       5397 1514 003EE4D0 ?isChecked@QAction@@QEBA_NXZ
       5398 1515 00460AF0 ?isClean@QUndoGroup@@QEBA_NXZ
       5399 1516 0045E540 ?isClean@QUndoStack@@QEBA_NXZ
       5400 1517 00241EE0 ?isClipDepthZeroToOne@QRhi@@QEBA_NXZ
       5401 1518 001C8FB0 ?isClipEnabled@QPaintEngineState@@QEBA_NXZ
       5402 1519 0003A1F0 ?isColorFont@QFontEngine@@QEBA_NXZ
       5403 151A 002A50F0 ?isCommonTextEditShortcut@QInputControl@@SA_NPEBVQKeyEvent@@@Z
       5404 151B 0003A200 ?isConvex@QVectorPath@@QEBA_NXZ
       5405 151C 00007640 ?isCopyOf@QFont@@QEBA_NAEBV1@@Z
       5406 151D 00007640 ?isCopyOf@QPalette@@QEBA_NAEBV1@@Z
       5407 151E 00007640 ?isCopyOf@QTextCursor@@QEBA_NAEBV1@@Z
       5408 151F 001EC3A0 ?isCosmetic@QPen@@QEBA_NXZ
       5409 1520 0003A210 ?isCurved@QVectorPath@@QEBA_NXZ
       5410 1521 000C1660 ?isDebugLayerEnabled@QPlatformBackingStoreRhiConfig@@QEBA_NXZ
       5411 1522 00004BD0 ?isDetached@QBrush@@QEBA_NXZ
       5412 1523 00014DE0 ?isDetached@QIcon@@QEBA_NXZ
       5413 1524 0003A220 ?isDetached@QImage@@QEBA_NXZ
       5414 1525 00004BD0 ?isDetached@QKeySequence@@QEBA_NXZ
       5415 1526 00004BD0 ?isDetached@QPen@@QEAA_NXZ
       5416 1527 00063E60 ?isDetached@QPicture@@QEBA_NXZ
       5417 1528 00066E80 ?isDetached@QPixmap@@QEBA_NXZ
       5418 1529 00241F20 ?isDeviceLost@QRhi@@QEBA_NXZ
       5419 152A 004710A0 ?isDir@QFileSystemModel@@QEBA_NAEBVQModelIndex@@@Z
       5420 152B 0000AD40 ?isDoubleClick@QMutableSinglePointEvent@@QEAA_NXZ
       5421 152C 0000AD40 ?isDoubleClick@QMutableSinglePointEvent@@SA_NPEBVQSinglePointEvent@@@Z
       5422 152D 0034DC50 ?isDragEnabled@QStandardItem@@QEBA_NXZ
       5423 152E 0034DCD0 ?isDropEnabled@QStandardItem@@QEBA_NXZ
       5424 152F 0034DD50 ?isEditable@QStandardItem@@QEBA_NXZ
       5425 1530 00004BC0 ?isEmbedded@QPlatformWindow@@UEBA_NXZ
       5426 1531 0003A240 ?isEmpty@Declaration@QCss@@QEBA_NXZ
       5427 1532 0003A260 ?isEmpty@QColorTransferTable@@QEBA_NXZ
       5428 1533 002A45F0 ?isEmpty@QGlyphRun@@QEBA_NXZ
       5429 1534 00004BC0 ?isEmpty@QGridLayoutItem@@UEBA_NXZ
       5430 1535 003F9540 ?isEmpty@QKeySequence@@QEBA_NXZ
       5431 1536 00196BD0 ?isEmpty@QPageRanges@@QEBA_NXZ
       5432 1537 001D4760 ?isEmpty@QPainterPath@@QEBA_NXZ
       5433 1538 000FEDD0 ?isEmpty@QPlatformTextureList@@QEBA_NXZ
       5434 1539 002196B0 ?isEmpty@QRegion@@QEBA_NXZ
       5435 153A 002C1930 ?isEmpty@QTextDocument@@QEBA_NXZ
       5436 153B 002D4F10 ?isEmpty@QTextDocumentFragment@@QEBA_NXZ
       5437 153C 0003A270 ?isEmpty@QTextFormat@@QEBA_NXZ
       5438 153D 0003A290 ?isEmpty@QVectorPath@@QEBA_NXZ
       5439 153E 003EE4F0 ?isEnabled@QAction@@QEBA_NXZ
       5440 153F 003F17C0 ?isEnabled@QActionGroup@@QEBA_NXZ
       5441 1540 000FEDF0 ?isEnabled@QPlatformBackingStoreRhiConfig@@QEBA_NXZ
       5442 1541 00004DA0 ?isEnabled@QPlatformMenu@@UEBA_NXZ
       5443 1542 003FADB0 ?isEnabled@QShortcut@@QEBA_NXZ
       5444 1543 0034DDD0 ?isEnabled@QStandardItem@@QEBA_NXZ
       5445 1544 00004BC0 ?isEndEvent@QPointerEvent@@UEBA_NXZ
       5446 1545 000869C0 ?isEndEvent@QSinglePointEvent@@UEBA_NXZ
       5447 1546 000869E0 ?isEndEvent@QTouchEvent@@UEBA_NXZ
       5448 1547 000869F0 ?isEndEvent@QWheelEvent@@UEBA_NXZ
       5449 1548 00196BF0 ?isEqual@QPageRanges@@AEBA_NAEBV1@@Z
       5450 1549 000B0810 ?isEqual@QPalette@@QEBA_NW4ColorGroup@1@0@Z
       5451 154A 00193140 ?isEquivalentTo@QPageLayout@@QEBA_NAEBV1@@Z
       5452 154B 00199040 ?isEquivalentTo@QPageSize@@QEBA_NAEBV1@@Z
       5453 154C 003F17D0 ?isExclusive@QActionGroup@@QEBA_NXZ
       5454 154D 000CD970 ?isExposed@QPlatformWindow@@UEBA_NXZ
       5455 154E 000E2BB0 ?isExposed@QWindow@@QEBA_NXZ
       5456 154F 0003A210 ?isExtended@QPaintEngine@@QEBA_NXZ
       5457 1550 002A5C90 ?isFamilyPopulated@QPlatformFontDatabase@@SA_NAEBVQString@@@Z
       5458 1551 0027E190 ?isFeatureSet@QFont@@QEBA_NUTag@1@@Z
       5459 1552 00241F40 ?isFeatureSupported@QRhi@@QEBA_NW4Feature@1@@Z
       5460 1553 0028E240 ?isFixedPitch@QFontDatabase@@SA_NAEBVQString@@0@Z
       5461 1554 00004BC0 ?isForeignWindow@QPlatformWindow@@UEBA_NXZ
       5462 1555 0003A2A0 ?isFrameFormat@QTextFormat@@QEBA_NXZ
       5463 1556 0003A2C0 ?isGrayscale@QImage@@QEBA_NXZ
       5464 1557 00471230 ?isHiddenByFilter@QFileSystemModelPrivate@@QEBA_NPEAVQFileSystemNode@1@AEBVQModelIndex@@@Z
       5465 1558 003EE500 ?isIconVisibleInMenu@QAction@@QEBA_NXZ
       5466 1559 0003A340 ?isIdentity@QColorTransferTable@@QEBA_NXZ
       5467 155A 001441A0 ?isIdentity@QColorTransform@@QEBA_NXZ
       5468 155B 0003A380 ?isIdentity@QColorTrc@@QEBA_NXZ
       5469 155C 000A0D30 ?isIdentity@QMatrix4x4@@QEBA_NXZ
       5470 155D 000A0E40 ?isIdentity@QQuaternion@@QEBA_NXZ
       5471 155E 00004BE0 ?isIdentity@QTransform@@QEBA_NXZ
       5472 155F 0003A400 ?isIgnorableChar@QFontEngine@@SA_N_U@Z
       5473 1560 00055B70 ?isImageCached@QImagePixmapCleanupHooks@@SA_NAEBVQImage@@@Z
       5474 1561 0003A440 ?isImageFormat@QTextFormat@@QEBA_NXZ
       5475 1562 0003A480 ?isInEditBlock@QTextDocumentPrivate@@QEBA_NXZ
       5476 1563 000BE930 ?isInitialized@QOpenGLExtensions@@CA_NPEBUQOpenGLFunctionsPrivate@@@Z
       5477 1564 000BE930 ?isInitialized@QOpenGLExtraFunctions@@CA_NPEBVQOpenGLExtraFunctionsPrivate@@@Z
       5478 1565 000BE930 ?isInitialized@QOpenGLFunctions@@KA_NPEBUQOpenGLFunctionsPrivate@@@Z
       5479 1566 00004BC0 ?isInputPanelVisible@QPlatformInputContext@@UEBA_NXZ
       5480 1567 00004B60 ?isInverted@QWheelEvent@@QEBA_NXZ
       5481 1568 00004C10 ?isInvertible@QTransform@@QEBA_NXZ
       5482 1569 000BA6D0 ?isLabelExplicitlySet@QFileDialogOptions@@QEAA_NW4DialogLabel@1@@Z
       5483 156A 000D59E0 ?isLandscape@QScreen@@QEBA_NW4ScreenOrientation@Qt@@@Z
       5484 156B 00241F60 ?isLayoutCompatible@QRhiShaderResourceBinding@@QEBA_NAEBV1@@Z
       5485 156C 00241FB0 ?isLayoutCompatible@QRhiShaderResourceBindings@@QEBA_NPEBV1@@Z
       5486 156D 002C1990 ?isLayoutEnabled@QTextDocument@@QEBA_NXZ
       5487 156E 00004CB0 ?isLeftToRight@QGuiApplication@@SA_NXZ
       5488 156F 0003A490 ?isListFormat@QTextFormat@@QEBA_NXZ
       5489 1570 0011D4D0 ?isLocked@QBlittable@@QEBA_NXZ
       5490 1571 00002E50 ?isLocked@QPlatformGraphicsBuffer@@QEBA?AV?$QFlags@W4AccessType@QPlatformGraphicsBuffer@@@@XZ
       5491 1572 000E2BE0 ?isLocked@QPlatformTextureList@@QEBA_NXZ
       5492 1573 00014E00 ?isMask@QIcon@@QEBA_NXZ
       5493 1574 000E2BC0 ?isModal@QWindow@@QEBA_NXZ
       5494 1575 002C19A0 ?isModified@QTextDocument@@QEBA_NXZ
       5495 1576 0003A4B0 ?isModified@QTextDocumentPrivate@@QEBA_NXZ
       5496 1577 00004BC0 ?isNull@QAbstractFileIconEngine@@UEAA_NXZ
       5497 1578 0026CDE0 ?isNull@QDistanceField@@QEBA_NXZ
       5498 1579 00014E10 ?isNull@QIcon@@QEBA_NXZ
       5499 157A 00017790 ?isNull@QIconEngine@@UEAA_NXZ
       5500 157B 0003A4C0 ?isNull@QImage@@QEBA_NXZ
       5501 157C 00063E70 ?isNull@QPicture@@QEBA_NXZ
       5502 157D 00066EA0 ?isNull@QPixmap@@QEBA_NXZ
       5503 157E 00014E40 ?isNull@QPixmapIconEngine@@UEAA_NXZ
       5504 157F 00006410 ?isNull@QPlatformPixmap@@QEBA_NXZ
       5505 1580 000A0E80 ?isNull@QQuaternion@@QEBA_NXZ
       5506 1581 002196B0 ?isNull@QRegion@@QEBA_NXZ
       5507 1582 002B0480 ?isNull@QTextCursor@@QEBA_NXZ
       5508 1583 0033F470 ?isNull@QTextureFileData@@QEBA_NXZ
       5509 1584 0003A4D0 ?isNull@QTextureGlyphCache@@QEBA_NXZ
       5510 1585 0045E570 ?isObsolete@QUndoCommand@@QEBA_NXZ
       5511 1586 00121000 ?isOpaque@QBrush@@QEBA_NXZ
       5512 1587 0035A1F0 ?isOpenGLES@QOpenGLContext@@QEBA_NXZ
       5513 1588 00006410 ?isOverride@QWindowStateChangeEvent@@QEBA_NXZ
       5514 1589 00004BC0 ?isPhase2@QPlatformSessionManager@@UEBA_NXZ
       5515 158A 000D7020 ?isPhase2@QSessionManager@@QEBA_NXZ
       5516 158B 00055B80 ?isPixmapCached@QImagePixmapCleanupHooks@@SA_NAEBVQPixmap@@@Z
       5517 158C 00004DA0 ?isPlaceholder@QPlatformPlaceholderScreen@@UEBA_NXZ
       5518 158D 00004BC0 ?isPlaceholder@QPlatformScreen@@UEBA_NXZ
       5519 158E 00095210 ?isPopup@QWindowPrivate@@QEBA_NXZ
       5520 158F 000D5A10 ?isPortrait@QScreen@@QEBA_NW4ScreenOrientation@Qt@@@Z
       5521 1590 0028E380 ?isPrivateFamily@QFontDatabase@@SA_NAEBVQString@@@Z
       5522 1591 00004BC0 ?isPrivateFontFamily@QPlatformFontDatabase@@UEBA_NAEBVQString@@@Z
       5523 1592 00004BC0 ?isPrivateFontFamily@QWindowsDirectWriteFontDatabase@@UEBA_NAEBVQString@@@Z
       5524 1593 003D71A0 ?isPrivateFontFamily@QWindowsFontDatabase@@UEBA_NAEBVQString@@@Z
       5525 1594 00066EC0 ?isQBitmap@QPixmap@@QEBA_NXZ
       5526 1595 000C8290 ?isRasterSurface@QPlatformSurface@@SA_NPEAVQSurface@@@Z
       5527 1596 00471260 ?isReadOnly@QFileSystemModel@@QEBA_NXZ
       5528 1597 00056400 ?isRecordingFrame@QRhi@@QEBA_NXZ
       5529 1598 0003A4E0 ?isRect@QVectorPath@@QEBA_NXZ
       5530 1599 002C19B0 ?isRedoAvailable@QTextDocument@@QEBA_NXZ
       5531 159A 0003A600 ?isRedoAvailable@QTextDocumentPrivate@@QEBA_NXZ
       5532 159B 000A6FE0 ?isRegistered@QInputDevicePrivate@@SA_NPEBVQInputDevice@@@Z
       5533 159C 00004CD0 ?isRgbaValid@QColor@@CA_NHHHH@Z
       5534 159D 002A4620 ?isRightToLeft@QGlyphRun@@QEBA_NXZ
       5535 159E 00004D00 ?isRightToLeft@QGuiApplication@@SA_NXZ
       5536 159F 002F7E10 ?isRightToLeft@QTextEngine@@QEBA_NXZ
       5537 15A0 00004D20 ?isRotating@QTransform@@QEBA_NXZ
       5538 15A1 00095220 ?isSavingSession@QGuiApplication@@QEBA_NXZ
       5539 15A2 0028E3C0 ?isScalable@QFontDatabase@@SA_NAEBVQString@@0@Z
       5540 15A3 00004D50 ?isScaling@QTransform@@QEBA_NXZ
       5541 15A4 0034DE50 ?isSelectable@QStandardItem@@QEBA_NXZ
       5542 15A5 003E3E20 ?isSelected@QAccessibleSelectionInterface@@UEBA_NPEAVQAccessibleInterface@@@Z
       5543 15A6 003EE540 ?isSeparator@QAction@@QEBA_NXZ
       5544 15A7 00095230 ?isSessionRestored@QGuiApplication@@QEBA_NXZ
       5545 15A8 00004BC0 ?isSharing@QPlatformOpenGLContext@@UEBA_NXZ
       5546 15A9 003EE550 ?isShortcutVisibleInContextMenu@QAction@@QEBA_NXZ
       5547 15AA 0028E4C0 ?isSmoothlyScalable@QFontDatabase@@SA_NAEBVQString@@0@Z
       5548 15AB 001EC3C0 ?isSolid@QPen@@QEBA_NXZ
       5549 15AC 00005B70 ?isSupported@QOpenGLProgramBinarySupportCheck@@QEBA_NXZ
       5550 15AD 000BA6F0 ?isSupportedUrl@QPlatformFileDialogHelper@@UEBA_NAEBVQUrl@@@Z
       5551 15AE 0003A620 ?isTableCellFormat@QTextFormat@@QEBA_NXZ
       5552 15AF 0003A660 ?isTableFormat@QTextFormat@@QEBA_NXZ
       5553 15B0 00242050 ?isTextureFormatSupported@QRhi@@QEBA_NW4Format@QRhiTexture@@V?$QFlags@W4Flag@QRhiTexture@@@@@Z
       5554 15B1 000E2BD0 ?isTopLevel@QWindow@@QEBA_NXZ
       5555 15B2 00004D70 ?isTranslating@QTransform@@QEBA_NXZ
       5556 15B3 002C19E0 ?isUndoAvailable@QTextDocument@@QEBA_NXZ
       5557 15B4 0003A6A0 ?isUndoAvailable@QTextDocumentPrivate@@QEBA_NXZ
       5558 15B5 002C1A00 ?isUndoRedoEnabled@QTextDocument@@QEBA_NXZ
       5559 15B6 0003A6C0 ?isUndoRedoEnabled@QTextDocumentPrivate@@QEBA_NXZ
       5560 15B7 00004DA0 ?isUpdateEvent@QHoverEvent@@UEBA_NXZ
       5561 15B8 00004BC0 ?isUpdateEvent@QPointerEvent@@UEBA_NXZ
       5562 15B9 00086A10 ?isUpdateEvent@QSinglePointEvent@@UEBA_NXZ
       5563 15BA 00086A30 ?isUpdateEvent@QTouchEvent@@UEBA_NXZ
       5564 15BB 00086A50 ?isUpdateEvent@QWheelEvent@@UEBA_NXZ
       5565 15BC 0034DED0 ?isUserTristate@QStandardItem@@QEBA_NXZ
       5566 15BD 00095240 ?isUsingVirtualKeyboard@QGuiApplicationPrivate@@SA_NXZ
       5567 15BE 001E8700 ?isValid@Gpu@QOpenGLConfig@@QEBA_NXZ
       5568 15BF 0006C870 ?isValid@Key@QPixmapCache@@QEBA_NXZ
       5569 15C0 003EB190 ?isValid@QAccessibleObject@@UEBA_NXZ
       5570 15C1 00004DB0 ?isValid@QColor@@QEBA_NXZ
       5571 15C2 00130D20 ?isValid@QColorSpace@@QEBA_NXZ
       5572 15C3 00004DB0 ?isValid@QColorTrc@@QEBA_NXZ
       5573 15C4 004023B0 ?isValid@QMovie@@QEBA_NXZ
       5574 15C5 000AD370 ?isValid@QOffscreenSurface@@QEBA_NXZ
       5575 15C6 0035A250 ?isValid@QOpenGLContext@@QEBA_NXZ
       5576 15C7 001931D0 ?isValid@QPageLayout@@QEBA_NXZ
       5577 15C8 00199070 ?isValid@QPageSize@@QEBA_NXZ
       5578 15C9 00004BC0 ?isValid@QPlatformInputContext@@UEBA_NXZ
       5579 15CA 00004BC0 ?isValid@QPlatformOffscreenSurface@@UEBA_NXZ
       5580 15CB 00004DA0 ?isValid@QPlatformOpenGLContext@@UEBA_NXZ
       5581 15CC 00004DC0 ?isValid@QPointingDeviceUniqueId@@QEBA_NXZ
       5582 15CD 002A78D0 ?isValid@QRawFont@@QEBA_NXZ
       5583 15CE 001C8FD0 ?isValid@QRawFontPrivate@@QEBA_NXZ
       5584 15CF 00253A00 ?isValid@QShader@@QEBA_NXZ
       5585 15D0 0025DBF0 ?isValid@QShaderDescription@@QEBA_NXZ
       5586 15D1 00327950 ?isValid@QTextBlock@@QEBA_NXZ
       5587 15D2 0003A1A0 ?isValid@QTextBlockFormat@@QEBA_NXZ
       5588 15D3 0003A1D0 ?isValid@QTextCharFormat@@QEBA_NXZ
       5589 15D4 0003A6D0 ?isValid@QTextFormat@@QEBA_NXZ
       5590 15D5 0003A6F0 ?isValid@QTextFragment@@QEBA_NXZ
       5591 15D6 0003A2A0 ?isValid@QTextFrameFormat@@QEBA_NXZ
       5592 15D7 0003A440 ?isValid@QTextImageFormat@@QEBA_NXZ
       5593 15D8 0003A710 ?isValid@QTextInlineObject@@QEBA_NXZ
       5594 15D9 0003A710 ?isValid@QTextLine@@QEBA_NXZ
       5595 15DA 0003A490 ?isValid@QTextListFormat@@QEBA_NXZ
       5596 15DB 001C8FD0 ?isValid@QTextTableCell@@QEBA_NXZ
       5597 15DC 0003A620 ?isValid@QTextTableCellFormat@@QEBA_NXZ
       5598 15DD 0003A660 ?isValid@QTextTableFormat@@QEBA_NXZ
       5599 15DE 0033F480 ?isValid@QTextureFileData@@QEBA_NXZ
       5600 15DF 0003A720 ?isValid@glyph_metrics_t@@QEBA_NXZ
       5601 15E0 00127810 ?isValidColor@QColor@@SA_NAEBVQString@@@Z
       5602 15E1 00127870 ?isValidColor@QColor@@SA_NVQLatin1String@@@Z
       5603 15E2 001278D0 ?isValidColor@QColor@@SA_NVQStringView@@@Z
       5604 15E3 00127930 ?isValidColorName@QColor@@SA_NVQAnyStringView@@@Z
       5605 15E4 00320620 ?isValidCursorPosition@QTextLayout@@QEBA_NH@Z
       5606 15E5 00130E30 ?isValidTarget@QColorSpace@@QEBA_NXZ
       5607 15E6 0027E480 ?isVariableAxisSet@QFont@@QEBA_NUTag@1@@Z
       5608 15E7 003EE590 ?isVisible@QAction@@QEBA_NXZ
       5609 15E8 003F17E0 ?isVisible@QActionGroup@@QEBA_NXZ
       5610 15E9 000A9940 ?isVisible@QInputMethod@@QEBA_NXZ
       5611 15EA 00327980 ?isVisible@QTextBlock@@QEBA_NXZ
       5612 15EB 000E2BE0 ?isVisible@QWindow@@QEBA_NXZ
       5613 15EC 004661C0 ?isWatching@QFileInfoGatherer@@QEBA_NXZ
       5614 15ED 003300A0 ?isWindow@QAbstractLayoutStyleInfo@@QEBA_NXZ
       5615 15EE 00095350 ?isWindowBlocked@QGuiApplicationPrivate@@QEBA_NPEAVQWindow@@PEAPEAV2@@Z
       5616 15EF 00242070 ?isYUpInFramebuffer@QRhi@@QEBA_NXZ
       5617 15F0 00242090 ?isYUpInNDC@QRhi@@QEBA_NXZ
       5618 15F1 00004DD0 ?italic@QFont@@QEBA_NXZ
       5619 15F2 0028E950 ?italic@QFontDatabase@@SA_NAEBVQString@@0@Z
       5620 15F3 0027E500 ?italic@QFontInfo@@QEBA_NXZ
       5621 15F4 0034DF50 ?item@QStandardItemModel@@QEBAPEAVQStandardItem@@HH@Z
       5622 15F5 003248D0 ?item@QTextList@@QEBA?AVQTextBlock@@H@Z
       5623 15F6 00339AE0 ?itemAt@QGridLayoutEngine@@QEBAPEAVQGridLayoutItem@@H@Z
       5624 15F7 00339AF0 ?itemAt@QGridLayoutEngine@@QEBAPEAVQGridLayoutItem@@HHW4Orientation@Qt@@@Z
       5625 15F8 0034DFA0 ?itemChanged@QStandardItemModel@@QEAAXPEAVQStandardItem@@@Z
       5626 15F9 00002CC0 ?itemCount@QGridLayoutEngine@@QEBAHXZ
       5627 15FA 0034E130 ?itemData@QStandardItemModel@@UEBA?AV?$QMap@HVQVariant@@@@AEBVQModelIndex@@@Z
       5628 15FB 0034E6C0 ?itemFromIndex@QStandardItemModel@@QEBAPEAVQStandardItem@@AEBVQModelIndex@@@Z
       5629 15FC 00324910 ?itemNumber@QTextList@@QEBAHAEBVQTextBlock@@@Z
       5630 15FD 0034E770 ?itemPrototype@QStandardItemModel@@QEBAPEBVQStandardItem@@XZ
       5631 15FE 00324970 ?itemText@QTextList@@QEBA?AVQString@@AEBVQTextBlock@@@Z
       5632 15FF 002F7E80 ?itemize@QTextEngine@@QEBAXXZ
       5633 1600 000C7D60 ?itemsAvailable@QPlatformSharedGraphicsCache@@QEAAXAEBVQByteArray@@PEAXAEBV?$QList@I@@AEBV?$QList@VQPoint@@@@@Z
       5634 1601 000C7DD0 ?itemsInvalidated@QPlatformSharedGraphicsCache@@QEAAXAEBVQByteArray@@AEBV?$QList@I@@@Z
       5635 1602 000C7E20 ?itemsMissing@QPlatformSharedGraphicsCache@@QEAAXAEBVQByteArray@@AEBV?$QList@I@@@Z
       5636 1603 000C7E70 ?itemsUpdated@QPlatformSharedGraphicsCache@@QEAAXAEBVQByteArray@@PEAXAEBV?$QList@I@@AEBV?$QList@VQPoint@@@@@Z
       5637 1604 0022ABC0 ?join@QTriangulatingStroker@@AEAAXPEBN@Z
       5638 1605 0021E010 ?joinForJoinMode@QStroker@@KA?AW4PenJoinStyle@Qt@@W4LineJoinMode@1@@Z
       5639 1606 0021E040 ?joinModeForCap@QStroker@@KA?AW4LineJoinMode@1@W4PenCapStyle@Qt@@@Z
       5640 1607 0021E060 ?joinModeForJoin@QStroker@@KA?AW4LineJoinMode@1@W4PenJoinStyle@Qt@@@Z
       5641 1608 0021E090 ?joinPoints@QStroker@@QEAAXNNAEBVQLineF@@W4LineJoinMode@1@@Z
       5642 1609 002B04A0 ?joinPreviousEditBlock@QTextCursor@@QEAAXXZ
       5643 160A 002CD430 ?joinPreviousEditBlock@QTextDocumentPrivate@@QEAAXXZ
       5644 160B 001D4780 ?joinStyle@QPainterPathStroker@@QEBA?AW4PenJoinStyle@Qt@@XZ
       5645 160C 000BC620 ?joinStyle@QPen@@QEBA?AW4PenJoinStyle@Qt@@XZ
       5646 160D 0003A740 ?joinStyle@QStroker@@QEBA?AW4PenJoinStyle@Qt@@XZ
       5647 160E 0003A750 ?joinStyleMode@QStroker@@QEBA?AW4LineJoinMode@1@XZ
       5648 160F 00402440 ?jumpToFrame@QMovie@@QEAA_NH@Z
       5649 1610 00004BC0 ?jumpToImage@QImageIOHandler@@UEAA_NH@Z
       5650 1611 000585A0 ?jumpToImage@QImageReader@@QEAA_NH@Z
       5651 1612 004024B0 ?jumpToNextFrame@QMovie@@QEAA_NXZ
       5652 1613 00004BC0 ?jumpToNextImage@QImageIOHandler@@UEAA_NXZ
       5653 1614 000585F0 ?jumpToNextImage@QImageReader@@QEAA_NXZ
       5654 1615 002F8DD0 ?justify@QTextEngine@@QEAAXAEBUQScriptLine@@@Z
       5655 1616 002B04E0 ?keepPositionOnInsert@QTextCursor@@QEBA_NXZ
       5656 1617 0027E5C0 ?kerning@QFont@@QEBA_NXZ
       5657 1618 0027E5D0 ?key@QFont@@QEBA?AVQString@@XZ
       5658 1619 00006420 ?key@QIconEngine@@UEBA?AVQString@@XZ
       5659 161A 00002E40 ?key@QKeyEvent@@QEBAHXZ
       5660 161B 001990A0 ?key@QPageSize@@QEBA?AVQString@@XZ
       5661 161C 00199130 ?key@QPageSize@@SA?AVQString@@W4PageSizeId@1@@Z
       5662 161D 00014E50 ?key@QPixmapIconEngine@@UEBA?AVQString@@XZ
       5663 161E 003FADC0 ?key@QShortcut@@QEBA?AVQKeySequence@@XZ
       5664 161F 00003110 ?key@QShortcutEvent@@QEBAAEBVQKeySequence@@XZ
       5665 1620 003F9550 ?keyBindings@QKeySequence@@SA?AV?$QList@VQKeySequence@@@@W4StandardKey@1@@Z
       5666 1621 000CB0F0 ?keyBindings@QPlatformTheme@@UEBA?AV?$QList@VQKeySequence@@@@W4StandardKey@QKeySequence@@@Z
       5667 1622 00594250 ?keyBindings@QPlatformThemePrivate@@2QBUQKeyBinding@@B
       5668 1623 00004DF0 ?keyCombination@QKeyEvent@@QEBA?AVQKeyCombination@@XZ
       5669 1624 000C1670 ?keyMapper@QPlatformIntegration@@UEBAPEAVQPlatformKeyMapper@@XZ
       5670 1625 003F9580 ?keyName@QKeySequencePrivate@@SA?AVQString@@W4Key@Qt@@W4SequenceFormat@QKeySequence@@@Z
       5671 1626 000E15F0 ?keyPressEvent@QWindow@@MEAAXPEAVQKeyEvent@@@Z
       5672 1627 000E15F0 ?keyReleaseEvent@QWindow@@MEAAXPEAVQKeyEvent@@@Z
       5673 1628 003FE3F0 ?keySequences@QShortcutMap@@QEBA?AV?$QList@VQKeySequence@@@@_N@Z
       5674 1629 0033F5D0 ?keyValueMetadata@QTextureFileData@@QEBA?AV?$QMap@VQByteArray@@V1@@@XZ
       5675 162A 000D8130 ?keyboardAutoRepeatRate@QStyleHints@@QEBAHXZ
       5676 162B 000D8230 ?keyboardAutoRepeatRateF@QStyleHints@@QEBANXZ
       5677 162C 000D8340 ?keyboardInputInterval@QStyleHints@@QEBAHXZ
       5678 162D 000D8460 ?keyboardInputIntervalChanged@QStyleHints@@QEAAXH@Z
       5679 162E 00004E20 ?keyboardModifiers@QDropEvent@@QEBA?AV?$QFlags@W4KeyboardModifier@Qt@@@@XZ
       5680 162F 00095480 ?keyboardModifiers@QGuiApplication@@SA?AV?$QFlags@W4KeyboardModifier@Qt@@@@XZ
       5681 1630 000A81D0 ?keyboardModifiers@QInputDeviceManager@@QEBA?AV?$QFlags@W4KeyboardModifier@Qt@@@@XZ
       5682 1631 000BFC10 ?keyboardRect@QPlatformInputContext@@UEBA?AVQRectF@@XZ
       5683 1632 000A9990 ?keyboardRectangle@QInputMethod@@QEBA?AVQRectF@@XZ
       5684 1633 000BFC30 ?keyboardRectangle@QPlatformInputContext@@SA?AVQRectF@@XZ
       5685 1634 000A9A00 ?keyboardRectangleChanged@QInputMethod@@QEAAXXZ
       5686 1635 00087CA0 ?keys@QGenericPluginFactory@@SA?AV?$QList@VQString@@@@XZ
       5687 1636 000C08D0 ?keys@QPlatformInputContextFactory@@SA?AV?$QList@VQString@@@@XZ
       5688 1637 000C1BB0 ?keys@QPlatformIntegrationFactory@@SA?AV?$QList@VQString@@@@AEBVQString@@@Z
       5689 1638 000CC870 ?keys@QPlatformThemeFactory@@SA?AV?$QList@VQString@@@@AEBVQString@@@Z
       5690 1639 003F1340 ?keys@QShortcut@@QEBA?AV?$QList@VQKeySequence@@@@XZ
       5691 163A 000BA700 ?labelText@QFileDialogOptions@@QEBA?AVQString@@W4DialogLabel@1@@Z
       5692 163B 002C1A10 ?lastBlock@QTextDocument@@QEBA?AVQTextBlock@@XZ
       5693 163C 00004970 ?lastColumn@QAccessibleTableModelChangeEvent@@QEBAHXZ
       5694 163D 00339B30 ?lastColumn@QGridLayoutItem@@QEBAHW4Orientation@Qt@@@Z
       5695 163E 00339B60 ?lastColumn@QGridLayoutItem@@QEBAHXZ
       5696 163F 002420B0 ?lastCompletedGpuTime@QRhiCommandBuffer@@QEAANXZ
       5697 1640 007352C8 ?lastCursorPosition@QGuiApplicationPrivate@@2UQLastCursorPosition@1@A
       5698 1641 003279B0 ?lastCursorPosition@QTextFrame@@QEBA?AVQTextCursor@@XZ
       5699 1642 0032CD10 ?lastCursorPosition@QTextTableCell@@QEBA?AVQTextCursor@@XZ
       5700 1643 00402520 ?lastError@QMovie@@QEBA?AW4ImageReaderError@QImageReader@@XZ
       5701 1644 00402530 ?lastErrorString@QMovie@@QEBA?AVQString@@XZ
       5702 1645 00471270 ?lastModified@QFileSystemModel@@QEBA?AVQDateTime@@AEBVQModelIndex@@@Z
       5703 1646 00471330 ?lastModified@QFileSystemModel@@QEBA?AVQDateTime@@AEBVQModelIndex@@AEBVQTimeZone@@@Z
       5704 1647 0007B390 ?lastNormalizedPos@QEventPoint@@QEBA?AVQPointF@@XZ
       5705 1648 00196C80 ?lastPage@QPageRanges@@QEBAHXZ
       5706 1649 00004E30 ?lastPos@QEventPoint@@QEBA?AVQPointF@@XZ
       5707 164A 0007B480 ?lastPosition@QEventPoint@@QEBA?AVQPointF@@XZ
       5708 164B 00327A90 ?lastPosition@QTextFrame@@QEBAHXZ
       5709 164C 0032CDE0 ?lastPosition@QTextTableCell@@QEBAHXZ
       5710 164D 0029D520 ?lastRightBearing@QFontEngine@@IEAA?AUQFixed@@AEBUQGlyphLayout@@@Z
       5711 164E 000041F0 ?lastRow@QAccessibleTableModelChangeEvent@@QEBAHXZ
       5712 164F 00339B70 ?lastRow@QGridLayoutItem@@QEBAHW4Orientation@Qt@@@Z
       5713 1650 00339B80 ?lastRow@QGridLayoutItem@@QEBAHXZ
       5714 1651 00004E50 ?lastScenePos@QEventPoint@@QEBA?AVQPointF@@XZ
       5715 1652 00004E70 ?lastScreenPos@QEventPoint@@QEBA?AVQPointF@@XZ
       5716 1653 0007B4F0 ?lastTimestamp@QEventPoint@@QEBAKXZ
       5717 1654 00095490 ?lastWindowClosed@QGuiApplication@@QEAAXXZ
       5718 1655 000954B0 ?lastWindowClosed@QGuiApplicationPrivate@@QEBA_NXZ
       5719 1656 00002CC0 ?layer@QRhiColorAttachment@@QEBAHXZ
       5720 1657 00005560 ?layer@QRhiReadbackDescription@@QEBAHXZ
       5721 1658 00005A10 ?layer@QRhiTextureUploadEntry@@QEBAHXZ
       5722 1659 00327B40 ?layout@QTextBlock@@QEBAPEAVQTextLayout@@XZ
       5723 165A 0003A760 ?layout@QTextDocumentPrivate@@QEBAPEAVQAbstractTextDocumentLayout@@XZ
       5724 165B 00327BB0 ?layoutData@QTextFrame@@QEBAPEAVQTextFrameLayoutData@@XZ
       5725 165C 000955D0 ?layoutDirection@QGuiApplication@@SA?AW4LayoutDirection@Qt@@XZ
       5726 165D 001C90F0 ?layoutDirection@QPainter@@QEBA?AW4LayoutDirection@Qt@@XZ
       5727 165E 0003A770 ?layoutDirection@QTextFormat@@QEBA?AW4LayoutDirection@Qt@@XZ
       5728 165F 000955E0 ?layoutDirectionChanged@QGuiApplication@@QEAAXW4LayoutDirection@Qt@@@Z
       5729 1660 002E5FF0 ?layoutFinished@QTextDocumentLayout@@AEAAXXZ
       5730 1661 002E8940 ?layoutStatus@QTextDocumentLayout@@QEBAHXZ
       5731 1662 00320680 ?layout_helper@QTextLine@@AEAAXH@Z
       5732 1663 00363B30 ?lcOpenGLProgramDiskCache@@YAAEBVQLoggingCategory@@XZ
       5733 1664 0020C060 ?lcQpaBackingStore@@YAAEBVQLoggingCategory@@XZ
       5734 1665 002A5CA0 ?lcQpaFonts@@YAAEBVQLoggingCategory@@XZ
       5735 1666 000F2520 ?lcQpaInputDevices@@YAAEBVQLoggingCategory@@XZ
       5736 1667 000C1F00 ?lcQpaKeyMapper@@YAAEBVQLoggingCategory@@XZ
       5737 1668 0029D590 ?leading@QFontEngine@@UEBA?AUQFixed@@XZ
       5738 1669 0029D5F0 ?leading@QFontEngineMulti@@UEBA?AUQFixed@@XZ
       5739 166A 002A2B30 ?leading@QFontMetrics@@QEBAHXZ
       5740 166B 002A2B70 ?leading@QFontMetricsF@@QEBANXZ
       5741 166C 002A78E0 ?leading@QRawFont@@QEBANXZ
       5742 166D 00321FA0 ?leading@QTextLine@@QEBANXZ
       5743 166E 00321FD0 ?leadingIncluded@QTextLine@@QEBA_NXZ
       5744 166F 002F9B50 ?leadingSpaceWidth@QTextEngine@@QEAA?AUQFixed@@AEBUQScriptLine@@@Z
       5745 1670 002A2BC0 ?leftBearing@QFontMetrics@@QEBAHVQChar@@@Z
       5746 1671 002A2CB0 ?leftBearing@QFontMetricsF@@QEBANVQChar@@@Z
       5747 1672 0003A780 ?leftBearing@glyph_metrics_t@@QEBA?AUQFixed@@XZ
       5748 1673 0003A7B0 ?leftBorder@QTextTableCellFormat@@QEBANXZ
       5749 1674 0003A7C0 ?leftBorderBrush@QTextTableCellFormat@@QEBA?AVQBrush@@XZ
       5750 1675 0003A7E0 ?leftBorderStyle@QTextTableCellFormat@@QEBA?AW4BorderStyle@QTextFrameFormat@@XZ
       5751 1676 002CD4C0 ?leftCursorPosition@QTextDocumentPrivate@@QEBAHH@Z
       5752 1677 00321FF0 ?leftCursorPosition@QTextLayout@@QEBAHH@Z
       5753 1678 0003A7F0 ?leftMargin@QTextBlockFormat@@QEBANXZ
       5754 1679 00306960 ?leftMargin@QTextFrameFormat@@QEBANXZ
       5755 167A 0003A800 ?leftPadding@QTextTableCellFormat@@QEBANXZ
       5756 167B 0027E770 ?legacyWeight@QFont@@QEBAHXZ
       5757 167C 0027E7E0 ?legacyWeight@QFontInfo@@QEBAHXZ
       5758 167D 0010AC30 ?length@QBezier@@QEBANN@Z
       5759 167E 001D4790 ?length@QPainterPath@@QEBANXZ
       5760 167F 000FC860 ?length@QQuaternion@@QEBAMXZ
       5761 1680 00327BC0 ?length@QTextBlock@@QEBAHXZ
       5762 1681 0003A810 ?length@QTextDocumentPrivate@@QEBAHXZ
       5763 1682 0003A870 ?length@QTextEngine@@QEBAHH@Z
       5764 1683 0003A920 ?length@QTextEngine@@QEBAHPEBUQScriptItem@@@Z
       5765 1684 00327BF0 ?length@QTextFragment@@QEBAHXZ
       5766 1685 003069B0 ?lengthProperty@QTextFormat@@QEBA?AVQTextLength@@H@Z
       5767 1686 000FC930 ?lengthSquared@QQuaternion@@QEBAMXZ
       5768 1687 00441AF0 ?lengthValue@ValueExtractor@QCss@@AEAA?AULengthData@2@AEBUValue@2@@Z
       5769 1688 00441C60 ?lengthValue@ValueExtractor@QCss@@AEAAHAEBUDeclaration@2@@Z
       5770 1689 00441FB0 ?lengthValues@ValueExtractor@QCss@@QEAAXAEBUDeclaration@2@PEAH@Z
       5771 168A 00306B50 ?lengthVectorProperty@QTextFormat@@QEBA?AV?$QList@VQTextLength@@@@H@Z
       5772 168B 0027E8F0 ?letterSpacing@QFont@@QEBANXZ
       5773 168C 0027E910 ?letterSpacingType@QFont@@QEBA?AW4SpacingType@1@XZ
       5774 168D 00005F80 ?level@QRhiColorAttachment@@QEBAHXZ
       5775 168E 00006400 ?level@QRhiReadbackDescription@@QEBAHXZ
       5776 168F 00005A20 ?level@QRhiTextureUploadEntry@@QEBAHXZ
       5777 1690 0003A950 ?lexem@Parser@QCss@@QEBA?AVQString@@XZ
       5778 1691 00444420 ?lexem@Symbol@QCss@@QEBA?AVQString@@XZ
       5779 1692 004444D0 ?lexemUntil@Parser@QCss@@QEAA?AVQString@@W4TokenType@2@@Z
       5780 1693 00014E90 ?light@QPalette@@QEBAAEBVQBrush@@XZ
       5781 1694 00127980 ?lighter@QColor@@QEBA?AV1@H@Z
       5782 1695 00127B40 ?lightness@QColor@@QEBAHXZ
       5783 1696 00127B80 ?lightnessF@QColor@@QEBAMXZ
       5784 1697 00322000 ?lineAt@QTextLayout@@QEBA?AVQTextLine@@H@Z
       5785 1698 00327CA0 ?lineCount@QTextBlock@@QEBAHXZ
       5786 1699 002C1A50 ?lineCount@QTextDocument@@QEBAHXZ
       5787 169A 000DB470 ?lineCount@QTextLayout@@QEBAHXZ
       5788 169B 00322020 ?lineForTextPosition@QTextLayout@@QEBA?AVQTextLine@@H@Z
       5789 169C 0003A980 ?lineHeight@QTextBlockFormat@@QEBANNN@Z
       5790 169D 0003AA80 ?lineHeight@QTextBlockFormat@@QEBANXZ
       5791 169E 0003AA90 ?lineHeightType@QTextBlockFormat@@QEBAHXZ
       5792 169F 00005A10 ?lineNumber@QTextLine@@QEBAHXZ
       5793 16A0 002F9C60 ?lineNumberForTextPosition@QTextEngine@@QEAAHH@Z
       5794 16A1 002A2D70 ?lineSpacing@QFontMetrics@@QEBAHXZ
       5795 16A2 002A2E00 ?lineSpacing@QFontMetricsF@@QEBANXZ
       5796 16A3 0029D620 ?lineThickness@QFontEngine@@UEBA?AUQFixed@@XZ
       5797 16A4 0029D690 ?lineThickness@QFontEngineMulti@@UEBA?AUQFixed@@XZ
       5798 16A5 002A7930 ?lineThickness@QRawFont@@QEBANXZ
       5799 16A6 00456060 ?lineThickness@QWindowsFontEngineDirectWrite@@UEBA?AUQFixed@@XZ
       5800 16A7 001D4930 ?lineTo@QPainterPath@@QEAAXAEBVQPointF@@@Z
       5801 16A8 0003AAA0 ?lineTo@QPainterPath@@QEAAXNN@Z
       5802 16A9 0003AAC0 ?lineTo@QStrokerOps@@QEAAXNN@Z
       5803 16AA 0022B110 ?lineTo@QTriangulatingStroker@@AEAAXPEBN@Z
       5804 16AB 002A2E90 ?lineWidth@QFontMetrics@@QEBAHXZ
       5805 16AC 002A2ED0 ?lineWidth@QFontMetricsF@@QEBANXZ
       5806 16AD 001042D0 ?lineWidth@QRhiGraphicsPipeline@@QEBAMXZ
       5807 16AE 00014EA0 ?link@QPalette@@QEBAAEBVQBrush@@XZ
       5808 16AF 00014EB0 ?linkVisited@QPalette@@QEBAAEBVQBrush@@XZ
       5809 16B0 00466210 ?list@QFileInfoGatherer@@QEAAXAEBVQString@@@Z
       5810 16B1 0002F790 ?listFormat@QTextFormatCollection@@QEBA?AVQTextListFormat@@H@Z
       5811 16B2 003F97F0 ?listFromString@QKeySequence@@SA?AV?$QList@VQKeySequence@@@@AEBVQString@@W4SequenceFormat@1@@Z
       5812 16B3 00432A20 ?listInfo@QTextMarkdownWriter@@AEAA?AUListInfo@1@PEAVQTextList@@@Z
       5813 16B4 003F9AC0 ?listToString@QKeySequence@@SA?AVQString@@AEBV?$QList@VQKeySequence@@@@W4SequenceFormat@1@@Z
       5814 16B5 0028EDC0 ?load@QFontDatabasePrivate@@SAXPEBVQFontPrivate@@H@Z
       5815 16B6 0003AB60 ?load@QImage@@QEAA_NAEBVQString@@PEBD@Z
       5816 16B7 0003AC80 ?load@QImage@@QEAA_NPEAVQIODevice@@PEBD@Z
       5817 16B8 00363BC0 ?load@QOpenGLProgramBinaryCache@@QEAA_NAEBVQByteArray@@I@Z
       5818 16B9 00063E90 ?load@QPicture@@QEAA_NAEBVQString@@@Z
       5819 16BA 00064040 ?load@QPicture@@QEAA_NPEAVQIODevice@@@Z
       5820 16BB 00066EE0 ?load@QPixmap@@QEAA_NAEBVQString@@PEBDV?$QFlags@W4ImageConversionFlag@Qt@@@@@Z
       5821 16BC 0028FAE0 ?loadEngine@QFontDatabasePrivate@@CAPEAVQFontEngine@@HAEBUQFontDef@@PEAUQtFontFamily@@PEAUQtFontFoundry@@PEAUQtFontStyle@@PEAUQtFontSize@@@Z
       5822 16BD 0029D6C0 ?loadEngine@QFontEngineMulti@@MEAAPEAVQFontEngine@@H@Z
       5823 16BE 00004E90 ?loadFromData@QImage@@QEAA_NAEBVQByteArray@@PEBD@Z
       5824 16BF 0003ADA0 ?loadFromData@QImage@@QEAA_NPEBEHPEBD@Z
       5825 16C0 0003ADD0 ?loadFromData@QImage@@QEAA_NVQByteArrayView@@PEBD@Z
       5826 16C1 00004EE0 ?loadFromData@QPixmap@@QEAA_NAEBVQByteArray@@PEBDV?$QFlags@W4ImageConversionFlag@Qt@@@@@Z
       5827 16C2 000673B0 ?loadFromData@QPixmap@@QEAA_NPEBEIPEBDV?$QFlags@W4ImageConversionFlag@Qt@@@@@Z
       5828 16C3 002A7980 ?loadFromData@QRawFont@@QEAAXAEBVQByteArray@@NW4HintingPreference@QFont@@@Z
       5829 16C4 002A7A90 ?loadFromData@QRawFontPrivate@@QEAAXAEBVQByteArray@@NW4HintingPreference@QFont@@@Z
       5830 16C5 002A7B40 ?loadFromFile@QRawFont@@QEAAXAEBVQString@@NW4HintingPreference@QFont@@@Z
       5831 16C6 0025DC60 ?loadFromStream@QShaderDescriptionPrivate@@QEAAXPEAVQDataStream@@H@Z
       5832 16C7 0001F420 ?loadIcon@QIconLoader@@QEBA?AUQThemeIconInfo@@AEBVQString@@@Z
       5833 16C8 0029D880 ?loadKerningPairs@QFontEngine@@QEAAXUQFixed@@@Z
       5834 16C9 002C1AB0 ?loadResource@QTextDocument@@MEAA?AVQVariant@@HAEBVQUrl@@@Z
       5835 16CA 0028FD00 ?loadSingleEngine@QFontDatabasePrivate@@CAPEAVQFontEngine@@HAEBUQFontDef@@PEAUQtFontFamily@@PEAUQtFontFoundry@@PEAUQtFontStyle@@PEAUQtFontSize@@@Z
       5836 16CB 00004F40 ?localPos@QEnterEvent@@QEBA?AVQPointF@@XZ
       5837 16CC 00004F40 ?localPos@QMouseEvent@@QEBA?AVQPointF@@XZ
       5838 16CD 00004F40 ?localPos@QNativeGestureEvent@@QEBA?AVQPointF@@XZ
       5839 16CE 000A9A20 ?locale@QInputMethod@@QEBA?AVQLocale@@XZ
       5840 16CF 000BFC80 ?locale@QPlatformInputContext@@UEBA?AVQLocale@@XZ
       5841 16D0 00342800 ?locale@QValidator@@QEBA?AVQLocale@@XZ
       5842 16D1 000A9A90 ?localeChanged@QInputMethod@@QEAAXXZ
       5843 16D2 00459E70 ?localeString@QWindowsDirectWriteFontDatabase@@CA?AVQString@@PEAUIDWriteLocalizedStrings@@QEA_W@Z
       5844 16D3 003E3F40 ?localizedActionDescription@QAccessibleActionInterface@@UEBA?AVQString@@AEBV2@@Z
       5845 16D4 003E3FF0 ?localizedActionName@QAccessibleActionInterface@@UEBA?AVQString@@AEBV2@@Z
       5846 16D5 00005A20 ?location@QRhiVertexInputAttribute@@QEBAHXZ
       5847 16D6 0011D4E0 ?lock@QBlittable@@QEAAPEAVQImage@@XZ
       5848 16D7 000BE940 ?lock@QPlatformGraphicsBuffer@@QEAA_NV?$QFlags@W4AccessType@QPlatformGraphicsBuffer@@@@AEBVQRect@@@Z
       5849 16D8 0020C0F0 ?lock@QPlatformTextureList@@QEAAX_N@Z
       5850 16D9 000BF1F0 ?lockAndBindToTexture@QPlatformGraphicsBufferHelper@@YA_NPEAVQPlatformGraphicsBuffer@@PEA_N1AEBVQRect@@@Z
       5851 16DA 0020C140 ?locked@QPlatformTextureList@@QEAAX_N@Z
       5852 16DB 0003AF30 ?logClusters@QTextEngine@@QEBAPEAGPEBUQScriptItem@@@Z
       5853 16DC 0033F6D0 ?logName@QTextureFileData@@QEBA?AVQByteArray@@XZ
       5854 16DD 000C3370 ?logicalBaseDpi@QPlatformScreen@@UEBA?AU?$pair@NN@std@@XZ
       5855 16DE 000D5A40 ?logicalDotsPerInch@QScreen@@QEBANXZ
       5856 16DF 000D5A90 ?logicalDotsPerInchChanged@QScreen@@QEAAXN@Z
       5857 16E0 000D5AD0 ?logicalDotsPerInchX@QScreen@@QEBANXZ
       5858 16E1 000D5B10 ?logicalDotsPerInchY@QScreen@@QEBANXZ
       5859 16E2 000A3F40 ?logicalDpi@QHighDpiScaling@@SA?AU?$pair@NN@std@@PEBVQScreen@@@Z
       5860 16E3 000C3390 ?logicalDpi@QPlatformScreen@@UEBA?AU?$pair@NN@std@@XZ
       5861 16E4 00004F60 ?logicalDpiX@QPaintDevice@@QEBAHXZ
       5862 16E5 00004F80 ?logicalDpiY@QPaintDevice@@QEBAHXZ
       5863 16E6 000F7F60 ?lookAt@QMatrix4x4@@QEAAXAEBVQVector3D@@00@Z
       5864 16E7 0003AF50 ?lookup@Parser@QCss@@QEBA?AW4TokenType@2@XZ
       5865 16E8 0003AF70 ?lookupCacheData@QVectorPath@@QEBAPEAUCacheEntry@1@PEAVQPaintEngineEx@@@Z
       5866 16E9 0003AFA0 ?lookupElementName@Parser@QCss@@QEBA_NXZ
       5867 16EA 00020620 ?lookupFallbackIcon@QIconLoader@@AEBA?AUQThemeIconInfo@@AEBVQString@@@Z
       5868 16EB 000031E0 ?loopCount@QImageIOHandler@@UEBAHXZ
       5869 16EC 00058A70 ?loopCount@QImageReader@@QEBAHXZ
       5870 16ED 00402550 ?loopCount@QMovie@@QEBAHXZ
       5871 16EE 00004FA0 ?lostFocus@QFocusEvent@@QEBA_NXZ
       5872 16EF 000CD990 ?lower@QPlatformWindow@@UEAAXXZ
       5873 16F0 000E2C00 ?lower@QWindow@@QEAAXXZ
       5874 16F1 00004FB0 ?m11@QTransform@@QEBANXZ
       5875 16F2 00004FC0 ?m12@QTransform@@QEBANXZ
       5876 16F3 00004FD0 ?m13@QTransform@@QEBANXZ
       5877 16F4 00004FE0 ?m21@QTransform@@QEBANXZ
       5878 16F5 00004FF0 ?m22@QTransform@@QEBANXZ
       5879 16F6 00005000 ?m23@QTransform@@QEBANXZ
       5880 16F7 00004200 ?m31@QTransform@@QEBANXZ
       5881 16F8 00004210 ?m32@QTransform@@QEBANXZ
       5882 16F9 00005010 ?m33@QTransform@@QEBANXZ
       5883 16FA 00752E81 ?m_active@QHighDpiScaling@@0_NA
       5884 16FB 00752F4C ?m_capabilities@QPlatformCursor@@0V?$QFlags@W4Capability@QPlatformCursor@@@@A
       5885 16FC 00752E88 ?m_dpiAdjustmentPolicy@QHighDpiScaling@@0W4DpiAdjustmentPolicy@1@A
       5886 16FD 00735CC0 ?m_factor@QHighDpiScaling@@0NA
       5887 16FE 00735354 ?m_fakeMouseSourcePointId@QGuiApplicationPrivate@@0HA
       5888 16FF 0075BD74 ?m_fontOptions@QWindowsFontDatabase@@0IA
       5889 1700 00752E84 ?m_globalScalingActive@QHighDpiScaling@@0_NA
       5890 1701 00752D00 ?m_inputDeviceManager@QGuiApplicationPrivate@@0PEAVQInputDeviceManager@@EA
       5891 1702 0075C028 ?m_instance@QDragManager@@0PEAV1@EA
       5892 1703 00752D08 ?m_maxDevicePixelRatio@QGuiApplicationPrivate@@0NA
       5893 1704 00752EA8 ?m_namedScreenScaleFactors@QHighDpiScaling@@0V?$QHash@VQString@@N@@A
       5894 1705 00752E83 ?m_platformPluginDpiScalingActive@QHighDpiScaling@@0_NA
       5895 1706 00752E85 ?m_screenFactorSet@QHighDpiScaling@@0_NA
       5896 1707 00752E90 ?m_screenFactors@QHighDpiScaling@@0V?$QList@UScreenFactor@QHighDpiScaling@@@@A
       5897 1708 00752E86 ?m_usePhysicalDpi@QHighDpiScaling@@0_NA
       5898 1709 00752E82 ?m_usePlatformPluginDpi@QHighDpiScaling@@0_NA
       5899 170A 00004970 ?magFilter@QRhiSampler@@QEBA?AW4Filter@1@XZ
       5900 170B 00127BC0 ?magenta@QColor@@QEBAHXZ
       5901 170C 00127C00 ?magentaF@QColor@@QEBAMXZ
       5902 170D 0005DDF0 ?majorVersion@QSurfaceFormat@@QEBAHXZ
       5903 170E 0003AFD0 ?makeCacheable@QVectorPath@@QEBAXXZ
       5904 170F 0035A2C0 ?makeCurrent@QOpenGLContext@@QEAA_NPEAVQSurface@@@Z
       5905 1710 0025F490 ?makeDoc@QShaderDescriptionPrivate@@QEAA?AVQJsonDocument@@XZ
       5906 1711 002420D0 ?makeThreadLocalNativeContextCurrent@QRhi@@QEAA_NXZ
       5907 1712 00006420 ?manufacturer@QPlatformScreen@@UEBA?AVQString@@XZ
       5908 1713 000D5B50 ?manufacturer@QScreen@@QEBA?AVQString@@XZ
       5909 1714 00145E50 ?map@QColorTransform@@QEBA?AV?$QRgbaFloat@M@@V2@@Z
       5910 1715 00145F00 ?map@QColorTransform@@QEBA?AV?$QRgbaFloat@Vqfloat16@@@@V2@@Z
       5911 1716 00146130 ?map@QColorTransform@@QEBA?AVQColor@@AEBV2@@Z
       5912 1717 00146420 ?map@QColorTransform@@QEBA?AVQRgba64@@V2@@Z
       5913 1718 00146530 ?map@QColorTransform@@QEBAII@Z
       5914 1719 000A0EC0 ?map@QMatrix4x4@@QEBA?AVQPoint@@AEBV2@@Z
       5915 171A 000A1090 ?map@QMatrix4x4@@QEBA?AVQPointF@@AEBV2@@Z
       5916 171B 000A11C0 ?map@QMatrix4x4@@QEBA?AVQVector3D@@AEBV2@@Z
       5917 171C 000A1350 ?map@QMatrix4x4@@QEBA?AVQVector4D@@AEBV2@@Z
       5918 171D 002260B0 ?map@QTransform@@QEBA?AVQLine@@AEBV2@@Z
       5919 171E 00226250 ?map@QTransform@@QEBA?AVQLineF@@AEBV2@@Z
       5920 171F 00226370 ?map@QTransform@@QEBA?AVQPainterPath@@AEBV2@@Z
       5921 1720 002264E0 ?map@QTransform@@QEBA?AVQPoint@@AEBV2@@Z
       5922 1721 00226580 ?map@QTransform@@QEBA?AVQPointF@@AEBV2@@Z
       5923 1722 002265E0 ?map@QTransform@@QEBA?AVQPolygon@@AEBV2@@Z
       5924 1723 00226950 ?map@QTransform@@QEBA?AVQPolygonF@@AEBV2@@Z
       5925 1724 00226B10 ?map@QTransform@@QEBA?AVQRegion@@AEBV2@@Z
       5926 1725 00226FC0 ?map@QTransform@@QEBAXHHPEAH0@Z
       5927 1726 00227070 ?map@QTransform@@QEBAXNNPEAN0@Z
       5928 1727 000C33B0 ?mapBetween@QPlatformScreen@@SA?AVQRect@@W4ScreenOrientation@Qt@@0AEBV2@@Z
       5929 1728 000D5B80 ?mapBetween@QScreen@@QEBA?AVQRect@@W4ScreenOrientation@Qt@@0AEBV2@@Z
       5930 1729 0010AC60 ?mapBy@QBezier@@QEBA?AV1@AEBVQTransform@@@Z
       5931 172A 000CD9C0 ?mapFromGlobal@QPlatformWindow@@UEBA?AVQPoint@@AEBV2@@Z
       5932 172B 000E2C40 ?mapFromGlobal@QWindow@@QEBA?AVQPoint@@AEBV2@@Z
       5933 172C 000E2CC0 ?mapFromGlobal@QWindow@@QEBA?AVQPointF@@AEBV2@@Z
       5934 172D 000CDA80 ?mapFromGlobalF@QPlatformWindow@@QEBA?AVQPointF@@AEBV2@@Z
       5935 172E 000A40B0 ?mapPositionFromNative@QHighDpiScaling@@SA?AVQPoint@@AEBV2@PEBVQPlatformScreen@@@Z
       5936 172F 000A41F0 ?mapPositionToNative@QHighDpiScaling@@SA?AVQPoint@@AEBV2@PEBVQPlatformScreen@@@Z
       5937 1730 000F82E0 ?mapRect@QMatrix4x4@@QEBA?AVQRect@@AEBV2@@Z
       5938 1731 000F85A0 ?mapRect@QMatrix4x4@@QEBA?AVQRectF@@AEBV2@@Z
       5939 1732 002277A0 ?mapRect@QTransform@@QEBA?AVQRect@@AEBV2@@Z
       5940 1733 00227B30 ?mapRect@QTransform@@QEBA?AVQRectF@@AEBV2@@Z
       5941 1734 000CDB60 ?mapToGlobal@QPlatformWindow@@UEBA?AVQPoint@@AEBV2@@Z
       5942 1735 000E2FE0 ?mapToGlobal@QWindow@@QEBA?AVQPoint@@AEBV2@@Z
       5943 1736 000E3060 ?mapToGlobal@QWindow@@QEBA?AVQPointF@@AEBV2@@Z
       5944 1737 000CDC20 ?mapToGlobalF@QPlatformWindow@@QEBA?AVQPointF@@AEBV2@@Z
       5945 1738 00227DE0 ?mapToPolygon@QTransform@@QEBA?AVQPolygon@@AEBVQRect@@@Z
       5946 1739 000DCF80 ?mapToScreen@QTouchEventSequence@QTest@@IEAA?AVQPoint@@PEAVQWindow@@AEBV3@@Z
       5947 173A 000A1440 ?mapVector@QMatrix4x4@@QEBA?AVQVector3D@@AEBV2@@Z
       5948 173B 0003AFE0 ?margin@QTextFrameFormat@@QEBANXZ
       5949 173C 001931E0 ?margins@QPageLayout@@QEBA?AVQMarginsF@@W4Unit@1@@Z
       5950 173D 00193210 ?margins@QPageLayout@@QEBA?AVQMarginsF@@XZ
       5951 173E 00193230 ?marginsPixels@QPageLayout@@QEBA?AVQMargins@@H@Z
       5952 173F 00193330 ?marginsPoints@QPageLayout@@QEBA?AVQMargins@@XZ
       5953 1740 002C2280 ?markContentsDirty@QTextDocument@@QEAAXHH@Z
       5954 1741 000074A0 ?markRasterOverlay@QBlittablePlatformPixmap@@QEAAXAEBVQPainterPath@@@Z
       5955 1742 000074A0 ?markRasterOverlay@QBlittablePlatformPixmap@@QEAAXAEBVQPointF@@AEBVQTextItem@@@Z
       5956 1743 000074A0 ?markRasterOverlay@QBlittablePlatformPixmap@@QEAAXAEBVQRectF@@@Z
       5957 1744 000074A0 ?markRasterOverlay@QBlittablePlatformPixmap@@QEAAXAEBVQVectorPath@@@Z
       5958 1745 000074A0 ?markRasterOverlay@QBlittablePlatformPixmap@@QEAAXPEBVQPoint@@H@Z
       5959 1746 000074A0 ?markRasterOverlay@QBlittablePlatformPixmap@@QEAAXPEBVQPointF@@H@Z
       5960 1747 000074A0 ?markRasterOverlay@QBlittablePlatformPixmap@@QEAAXPEBVQRect@@H@Z
       5961 1748 000074A0 ?markRasterOverlay@QBlittablePlatformPixmap@@QEAAXPEBVQRectF@@H@Z
       5962 1749 000ADD70 ?markWindowAsDirty@QPaintDeviceWindowPrivate@@QEAAXXZ
       5963 174A 0003AFF0 ?marker@QTextBlockFormat@@QEBA?AW4MarkerType@1@XZ
       5964 174B 00005020 ?mask@QCursor@@QEBA?AVQBitmap@@W4ReturnByValueConstant@Qt@@@Z
       5965 174C 00078BA0 ?mask@QCursor@@QEBA?AVQBitmap@@XZ
       5966 174D 000674B0 ?mask@QPixmap@@QEBA?AVQBitmap@@XZ
       5967 174E 0006E700 ?mask@QPlatformPixmap@@UEBA?AVQBitmap@@XZ
       5968 174F 000E32F0 ?mask@QWindow@@QEBA?AVQRegion@@XZ
       5969 1750 00290050 ?match@QFontDatabasePrivate@@CAHHAEBUQFontDef@@AEBVQString@@1PEAUQtFontDesc@@AEBV?$QList@H@@PEAI@Z
       5970 1751 001E8720 ?match@QOpenGLExtensionMatcher@@QEBA_NAEBVQByteArray@@@Z
       5971 1752 00444610 ?matchRule@StyleSelector@QCss@@AEAAXTNodePtr@12@AEBUStyleRule@2@W4StyleSheetOrigin@2@HPEAV?$QMultiMap@IUStyleRule@QCss@@@@@Z
       5972 1753 00086A70 ?matches@QKeyEvent@@QEBA_NW4StandardKey@QKeySequence@@@Z
       5973 1754 003F9C50 ?matches@QKeySequence@@QEBA?AW4SequenceMatch@1@AEBV1@@Z
       5974 1755 002632D0 ?matches@QShortcutMap@@AEBA?AV?$QList@PEBUQShortcutEntry@@@@XZ
       5975 1756 00290830 ?matchesFamilyName@QtFontFamily@@QEBA_NAEBVQString@@@Z
       5976 1757 00002CC0 ?matrixSlice@QRhiVertexInputAttribute@@QEBAHXZ
       5977 1758 0029DEC0 ?maxCharWidth@QFontEngineMulti@@UEBANXZ
       5978 1759 002A7BC0 ?maxCharWidth@QRawFont@@QEBANXZ
       5979 175A 00456090 ?maxCharWidth@QWindowsFontEngineDirectWrite@@UEBANXZ
       5980 175B 001042E0 ?maxDepth@QRhiViewport@@QEBAMXZ
       5981 175C 0003B000 ?maxTextureHeight@QTextureGlyphCache@@UEBAHXZ
       5982 175D 0035A800 ?maxTextureSize@QOpenGLContextPrivate@@QEAAHXZ
       5983 175E 0003B010 ?maxTextureWidth@QTextureGlyphCache@@UEBAHXZ
       5984 175F 002A2F20 ?maxWidth@QFontMetrics@@QEBAHXZ
       5985 1760 002A2F80 ?maxWidth@QFontMetricsF@@QEBANXZ
       5986 1761 002C22E0 ?maximumBlockCount@QTextDocument@@QEBAHXZ
       5987 1762 00005040 ?maximumHeight@QWindow@@QEBAHXZ
       5988 1763 000E3320 ?maximumHeightChanged@QWindow@@QEAAXH@Z
       5989 1764 001933E0 ?maximumMargins@QPageLayout@@QEBA?AVQMarginsF@@XZ
       5990 1765 000D0F70 ?maximumPoints@QPointingDevice@@QEBAHXZ
       5991 1766 000E3360 ?maximumSize@QWindow@@QEBA?AVQSize@@XZ
       5992 1767 0003B020 ?maximumWidth@QTextImageFormat@@QEBA?AVQTextLength@@XZ
       5993 1768 00322080 ?maximumWidth@QTextLayout@@QEBANXZ
       5994 1769 00005060 ?maximumWidth@QWindow@@QEBAHXZ
       5995 176A 000E3380 ?maximumWidthChanged@QWindow@@QEAAXH@Z
       5996 176B 00339B90 ?maybeExpandGrid@QGridLayoutEngine@@AEAAXHHW4Orientation@Qt@@@Z
       5997 176C 00095860 ?maybeForwardEventToVirtualKeyboard@QGuiApplicationPrivate@@SA_NPEAVQEvent@@@Z
       5998 176D 00095F40 ?maybeLastWindowClosed@QGuiApplicationPrivate@@QEAAXXZ
       5999 176E 000031E0 ?menu@QActionPrivate@@UEBAPEAVQObject@@XZ
       6000 176F 000E5A70 ?menuObject@QAction@@AEBAPEAVQObject@@XZ
       6001 1770 003EE5A0 ?menuRole@QAction@@QEBA?AW4MenuRole@1@XZ
       6002 1771 002420F0 ?merge@QRhiResourceUpdateBatch@@QEAAXPEAV1@@Z
       6003 1772 00307060 ?merge@QTextFormat@@QEAAXAEBV1@@Z
       6004 1773 002B0500 ?mergeBlockCharFormat@QTextCursor@@QEAAXAEBVQTextCharFormat@@@Z
       6005 1774 002B0550 ?mergeBlockFormat@QTextCursor@@QEAAXAEBVQTextBlockFormat@@@Z
       6006 1775 002C22F0 ?mergeCachedResources@QTextDocumentPrivate@@QEAAXPEBV1@@Z
       6007 1776 0032CE90 ?mergeCells@QTextTable@@QEAAXAEBVQTextCursor@@@Z
       6008 1777 0032CF00 ?mergeCells@QTextTable@@QEAAXHHHH@Z
       6009 1778 002B05A0 ?mergeCharFormat@QTextCursor@@QEAAXAEBVQTextCharFormat@@@Z
       6010 1779 00004BC0 ?mergeWith@QUndoCommand@@UEAA_NPEBV1@@Z
       6011 177A 00095FB0 ?message@QAccessibleAnnouncementEvent@@QEBA?AVQString@@XZ
       6012 177B 000C8A10 ?messageClicked@QPlatformSystemTrayIcon@@QEAAXXZ
       6013 177C 002C2310 ?metaInformation@QTextDocument@@QEBA?AVQString@@W4MetaInformation@1@@Z
       6014 177D 00265E50 ?metaObject@QAbstractTextDocumentLayout@@UEBAPEBUQMetaObject@@XZ
       6015 177E 003E6C80 ?metaObject@QAccessibleBridgePlugin@@UEBAPEBUQMetaObject@@XZ
       6016 177F 003EA3D0 ?metaObject@QAccessibleCache@@UEBAPEBUQMetaObject@@XZ
       6017 1780 003EB6C0 ?metaObject@QAccessiblePlugin@@UEBAPEBUQMetaObject@@XZ
       6018 1781 003EE5B0 ?metaObject@QAction@@UEBAPEBUQMetaObject@@XZ
       6019 1782 003F17F0 ?metaObject@QActionGroup@@UEBAPEBUQMetaObject@@XZ
       6020 1783 00076570 ?metaObject@QClipboard@@UEBAPEBUQMetaObject@@XZ
       6021 1784 00342830 ?metaObject@QDoubleValidator@@UEBAPEBUQMetaObject@@XZ
       6022 1785 003F3860 ?metaObject@QDrag@@UEBAPEBUQMetaObject@@XZ
       6023 1786 003F2030 ?metaObject@QDragManager@@UEBAPEBUQMetaObject@@XZ
       6024 1787 004662A0 ?metaObject@QFileInfoGatherer@@UEBAPEBUQMetaObject@@XZ
       6025 1788 004713D0 ?metaObject@QFileSystemModel@@UEBAPEBUQMetaObject@@XZ
       6026 1789 00087A90 ?metaObject@QGenericPlugin@@UEBAPEBUQMetaObject@@XZ
       6027 178A 00095FD0 ?metaObject@QGuiApplication@@UEBAPEBUQMetaObject@@XZ
       6028 178B 00017D00 ?metaObject@QIconEnginePlugin@@UEBAPEBUQMetaObject@@XZ
       6029 178C 000552A0 ?metaObject@QImageIOPlugin@@UEBAPEBUQMetaObject@@XZ
       6030 178D 002A5310 ?metaObject@QInputControl@@UEBAPEBUQMetaObject@@XZ
       6031 178E 000A7180 ?metaObject@QInputDevice@@UEBAPEBUQMetaObject@@XZ
       6032 178F 000A81E0 ?metaObject@QInputDeviceManager@@UEBAPEBUQMetaObject@@XZ
       6033 1790 000A9AB0 ?metaObject@QInputMethod@@UEBAPEBUQMetaObject@@XZ
       6034 1791 00342850 ?metaObject@QIntValidator@@UEBAPEBUQMetaObject@@XZ
       6035 1792 000AB3E0 ?metaObject@QInternalMimeData@@UEBAPEBUQMetaObject@@XZ
       6036 1793 000AC230 ?metaObject@QKeyMapper@@UEBAPEBUQMetaObject@@XZ
       6037 1794 00402560 ?metaObject@QMovie@@UEBAPEBUQMetaObject@@XZ
       6038 1795 000AD3C0 ?metaObject@QOffscreenSurface@@UEBAPEBUQMetaObject@@XZ
       6039 1796 0035A9E0 ?metaObject@QOpenGLContext@@UEBAPEBUQMetaObject@@XZ
       6040 1797 0035AA00 ?metaObject@QOpenGLContextGroup@@UEBAPEBUQMetaObject@@XZ
       6041 1798 000ADDF0 ?metaObject@QPaintDeviceWindow@@UEBAPEBUQMetaObject@@XZ
       6042 1799 000BA780 ?metaObject@QPlatformColorDialogHelper@@UEBAPEBUQMetaObject@@XZ
       6043 179A 000BA7A0 ?metaObject@QPlatformDialogHelper@@UEBAPEBUQMetaObject@@XZ
       6044 179B 000BA7C0 ?metaObject@QPlatformFileDialogHelper@@UEBAPEBUQMetaObject@@XZ
       6045 179C 000BA7E0 ?metaObject@QPlatformFontDialogHelper@@UEBAPEBUQMetaObject@@XZ
       6046 179D 000BE980 ?metaObject@QPlatformGraphicsBuffer@@UEBAPEBUQMetaObject@@XZ
       6047 179E 000BFCA0 ?metaObject@QPlatformInputContext@@UEBAPEBUQMetaObject@@XZ
       6048 179F 000C1200 ?metaObject@QPlatformInputContextPlugin@@UEBAPEBUQMetaObject@@XZ
       6049 17A0 000C1E70 ?metaObject@QPlatformIntegrationPlugin@@UEBAPEBUQMetaObject@@XZ
       6050 17A1 000C2950 ?metaObject@QPlatformMenu@@UEBAPEBUQMetaObject@@XZ
       6051 17A2 000C2970 ?metaObject@QPlatformMenuBar@@UEBAPEBUQMetaObject@@XZ
       6052 17A3 000C2990 ?metaObject@QPlatformMenuItem@@UEBAPEBUQMetaObject@@XZ
       6053 17A4 000BA800 ?metaObject@QPlatformMessageDialogHelper@@UEBAPEBUQMetaObject@@XZ
       6054 17A5 000C2D90 ?metaObject@QPlatformNativeInterface@@UEBAPEBUQMetaObject@@XZ
       6055 17A6 000C4E40 ?metaObject@QPlatformServiceColorPicker@@UEBAPEBUQMetaObject@@XZ
       6056 17A7 000C7EE0 ?metaObject@QPlatformSharedGraphicsCache@@UEBAPEBUQMetaObject@@XZ
       6057 17A8 000C8A30 ?metaObject@QPlatformSystemTrayIcon@@UEBAPEBUQMetaObject@@XZ
       6058 17A9 0020C180 ?metaObject@QPlatformTextureList@@UEBAPEBUQMetaObject@@XZ
       6059 17AA 000CCAF0 ?metaObject@QPlatformThemePlugin@@UEBAPEBUQMetaObject@@XZ
       6060 17AB 000D0F80 ?metaObject@QPointingDevice@@UEBAPEBUQMetaObject@@XZ
       6061 17AC 000D3F10 ?metaObject@QRasterWindow@@UEBAPEBUQMetaObject@@XZ
       6062 17AD 00342870 ?metaObject@QRegularExpressionValidator@@UEBAPEBUQMetaObject@@XZ
       6063 17AE 000D5BD0 ?metaObject@QScreen@@UEBAPEBUQMetaObject@@XZ
       6064 17AF 000D7040 ?metaObject@QSessionManager@@UEBAPEBUQMetaObject@@XZ
       6065 17B0 003FAE00 ?metaObject@QShortcut@@UEBAPEBUQMetaObject@@XZ
       6066 17B1 0034E780 ?metaObject@QStandardItemModel@@UEBAPEBUQMetaObject@@XZ
       6067 17B2 000D84A0 ?metaObject@QStyleHints@@UEBAPEBUQMetaObject@@XZ
       6068 17B3 002ABD90 ?metaObject@QSyntaxHighlighter@@UEBAPEBUQMetaObject@@XZ
       6069 17B4 00327DC0 ?metaObject@QTextBlockGroup@@UEBAPEBUQMetaObject@@XZ
       6070 17B5 002C23A0 ?metaObject@QTextDocument@@UEBAPEBUQMetaObject@@XZ
       6071 17B6 002EC120 ?metaObject@QTextDocumentLayout@@UEBAPEBUQMetaObject@@XZ
       6072 17B7 00327DE0 ?metaObject@QTextFrame@@UEBAPEBUQMetaObject@@XZ
       6073 17B8 003187B0 ?metaObject@QTextImageHandler@@UEBAPEBUQMetaObject@@XZ
       6074 17B9 00324EF0 ?metaObject@QTextList@@UEBAPEBUQMetaObject@@XZ
       6075 17BA 00327E00 ?metaObject@QTextObject@@UEBAPEBUQMetaObject@@XZ
       6076 17BB 0032DE70 ?metaObject@QTextTable@@UEBAPEBUQMetaObject@@XZ
       6077 17BC 00460B20 ?metaObject@QUndoGroup@@UEBAPEBUQMetaObject@@XZ
       6078 17BD 0045E580 ?metaObject@QUndoStack@@UEBAPEBUQMetaObject@@XZ
       6079 17BE 00342890 ?metaObject@QValidator@@UEBAPEBUQMetaObject@@XZ
       6080 17BF 000E33C0 ?metaObject@QWindow@@UEBAPEBUQMetaObject@@XZ
       6081 17C0 00384150 ?metaObject@QWindowsGuiEventDispatcher@@UEBAPEBUQMetaObject@@XZ
       6082 17C1 00068B70 ?metric@QBlittablePlatformPixmap@@UEBAHW4PaintDeviceMetric@QPaintDevice@@@Z
       6083 17C2 0003B040 ?metric@QImage@@MEBAHW4PaintDeviceMetric@QPaintDevice@@@Z
       6084 17C3 0019B430 ?metric@QPaintDevice@@MEBAHW4PaintDeviceMetric@1@@Z
       6085 17C4 000ADE10 ?metric@QPaintDeviceWindow@@MEBAHW4PaintDeviceMetric@QPaintDevice@@@Z
       6086 17C5 000640D0 ?metric@QPicture@@MEBAHW4PaintDeviceMetric@QPaintDevice@@@Z
       6087 17C6 00067520 ?metric@QPixmap@@MEBAHW4PaintDeviceMetric@QPaintDevice@@@Z
       6088 17C7 00069820 ?metric@QRasterPlatformPixmap@@MEBAHW4PaintDeviceMetric@QPaintDevice@@@Z
       6089 17C8 000D3F30 ?metric@QRasterWindow@@MEBAHW4PaintDeviceMetric@QPaintDevice@@@Z
       6090 17C9 00014EC0 ?mid@QPalette@@QEBAAEBVQBrush@@XZ
       6091 17CA 0010AD50 ?midPoint@QBezier@@QEBA?AVQPointF@@XZ
       6092 17CB 0010AD90 ?midTangent@QBezier@@QEBA?AVQLineF@@XZ
       6093 17CC 00014ED0 ?midlight@QPalette@@QEBAAEBVQBrush@@XZ
       6094 17CD 00006550 ?mightBeRichText@Qt@@YA_NAEBVQString@@@Z
       6095 17CE 002C23C0 ?mightBeRichText@Qt@@YA_NVQAnyStringView@@@Z
       6096 17CF 00076590 ?mimeData@QClipboard@@QEBAPEBVQMimeData@@W4Mode@1@@Z
       6097 17D0 000E26C0 ?mimeData@QDrag@@QEBAPEAVQMimeData@@XZ
       6098 17D1 00005080 ?mimeData@QDropEvent@@QEBAPEBVQMimeData@@XZ
       6099 17D2 004713F0 ?mimeData@QFileSystemModel@@UEBAPEAVQMimeData@@AEBV?$QList@VQModelIndex@@@@@Z
       6100 17D3 000B2DC0 ?mimeData@QPlatformClipboard@@UEAAPEAVQMimeData@@W4Mode@QClipboard@@@Z
       6101 17D4 0034E7A0 ?mimeData@QStandardItemModel@@UEBAPEAVQMimeData@@AEBV?$QList@VQModelIndex@@@@@Z
       6102 17D5 000BA820 ?mimeTypeFilters@QFileDialogOptions@@QEBA?AV?$QList@VQString@@@@XZ
       6103 17D6 00471550 ?mimeTypes@QFileSystemModel@@UEBA?AV?$QList@VQString@@@@XZ
       6104 17D7 0034F5F0 ?mimeTypes@QStandardItemModel@@UEBA?AV?$QList@VQString@@@@XZ
       6105 17D8 001042F0 ?minDepth@QRhiViewport@@QEBAMXZ
       6106 17D9 000049E0 ?minFilter@QRhiSampler@@QEBA?AW4Filter@1@XZ
       6107 17DA 0029DEE0 ?minLeftBearing@QFontEngine@@UEBANXZ
       6108 17DB 0029DF20 ?minLeftBearing@QFontEngineMulti@@UEBANXZ
       6109 17DC 002A2FB0 ?minLeftBearing@QFontMetrics@@QEBAHXZ
       6110 17DD 002A3010 ?minLeftBearing@QFontMetricsF@@QEBANXZ
       6111 17DE 0029DF40 ?minRightBearing@QFontEngine@@UEBANXZ
       6112 17DF 0029E300 ?minRightBearing@QFontEngineMulti@@UEBANXZ
       6113 17E0 002A3040 ?minRightBearing@QFontMetrics@@QEBAHXZ
       6114 17E1 002A30A0 ?minRightBearing@QFontMetricsF@@QEBANXZ
       6115 17E2 005AAF54 ?min_cost@QFontCache@@0IB
       6116 17E3 00005090 ?minimumHeight@QWindow@@QEBAHXZ
       6117 17E4 000E33E0 ?minimumHeightChanged@QWindow@@QEAAXH@Z
       6118 17E5 00193400 ?minimumMargins@QPageLayout@@QEBA?AVQMarginsF@@XZ
       6119 17E6 000E3420 ?minimumSize@QWindow@@QEBA?AVQSize@@XZ
       6120 17E7 003220A0 ?minimumWidth@QTextLayout@@QEBANXZ
       6121 17E8 000050B0 ?minimumWidth@QWindow@@QEBAHXZ
       6122 17E9 000E3440 ?minimumWidthChanged@QWindow@@QEAAXH@Z
       6123 17EA 0005D380 ?minorVersion@QSurfaceFormat@@QEBAHXZ
       6124 17EB 00242540 ?mipLevelsForSize@QRhi@@SAHAEBVQSize@@@Z
       6125 17EC 00096950 ?mipmapMode@QRhiSampler@@QEBA?AW4Filter@1@XZ
       6126 17ED 000050D0 ?mirror@QImage@@QEAAX_N0@Z
       6127 17EE 000050E0 ?mirrored@QImage@@QEGBA?AV1@_N0@Z
       6128 17EF 00005100 ?mirrored@QImage@@QEHAA?AV1@_N0@Z
       6129 17F0 0003B1C0 ?mirrored_helper@QImage@@IEBA?AV1@_N0@Z
       6130 17F1 0003B3C0 ?mirrored_inplace@QImage@@IEAAX_N0@Z
       6131 17F2 001D4CA0 ?miterLimit@QPainterPathStroker@@QEBANXZ
       6132 17F3 001EC3D0 ?miterLimit@QPen@@QEBANXZ
       6133 17F4 0003B4B0 ?miterLimit@QStroker@@QEBANXZ
       6134 17F5 00471590 ?mkdir@QFileSystemModel@@QEAA?AVQModelIndex@@AEBV2@AEBVQString@@@Z
       6135 17F6 003F9D00 ?mnemonic@QKeySequence@@SA?AV1@AEBVQString@@@Z
       6136 17F7 00095FF0 ?modalWindow@QGuiApplication@@SAPEAVQWindow@@XZ
       6137 17F8 000E3480 ?modality@QWindow@@QEBA?AW4WindowModality@Qt@@XZ
       6138 17F9 000E3490 ?modalityChanged@QWindow@@QEAAXW4WindowModality@Qt@@@Z
       6139 17FA 000DB460 ?mode@QPageLayout@@QEBA?AW4Mode@1@XZ
       6140 17FB 00006420 ?model@QPlatformScreen@@UEBA?AVQString@@XZ
       6141 17FC 000D5BF0 ?model@QScreen@@QEBA?AVQString@@XZ
       6142 17FD 0020C6F0 ?model@QStandardItem@@QEBAPEAVQStandardItemModel@@XZ
       6143 17FE 00006440 ?modelChangeType@QAccessibleTableModelChangeEvent@@QEBA?AW4ModelChangeType@1@XZ
       6144 17FF 000C3490 ?modes@QPlatformScreen@@UEBA?AV?$QList@UMode@QPlatformScreen@@@@XZ
       6145 1800 002C2440 ?modificationChanged@QTextDocument@@QEAAX_N@Z
       6146 1801 00752C4C ?modifier_buttons@QGuiApplicationPrivate@@2V?$QFlags@W4KeyboardModifier@Qt@@@@A
       6147 1802 00004E20 ?modifiers@QDropEvent@@QEBA?AV?$QFlags@W4KeyboardModifier@Qt@@@@XZ
       6148 1803 00002E50 ?modifiers@QInputEvent@@QEBA?AV?$QFlags@W4KeyboardModifier@Qt@@@@XZ
       6149 1804 00086BC0 ?modifiers@QKeyEvent@@QEBA?AV?$QFlags@W4KeyboardModifier@Qt@@@@XZ
       6150 1805 00002E50 ?mouseButtons@QDropEvent@@QEBA?AV?$QFlags@W4MouseButton@Qt@@@@XZ
       6151 1806 00096050 ?mouseButtons@QGuiApplication@@SA?AV?$QFlags@W4MouseButton@Qt@@@@XZ
       6152 1807 000D84C0 ?mouseDoubleClickDistance@QStyleHints@@QEBAHXZ
       6153 1808 000E15F0 ?mouseDoubleClickEvent@QWindow@@MEAAXPEAVQMouseEvent@@@Z
       6154 1809 000D85E0 ?mouseDoubleClickInterval@QStyleHints@@QEBAHXZ
       6155 180A 000D8700 ?mouseDoubleClickIntervalChanged@QStyleHints@@QEAAXH@Z
       6156 180B 000E15F0 ?mouseMoveEvent@QWindow@@MEAAXPEAVQMouseEvent@@@Z
       6157 180C 000D8740 ?mousePressAndHoldInterval@QStyleHints@@QEBAHXZ
       6158 180D 000D8860 ?mousePressAndHoldIntervalChanged@QStyleHints@@QEAAXH@Z
       6159 180E 00752C94 ?mousePressButton@QGuiApplicationPrivate@@2W4MouseButton@Qt@@A
       6160 180F 000E15F0 ?mousePressEvent@QWindow@@MEAAXPEAVQMouseEvent@@@Z
       6161 1810 000D88A0 ?mouseQuickSelectionThreshold@QStyleHints@@QEBAHXZ
       6162 1811 000D89C0 ?mouseQuickSelectionThresholdChanged@QStyleHints@@QEAAXH@Z
       6163 1812 000E15F0 ?mouseReleaseEvent@QWindow@@MEAAXPEAVQMouseEvent@@@Z
       6164 1813 00752C50 ?mouse_buttons@QGuiApplicationPrivate@@2V?$QFlags@W4MouseButton@Qt@@@@A
       6165 1814 003F57F0 ?move@QSimpleDrag@@MEAAXAEBVQPoint@@V?$QFlags@W4MouseButton@Qt@@@@V?$QFlags@W4KeyboardModifier@Qt@@@@@Z
       6166 1815 002CD550 ?move@QTextDocumentPrivate@@QEAAXHHHW4Operation@QTextUndoCommand@@@Z
       6167 1816 000DCFD0 ?move@QTouchEventSequence@QTest@@QEAAAEAV12@HAEBVQPoint@@PEAVQWindow@@@Z
       6168 1817 000E15F0 ?moveEvent@QWindow@@MEAAXPEAVQMoveEvent@@@Z
       6169 1818 002B0680 ?movePosition@QTextCursor@@QEAA_NW4MoveOperation@1@W4MoveMode@1@H@Z
       6170 1819 002B0A00 ?movePosition@QTextCursorPrivate@@QEAA_NW4MoveOperation@QTextCursor@@W4MoveMode@3@@Z
       6171 181A 003F5A90 ?moveShapedPixmapWindow@QBasicDrag@@IEAAXAEBVQPoint@@@Z
       6172 181B 001D4CB0 ?moveTo@QPainterPath@@QEAAXAEBVQPointF@@@Z
       6173 181C 0003B4C0 ?moveTo@QPainterPath@@QEAAXNN@Z
       6174 181D 0003B4E0 ?moveTo@QStrokerOps@@QEAAXNN@Z
       6175 181E 0022B170 ?moveTo@QTriangulatingStroker@@AEAAXPEBN@Z
       6176 181F 0034F720 ?multiData@QStandardItem@@UEBAXVQModelRoleDataSpan@@@Z
       6177 1820 0034F7C0 ?multiData@QStandardItemModel@@UEBAXAEBVQModelIndex@@VQModelRoleDataSpan@@@Z
       6178 1821 00005EA0 ?multiViewCount@QRhiColorAttachment@@QEBAHXZ
       6179 1822 00104300 ?multiViewCount@QRhiGraphicsPipeline@@QEBAHXZ
       6180 1823 00471970 ?myComputer@QFileSystemModel@@QEBA?AVQVariant@@H@Z
       6181 1824 00471A30 ?myComputer@QFileSystemModelPrivate@@SA?AVQString@@XZ
       6182 1825 00127C40 ?name@QColor@@QEBA?AVQString@@W4NameFormat@1@@Z
       6183 1826 00471A70 ?name@QFileSystemModelPrivate@@QEBA?AVQString@@AEBVQModelIndex@@@Z
       6184 1827 00014EE0 ?name@QIcon@@QEBA?AVQString@@XZ
       6185 1828 000A71A0 ?name@QInputDevice@@QEBA?AVQString@@XZ
       6186 1829 00199260 ?name@QPageSize@@QEBA?AVQString@@XZ
       6187 182A 001992F0 ?name@QPageSize@@SA?AVQString@@W4PageSizeId@1@@Z
       6188 182B 00006420 ?name@QPlatformScreen@@UEBA?AVQString@@XZ
       6189 182C 000CB850 ?name@QPlatformTheme@@QEBA?AVQString@@XZ
       6190 182D 001025E0 ?name@QRhiResource@@QEBA?AVQByteArray@@XZ
       6191 182E 000D5C20 ?name@QScreen@@QEBA?AVQString@@XZ
       6192 182F 0003B5A0 ?name@QTextImageFormat@@QEBA?AVQString@@XZ
       6193 1830 00471C10 ?nameFilterDisables@QFileSystemModel@@QEBA_NXZ
       6194 1831 000BA850 ?nameFilters@QFileDialogOptions@@QEBA?AV?$QList@VQString@@@@XZ
       6195 1832 00471C20 ?nameFilters@QFileSystemModel@@QEBA?AV?$QList@VQString@@@@XZ
       6196 1833 004662C0 ?nameResolved@QFileInfoGatherer@@QEBAXAEBVQString@@0@Z
       6197 1834 00242570 ?nativeBuffer@QRhiBuffer@@UEAA?AUNativeBuffer@1@XZ
       6198 1835 00004BC0 ?nativeEvent@QWindow@@MEAA_NAEBVQByteArray@@PEAXPEA_J@Z
       6199 1836 000031E0 ?nativeHandle@QPaintEnginePrivate@@UEAAPEAXXZ
       6200 1837 00242590 ?nativeHandles@QRhi@@QEAAPEBUQRhiNativeHandles@@XZ
       6201 1838 002425B0 ?nativeHandles@QRhiCommandBuffer@@QEAAPEBUQRhiNativeHandles@@XZ
       6202 1839 000031E0 ?nativeHandles@QRhiRenderPassDescriptor@@UEAAPEBUQRhiNativeHandles@@XZ
       6203 183A 000031E0 ?nativeInterface@QPlatformIntegration@@UEBAPEAVQPlatformNativeInterface@@XZ
       6204 183B 00005150 ?nativeModifiers@QKeyEvent@@QEBAIXZ
       6205 183C 000031E0 ?nativeOrientation@QPlatformScreen@@UEBA?AW4ScreenOrientation@Qt@@XZ
       6206 183D 000D5C50 ?nativeOrientation@QScreen@@QEBA?AW4ScreenOrientation@Qt@@XZ
       6207 183E 00253A20 ?nativeResourceBindingMap@QShader@@QEBA?AV?$QMap@HU?$pair@HH@std@@@@AEBVQShaderKey@@@Z
       6208 183F 000031E0 ?nativeResourceForBackingStore@QPlatformNativeInterface@@UEAAPEAXAEBVQByteArray@@PEAVQBackingStore@@@Z
       6209 1840 000031E0 ?nativeResourceForContext@QPlatformNativeInterface@@UEAAPEAXAEBVQByteArray@@PEAVQOpenGLContext@@@Z
       6210 1841 000031E0 ?nativeResourceForCursor@QPlatformNativeInterface@@UEAAPEAXAEBVQByteArray@@AEBVQCursor@@@Z
       6211 1842 000031E0 ?nativeResourceForIntegration@QPlatformNativeInterface@@UEAAPEAXAEBVQByteArray@@@Z
       6212 1843 000031E0 ?nativeResourceForScreen@QPlatformNativeInterface@@UEAAPEAXAEBVQByteArray@@PEAVQScreen@@@Z
       6213 1844 000031E0 ?nativeResourceForWindow@QPlatformNativeInterface@@UEAAPEAXAEBVQByteArray@@PEAVQWindow@@@Z
       6214 1845 000031E0 ?nativeResourceFunctionForBackingStore@QPlatformNativeInterface@@UEAAP6APEAXPEAVQBackingStore@@@ZAEBVQByteArray@@@Z
       6215 1846 000031E0 ?nativeResourceFunctionForContext@QPlatformNativeInterface@@UEAAP6APEAXPEAVQOpenGLContext@@@ZAEBVQByteArray@@@Z
       6216 1847 000031E0 ?nativeResourceFunctionForIntegration@QPlatformNativeInterface@@UEAAP6APEAXXZAEBVQByteArray@@@Z
       6217 1848 000031E0 ?nativeResourceFunctionForScreen@QPlatformNativeInterface@@UEAAP6APEAXPEAVQScreen@@@ZAEBVQByteArray@@@Z
       6218 1849 000031E0 ?nativeResourceFunctionForWindow@QPlatformNativeInterface@@UEAAP6APEAXPEAVQWindow@@@ZAEBVQByteArray@@@Z
       6219 184A 00005160 ?nativeScanCode@QKeyEvent@@QEBAIXZ
       6220 184B 00253B40 ?nativeShaderInfo@QShader@@QEBA?AUNativeShaderInfo@1@AEBVQShaderKey@@@Z
       6221 184C 002425D0 ?nativeTexture@QRhiTexture@@UEAA?AUNativeTexture@1@XZ
       6222 184D 00005170 ?nativeVirtualKey@QKeyEvent@@QEBAIXZ
       6223 184E 003220C0 ?naturalTextRect@QTextLine@@QEBA?AVQRectF@@XZ
       6224 184F 00322190 ?naturalTextWidth@QTextLine@@QEBANXZ
       6225 1850 002425E0 ?newBuffer@QRhi@@QEAAPEAVQRhiBuffer@@W4Type@2@V?$QFlags@W4UsageFlag@QRhiBuffer@@@@I@Z
       6226 1851 00242600 ?newComputePipeline@QRhi@@QEAAPEAVQRhiComputePipeline@@XZ
       6227 1852 0037BBB0 ?newFallbackSurface@QRhiGles2InitParams@@SAPEAVQOffscreenSurface@@AEBVQSurfaceFormat@@@Z
       6228 1853 00242620 ?newGraphicsPipeline@QRhi@@QEAAPEAVQRhiGraphicsPipeline@@XZ
       6229 1854 00466310 ?newListOfFiles@QFileInfoGatherer@@QEBAXAEBVQString@@AEBV?$QList@VQString@@@@@Z
       6230 1855 00242640 ?newRenderBuffer@QRhi@@QEAAPEAVQRhiRenderBuffer@@W4Type@2@AEBVQSize@@HV?$QFlags@W4Flag@QRhiRenderBuffer@@@@W4Format@QRhiTexture@@@Z
       6231 1856 00242670 ?newSampler@QRhi@@QEAAPEAVQRhiSampler@@W4Filter@2@00W4AddressMode@2@11@Z
       6232 1857 002426B0 ?newShaderResourceBindings@QRhi@@QEAAPEAVQRhiShaderResourceBindings@@XZ
       6233 1858 002426D0 ?newSwapChain@QRhi@@QEAAPEAVQRhiSwapChain@@XZ
       6234 1859 002426F0 ?newTexture@QRhi@@QEAAPEAVQRhiTexture@@W4Format@2@AEBVQSize@@HV?$QFlags@W4Flag@QRhiTexture@@@@@Z
       6235 185A 00242740 ?newTexture@QRhi@@QEAAPEAVQRhiTexture@@W4Format@2@HHHHV?$QFlags@W4Flag@QRhiTexture@@@@@Z
       6236 185B 002427B0 ?newTextureArray@QRhi@@QEAAPEAVQRhiTexture@@W4Format@2@HAEBVQSize@@HV?$QFlags@W4Flag@QRhiTexture@@@@@Z
       6237 185C 00242810 ?newTextureRenderTarget@QRhi@@QEAAPEAVQRhiTextureRenderTarget@@AEBVQRhiTextureRenderTargetDescription@@V?$QFlags@W4Flag@QRhiTextureRenderTarget@@@@@Z
       6238 185D 0003B5C0 ?next@Parser@QCss@@QEAA?AW4TokenType@2@XZ
       6239 185E 00444AE0 ?next@Parser@QCss@@QEAA_NW4TokenType@2@@Z
       6240 185F 00327E20 ?next@QTextBlock@@QEBA?AV1@XZ
       6241 1860 002CDAE0 ?nextCursorPosition@QTextDocumentPrivate@@QEBAHHW4CursorMode@QTextLayout@@@Z
       6242 1861 003221C0 ?nextCursorPosition@QTextLayout@@QEBAHHW4CursorMode@1@@Z
       6243 1862 00402740 ?nextFrameDelay@QMovie@@QEBAHXZ
       6244 1863 00734E50 ?nextId@?1???0QInputDevicePrivate@@QEAA@AEBVQString@@_JW4DeviceType@QInputDevice@@V?$QFlags@W4Capability@QInputDevice@@@@0@Z@4_JA
       6245 1864 000031E0 ?nextImageDelay@QImageIOHandler@@UEBAHXZ
       6246 1865 00058AB0 ?nextImageDelay@QImageReader@@QEBAHXZ
       6247 1866 002FA260 ?nextLogicalPosition@QTextEngine@@QEBAHH@Z
       6248 1867 003E42D0 ?nextPageAction@QAccessibleActionInterface@@SA?AVQString@@XZ
       6249 1868 00242830 ?nextResourceUpdateBatch@QRhi@@QEAAPEAVQRhiResourceUpdateBatch@@XZ
       6250 1869 003FE8C0 ?nextState@QShortcutMap@@AEAA?AW4SequenceMatch@QKeySequence@@PEAVQKeyEvent@@@Z
       6251 186A 000FC960 ?nlerp@QQuaternion@@SA?AV1@AEBV1@0M@Z
       6252 186B 00471C50 ?node@QFileSystemModelPrivate@@QEBAPEAVQFileSystemNode@1@AEBVQModelIndex@@@Z
       6253 186C 00471C70 ?node@QFileSystemModelPrivate@@QEBAPEAVQFileSystemNode@1@AEBVQString@@_N@Z
       6254 186D 00444B10 ?nodeIds@StyleSelector@QCss@@UEBA?AV?$QList@VQString@@@@TNodePtr@12@@Z
       6255 186E 00444BD0 ?nodeNameEquals@StyleSelector@QCss@@UEBA_NTNodePtr@12@AEBVQString@@@Z
       6256 186F 0003B5E0 ?nonBreakableLines@QTextBlockFormat@@QEBA_NXZ
       6257 1870 000F25B0 ?nonUserInputEventsQueued@QWindowSystemInterface@@SA_NXZ
       6258 1871 000F25B0 ?nonUserInputEventsQueued@QWindowSystemInterfacePrivate@@SA_NXZ
       6259 1872 00006310 ?normalGeometry@QPlatformWindow@@UEBA?AVQRect@@XZ
       6260 1873 000F8A60 ?normalMatrix@QMatrix4x4@@QEBA?AV?$QGenericMatrix@$02$02M@@XZ
       6261 1874 0010AF40 ?normalVector@QBezier@@QEBA?AVQPointF@@N@Z
       6262 1875 0022B5C0 ?normalVector@QTriangulatingStroker@@AEAAXMMMMPEAM0@Z
       6263 1876 00339E40 ?normalize@QGridLayoutBox@@QEAAXXZ
       6264 1877 000FCAD0 ?normalize@QQuaternion@@QEAAXXZ
       6265 1878 000FCB20 ?normalized@QQuaternion@@QEBA?AV1@XZ
       6266 1879 00005180 ?normalizedPos@QEventPoint@@QEBA?AVQPointF@@XZ
       6267 187A 0007B500 ?normalizedPosition@QEventPoint@@QEBA?AVQPointF@@XZ
       6268 187B 000D5C70 ?notation@QDoubleValidator@@QEBA?AW4Notation@1@XZ
       6269 187C 003428B0 ?notationChanged@QDoubleValidator@@QEAAXW4Notation@1@@Z
       6270 187D 00096400 ?notify@QGuiApplication@@UEAA_NPEAVQObject@@PEAVQEvent@@@Z
       6271 187E 003EBCB0 ?notifyAccessibilityUpdate@QPlatformAccessibility@@UEAAXPEAVQAccessibleEvent@@@Z
       6272 187F 000964E0 ?notifyActiveWindowChange@QGuiApplicationPrivate@@UEAAXPEAVQWindow@@@Z
       6273 1880 000074A0 ?notifyDragStarted@QGuiApplicationPrivate@@MEAAXPEBVQDrag@@@Z
       6274 1881 00096560 ?notifyLayoutDirectionChange@QGuiApplicationPrivate@@UEAAXXZ
       6275 1882 00096600 ?notifyWindowIconChanged@QGuiApplicationPrivate@@UEAAXXZ
       6276 1883 0003B5F0 ?numBlocks@QTextDocumentPrivate@@QEBAHXZ
       6277 1884 0033F740 ?numFaces@QTextureFileData@@QEBAHXZ
       6278 1885 00002CC0 ?numFormats@QTextFormatCollection@@QEBAHXZ
       6279 1886 0033F750 ?numLevels@QTextureFileData@@QEBAHXZ
       6280 1887 00594CA0 ?numberOfKeyBindings@QPlatformThemePrivate@@2IB
       6281 1888 0003B600 ?numberPrefix@QTextListFormat@@QEBA?AVQString@@XZ
       6282 1889 0003B620 ?numberSuffix@QTextListFormat@@QEBA?AVQString@@XZ
       6283 188A 00003100 ?numericId@QPointingDeviceUniqueId@@QEBA_JXZ
       6284 188B 00735350 ?obey_desktop_settings@QGuiApplicationPrivate@@2_NA
       6285 188C 00002C80 ?object@QAccessibleEvent@@QEBAPEAVQObject@@XZ
       6286 188D 000C3D50 ?object@QAccessibleObject@@UEBAPEAVQObject@@XZ
       6287 188E 00086C30 ?object@QDragManager@@QEBA?AV?$QPointer@VQDrag@@@@XZ
       6288 188F 002C2480 ?object@QTextDocument@@QEBAPEAVQTextObject@@H@Z
       6289 1890 003EA3F0 ?objectDestroyed@QAccessibleCache@@AEAAXPEAVQObject@@@Z
       6290 1891 002C2490 ?objectForFormat@QTextDocument@@QEBAPEAVQTextObject@@AEBVQTextFormat@@@Z
       6291 1892 002CDC00 ?objectForFormat@QTextDocumentPrivate@@QEBAPEAVQTextObject@@AEBVQTextFormat@@@Z
       6292 1893 002CDC20 ?objectForFormat@QTextDocumentPrivate@@QEBAPEAVQTextObject@@H@Z
       6293 1894 002CDC70 ?objectForIndex@QTextDocumentPrivate@@QEBAPEAVQTextObject@@H@Z
       6294 1895 0003B640 ?objectFormat@QTextFormatCollection@@QEBA?AVQTextFormat@@H@Z
       6295 1896 00307160 ?objectFormatIndex@QTextFormatCollection@@QEBAHH@Z
       6296 1897 00307180 ?objectIndex@QTextFormat@@QEBAHXZ
       6297 1898 000D5C70 ?objectIndex@QTextObject@@QEBAHXZ
       6298 1899 0003B680 ?objectType@QTextFormat@@QEBAHXZ
       6299 189A 000C3090 ?offscreenSurface@QPlatformOffscreenSurface@@QEBAPEAVQOffscreenSurface@@XZ
       6300 189B 0003B690 ?offset@QImage@@QEBA?AVQPoint@@XZ
       6301 189C 00006400 ?offset@QRhiVertexInputAttribute@@QEBAIXZ
       6302 189D 002FA2F0 ?offsetInLigature@QTextEngine@@QEAA?AUQFixed@@PEBUQScriptItem@@HHH@Z
       6303 189E 000051A0 ?oldPos@QHoverEvent@@QEBA?AVQPoint@@XZ
       6304 189F 00004940 ?oldPos@QMoveEvent@@QEBAAEBVQPoint@@XZ
       6305 18A0 00002F30 ?oldPosF@QHoverEvent@@QEBA?AVQPointF@@XZ
       6306 18A1 00004940 ?oldSize@QResizeEvent@@QEBAAEBVQSize@@XZ
       6307 18A2 00005200 ?oldState@QWindowStateChangeEvent@@QEBA?AV?$QFlags@W4WindowState@Qt@@@@XZ
       6308 18A3 001C9220 ?opacity@QPaintEngineState@@QEBANXZ
       6309 18A4 001C9240 ?opacity@QPainter@@QEBANXZ
       6310 18A5 000E34D0 ?opacity@QWindow@@QEBANXZ
       6311 18A6 001A03D0 ?opacityChanged@QBlitterPaintEngine@@UEAAXXZ
       6312 18A7 001B0750 ?opacityChanged@QRasterPaintEngine@@UEAAXXZ
       6313 18A8 000E34E0 ?opacityChanged@QWindow@@QEAAXN@Z
       6314 18A9 000C4E60 ?openDocument@QPlatformServices@@UEAA_NAEBVQUrl@@@Z
       6315 18AA 00086C50 ?openFile@QFileOpenEvent@@QEBA_NAEAVQFile@@V?$QFlags@W4OpenModeFlag@QIODeviceBase@@@@@Z
       6316 18AB 003609B0 ?openGLExtensions@QOpenGLExtensions@@QEAA?AV?$QFlags@W4OpenGLExtension@QOpenGLExtensions@@@@XZ
       6317 18AC 00360A10 ?openGLFeatures@QOpenGLFunctions@@QEBA?AV?$QFlags@W4OpenGLFeature@QOpenGLFunctions@@@@XZ
       6318 18AD 003845B0 ?openGLModuleHandle@QWGLContext@QNativeInterface@@SAPEAUHINSTANCE__@@XZ
       6319 18AE 0035AA20 ?openGLModuleType@QOpenGLContext@@SA?AW4OpenGLModuleType@1@XZ
       6320 18AF 000C16A0 ?openGLModuleType@QPlatformIntegration@@UEAA?AW4OpenGLModuleType@QOpenGLContext@@XZ
       6321 18B0 003313C0 ?openUrl@QDesktopServices@@SA_NAEBVQUrl@@@Z
       6322 18B1 000C4EF0 ?openUrl@QPlatformServices@@UEAA_NAEBVQUrl@@@Z
       6323 18B2 000F8E20 ?optimize@QMatrix4x4@@QEAAXXZ
       6324 18B3 0005DDD0 ?optimizedWrite@QImageWriter@@QEBA_NXZ
       6325 18B4 000552C0 ?option@QImageIOHandler@@UEBA?AVQVariant@@W4ImageOption@1@@Z
       6326 18B5 00005500 ?options@QAbstractFileIconEngine@@QEBA?AV?$QFlags@W4IconOption@QPlatformTheme@@@@XZ
       6327 18B6 0000AD50 ?options@QAbstractFileIconProvider@@UEBA?AV?$QFlags@W4Option@QAbstractFileIconProvider@@@@XZ
       6328 18B7 000BAA10 ?options@QColorDialogOptions@@QEBA?AV?$QFlags@W4ColorDialogOption@QColorDialogOptions@@@@XZ
       6329 18B8 000BAA10 ?options@QFileDialogOptions@@QEBA?AV?$QFlags@W4FileDialogOption@QFileDialogOptions@@@@XZ
       6330 18B9 004732E0 ?options@QFileSystemModel@@QEBA?AV?$QFlags@W4Option@QFileSystemModel@@@@XZ
       6331 18BA 000BAA10 ?options@QFontDialogOptions@@QEBA?AV?$QFlags@W4FontDialogOption@QFontDialogOptions@@@@XZ
       6332 18BB 000BAA20 ?options@QMessageDialogOptions@@QEBA?AV?$QFlags@W4Option@QMessageDialogOptions@@@@XZ
       6333 18BC 00003110 ?options@QPlatformColorDialogHelper@@QEBAAEBV?$QSharedPointer@VQColorDialogOptions@@@@XZ
       6334 18BD 00003110 ?options@QPlatformFileDialogHelper@@QEBAAEBV?$QSharedPointer@VQFileDialogOptions@@@@XZ
       6335 18BE 00003110 ?options@QPlatformFontDialogHelper@@QEBAAEBV?$QSharedPointer@VQFontDialogOptions@@@@XZ
       6336 18BF 00003110 ?options@QPlatformMessageDialogHelper@@QEBAAEBV?$QSharedPointer@VQMessageDialogOptions@@@@XZ
       6337 18C0 000BAA10 ?options@QSurfaceFormat@@QEBA?AV?$QFlags@W4FormatOption@QSurfaceFormat@@@@XZ
       6338 18C1 000DB470 ?orientation@QPageLayout@@QEBA?AW4Orientation@1@XZ
       6339 18C2 000031E0 ?orientation@QPlatformScreen@@UEBA?AW4ScreenOrientation@Qt@@XZ
       6340 18C3 000D5C70 ?orientation@QScreen@@QEBA?AW4ScreenOrientation@Qt@@XZ
       6341 18C4 000049D0 ?orientation@QScreenOrientationChangeEvent@@QEBA?AW4ScreenOrientation@Qt@@XZ
       6342 18C5 000D5C80 ?orientationChanged@QScreen@@QEAAXW4ScreenOrientation@Qt@@@Z
       6343 18C6 000BE9A0 ?origin@QPlatformGraphicsBuffer@@UEBA?AW4Origin@1@XZ
       6344 18C7 00444CA0 ?originValue@Declaration@QCss@@QEBA?AW4Origin@2@XZ
       6345 18C8 000F92B0 ?ortho@QMatrix4x4@@QEAAXAEBVQRect@@@Z
       6346 18C9 000F9310 ?ortho@QMatrix4x4@@QEAAXAEBVQRectF@@@Z
       6347 18CA 000F9370 ?ortho@QMatrix4x4@@QEAAXMMMMMM@Z
       6348 18CB 000F94D0 ?orthonormalInverse@QMatrix4x4@@AEBA?AV1@XZ
       6349 18CC 00261210 ?outputBuiltinVariables@QShaderDescription@@QEBA?AV?$QList@UBuiltinVariable@QShaderDescription@@@@XZ
       6350 18CD 00261240 ?outputVariables@QShaderDescription@@QEBA?AV?$QList@UInOutVariable@QShaderDescription@@@@XZ
       6351 18CE 0027E920 ?overline@QFont@@QEBA_NXZ
       6352 18CF 0027E920 ?overline@QFontInfo@@QEBA_NXZ
       6353 18D0 002A4630 ?overline@QGlyphRun@@QEBA_NXZ
       6354 18D1 002A30D0 ?overlinePos@QFontMetrics@@QEBAHXZ
       6355 18D2 002A3110 ?overlinePos@QFontMetricsF@@QEBANXZ
       6356 18D3 000966A0 ?overrideCursor@QGuiApplication@@SAPEAVQCursor@@XZ
       6357 18D4 000C3770 ?overrideDpi@QPlatformScreen@@SA?AU?$pair@NN@std@@AEBU23@@Z
       6358 18D5 00005210 ?overshootDistance@QScrollEvent@@QEBA?AVQPointF@@XZ
       6359 18D6 00076600 ?ownsClipboard@QClipboard@@QEBA_NXZ
       6360 18D7 00004BC0 ?ownsDragObject@QPlatformDrag@@UEBA_NXZ
       6361 18D8 00076650 ?ownsFindBuffer@QClipboard@@QEBA_NXZ
       6362 18D9 000766A0 ?ownsMode@QClipboard@@AEBA_NW4Mode@1@@Z
       6363 18DA 00004BC0 ?ownsMode@QPlatformClipboard@@UEBA_NW4Mode@QClipboard@@@Z
       6364 18DB 000766F0 ?ownsSelection@QClipboard@@QEBA_NXZ
       6365 18DC 0003B6B0 ?padding@QTextFrameFormat@@QEBANXZ
       6366 18DD 0003B6C0 ?pageBreakPolicy@QTextBlockFormat@@QEBA?AV?$QFlags@W4PageBreakFlag@QTextFormat@@@@XZ
       6367 18DE 0003B6C0 ?pageBreakPolicy@QTextFrameFormat@@QEBA?AV?$QFlags@W4PageBreakFlag@QTextFormat@@@@XZ
       6368 18DF 002C24A0 ?pageCount@QTextDocument@@QEBAHXZ
       6369 18E0 002EC1F0 ?pageCount@QTextDocumentLayout@@UEBAHXZ
       6370 18E1 00265E70 ?pageCountChanged@QAbstractTextDocumentLayout@@QEAAXH@Z
       6371 18E2 00192550 ?pageLayout@QPagedPaintDevice@@QEBA?AVQPageLayout@@XZ
       6372 18E3 00192580 ?pageRanges@QPagedPaintDevice@@QEBA?AVQPageRanges@@XZ
       6373 18E4 00193420 ?pageSize@QPageLayout@@QEBA?AVQPageSize@@XZ
       6374 18E5 002C2500 ?pageSize@QTextDocument@@QEBA?AVQSizeF@@XZ
       6375 18E6 00014F30 ?paint@QIcon@@QEBAXPEAVQPainter@@AEBVQRect@@V?$QFlags@W4AlignmentFlag@Qt@@@@W4Mode@1@W4State@1@@Z
       6376 18E7 00005220 ?paint@QIcon@@QEBAXPEAVQPainter@@HHHHV?$QFlags@W4AlignmentFlag@Qt@@@@W4Mode@1@W4State@1@@Z
       6377 18E8 000AE060 ?paint@QPaintDeviceWindowPrivate@@QEAA_NAEBVQRegion@@@Z
       6378 18E9 000150E0 ?paint@QPixmapIconEngine@@UEAAXPEAVQPainter@@AEBVQRect@@W4Mode@QIcon@@W4State@5@@Z
       6379 18EA 000AD360 ?paintDevice@QAbstractTextDocumentLayout@@QEBAPEAVQPaintDevice@@XZ
       6380 18EB 000FEE00 ?paintDevice@QBackingStore@@QEAAPEAVQPaintDevice@@XZ
       6381 18EC 0019D8D0 ?paintDevice@QPaintEngine@@QEBAPEAVQPaintDevice@@XZ
       6382 18ED 00068D40 ?paintEngine@QBlittablePlatformPixmap@@UEBAPEAVQPaintEngine@@XZ
       6383 18EE 0003B6E0 ?paintEngine@QImage@@UEBAPEAVQPaintEngine@@XZ
       6384 18EF 000031E0 ?paintEngine@QPaintDeviceWindow@@EEBAPEAVQPaintEngine@@XZ
       6385 18F0 001C92A0 ?paintEngine@QPainter@@QEBAPEAVQPaintEngine@@XZ
       6386 18F1 000642F0 ?paintEngine@QPicture@@UEBAPEAVQPaintEngine@@XZ
       6387 18F2 00067540 ?paintEngine@QPixmap@@UEBAPEAVQPaintEngine@@XZ
       6388 18F3 00069A00 ?paintEngine@QRasterPlatformPixmap@@UEBAPEAVQPaintEngine@@XZ
       6389 18F4 000074A0 ?paintEvent@QPaintDeviceWindow@@MEAAXPEAVQPaintEvent@@@Z
       6390 18F5 000E15F0 ?paintEvent@QWindow@@MEAAXPEAVQPaintEvent@@@Z
       6391 18F6 00193450 ?paintRect@QPageLayout@@QEBA?AVQRectF@@W4Unit@1@@Z
       6392 18F7 00193610 ?paintRect@QPageLayout@@QEBA?AVQRectF@@XZ
       6393 18F8 001937F0 ?paintRectPixels@QPageLayout@@QEBA?AVQRect@@H@Z
       6394 18F9 00193A50 ?paintRectPoints@QPageLayout@@QEBA?AVQRect@@XZ
       6395 18FA 0019D8E0 ?painter@QPaintEngine@@QEBAPEAVQPainter@@XZ
       6396 18FB 001C92B0 ?painter@QPaintEngineState@@QEBAPEAVQPainter@@XZ
       6397 18FC 00005280 ?paintingActive@QPaintDevice@@QEBA_NXZ
       6398 18FD 00096740 ?palette@QGuiApplication@@SA?AVQPalette@@XZ
       6399 18FE 000CB880 ?palette@QPlatformTheme@@UEBAPEBVQPalette@@W4Palette@1@@Z
       6400 18FF 00096790 ?paletteChanged@QGuiApplication@@QEAAXAEBVQPalette@@@Z
       6401 1900 0010AFF0 ?parameterSplitLeft@QBezier@@QEAAXNPEAV1@@Z
       6402 1901 000031E0 ?parent@QAccessibleApplication@@UEBAPEAVQAccessibleInterface@@XZ
       6403 1902 004733B0 ?parent@QFileSystemModel@@UEBA?AVQModelIndex@@AEBV2@@Z
       6404 1903 000CDD00 ?parent@QPlatformWindow@@QEBAPEAV1@XZ
       6405 1904 0034F7E0 ?parent@QStandardItem@@QEBAPEAV1@XZ
       6406 1905 0034F810 ?parent@QStandardItemModel@@UEBA?AVQModelIndex@@AEBV2@@Z
       6407 1906 000E3520 ?parent@QWindow@@QEBAPEAV1@W4AncestorMode@1@@Z
       6408 1907 00327ED0 ?parentFrame@QTextFrame@@QEBAPEAV1@XZ
       6409 1908 000031E0 ?parentWindow@QPlatformMenuBar@@UEBAPEAVQWindow@@XZ
       6410 1909 00444E70 ?parse@Parser@QCss@@QEAA_NPEAUStyleSheet@2@W4CaseSensitivity@Qt@@@Z
       6411 190A 004A17E0 ?parse@QEdidParser@@QEAA_NAEBVQByteArray@@@Z
       6412 190B 00445970 ?parseAttrib@Parser@QCss@@QEAA_NPEAUAttributeSelector@2@@Z
       6413 190C 00447890 ?parseClass@Parser@QCss@@QEAA_NPEAVQString@@@Z
       6414 190D 004488D0 ?parseCombinator@Parser@QCss@@QEAA_NPEAW4Relation@BasicSelector@2@@Z
       6415 190E 004A2540 ?parseEdidString@QEdidParser@@AEAA?AVQString@@PEBE@Z
       6416 190F 004489B0 ?parseElementName@Parser@QCss@@QEAA_NPEAVQString@@@Z
       6417 1910 00313700 ?parseEntity@QTextHtmlParser@@SA?AVQString@@VQStringView@@@Z
       6418 1911 00448AD0 ?parseExpr@Parser@QCss@@QEAA_NPEAV?$QList@UValue@QCss@@@@@Z
       6419 1912 00290A20 ?parseFontName@QFontDatabasePrivate@@SAXAEBVQString@@AEAV2@1@Z
       6420 1913 00448D20 ?parseFunction@Parser@QCss@@QEAA_NPEAVQString@@0@Z
       6421 1914 00448F50 ?parseHexColor@Parser@QCss@@QEAA_NPEAVQColor@@@Z
       6422 1915 004491A0 ?parseImport@Parser@QCss@@QEAA_NPEAUImportRule@2@@Z
       6423 1916 00449470 ?parseMedia@Parser@QCss@@QEAA_NPEAUMediaRule@2@@Z
       6424 1917 004499E0 ?parseMedium@Parser@QCss@@QEAA_NPEAV?$QList@VQString@@@@@Z
       6425 1918 00449B10 ?parseNextDeclaration@Parser@QCss@@QEAA_NPEAUDeclaration@2@@Z
       6426 1919 0003B770 ?parseNextExpr@Parser@QCss@@QEAA_NPEAV?$QList@UValue@QCss@@@@@Z
       6427 191A 0003B7C0 ?parseNextFunction@Parser@QCss@@QEAA_NPEAVQString@@0@Z
       6428 191B 0003B820 ?parseNextMedium@Parser@QCss@@QEAA_NPEAV?$QList@VQString@@@@@Z
       6429 191C 00449C00 ?parseNextOperator@Parser@QCss@@QEAA_NPEAUValue@2@@Z
       6430 191D 0003B870 ?parseNextSelector@Parser@QCss@@QEAA_NPEAUSelector@2@@Z
       6431 191E 0003B8C0 ?parseNextSimpleSelector@Parser@QCss@@QEAA_NPEAUBasicSelector@2@@Z
       6432 191F 0035BA30 ?parseOpenGLVersion@QPlatformOpenGLContext@@SA_NAEBVQByteArray@@AEAH1@Z
       6433 1920 00449C90 ?parsePage@Parser@QCss@@QEAA_NPEAUPageRule@2@@Z
       6434 1921 0044A040 ?parsePrio@Parser@QCss@@QEAA_NPEAUDeclaration@2@@Z
       6435 1922 0044A080 ?parseProperty@Parser@QCss@@QEAA_NPEAUDeclaration@2@@Z
       6436 1923 0044A320 ?parsePseudo@Parser@QCss@@QEAA_NPEAUPseudo@2@@Z
       6437 1924 00447890 ?parsePseudoPage@Parser@QCss@@QEAA_NPEAVQString@@@Z
       6438 1925 0044A760 ?parseRuleset@Parser@QCss@@QEAA_NPEAUStyleRule@2@@Z
       6439 1926 000A4330 ?parseScreenScaleFactorsSpec@QHighDpiScaling@@CA?AV?$QList@UScreenFactor@QHighDpiScaling@@@@VQStringView@@@Z
       6440 1927 0044AE00 ?parseSelector@Parser@QCss@@QEAA_NPEAUSelector@2@@Z
       6441 1928 0044BA20 ?parseSimpleSelector@Parser@QCss@@QEAA_NPEAUBasicSelector@2@@Z
       6442 1929 0044C030 ?parseTerm@Parser@QCss@@QEAA_NPEAUValue@2@@Z
       6443 192A 000E3560 ?participatesInLastWindowClosed@QWindowPrivate@@UEBA_NXZ
       6444 192B 00473670 ?passNameFilters@QFileSystemModelPrivate@@QEBA_NPEBVQFileSystemNode@1@@Z
       6445 192C 00086C90 ?passiveGrabbers@QPointerEvent@@QEBA?AV?$QList@V?$QPointer@VQObject@@@@@@AEBVQEventPoint@@@Z
       6446 192D 000D8A00 ?passwordMaskCharacter@QStyleHints@@QEBA?AVQChar@@XZ
       6447 192E 000D8B00 ?passwordMaskDelay@QStyleHints@@QEBAHXZ
       6448 192F 00104310 ?patchControlPointCount@QRhiGraphicsPipeline@@QEBAHXZ
       6449 1930 002A7BE0 ?pathForGlyph@QRawFont@@QEBA?AVQPainterPath@@I@Z
       6450 1931 001E2BA0 ?pathToRect@QPathClipper@@SA_NAEBVQPainterPath@@PEAVQRectF@@@Z
       6451 1932 0021EF90 ?patternForStyle@QDashStroker@@SA?AV?$QList@N@@W4PenStyle@Qt@@@Z
       6452 1933 000F2630 ?peekWindowSystemEvent@QWindowSystemInterfacePrivate@@SAPEAVWindowSystemEvent@1@W4EventType@1@@Z
       6453 1934 001C92D0 ?pen@QPaintEngineState@@QEBA?AVQPen@@XZ
       6454 1935 001C9300 ?pen@QPainter@@QEBAAEBVQPen@@XZ
       6455 1936 001A0430 ?penChanged@QBlitterPaintEngine@@UEAAXXZ
       6456 1937 001B07F0 ?penChanged@QRasterPaintEngine@@UEAAXXZ
       6457 1938 001C9360 ?penNeedsResolving@QPaintEngineState@@QEBA_NXZ
       6458 1939 00307250 ?penProperty@QTextFormat@@QEBA?AVQPen@@H@Z
       6459 193A 00330090 ?perItemSpacing@QAbstractLayoutStyleInfo@@UEBANW4ControlType@QLayoutPolicy@@0W4Orientation@Qt@@@Z
       6460 193B 001D4E30 ?percentAtLength@QPainterPath@@QEBANN@Z
       6461 193C 00473760 ?performDelayedSort@QFileSystemModelPrivate@@QEAAXXZ
       6462 193D 003E7640 ?performEffectiveAction@QAccessibleBridgeUtils@@YA_NPEAVQAccessibleInterface@@AEBVQString@@@Z
       6463 193E 002AA190 ?performanceHint@QStaticText@@QEBA?AW4PerformanceHint@1@XZ
       6464 193F 00473790 ?permissions@QFileSystemModel@@QEBA?AV?$QFlags@W4Permission@QFileDevice@@@@AEBVQModelIndex@@@Z
       6465 1940 000F95E0 ?perspective@QMatrix4x4@@QEAAXMMMM@Z
       6466 1941 00005290 ?phase@QWheelEvent@@QEBA?AW4ScrollPhase@Qt@@XZ
       6467 1942 000D5CC0 ?physicalDotsPerInch@QScreen@@QEBANXZ
       6468 1943 000D5D30 ?physicalDotsPerInchChanged@QScreen@@QEAAXN@Z
       6469 1944 000D5D70 ?physicalDotsPerInchX@QScreen@@QEBANXZ
       6470 1945 000D5DE0 ?physicalDotsPerInchY@QScreen@@QEBANXZ
       6471 1946 000052A0 ?physicalDpiX@QPaintDevice@@QEBAHXZ
       6472 1947 000052C0 ?physicalDpiY@QPaintDevice@@QEBAHXZ
       6473 1948 000C3820 ?physicalSize@QPlatformScreen@@UEBA?AVQSizeF@@XZ
       6474 1949 000D5E50 ?physicalSize@QScreen@@QEBA?AVQSizeF@@XZ
       6475 194A 000D5E80 ?physicalSizeChanged@QScreen@@QEAAXAEBVQSizeF@@@Z
       6476 194B 00242A40 ?pipelineCacheData@QRhi@@QEAA?AVQByteArray@@XZ
       6477 194C 000052E0 ?pixel@QImage@@QEBAIAEBVQPoint@@@Z
       6478 194D 0003B910 ?pixel@QImage@@QEBAIHH@Z
       6479 194E 000052F0 ?pixelColor@QImage@@QEBA?AVQColor@@AEBVQPoint@@@Z
       6480 194F 0003BD90 ?pixelColor@QImage@@QEBA?AVQColor@@HH@Z
       6481 1950 00005310 ?pixelDelta@QWheelEvent@@QEBA?AVQPoint@@XZ
       6482 1951 0003C550 ?pixelFormat@QImage@@QEBA?AVQPixelFormat@@XZ
       6483 1952 00005320 ?pixelIndex@QImage@@QEBAHAEBVQPoint@@@Z
       6484 1953 0003C570 ?pixelIndex@QImage@@QEBAHHH@Z
       6485 1954 0027E930 ?pixelSize@QFont@@QEBAHXZ
       6486 1955 0027E940 ?pixelSize@QFontInfo@@QEBAHXZ
       6487 1956 002A7C90 ?pixelSize@QRawFont@@QEBANXZ
       6488 1957 00102720 ?pixelSize@QRhiRenderBuffer@@QEBA?AVQSize@@XZ
       6489 1958 00102720 ?pixelSize@QRhiTexture@@QEBA?AVQSize@@XZ
       6490 1959 00104320 ?pixelSize@QRhiTextureCopyDescription@@QEBA?AVQSize@@XZ
       6491 195A 00290A30 ?pixelSize@QtFontStyle@@QEAAPEAUQtFontSize@@G_N@Z
       6492 195B 00006440 ?pixelType@QPlatformPixmap@@QEBA?AW4PixelType@1@XZ
       6493 195C 00006D20 ?pixmap@QAbstractFileIconEngine@@UEAA?AVQPixmap@@AEBVQSize@@W4Mode@QIcon@@W4State@5@@Z
       6494 195D 00076740 ?pixmap@QClipboard@@QEBA?AVQPixmap@@W4Mode@1@@Z
       6495 195E 00078C70 ?pixmap@QCursor@@QEBA?AVQPixmap@@XZ
       6496 195F 003F3880 ?pixmap@QDrag@@QEBA?AVQPixmap@@XZ
       6497 1960 000151D0 ?pixmap@QIcon@@QEBA?AVQPixmap@@AEBVQSize@@NW4Mode@1@W4State@1@@Z
       6498 1961 00015340 ?pixmap@QIcon@@QEBA?AVQPixmap@@AEBVQSize@@W4Mode@1@W4State@1@@Z
       6499 1962 00005330 ?pixmap@QIcon@@QEBA?AVQPixmap@@HHW4Mode@1@W4State@1@@Z
       6500 1963 00005370 ?pixmap@QIcon@@QEBA?AVQPixmap@@HW4Mode@1@W4State@1@@Z
       6501 1964 00015390 ?pixmap@QIcon@@QEBA?AVQPixmap@@PEAVQWindow@@AEBVQSize@@W4Mode@1@W4State@1@@Z
       6502 1965 00017850 ?pixmap@QIconEngine@@UEAA?AVQPixmap@@AEBVQSize@@W4Mode@QIcon@@W4State@5@@Z
       6503 1966 00006D20 ?pixmap@QPixmapIconEngine@@UEAA?AVQPixmap@@AEBVQSize@@W4Mode@QIcon@@W4State@5@@Z
       6504 1967 000154D0 ?placeholderText@QPalette@@QEBAAEBVQBrush@@XZ
       6505 1968 002CDD70 ?plainText@QTextDocumentPrivate@@QEBA?AVQString@@XZ
       6506 1969 000967C0 ?platformFunction@QGuiApplication@@SAP6AXXZAEBVQByteArray@@@Z
       6507 196A 000031E0 ?platformFunction@QPlatformNativeInterface@@UEBAP6AXXZAEBVQByteArray@@@Z
       6508 196B 0000AD60 ?platformIntegration@QGuiApplicationPrivate@@SAPEAVQPlatformIntegration@@XZ
       6509 196C 00096860 ?platformName@QGuiApplication@@SA?AVQString@@XZ
       6510 196D 00096930 ?platformNativeInterface@QGuiApplication@@SAPEAVQPlatformNativeInterface@@XZ
       6511 196E 000C3890 ?platformScreenForWindow@QPlatformScreen@@SAPEAV1@PEBVQWindow@@@Z
       6512 196F 00738EE0 ?platformSynthesizesMouse@TabletEvent@QWindowSystemInterfacePrivate@@2_NA
       6513 1970 0000AD70 ?platformTheme@QGuiApplicationPrivate@@SAPEAVQPlatformTheme@@XZ
       6514 1971 00752C58 ?platform_integration@QGuiApplicationPrivate@@2PEAVQPlatformIntegration@@EA
       6515 1972 00752C70 ?platform_name@QGuiApplicationPrivate@@2PEAVQString@@EA
       6516 1973 00752C60 ?platform_theme@QGuiApplicationPrivate@@2PEAVQPlatformTheme@@EA
       6517 1974 00064360 ?play@QPicture@@QEAA_NPEAVQPainter@@@Z
       6518 1975 00086D90 ?point@QPointerEvent@@QEAAAEAVQEventPoint@@_J@Z
       6519 1976 0020EF40 ?point@QPolygon@@QEBAXHPEAH0@Z
       6520 1977 000DD0F0 ?point@QTouchEventSequence@QTest@@IEAAAEAVQEventPoint@@H@Z
       6521 1978 0010B140 ?pointAt@QBezier@@QEBA?AVQPointF@@N@Z
       6522 1979 001D5020 ?pointAtPercent@QPainterPath@@QEBA?AVQPointF@@N@Z
