Microsoft (R) COFF/PE Dumper Version 14.44.35222.0
Copyright (C) Microsoft Corporation.  All rights reserved.


Dump of file C:\Users\DonKolia\Downloads\obs-studio-windows-x64-407944a27\obs-studio-32.0.4-407944a27-windows-x64\bin\64bit\Qt6Widgets.dll

File Type: DLL

  Section contains the following exports for Qt6Widgets.dll

    00000000 characteristics
    FFFFFFFF time date stamp
        0.00 version
           1 ordinal base
        8468 number of functions
        8468 number of names

    ordinal hint RVA      name

          1    0 0011CE80 ??0QAbstractButton@@IEAA@AEAVQAbstractButtonPrivate@@PEAVQWidget@@@Z
          2    1 0011CF70 ??0QAbstractButton@@QEAA@PEAVQWidget@@@Z
          3    2 00360940 ??0QAbstractGraphicsShapeItem@@IEAA@AEAVQAbstractGraphicsShapeItemPrivate@@PEAVQGraphicsItem@@@Z
          4    3 00360980 ??0QAbstractGraphicsShapeItem@@QEAA@PEAVQGraphicsItem@@@Z
          5    4 002A8860 ??0QAbstractItemDelegate@@IEAA@AEAVQObjectPrivate@@PEAVQObject@@@Z
          6    5 002A8890 ??0QAbstractItemDelegate@@QEAA@PEAVQObject@@@Z
          7    6 002AC0C0 ??0QAbstractItemView@@IEAA@AEAVQAbstractItemViewPrivate@@PEAVQWidget@@@Z
          8    7 002AC100 ??0QAbstractItemView@@QEAA@PEAVQWidget@@@Z
          9    8 000E7D30 ??0QAbstractScrollArea@@IEAA@AEAVQAbstractScrollAreaPrivate@@PEAVQWidget@@@Z
         10    9 000E7D70 ??0QAbstractScrollArea@@QEAA@PEAVQWidget@@@Z
         11    A 00120550 ??0QAbstractSlider@@IEAA@AEAVQAbstractSliderPrivate@@PEAVQWidget@@@Z
         12    B 00120580 ??0QAbstractSlider@@QEAA@PEAVQWidget@@@Z
         13    C 001DF290 ??0QAbstractSpinBox@@IEAA@AEAVQAbstractSpinBoxPrivate@@PEAVQWidget@@@Z
         14    D 001DF2D0 ??0QAbstractSpinBox@@QEAA@PEAVQWidget@@@Z
         15    E 00291420 ??0QAccessibleWidget@@QEAA@PEAVQWidget@@W4Role@QAccessible@@AEBVQString@@@Z
         16    F 00006230 ??0QApplication@@QEAA@AEAHPEAPEADH@Z
         17   10 00006320 ??0QApplicationPrivate@@QEAA@AEAHPEAPEAD@Z
         18   11 00101AF0 ??0QBlendStyleAnimation@@QEAA@W4Type@0@PEAVQObject@@@Z
         19   12 0001AAB0 ??0QBoxLayout@@QEAA@W4Direction@0@PEAVQWidget@@@Z
         20   13 00122310 ??0QButtonGroup@@QEAA@PEAVQObject@@@Z
         21   14 00125030 ??0QCalendarWidget@@QEAA@PEAVQWidget@@@Z
         22   15 0012ED70 ??0QCheckBox@@QEAA@AEBVQString@@PEAVQWidget@@@Z
         23   16 0012EE20 ??0QCheckBox@@QEAA@PEAVQWidget@@@Z
         24   17 00238E10 ??0QColorDialog@@QEAA@AEBVQColor@@PEAVQWidget@@@Z
         25   18 00238FA0 ??0QColorDialog@@QEAA@PEAVQWidget@@@Z
         26   19 000E6180 ??0QColormap@@AEAA@XZ
         27   1A 000E61A0 ??0QColormap@@QEAA@AEBV0@@Z
         28   1B 002DE780 ??0QColumnView@@IEAA@AEAVQColumnViewPrivate@@PEAVQWidget@@@Z
         29   1C 002DE7C0 ??0QColumnView@@QEAA@PEAVQWidget@@@Z
         30   1D 00131230 ??0QComboBox@@IEAA@AEAVQComboBoxPrivate@@PEAVQWidget@@@Z
         31   1E 00131320 ??0QComboBox@@QEAA@PEAVQWidget@@@Z
         32   1F 00131650 ??0QComboBoxPrivateContainer@@QEAA@PEAVQAbstractItemView@@PEAVQComboBox@@@Z
         33   20 00142080 ??0QCommandLinkButton@@QEAA@AEBVQString@@0PEAVQWidget@@@Z
         34   21 001420E0 ??0QCommandLinkButton@@QEAA@AEBVQString@@PEAVQWidget@@@Z
         35   22 001421C0 ??0QCommandLinkButton@@QEAA@PEAVQWidget@@@Z
         36   23 0007F4E0 ??0QCommonStyle@@IEAA@AEAVQCommonStylePrivate@@@Z
         37   24 0007F510 ??0QCommonStyle@@QEAA@XZ
         38   25 0007F5F0 ??0QCommonStylePrivate@@QEAA@XZ
         39   26 003CC240 ??0QCompleter@@QEAA@AEBV?$QList@VQString@@@@PEAVQObject@@@Z
         40   27 003CC370 ??0QCompleter@@QEAA@PEAVQAbstractItemModel@@PEAVQObject@@@Z
         41   28 003CC470 ??0QCompleter@@QEAA@PEAVQObject@@@Z
         42   29 002E5830 ??0QDataWidgetMapper@@QEAA@PEAVQObject@@@Z
         43   2A 00144A50 ??0QDateEdit@@QEAA@PEAVQWidget@@@Z
         44   2B 00144C00 ??0QDateEdit@@QEAA@VQDate@@PEAVQWidget@@@Z
         45   2C 00144DD0 ??0QDateTimeEdit@@IEAA@AEBVQVariant@@W4Type@QMetaType@@PEAVQWidget@@@Z
         46   2D 00144E70 ??0QDateTimeEdit@@QEAA@AEBVQDateTime@@PEAVQWidget@@@Z
         47   2E 00144FB0 ??0QDateTimeEdit@@QEAA@PEAVQWidget@@@Z
         48   2F 001450B0 ??0QDateTimeEdit@@QEAA@VQDate@@PEAVQWidget@@@Z
         49   30 001451B0 ??0QDateTimeEdit@@QEAA@VQTime@@PEAVQWidget@@@Z
         50   31 0014D240 ??0QDial@@QEAA@PEAVQWidget@@@Z
         51   32 00241E60 ??0QDialog@@IEAA@AEAVQDialogPrivate@@PEAVQWidget@@V?$QFlags@W4WindowType@Qt@@@@@Z
         52   33 00241EA0 ??0QDialog@@QEAA@PEAVQWidget@@V?$QFlags@W4WindowType@Qt@@@@@Z
         53   34 001D4FF0 ??0QDialogButtonBox@@QEAA@PEAVQWidget@@@Z
         54   35 001D5030 ??0QDialogButtonBox@@QEAA@V?$QFlags@W4StandardButton@QDialogButtonBox@@@@PEAVQWidget@@@Z
         55   36 001D50C0 ??0QDialogButtonBox@@QEAA@V?$QFlags@W4StandardButton@QDialogButtonBox@@@@W4Orientation@Qt@@PEAVQWidget@@@Z
         56   37 001D5150 ??0QDialogButtonBox@@QEAA@W4Orientation@Qt@@PEAVQWidget@@@Z
         57   38 001D0C10 ??0QDialogPrivate@@QEAA@XZ
         58   39 00161720 ??0QDockWidget@@QEAA@AEBVQString@@PEAVQWidget@@V?$QFlags@W4WindowType@Qt@@@@@Z
         59   3A 00161770 ??0QDockWidget@@QEAA@PEAVQWidget@@V?$QFlags@W4WindowType@Qt@@@@@Z
         60   3B 00161890 ??0QDockWidgetLayout@@QEAA@PEAVQWidget@@@Z
         61   3C 001E5400 ??0QDoubleSpinBox@@QEAA@PEAVQWidget@@@Z
         62   3D 00245010 ??0QErrorMessage@@QEAA@PEAVQWidget@@@Z
         63   3E 00249B30 ??0QFSCompleter@@QEAA@PEAVQFileSystemModel@@PEAVQObject@@@Z
         64   3F 00249B80 ??0QFileDialog@@IEAA@AEBUQFileDialogArgs@@@Z
         65   40 00249C20 ??0QFileDialog@@QEAA@PEAVQWidget@@AEBVQString@@11@Z
         66   41 00249D30 ??0QFileDialog@@QEAA@PEAVQWidget@@V?$QFlags@W4WindowType@Qt@@@@@Z
         67   42 0024A080 ??0QFileDialogPrivate@@QEAA@XZ
         68   43 00002C50 ??0QFileIconProvider@@QEAA@XZ
         69   44 003D42E0 ??0QFlickGesture@@QEAA@PEAVQObject@@W4MouseButton@Qt@@0@Z
         70   45 000EBEE0 ??0QFocusFrame@@QEAA@PEAVQWidget@@@Z
         71   46 001698D0 ??0QFontComboBox@@QEAA@PEAVQWidget@@@Z
         72   47 00269410 ??0QFontDialog@@QEAA@AEBVQFont@@PEAVQWidget@@@Z
         73   48 00269460 ??0QFontDialog@@QEAA@PEAVQWidget@@@Z
         74   49 000F70D0 ??0QFormLayout@@QEAA@PEAVQWidget@@@Z
         75   4A 000ED000 ??0QFrame@@IEAA@AEAVQFramePrivate@@PEAVQWidget@@V?$QFlags@W4WindowType@Qt@@@@@Z
         76   4B 000ED060 ??0QFrame@@QEAA@PEAVQWidget@@V?$QFlags@W4WindowType@Qt@@@@@Z
         77   4C 0010B920 ??0QFusionStyle@@IEAA@AEAVQFusionStylePrivate@@@Z
         78   4D 0010B950 ??0QFusionStyle@@QEAA@XZ
         79   4E 0001EDD0 ??0QGesture@@IEAA@AEAVQGesturePrivate@@PEAVQObject@@@Z
         80   4F 0001EE00 ??0QGesture@@QEAA@PEAVQObject@@@Z
         81   50 000063B0 ??0QGestureEvent@@QEAA@AEBV0@@Z
         82   51 0001EEA0 ??0QGestureEvent@@QEAA@AEBV?$QList@PEAVQGesture@@@@@Z
         83   52 00006430 ??0QGestureRecognizer@@QEAA@AEBV0@@Z
         84   53 00006430 ??0QGestureRecognizer@@QEAA@XZ
         85   54 00349530 ??0QGraphicsAnchor@@AEAA@PEAVQGraphicsAnchorLayout@@@Z
         86   55 00349590 ??0QGraphicsAnchorLayout@@QEAA@PEAVQGraphicsLayoutItem@@@Z
         87   56 000EFD40 ??0QGraphicsBlurEffect@@QEAA@PEAVQObject@@@Z
         88   57 000EFE10 ??0QGraphicsColorizeEffect@@QEAA@PEAVQObject@@@Z
         89   58 000EFED0 ??0QGraphicsDropShadowEffect@@QEAA@PEAVQObject@@@Z
         90   59 000EFF80 ??0QGraphicsEffect@@IEAA@AEAVQGraphicsEffectPrivate@@PEAVQObject@@@Z
         91   5A 000EFFB0 ??0QGraphicsEffect@@QEAA@PEAVQObject@@@Z
         92   5B 00006440 ??0QGraphicsEffectPrivate@@QEAA@XZ
         93   5C 000F0040 ??0QGraphicsEffectSource@@IEAA@AEAVQGraphicsEffectSourcePrivate@@PEAVQObject@@@Z
         94   5D 00360A20 ??0QGraphicsEllipseItem@@QEAA@AEBVQRectF@@PEAVQGraphicsItem@@@Z
         95   5E 00360B10 ??0QGraphicsEllipseItem@@QEAA@NNNNPEAVQGraphicsItem@@@Z
         96   5F 00360C40 ??0QGraphicsEllipseItem@@QEAA@PEAVQGraphicsItem@@@Z
         97   60 0035DA00 ??0QGraphicsGridLayout@@QEAA@PEAVQGraphicsLayoutItem@@@Z
         98   61 00360D10 ??0QGraphicsItem@@IEAA@AEAVQGraphicsItemPrivate@@PEAV0@@Z
         99   62 00360D40 ??0QGraphicsItem@@QEAA@PEAV0@@Z
        100   63 003C7000 ??0QGraphicsItemAnimation@@QEAA@PEAVQObject@@@Z
        101   64 00360D90 ??0QGraphicsItemGroup@@QEAA@PEAVQGraphicsItem@@@Z
        102   65 00026EC0 ??0QGraphicsItemPrivate@@QEAA@AEBV0@@Z
        103   66 00360E20 ??0QGraphicsItemPrivate@@QEAA@XZ
        104   67 0037BDE0 ??0QGraphicsLayout@@IEAA@AEAVQGraphicsLayoutPrivate@@PEAVQGraphicsLayoutItem@@@Z
        105   68 0037BE90 ??0QGraphicsLayout@@QEAA@PEAVQGraphicsLayoutItem@@@Z
        106   69 0037CA70 ??0QGraphicsLayoutItem@@IEAA@AEAVQGraphicsLayoutItemPrivate@@@Z
        107   6A 0037CA90 ??0QGraphicsLayoutItem@@QEAA@PEAV0@_N@Z
        108   6B 00360F60 ??0QGraphicsLineItem@@QEAA@AEBVQLineF@@PEAVQGraphicsItem@@@Z
        109   6C 00361000 ??0QGraphicsLineItem@@QEAA@NNNNPEAVQGraphicsItem@@@Z
        110   6D 003610C0 ??0QGraphicsLineItem@@QEAA@PEAVQGraphicsItem@@@Z
        111   6E 0037E4A0 ??0QGraphicsLinearLayout@@QEAA@PEAVQGraphicsLayoutItem@@@Z
        112   6F 0037E560 ??0QGraphicsLinearLayout@@QEAA@W4Orientation@Qt@@PEAVQGraphicsLayoutItem@@@Z
        113   70 00361140 ??0QGraphicsObject@@IEAA@AEAVQGraphicsItemPrivate@@PEAVQGraphicsItem@@@Z
        114   71 003611D0 ??0QGraphicsObject@@QEAA@PEAVQGraphicsItem@@@Z
        115   72 000F0070 ??0QGraphicsOpacityEffect@@QEAA@PEAVQObject@@@Z
        116   73 00361260 ??0QGraphicsPathItem@@QEAA@AEBVQPainterPath@@PEAVQGraphicsItem@@@Z
        117   74 00361390 ??0QGraphicsPathItem@@QEAA@PEAVQGraphicsItem@@@Z
        118   75 00361440 ??0QGraphicsPixmapItem@@QEAA@AEBVQPixmap@@PEAVQGraphicsItem@@@Z
        119   76 00361500 ??0QGraphicsPixmapItem@@QEAA@PEAVQGraphicsItem@@@Z
        120   77 003615A0 ??0QGraphicsPolygonItem@@QEAA@AEBVQPolygonF@@PEAVQGraphicsItem@@@Z
        121   78 00361680 ??0QGraphicsPolygonItem@@QEAA@PEAVQGraphicsItem@@@Z
        122   79 0037FA90 ??0QGraphicsProxyWidget@@QEAA@PEAVQGraphicsItem@@V?$QFlags@W4WindowType@Qt@@@@@Z
        123   7A 00361740 ??0QGraphicsRectItem@@QEAA@AEBVQRectF@@PEAVQGraphicsItem@@@Z
        124   7B 00361820 ??0QGraphicsRectItem@@QEAA@NNNNPEAVQGraphicsItem@@@Z
        125   7C 00361940 ??0QGraphicsRectItem@@QEAA@PEAVQGraphicsItem@@@Z
        126   7D 003ACD60 ??0QGraphicsRotation@@QEAA@PEAVQObject@@@Z
        127   7E 003ACE00 ??0QGraphicsScale@@QEAA@PEAVQObject@@@Z
        128   7F 0038A250 ??0QGraphicsScene@@QEAA@AEBVQRectF@@PEAVQObject@@@Z
        129   80 0038A2C0 ??0QGraphicsScene@@QEAA@NNNNPEAVQObject@@@Z
        130   81 0038A370 ??0QGraphicsScene@@QEAA@PEAVQObject@@@Z
        131   82 003A8DE0 ??0QGraphicsSceneContextMenuEvent@@QEAA@W4Type@QEvent@@@Z
        132   83 003A8E60 ??0QGraphicsSceneDragDropEvent@@QEAA@W4Type@QEvent@@@Z
        133   84 003A8EE0 ??0QGraphicsSceneEvent@@IEAA@AEAVQGraphicsSceneEventPrivate@@W4Type@QEvent@@@Z
        134   85 003A8F20 ??0QGraphicsSceneEvent@@QEAA@W4Type@QEvent@@@Z
        135   86 003A8F70 ??0QGraphicsSceneHelpEvent@@QEAA@W4Type@QEvent@@@Z
        136   87 003A8FE0 ??0QGraphicsSceneHoverEvent@@QEAA@W4Type@QEvent@@@Z
        137   88 003A9070 ??0QGraphicsSceneMouseEvent@@QEAA@W4Type@QEvent@@@Z
        138   89 003A9120 ??0QGraphicsSceneMoveEvent@@QEAA@XZ
        139   8A 003A9180 ??0QGraphicsSceneResizeEvent@@QEAA@XZ
        140   8B 003A91F0 ??0QGraphicsSceneWheelEvent@@QEAA@W4Type@QEvent@@@Z
        141   8C 00361A00 ??0QGraphicsSimpleTextItem@@QEAA@AEBVQString@@PEAVQGraphicsItem@@@Z
        142   8D 00361A60 ??0QGraphicsSimpleTextItem@@QEAA@PEAVQGraphicsItem@@@Z
        143   8E 00361B90 ??0QGraphicsTextItem@@QEAA@AEBVQString@@PEAVQGraphicsItem@@@Z
        144   8F 00361CC0 ??0QGraphicsTextItem@@QEAA@PEAVQGraphicsItem@@@Z
        145   90 003ACEA0 ??0QGraphicsTransform@@IEAA@AEAVQGraphicsTransformPrivate@@PEAVQObject@@@Z
        146   91 003ACED0 ??0QGraphicsTransform@@QEAA@PEAVQObject@@@Z
        147   92 003AF2F0 ??0QGraphicsView@@IEAA@AEAVQGraphicsViewPrivate@@PEAVQWidget@@@Z
        148   93 003AF370 ??0QGraphicsView@@QEAA@PEAVQGraphicsScene@@PEAVQWidget@@@Z
        149   94 003AF430 ??0QGraphicsView@@QEAA@PEAVQWidget@@@Z
        150   95 003AF4D0 ??0QGraphicsViewPrivate@@QEAA@XZ
        151   96 003BD080 ??0QGraphicsWidget@@IEAA@AEAVQGraphicsWidgetPrivate@@PEAVQGraphicsItem@@V?$QFlags@W4WindowType@Qt@@@@@Z
        152   97 003BD100 ??0QGraphicsWidget@@QEAA@PEAVQGraphicsItem@@V?$QFlags@W4WindowType@Qt@@@@@Z
        153   98 000379D0 ??0QGridLayout@@QEAA@PEAVQWidget@@@Z
        154   99 0016CD80 ??0QGroupBox@@QEAA@AEBVQString@@PEAVQWidget@@@Z
        155   9A 0016CE30 ??0QGroupBox@@QEAA@PEAVQWidget@@@Z
        156   9B 0001ABB0 ??0QHBoxLayout@@QEAA@PEAVQWidget@@@Z
        157   9C 0001ABF0 ??0QHBoxLayout@@QEAA@XZ
        158   9D 002C40B0 ??0QHeaderView@@IEAA@AEAVQHeaderViewPrivate@@W4Orientation@Qt@@PEAVQWidget@@@Z
        159   9E 002C41B0 ??0QHeaderView@@QEAA@W4Orientation@Qt@@PEAVQWidget@@@Z
        160   9F 0026E230 ??0QInputDialog@@QEAA@PEAVQWidget@@V?$QFlags@W4WindowType@Qt@@@@@Z
        161   A0 002D5000 ??0QItemDelegate@@QEAA@PEAVQObject@@@Z
        162   A1 002D50A0 ??0QItemEditorCreatorBase@@QEAA@AEBV0@@Z
        163   A2 002D50A0 ??0QItemEditorCreatorBase@@QEAA@XZ
        164   A3 002D50B0 ??0QItemEditorFactory@@QEAA@AEBV0@@Z
        165   A4 002D50E0 ??0QItemEditorFactory@@QEAA@XZ
        166   A5 0016F950 ??0QKeySequenceEdit@@IEAA@AEAVQKeySequenceEditPrivate@@PEAVQWidget@@V?$QFlags@W4WindowType@Qt@@@@@Z
        167   A6 0016F990 ??0QKeySequenceEdit@@QEAA@AEBVQKeySequence@@PEAVQWidget@@@Z
        168   A7 0016F9E0 ??0QKeySequenceEdit@@QEAA@PEAVQWidget@@@Z
        169   A8 00176880 ??0QLCDNumber@@QEAA@IPEAVQWidget@@@Z
        170   A9 00176930 ??0QLCDNumber@@QEAA@PEAVQWidget@@@Z
        171   AA 00171A70 ??0QLabel@@QEAA@AEBVQString@@PEAVQWidget@@V?$QFlags@W4WindowType@Qt@@@@@Z
        172   AB 00171AC0 ??0QLabel@@QEAA@PEAVQWidget@@V?$QFlags@W4WindowType@Qt@@@@@Z
        173   AC 0003C590 ??0QLayout@@IEAA@AEAVQLayoutPrivate@@PEAV0@PEAVQWidget@@@Z
        174   AD 0003C700 ??0QLayout@@QEAA@PEAVQWidget@@@Z
        175   AE 00001170 ??0QLayoutItem@@QEAA@AEBV0@@Z
        176   AF 00001190 ??0QLayoutItem@@QEAA@V?$QFlags@W4AlignmentFlag@Qt@@@@@Z
        177   B0 0003C7E0 ??0QLayoutPrivate@@QEAA@XZ
        178   B1 0017A360 ??0QLineEdit@@QEAA@AEBVQString@@PEAVQWidget@@@Z
        179   B2 0017A4A0 ??0QLineEdit@@QEAA@PEAVQWidget@@@Z
        180   B3 002EAB60 ??0QListView@@IEAA@AEAVQListViewPrivate@@PEAVQWidget@@@Z
        181   B4 002EABC0 ??0QListView@@QEAA@PEAVQWidget@@@Z
        182   B5 002FD170 ??0QListWidget@@QEAA@PEAVQWidget@@@Z
        183   B6 002FD270 ??0QListWidgetItem@@QEAA@AEBV0@@Z
        184   B7 002FD2F0 ??0QListWidgetItem@@QEAA@AEBVQIcon@@AEBVQString@@PEAVQListWidget@@H@Z
        185   B8 002FD4C0 ??0QListWidgetItem@@QEAA@AEBVQString@@PEAVQListWidget@@H@Z
        186   B9 002FD660 ??0QListWidgetItem@@QEAA@PEAVQListWidget@@H@Z
        187   BA 0018C670 ??0QMainWindow@@QEAA@PEAVQWidget@@V?$QFlags@W4WindowType@Qt@@@@@Z
        188   BB 001A0C60 ??0QMdiArea@@QEAA@PEAVQWidget@@@Z
        189   BC 001AC2E0 ??0QMdiSubWindow@@QEAA@PEAVQWidget@@V?$QFlags@W4WindowType@Qt@@@@@Z
        190   BD 001B9630 ??0QMenu@@IEAA@AEAVQMenuPrivate@@PEAVQWidget@@@Z
        191   BE 001B9670 ??0QMenu@@QEAA@AEBVQString@@PEAVQWidget@@@Z
        192   BF 001B9710 ??0QMenu@@QEAA@PEAVQWidget@@@Z
        193   C0 001C8B30 ??0QMenuBar@@QEAA@PEAVQWidget@@@Z
        194   C1 002733F0 ??0QMessageBox@@QEAA@AEBVQString@@0W4Icon@0@HHHPEAVQWidget@@V?$QFlags@W4WindowType@Qt@@@@@Z
        195   C2 002734B0 ??0QMessageBox@@QEAA@PEAVQWidget@@@Z
        196   C3 00273560 ??0QMessageBox@@QEAA@W4Icon@0@AEBVQString@@1V?$QFlags@W4StandardButton@QMessageBox@@@@PEAVQWidget@@V?$QFlags@W4WindowType@Qt@@@@@Z
        197   C4 00101B80 ??0QNumberStyleAnimation@@QEAA@PEAVQObject@@@Z
        198   C5 0001EF00 ??0QPanGesture@@QEAA@PEAVQObject@@@Z
        199   C6 0001EFE0 ??0QPinchGesture@@QEAA@PEAVQObject@@@Z
        200   C7 000F3050 ??0QPixmapBlurFilter@@QEAA@PEAVQObject@@@Z
        201   C8 000F30E0 ??0QPixmapColorizeFilter@@QEAA@PEAVQObject@@@Z
        202   C9 000F31D0 ??0QPixmapConvolutionFilter@@QEAA@PEAVQObject@@@Z
        203   CA 000F3260 ??0QPixmapDropShadowFilter@@QEAA@PEAVQObject@@@Z
        204   CB 000F3320 ??0QPixmapFilter@@IEAA@AEAVQPixmapFilterPrivate@@W4FilterType@0@PEAVQObject@@@Z
        205   CC 000F3360 ??0QPixmapFilter@@IEAA@W4FilterType@0@PEAVQObject@@@Z
        206   CD 0009A610 ??0QPixmapStyle@@IEAA@AEAVQPixmapStylePrivate@@@Z
        207   CE 0009A640 ??0QPixmapStyle@@QEAA@XZ
        208   CF 001FC220 ??0QPlainTextDocumentLayout@@QEAA@PEAVQTextDocument@@@Z
        209   D0 001FC2C0 ??0QPlainTextEdit@@IEAA@AEAVQPlainTextEditPrivate@@PEAVQWidget@@@Z
        210   D1 001FC320 ??0QPlainTextEdit@@QEAA@AEBVQString@@PEAVQWidget@@@Z
        211   D2 001FC420 ??0QPlainTextEdit@@QEAA@PEAVQWidget@@@Z
        212   D3 001CF560 ??0QProgressBar@@QEAA@PEAVQWidget@@@Z
        213   D4 00279D80 ??0QProgressDialog@@QEAA@AEBVQString@@0HHPEAVQWidget@@V?$QFlags@W4WindowType@Qt@@@@@Z
        214   D5 00279E10 ??0QProgressDialog@@QEAA@PEAVQWidget@@V?$QFlags@W4WindowType@Qt@@@@@Z
        215   D6 00101BF0 ??0QProgressStyleAnimation@@QEAA@HPEAVQObject@@@Z
        216   D7 000A18E0 ??0QProxyStyle@@QEAA@AEBVQString@@@Z
        217   D8 000A1910 ??0QProxyStyle@@QEAA@PEAVQStyle@@@Z
        218   D9 001D0CD0 ??0QPushButton@@IEAA@AEAVQPushButtonPrivate@@PEAVQWidget@@@Z
        219   DA 001D0D90 ??0QPushButton@@QEAA@AEBVQIcon@@AEBVQString@@PEAVQWidget@@@Z
        220   DB 001D0E60 ??0QPushButton@@QEAA@AEBVQString@@PEAVQWidget@@@Z
        221   DC 001D0F20 ??0QPushButton@@QEAA@PEAVQWidget@@@Z
        222   DD 001D2B40 ??0QRadioButton@@QEAA@AEBVQString@@PEAVQWidget@@@Z
        223   DE 001D2BE0 ??0QRadioButton@@QEAA@PEAVQWidget@@@Z
        224   DF 00042630 ??0QRhiWidget@@QEAA@PEAVQWidget@@V?$QFlags@W4WindowType@Qt@@@@@Z
        225   E0 001D8000 ??0QRubberBand@@QEAA@W4Shape@0@PEAVQWidget@@@Z
        226   E1 001D86D0 ??0QScrollArea@@IEAA@AEAVQScrollAreaPrivate@@PEAVQWidget@@@Z
        227   E2 001D8750 ??0QScrollArea@@QEAA@PEAVQWidget@@@Z
        228   E3 001D9E60 ??0QScrollBar@@QEAA@PEAVQWidget@@@Z
        229   E4 001D9F00 ??0QScrollBar@@QEAA@W4Orientation@Qt@@PEAVQWidget@@@Z
        230   E5 00101C60 ??0QScrollbarStyleAnimation@@QEAA@W4Mode@0@PEAVQObject@@@Z
        231   E6 003D6DF0 ??0QScroller@@AEAA@PEAVQObject@@@Z
        232   E7 003E01F0 ??0QScrollerProperties@@QEAA@AEBV0@@Z
        233   E8 003E0240 ??0QScrollerProperties@@QEAA@XZ
        234   E9 001DC0F0 ??0QSizeGrip@@QEAA@PEAVQWidget@@@Z
        235   EA 000011B0 ??0QSizePolicy@@AEAA@H@Z
        236   EB 000011B0 ??0QSizePolicy@@AEAA@UBits@0@@Z
        237   EC 000011C0 ??0QSizePolicy@@QEAA@W4Policy@0@0W4ControlType@0@@Z
        238   ED 00001220 ??0QSizePolicy@@QEAA@XZ
        239   EE 001DD470 ??0QSlider@@QEAA@PEAVQWidget@@@Z
        240   EF 001DD510 ??0QSlider@@QEAA@W4Orientation@Qt@@PEAVQWidget@@@Z
        241   F0 00001230 ??0QSpacerItem@@QEAA@AEBV0@@Z
        242   F1 00001270 ??0QSpacerItem@@QEAA@HHW4Policy@QSizePolicy@@0@Z
        243   F2 001E5560 ??0QSpinBox@@QEAA@PEAVQWidget@@@Z
        244   F3 001E8330 ??0QSplashScreen@@QEAA@AEBVQPixmap@@V?$QFlags@W4WindowType@Qt@@@@@Z
        245   F4 001E8400 ??0QSplashScreen@@QEAA@PEAVQScreen@@AEBVQPixmap@@V?$QFlags@W4WindowType@Qt@@@@@Z
        246   F5 001E9360 ??0QSplitter@@QEAA@PEAVQWidget@@@Z
        247   F6 001E9440 ??0QSplitter@@QEAA@W4Orientation@Qt@@PEAVQWidget@@@Z
        248   F7 001E9520 ??0QSplitterHandle@@QEAA@W4Orientation@Qt@@PEAVQSplitter@@@Z
        249   F8 000451E0 ??0QStackedLayout@@QEAA@PEAVQLayout@@@Z
        250   F9 00045280 ??0QStackedLayout@@QEAA@PEAVQWidget@@@Z
        251   FA 00045320 ??0QStackedLayout@@QEAA@XZ
        252   FB 001EE8F0 ??0QStackedWidget@@QEAA@PEAVQWidget@@@Z
        253   FC 001EF2B0 ??0QStatusBar@@QEAA@PEAVQWidget@@@Z
        254   FD 000A3E80 ??0QStyle@@IEAA@AEAVQStylePrivate@@@Z
        255   FE 000A3EB0 ??0QStyle@@QEAA@XZ
        256   FF 00101D20 ??0QStyleAnimation@@QEAA@PEAVQObject@@@Z
        257  100 000A8F60 ??0QStyleHintReturn@@QEAA@HH@Z
        258  101 00006490 ??0QStyleHintReturnMask@@QEAA@AEBV0@@Z
        259  102 000A8F70 ??0QStyleHintReturnMask@@QEAA@XZ
        260  103 000064C0 ??0QStyleHintReturnVariant@@QEAA@AEBV0@@Z
        261  104 000A8FA0 ??0QStyleHintReturnVariant@@QEAA@XZ
        262  105 000A8FD0 ??0QStyleOption@@QEAA@AEBV0@@Z
        263  106 000A9030 ??0QStyleOption@@QEAA@HH@Z
        264  107 000A90A0 ??0QStyleOptionButton@@IEAA@H@Z
        265  108 000064F0 ??0QStyleOptionButton@@QEAA@AEBV0@@Z
        266  109 000A9130 ??0QStyleOptionButton@@QEAA@XZ
        267  10A 000A91C0 ??0QStyleOptionComboBox@@IEAA@H@Z
        268  10B 00006590 ??0QStyleOptionComboBox@@QEAA@AEBV0@@Z
        269  10C 000A9280 ??0QStyleOptionComboBox@@QEAA@XZ
        270  10D 00006670 ??0QStyleOptionComplex@@QEAA@AEBV0@@Z
        271  10E 000A9340 ??0QStyleOptionComplex@@QEAA@HH@Z
        272  10F 000A93C0 ??0QStyleOptionDockWidget@@IEAA@H@Z
        273  110 000066C0 ??0QStyleOptionDockWidget@@QEAA@AEBV0@@Z
        274  111 000A9440 ??0QStyleOptionDockWidget@@QEAA@XZ
        275  112 000A94C0 ??0QStyleOptionFocusRect@@IEAA@H@Z
        276  113 00006740 ??0QStyleOptionFocusRect@@QEAA@AEBV0@@Z
        277  114 000A9540 ??0QStyleOptionFocusRect@@QEAA@XZ
        278  115 000A95D0 ??0QStyleOptionFrame@@IEAA@H@Z
        279  116 000067A0 ??0QStyleOptionFrame@@QEAA@AEBV0@@Z
        280  117 000A9650 ??0QStyleOptionFrame@@QEAA@XZ
        281  118 000A96D0 ??0QStyleOptionGraphicsItem@@IEAA@H@Z
        282  119 00006800 ??0QStyleOptionGraphicsItem@@QEAA@AEBV0@@Z
        283  11A 000A9750 ??0QStyleOptionGraphicsItem@@QEAA@XZ
        284  11B 000A97E0 ??0QStyleOptionGroupBox@@IEAA@H@Z
        285  11C 00006860 ??0QStyleOptionGroupBox@@QEAA@AEBV0@@Z
        286  11D 000A9880 ??0QStyleOptionGroupBox@@QEAA@XZ
        287  11E 000A9920 ??0QStyleOptionHeader@@IEAA@H@Z
        288  11F 00006910 ??0QStyleOptionHeader@@QEAA@AEBV0@@Z
        289  120 000A99D0 ??0QStyleOptionHeader@@QEAA@XZ
        290  121 000A9A80 ??0QStyleOptionHeaderV2@@IEAA@H@Z
        291  122 000069D0 ??0QStyleOptionHeaderV2@@QEAA@AEBV0@@Z
        292  123 000A9B40 ??0QStyleOptionHeaderV2@@QEAA@XZ
        293  124 000A9C00 ??0QStyleOptionMenuItem@@IEAA@H@Z
        294  125 00006AA0 ??0QStyleOptionMenuItem@@QEAA@AEBV0@@Z
        295  126 000A9CB0 ??0QStyleOptionMenuItem@@QEAA@XZ
        296  127 000A9D60 ??0QStyleOptionProgressBar@@IEAA@H@Z
        297  128 00006BA0 ??0QStyleOptionProgressBar@@QEAA@AEBV0@@Z
        298  129 000A9E00 ??0QStyleOptionProgressBar@@QEAA@XZ
        299  12A 000A9EA0 ??0QStyleOptionRubberBand@@IEAA@H@Z
        300  12B 00006C30 ??0QStyleOptionRubberBand@@QEAA@AEBV0@@Z
        301  12C 000A9F20 ??0QStyleOptionRubberBand@@QEAA@XZ
        302  12D 000A9FA0 ??0QStyleOptionSizeGrip@@IEAA@H@Z
        303  12E 00006C80 ??0QStyleOptionSizeGrip@@QEAA@AEBV0@@Z
        304  12F 000AA020 ??0QStyleOptionSizeGrip@@QEAA@XZ
        305  130 000AA0B0 ??0QStyleOptionSlider@@IEAA@H@Z
        306  131 00006CD0 ??0QStyleOptionSlider@@QEAA@AEBV0@@Z
        307  132 000AA150 ??0QStyleOptionSlider@@QEAA@XZ
        308  133 000AA200 ??0QStyleOptionSpinBox@@IEAA@H@Z
        309  134 00006D70 ??0QStyleOptionSpinBox@@QEAA@AEBV0@@Z
        310  135 000AA280 ??0QStyleOptionSpinBox@@QEAA@XZ
        311  136 000AA310 ??0QStyleOptionTab@@IEAA@H@Z
        312  137 00006DD0 ??0QStyleOptionTab@@QEAA@AEBV0@@Z
        313  138 000AA3E0 ??0QStyleOptionTab@@QEAA@XZ
        314  139 000AA4B0 ??0QStyleOptionTabBarBase@@IEAA@H@Z
        315  13A 00006EF0 ??0QStyleOptionTabBarBase@@QEAA@AEBV0@@Z
        316  13B 000AA540 ??0QStyleOptionTabBarBase@@QEAA@XZ
        317  13C 000AA5D0 ??0QStyleOptionTabWidgetFrame@@IEAA@H@Z
        318  13D 00006F60 ??0QStyleOptionTabWidgetFrame@@QEAA@AEBV0@@Z
        319  13E 000AA680 ??0QStyleOptionTabWidgetFrame@@QEAA@XZ
        320  13F 000AA730 ??0QStyleOptionTitleBar@@IEAA@H@Z
        321  140 00007010 ??0QStyleOptionTitleBar@@QEAA@AEBV0@@Z
        322  141 000AA7C0 ??0QStyleOptionTitleBar@@QEAA@XZ
        323  142 000AA860 ??0QStyleOptionToolBar@@IEAA@H@Z
        324  143 000070B0 ??0QStyleOptionToolBar@@QEAA@AEBV0@@Z
        325  144 000AA8F0 ??0QStyleOptionToolBar@@QEAA@XZ
        326  145 000AA980 ??0QStyleOptionToolBox@@IEAA@H@Z
        327  146 00007120 ??0QStyleOptionToolBox@@QEAA@AEBV0@@Z
        328  147 000AAA10 ??0QStyleOptionToolBox@@QEAA@XZ
        329  148 000AAAA0 ??0QStyleOptionToolButton@@IEAA@H@Z
        330  149 000071B0 ??0QStyleOptionToolButton@@QEAA@AEBV0@@Z
        331  14A 000AAB50 ??0QStyleOptionToolButton@@QEAA@XZ
        332  14B 000AAC10 ??0QStyleOptionViewItem@@IEAA@H@Z
        333  14C 000072B0 ??0QStyleOptionViewItem@@QEAA@AEBV0@@Z
        334  14D 000AAD10 ??0QStyleOptionViewItem@@QEAA@XZ
        335  14E 000AB0B0 ??0QStylePlugin@@QEAA@PEAVQObject@@@Z
        336  14F 002DC410 ??0QStyledItemDelegate@@QEAA@PEAVQObject@@@Z
        337  150 0001F110 ??0QSwipeGesture@@QEAA@PEAVQObject@@@Z
        338  151 000E6AE0 ??0QSystemTrayIcon@@QEAA@AEBVQIcon@@PEAVQObject@@@Z
        339  152 000E6B60 ??0QSystemTrayIcon@@QEAA@PEAVQObject@@@Z
        340  153 001F17F0 ??0QTabBar@@QEAA@PEAVQWidget@@@Z
        341  154 000B30D0 ??0QTabBarPrivate@@QEAA@XZ
        342  155 002101D0 ??0QTabWidget@@QEAA@PEAVQWidget@@@Z
        343  156 00306300 ??0QTableView@@IEAA@AEAVQTableViewPrivate@@PEAVQWidget@@@Z
        344  157 00306340 ??0QTableView@@QEAA@PEAVQWidget@@@Z
        345  158 003171C0 ??0QTableWidget@@QEAA@HHPEAVQWidget@@@Z
        346  159 00317260 ??0QTableWidget@@QEAA@PEAVQWidget@@@Z
        347  15A 003172F0 ??0QTableWidgetItem@@QEAA@AEBV0@@Z
        348  15B 00317370 ??0QTableWidgetItem@@QEAA@AEBVQIcon@@AEBVQString@@H@Z
        349  15C 00317440 ??0QTableWidgetItem@@QEAA@AEBVQString@@H@Z
        350  15D 003174F0 ??0QTableWidgetItem@@QEAA@H@Z
        351  15E 0001F200 ??0QTapAndHoldGesture@@QEAA@PEAVQObject@@@Z
        352  15F 0001F2C0 ??0QTapGesture@@QEAA@PEAVQObject@@@Z
        353  160 0020C4C0 ??0QTextBrowser@@QEAA@PEAVQWidget@@@Z
        354  161 00205BF0 ??0QTextEdit@@IEAA@AEAVQTextEditPrivate@@PEAVQWidget@@@Z
        355  162 00205C50 ??0QTextEdit@@QEAA@AEBVQString@@PEAVQWidget@@@Z
        356  163 00205CC0 ??0QTextEdit@@QEAA@PEAVQWidget@@@Z
        357  164 00145560 ??0QTimeEdit@@QEAA@PEAVQWidget@@@Z
        358  165 00145720 ??0QTimeEdit@@QEAA@VQTime@@PEAVQWidget@@@Z
        359  166 002133D0 ??0QToolBar@@QEAA@AEBVQString@@PEAVQWidget@@@Z
        360  167 002134C0 ??0QToolBar@@QEAA@PEAVQWidget@@@Z
        361  168 00220BF0 ??0QToolBox@@QEAA@PEAVQWidget@@V?$QFlags@W4WindowType@Qt@@@@@Z
        362  169 00223280 ??0QToolButton@@QEAA@PEAVQWidget@@@Z
        363  16A 00048180 ??0QTouchEventWidgetSequence@QTest@@AEAA@PEAVQWidget@@PEAVQPointingDevice@@_N@Z
        364  16B 000481C0 ??0QTouchEventWidgetSequence@QTest@@QEAA@AEBV01@@Z
        365  16C 003224F0 ??0QTreeView@@IEAA@AEAVQTreeViewPrivate@@PEAVQWidget@@@Z
        366  16D 00322530 ??0QTreeView@@QEAA@PEAVQWidget@@@Z
        367  16E 0029FB20 ??0QTreeViewPrivate@@QEAA@XZ
        368  16F 00339590 ??0QTreeWidget@@QEAA@PEAVQWidget@@@Z
        369  170 00339CE0 ??0QTreeWidgetItem@@QEAA@AEBV0@@Z
        370  171 00339DA0 ??0QTreeWidgetItem@@QEAA@AEBV?$QList@VQString@@@@H@Z
        371  172 00339ED0 ??0QTreeWidgetItem@@QEAA@H@Z
        372  173 00339F50 ??0QTreeWidgetItem@@QEAA@PEAV0@0H@Z
        373  174 0033A040 ??0QTreeWidgetItem@@QEAA@PEAV0@AEBV?$QList@VQString@@@@H@Z
        374  175 0033A1A0 ??0QTreeWidgetItem@@QEAA@PEAV0@H@Z
        375  176 0033A250 ??0QTreeWidgetItem@@QEAA@PEAVQTreeWidget@@AEBV?$QList@VQString@@@@H@Z
        376  177 0033A570 ??0QTreeWidgetItem@@QEAA@PEAVQTreeWidget@@H@Z
        377  178 0033A820 ??0QTreeWidgetItem@@QEAA@PEAVQTreeWidget@@PEAV0@H@Z
        378  179 00347F40 ??0QTreeWidgetItemIterator@@QEAA@AEBV0@@Z
        379  17A 00348000 ??0QTreeWidgetItemIterator@@QEAA@PEAVQTreeWidget@@V?$QFlags@W4IteratorFlag@QTreeWidgetItemIterator@@@@@Z
        380  17B 00348560 ??0QTreeWidgetItemIterator@@QEAA@PEAVQTreeWidgetItem@@V?$QFlags@W4IteratorFlag@QTreeWidgetItemIterator@@@@@Z
        381  17C 003E1D60 ??0QUndoView@@QEAA@PEAVQUndoGroup@@PEAVQWidget@@@Z
        382  17D 003E1E10 ??0QUndoView@@QEAA@PEAVQUndoStack@@PEAVQWidget@@@Z
        383  17E 003E1EC0 ??0QUndoView@@QEAA@PEAVQWidget@@@Z
        384  17F 0001AC30 ??0QVBoxLayout@@QEAA@PEAVQWidget@@@Z
        385  180 0001AC70 ??0QVBoxLayout@@QEAA@XZ
        386  181 0004CC70 ??0QWidget@@IEAA@AEAVQWidgetPrivate@@PEAV0@V?$QFlags@W4WindowType@Qt@@@@@Z
        387  182 0004CCE0 ??0QWidget@@QEAA@PEAV0@V?$QFlags@W4WindowType@Qt@@@@@Z
        388  183 000F5C40 ??0QWidgetAction@@QEAA@PEAVQObject@@@Z
        389  184 000012B0 ??0QWidgetItem@@QEAA@PEAVQWidget@@@Z
        390  185 00041030 ??0QWidgetItemV2@@QEAA@PEAVQWidget@@@Z
        391  186 00131A50 ??0QWidgetLineControl@@QEAA@AEBVQString@@@Z
        392  187 0004CD70 ??0QWidgetPrivate@@QEAA@H@Z
        393  188 000720A0 ??0QWidgetRepaintManager@@QEAA@PEAVQWidget@@@Z
        394  189 002275B0 ??0QWidgetTextControl@@QEAA@AEBVQString@@PEAVQObject@@@Z
        395  18A 00227620 ??0QWidgetTextControl@@QEAA@PEAVQObject@@@Z
        396  18B 002276D0 ??0QWidgetTextControl@@QEAA@PEAVQTextDocument@@PEAVQObject@@@Z
        397  18C 0007C430 ??0QWindowContainer@@QEAA@PEAVQWindow@@PEAVQWidget@@V?$QFlags@W4WindowType@Qt@@@@@Z
        398  18D 00103440 ??0QWindowsStyle@@IEAA@AEAVQWindowsStylePrivate@@@Z
        399  18E 00103470 ??0QWindowsStyle@@QEAA@XZ
        400  18F 001034B0 ??0QWindowsStylePrivate@@QEAA@XZ
        401  190 0027DA60 ??0QWizard@@QEAA@PEAVQWidget@@V?$QFlags@W4WindowType@Qt@@@@@Z
        402  191 0027DD10 ??0QWizardPage@@QEAA@PEAVQWidget@@@Z
        403  192 000F57E0 ??0QtWidgetsActionPrivate@@QEAA@XZ
        404  193 0011D120 ??1QAbstractButton@@UEAA@XZ
        405  194 00361E50 ??1QAbstractGraphicsShapeItem@@UEAA@XZ
        406  195 002A8930 ??1QAbstractItemDelegate@@UEAA@XZ
        407  196 002AC420 ??1QAbstractItemView@@UEAA@XZ
        408  197 000E7F10 ??1QAbstractScrollArea@@UEAA@XZ
        409  198 00120710 ??1QAbstractSlider@@UEAA@XZ
        410  199 001DF5E0 ??1QAbstractSpinBox@@UEAA@XZ
        411  19A 002914C0 ??1QAccessibleWidget@@MEAA@XZ
        412  19B 00007590 ??1QApplication@@UEAA@XZ
        413  19C 00007A90 ??1QApplicationPrivate@@UEAA@XZ
        414  19D 0007F6A0 ??1QBlendStyleAnimation@@UEAA@XZ
        415  19E 0001ACB0 ??1QBoxLayout@@UEAA@XZ
        416  19F 001223B0 ??1QButtonGroup@@UEAA@XZ
        417  1A0 001257C0 ??1QCalendarWidget@@UEAA@XZ
        418  1A1 0012EEB0 ??1QCheckBox@@UEAA@XZ
        419  1A2 00239DA0 ??1QColorDialog@@UEAA@XZ
        420  1A3 000E61B0 ??1QColormap@@QEAA@XZ
        421  1A4 002DE990 ??1QColumnView@@UEAA@XZ
        422  1A5 00131CE0 ??1QComboBox@@UEAA@XZ
        423  1A6 00131EC0 ??1QComboBoxPrivateContainer@@UEAA@XZ
        424  1A7 00142280 ??1QCommandLinkButton@@UEAA@XZ
        425  1A8 0007F6E0 ??1QCommonStyle@@UEAA@XZ
        426  1A9 0007F6F0 ??1QCommonStylePrivate@@UEAA@XZ
        427  1AA 003CC560 ??1QCompleter@@UEAA@XZ
        428  1AB 002E5A50 ??1QDataWidgetMapper@@UEAA@XZ
        429  1AC 001458F0 ??1QDateEdit@@UEAA@XZ
        430  1AD 001458F0 ??1QDateTimeEdit@@UEAA@XZ
        431  1AE 0014D2F0 ??1QDial@@UEAA@XZ
        432  1AF 00241FD0 ??1QDialog@@UEAA@XZ
        433  1B0 001D5300 ??1QDialogButtonBox@@UEAA@XZ
        434  1B1 00242000 ??1QDialogPrivate@@UEAA@XZ
        435  1B2 00161920 ??1QDockWidget@@UEAA@XZ
        436  1B3 00161940 ??1QDockWidgetLayout@@UEAA@XZ
        437  1B4 001E56B0 ??1QDoubleSpinBox@@UEAA@XZ
        438  1B5 002455A0 ??1QErrorMessage@@UEAA@XZ
        439  1B6 0024A390 ??1QFSCompleter@@UEAA@XZ
        440  1B7 0024A3A0 ??1QFileDialog@@UEAA@XZ
        441  1B8 0024A430 ??1QFileDialogPrivate@@UEAA@XZ
        442  1B9 00002D70 ??1QFileIconProvider@@UEAA@XZ
        443  1BA 003D4460 ??1QFlickGesture@@UEAA@XZ
        444  1BB 000EBFF0 ??1QFocusFrame@@UEAA@XZ
        445  1BC 00169C90 ??1QFontComboBox@@UEAA@XZ
        446  1BD 002695E0 ??1QFontDialog@@UEAA@XZ
        447  1BE 000F7210 ??1QFormLayout@@UEAA@XZ
        448  1BF 000ED1A0 ??1QFrame@@UEAA@XZ
        449  1C0 0010BA70 ??1QFusionStyle@@UEAA@XZ
        450  1C1 0001F370 ??1QGesture@@UEAA@XZ
        451  1C2 0001F390 ??1QGestureEvent@@UEAA@XZ
        452  1C3 000378E0 ??1QGestureRecognizer@@UEAA@XZ
        453  1C4 003495F0 ??1QGraphicsAnchor@@UEAA@XZ
        454  1C5 00349610 ??1QGraphicsAnchorLayout@@UEAA@XZ
        455  1C6 000F0130 ??1QGraphicsBlurEffect@@UEAA@XZ
        456  1C7 000F0130 ??1QGraphicsColorizeEffect@@UEAA@XZ
        457  1C8 000F0130 ??1QGraphicsDropShadowEffect@@UEAA@XZ
        458  1C9 000F0130 ??1QGraphicsEffect@@UEAA@XZ
        459  1CA 000F01F0 ??1QGraphicsEffectPrivate@@UEAA@XZ
        460  1CB 000F0210 ??1QGraphicsEffectSource@@UEAA@XZ
        461  1CC 00361E50 ??1QGraphicsEllipseItem@@UEAA@XZ
        462  1CD 0035DAB0 ??1QGraphicsGridLayout@@UEAA@XZ
        463  1CE 00361E60 ??1QGraphicsItem@@UEAA@XZ
        464  1CF 003C7130 ??1QGraphicsItemAnimation@@UEAA@XZ
        465  1D0 00362480 ??1QGraphicsItemGroup@@UEAA@XZ
        466  1D1 00362490 ??1QGraphicsItemPrivate@@UEAA@XZ
        467  1D2 0037BFA0 ??1QGraphicsLayout@@UEAA@XZ
        468  1D3 0037CCC0 ??1QGraphicsLayoutItem@@UEAA@XZ
        469  1D4 00362610 ??1QGraphicsLineItem@@UEAA@XZ
        470  1D5 0037E630 ??1QGraphicsLinearLayout@@UEAA@XZ
        471  1D6 00362620 ??1QGraphicsObject@@UEAA@XZ
        472  1D7 000F0130 ??1QGraphicsOpacityEffect@@UEAA@XZ
        473  1D8 00361E50 ??1QGraphicsPathItem@@UEAA@XZ
        474  1D9 00362660 ??1QGraphicsPixmapItem@@UEAA@XZ
        475  1DA 00361E50 ??1QGraphicsPolygonItem@@UEAA@XZ
        476  1DB 0037FB60 ??1QGraphicsProxyWidget@@UEAA@XZ
        477  1DC 00361E50 ??1QGraphicsRectItem@@UEAA@XZ
        478  1DD 003ACF40 ??1QGraphicsRotation@@UEAA@XZ
        479  1DE 003ACF40 ??1QGraphicsScale@@UEAA@XZ
        480  1DF 0038A8E0 ??1QGraphicsScene@@UEAA@XZ
        481  1E0 003A9280 ??1QGraphicsSceneContextMenuEvent@@UEAA@XZ
        482  1E1 003A9280 ??1QGraphicsSceneDragDropEvent@@UEAA@XZ
        483  1E2 003A9280 ??1QGraphicsSceneEvent@@UEAA@XZ
        484  1E3 003A9280 ??1QGraphicsSceneHelpEvent@@UEAA@XZ
        485  1E4 003A9280 ??1QGraphicsSceneHoverEvent@@UEAA@XZ
        486  1E5 003A9280 ??1QGraphicsSceneMouseEvent@@UEAA@XZ
        487  1E6 003A9280 ??1QGraphicsSceneMoveEvent@@UEAA@XZ
        488  1E7 003A9280 ??1QGraphicsSceneResizeEvent@@UEAA@XZ
        489  1E8 003A9280 ??1QGraphicsSceneWheelEvent@@UEAA@XZ
        490  1E9 00361E50 ??1QGraphicsSimpleTextItem@@UEAA@XZ
        491  1EA 00362670 ??1QGraphicsTextItem@@UEAA@XZ
        492  1EB 003ACF40 ??1QGraphicsTransform@@UEAA@XZ
        493  1EC 003AF730 ??1QGraphicsView@@UEAA@XZ
        494  1ED 003AF7F0 ??1QGraphicsViewPrivate@@UEAA@XZ
        495  1EE 003BD1A0 ??1QGraphicsWidget@@UEAA@XZ
        496  1EF 00037B40 ??1QGridLayout@@UEAA@XZ
        497  1F0 0016CEC0 ??1QGroupBox@@UEAA@XZ
        498  1F1 0001AD90 ??1QHBoxLayout@@UEAA@XZ
        499  1F2 002C43F0 ??1QHeaderView@@UEAA@XZ
        500  1F3 0026E570 ??1QInputDialog@@UEAA@XZ
        501  1F4 002D5100 ??1QItemDelegate@@UEAA@XZ
        502  1F5 002DA920 ??1QItemEditorCreatorBase@@UEAA@XZ
        503  1F6 002DA930 ??1QItemEditorFactory@@UEAA@XZ
        504  1F7 0016FAC0 ??1QKeySequenceEdit@@UEAA@XZ
        505  1F8 001769E0 ??1QLCDNumber@@UEAA@XZ
        506  1F9 00171C30 ??1QLabel@@UEAA@XZ
        507  1FA 0003C860 ??1QLayout@@UEAA@XZ
        508  1FB 000410D0 ??1QLayoutItem@@UEAA@XZ
        509  1FC 0001ADB0 ??1QLayoutPrivate@@UEAA@XZ
        510  1FD 0017A500 ??1QLineEdit@@UEAA@XZ
        511  1FE 002EADC0 ??1QListView@@UEAA@XZ
        512  1FF 002FD730 ??1QListWidget@@UEAA@XZ
        513  200 002FD7C0 ??1QListWidgetItem@@UEAA@XZ
        514  201 0018C730 ??1QMainWindow@@UEAA@XZ
        515  202 001A0E40 ??1QMdiArea@@UEAA@XZ
        516  203 001AC990 ??1QMdiSubWindow@@UEAA@XZ
        517  204 001B9F90 ??1QMenu@@UEAA@XZ
        518  205 001C8CA0 ??1QMenuBar@@UEAA@XZ
        519  206 00273940 ??1QMessageBox@@UEAA@XZ
        520  207 0007F910 ??1QNumberStyleAnimation@@UEAA@XZ
        521  208 0001F370 ??1QPanGesture@@UEAA@XZ
        522  209 0001F370 ??1QPinchGesture@@UEAA@XZ
        523  20A 000F33E0 ??1QPixmapBlurFilter@@UEAA@XZ
        524  20B 000F33E0 ??1QPixmapColorizeFilter@@UEAA@XZ
        525  20C 000F33E0 ??1QPixmapConvolutionFilter@@UEAA@XZ
        526  20D 000F33E0 ??1QPixmapDropShadowFilter@@UEAA@XZ
        527  20E 000F33E0 ??1QPixmapFilter@@UEAA@XZ
        528  20F 0009A730 ??1QPixmapStyle@@UEAA@XZ
        529  210 001FC520 ??1QPlainTextDocumentLayout@@UEAA@XZ
        530  211 001FC540 ??1QPlainTextEdit@@UEAA@XZ
        531  212 001CF650 ??1QProgressBar@@UEAA@XZ
        532  213 0027A030 ??1QProgressDialog@@UEAA@XZ
        533  214 0007F910 ??1QProgressStyleAnimation@@UEAA@XZ
        534  215 000A1A70 ??1QProxyStyle@@UEAA@XZ
        535  216 001D0FC0 ??1QPushButton@@UEAA@XZ
        536  217 001D2C60 ??1QRadioButton@@UEAA@XZ
        537  218 00042800 ??1QRhiWidget@@UEAA@XZ
        538  219 001D8110 ??1QRubberBand@@UEAA@XZ
        539  21A 001D8820 ??1QScrollArea@@UEAA@XZ
        540  21B 001D9FA0 ??1QScrollBar@@UEAA@XZ
        541  21C 0007F910 ??1QScrollbarStyleAnimation@@UEAA@XZ
        542  21D 003D7020 ??1QScroller@@EEAA@XZ
        543  21E 003E0520 ??1QScrollerProperties@@UEAA@XZ
        544  21F 001DC1C0 ??1QSizeGrip@@UEAA@XZ
        545  220 001DD5B0 ??1QSlider@@UEAA@XZ
        546  221 000410D0 ??1QSpacerItem@@UEAA@XZ
        547  222 001E56D0 ??1QSpinBox@@UEAA@XZ
        548  223 001E84E0 ??1QSplashScreen@@UEAA@XZ
        549  224 001E95E0 ??1QSplitter@@UEAA@XZ
        550  225 001E96F0 ??1QSplitterHandle@@UEAA@XZ
        551  226 000453B0 ??1QStackedLayout@@UEAA@XZ
        552  227 001EEAF0 ??1QStackedWidget@@UEAA@XZ
        553  228 001EF380 ??1QStatusBar@@UEAA@XZ
        554  229 000A3F20 ??1QStyle@@UEAA@XZ
        555  22A 00101D70 ??1QStyleAnimation@@UEAA@XZ
        556  22B 00009A60 ??1QStyleHintReturn@@QEAA@XZ
        557  22C 000AAD30 ??1QStyleHintReturnMask@@QEAA@XZ
        558  22D 000AAD40 ??1QStyleHintReturnVariant@@QEAA@XZ
        559  22E 000AAD50 ??1QStyleOption@@QEAA@XZ
        560  22F 00007B50 ??1QStyleOptionButton@@QEAA@XZ
        561  230 00007B80 ??1QStyleOptionComboBox@@QEAA@XZ
        562  231 00007BB0 ??1QStyleOptionComplex@@QEAA@XZ
        563  232 00007BC0 ??1QStyleOptionDockWidget@@QEAA@XZ
        564  233 00007BB0 ??1QStyleOptionFocusRect@@QEAA@XZ
        565  234 00007BB0 ??1QStyleOptionFrame@@QEAA@XZ
        566  235 00007BB0 ??1QStyleOptionGraphicsItem@@QEAA@XZ
        567  236 00007BE0 ??1QStyleOptionGroupBox@@QEAA@XZ
        568  237 00007C00 ??1QStyleOptionHeader@@QEAA@XZ
        569  238 00007C00 ??1QStyleOptionHeaderV2@@QEAA@XZ
        570  239 00007C30 ??1QStyleOptionMenuItem@@QEAA@XZ
        571  23A 00007BE0 ??1QStyleOptionProgressBar@@QEAA@XZ
        572  23B 00007BB0 ??1QStyleOptionRubberBand@@QEAA@XZ
        573  23C 00007BB0 ??1QStyleOptionSizeGrip@@QEAA@XZ
        574  23D 00007BB0 ??1QStyleOptionSlider@@QEAA@XZ
        575  23E 00007BB0 ??1QStyleOptionSpinBox@@QEAA@XZ
        576  23F 00007B50 ??1QStyleOptionTab@@QEAA@XZ
        577  240 00007BB0 ??1QStyleOptionTabBarBase@@QEAA@XZ
        578  241 00007BB0 ??1QStyleOptionTabWidgetFrame@@QEAA@XZ
        579  242 00007B50 ??1QStyleOptionTitleBar@@QEAA@XZ
        580  243 00007BB0 ??1QStyleOptionToolBar@@QEAA@XZ
        581  244 00007C70 ??1QStyleOptionToolBox@@QEAA@XZ
        582  245 00007CA0 ??1QStyleOptionToolButton@@QEAA@XZ
        583  246 00007CE0 ??1QStyleOptionViewItem@@QEAA@XZ
        584  247 000AB0E0 ??1QStylePlugin@@UEAA@XZ
        585  248 002DC520 ??1QStyledItemDelegate@@UEAA@XZ
        586  249 0001F370 ??1QSwipeGesture@@UEAA@XZ
        587  24A 000E6BB0 ??1QSystemTrayIcon@@UEAA@XZ
        588  24B 001F1920 ??1QTabBar@@UEAA@XZ
        589  24C 000B3F60 ??1QTabBarPrivate@@UEAA@XZ
        590  24D 002102A0 ??1QTabWidget@@UEAA@XZ
        591  24E 003066B0 ??1QTableView@@UEAA@XZ
        592  24F 00317740 ??1QTableWidget@@UEAA@XZ
        593  250 003177B0 ??1QTableWidgetItem@@UEAA@XZ
        594  251 0001F370 ??1QTapAndHoldGesture@@UEAA@XZ
        595  252 0001F370 ??1QTapGesture@@UEAA@XZ
        596  253 0020C5E0 ??1QTextBrowser@@UEAA@XZ
        597  254 00205E10 ??1QTextEdit@@UEAA@XZ
        598  255 001458F0 ??1QTimeEdit@@UEAA@XZ
        599  256 00213590 ??1QToolBar@@UEAA@XZ
        600  257 00220CD0 ??1QToolBox@@UEAA@XZ
        601  258 00223340 ??1QToolButton@@UEAA@XZ
        602  259 00048200 ??1QTouchEventWidgetSequence@QTest@@UEAA@XZ
        603  25A 00322590 ??1QTreeView@@UEAA@XZ
        604  25B 0029FEC0 ??1QTreeViewPrivate@@UEAA@XZ
        605  25C 0033ABC0 ??1QTreeWidget@@UEAA@XZ
        606  25D 0033AC30 ??1QTreeWidgetItem@@UEAA@XZ
        607  25E 00348750 ??1QTreeWidgetItemIterator@@QEAA@XZ
        608  25F 003E1F50 ??1QUndoView@@UEAA@XZ
        609  260 0001ADC0 ??1QVBoxLayout@@UEAA@XZ
        610  261 0004D110 ??1QWidget@@UEAA@XZ
        611  262 000F5CE0 ??1QWidgetAction@@UEAA@XZ
        612  263 000410D0 ??1QWidgetItem@@UEAA@XZ
        613  264 000410E0 ??1QWidgetItemV2@@UEAA@XZ
        614  265 00131FE0 ??1QWidgetLineControl@@UEAA@XZ
        615  266 0004DA00 ??1QWidgetPrivate@@UEAA@XZ
        616  267 000724B0 ??1QWidgetRepaintManager@@QEAA@XZ
        617  268 002278F0 ??1QWidgetTextControl@@UEAA@XZ
        618  269 0007C940 ??1QWindowContainer@@UEAA@XZ
        619  26A 001035C0 ??1QWindowsStyle@@UEAA@XZ
        620  26B 000B4070 ??1QWindowsStylePrivate@@UEAA@XZ
        621  26C 0027E270 ??1QWizard@@UEAA@XZ
        622  26D 0027E2C0 ??1QWizardPage@@UEAA@XZ
        623  26E 000F5820 ??1QtWidgetsActionPrivate@@UEAA@XZ
        624  26F 000E61D0 ??4QColormap@@QEAAAEAV0@AEBV0@@Z
        625  270 00007DC0 ??4QGestureEvent@@QEAAAEAV0@AEBV0@@Z
        626  271 00007F40 ??4QGestureRecognizer@@QEAAAEAV0@AEBV0@@Z
        627  272 00027AB0 ??4QGraphicsItemPrivate@@QEAAAEAV0@AEBV0@@Z
        628  273 00007F40 ??4QItemEditorCreatorBase@@QEAAAEAV0@AEBV0@@Z
        629  274 002D5110 ??4QItemEditorFactory@@QEAAAEAV0@AEBV0@@Z
        630  275 000012D0 ??4QLayoutItem@@QEAAAEAV0@AEBV0@@Z
        631  276 002FD920 ??4QListWidgetItem@@QEAAAEAV0@AEBV0@@Z
        632  277 003E0560 ??4QScrollerProperties@@QEAAAEAV0@AEBV0@@Z
        633  278 000012E0 ??4QSizePolicy@@QEAAAEAV0@$$QEAV0@@Z
        634  279 000012F0 ??4QSizePolicy@@QEAAAEAV0@AEBV0@@Z
        635  27A 00001300 ??4QSpacerItem@@QEAAAEAV0@AEBV0@@Z
        636  27B 00007F40 ??4QStyleFactory@@QEAAAEAV0@$$QEAV0@@Z
        637  27C 00007F40 ??4QStyleFactory@@QEAAAEAV0@AEBV0@@Z
        638  27D 00007F50 ??4QStyleHintReturn@@QEAAAEAV0@AEBV0@@Z
        639  27E 00007F60 ??4QStyleHintReturnMask@@QEAAAEAV0@AEBV0@@Z
        640  27F 00007F90 ??4QStyleHintReturnVariant@@QEAAAEAV0@AEBV0@@Z
        641  280 000AAD80 ??4QStyleOption@@QEAAAEAV0@AEBV0@@Z
        642  281 00007FC0 ??4QStyleOptionButton@@QEAAAEAV0@AEBV0@@Z
        643  282 00008010 ??4QStyleOptionComboBox@@QEAAAEAV0@AEBV0@@Z
        644  283 00008090 ??4QStyleOptionComplex@@QEAAAEAV0@AEBV0@@Z
        645  284 000080C0 ??4QStyleOptionDockWidget@@QEAAAEAV0@AEBV0@@Z
        646  285 00008110 ??4QStyleOptionFocusRect@@QEAAAEAV0@AEBV0@@Z
        647  286 00008140 ??4QStyleOptionFrame@@QEAAAEAV0@AEBV0@@Z
        648  287 00008180 ??4QStyleOptionGraphicsItem@@QEAAAEAV0@AEBV0@@Z
        649  288 000081C0 ??4QStyleOptionGroupBox@@QEAAAEAV0@AEBV0@@Z
        650  289 00008230 ??4QStyleOptionHeader@@QEAAAEAV0@AEBV0@@Z
        651  28A 000082A0 ??4QStyleOptionHeaderV2@@QEAAAEAV0@AEBV0@@Z
        652  28B 00008360 ??4QStyleOptionMenuItem@@QEAAAEAV0@AEBV0@@Z
        653  28C 000083F0 ??4QStyleOptionProgressBar@@QEAAAEAV0@AEBV0@@Z
        654  28D 00008450 ??4QStyleOptionRubberBand@@QEAAAEAV0@AEBV0@@Z
        655  28E 00008480 ??4QStyleOptionSizeGrip@@QEAAAEAV0@AEBV0@@Z
        656  28F 000084C0 ??4QStyleOptionSlider@@QEAAAEAV0@AEBV0@@Z
        657  290 00008550 ??4QStyleOptionSpinBox@@QEAAAEAV0@AEBV0@@Z
        658  291 000085A0 ??4QStyleOptionTab@@QEAAAEAV0@AEBV0@@Z
        659  292 00008650 ??4QStyleOptionTabBarBase@@QEAAAEAV0@AEBV0@@Z
        660  293 00008690 ??4QStyleOptionTabWidgetFrame@@QEAAAEAV0@AEBV0@@Z
        661  294 000086F0 ??4QStyleOptionTitleBar@@QEAAAEAV0@AEBV0@@Z
        662  295 00008750 ??4QStyleOptionToolBar@@QEAAAEAV0@AEBV0@@Z
        663  296 000087A0 ??4QStyleOptionToolBox@@QEAAAEAV0@AEBV0@@Z
        664  297 000087F0 ??4QStyleOptionToolButton@@QEAAAEAV0@AEBV0@@Z
        665  298 00008880 ??4QStyleOptionViewItem@@QEAAAEAV0@AEBV0@@Z
        666  299 00317870 ??4QTableWidgetItem@@QEAAAEAV0@AEBV0@@Z
        667  29A 00007F40 ??4QToolTip@@QEAAAEAV0@$$QEAV0@@Z
        668  29B 00007F40 ??4QToolTip@@QEAAAEAV0@AEBV0@@Z
        669  29C 00048300 ??4QTouchEventWidgetSequence@QTest@@QEAAAEAV01@AEBV01@@Z
        670  29D 0033AFD0 ??4QTreeWidgetItem@@QEAAAEAV0@AEBV0@@Z
        671  29E 003487C0 ??4QTreeWidgetItemIterator@@QEAAAEAV0@AEBV0@@Z
        672  29F 00007F40 ??4QWhatsThis@@QEAAAEAV0@$$QEAV0@@Z
        673  2A0 00007F40 ??4QWhatsThis@@QEAAAEAV0@AEBV0@@Z
        674  2A1 002FD9E0 ??5@YAAEAVQDataStream@@AEAV0@AEAVQListWidgetItem@@@Z
        675  2A2 00044BA0 ??5@YAAEAVQDataStream@@AEAV0@AEAVQSizePolicy@@@Z
        676  2A3 002FD9E0 ??5@YAAEAVQDataStream@@AEAV0@AEAVQTableWidgetItem@@@Z
        677  2A4 002FD9E0 ??5@YAAEAVQDataStream@@AEAV0@AEAVQTreeWidgetItem@@@Z
        678  2A5 00044C20 ??6@YA?AVQDebug@@V0@AEBVQSizePolicy@@@Z
        679  2A6 000AADE0 ??6@YA?AVQDebug@@V0@AEBVQStyleOption@@@Z
        680  2A7 000AADE0 ??6@YA?AVQDebug@@V0@AEBW4OptionType@QStyleOption@@@Z
        681  2A8 001619E0 ??6@YA?AVQDebug@@V0@PEBVQDockWidget@@@Z
        682  2A9 0001F4F0 ??6@YA?AVQDebug@@V0@PEBVQGesture@@@Z
        683  2AA 0001FC30 ??6@YA?AVQDebug@@V0@PEBVQGestureEvent@@@Z
        684  2AB 003626E0 ??6@YA?AVQDebug@@V0@PEBVQGraphicsItem@@@Z
        685  2AC 00362900 ??6@YA?AVQDebug@@V0@PEBVQGraphicsObject@@@Z
        686  2AD 003A9460 ??6@YA?AVQDebug@@V0@PEBVQGraphicsSceneEvent@@@Z
        687  2AE 0004DE20 ??6@YA?AVQDebug@@V0@PEBVQWidget@@@Z
        688  2AF 00362A60 ??6@YA?AVQDebug@@V0@V?$QFlags@W4GraphicsItemFlag@QGraphicsItem@@@@@Z
        689  2B0 00362B20 ??6@YA?AVQDebug@@V0@W4GraphicsItemChange@QGraphicsItem@@@Z
        690  2B1 00362D70 ??6@YA?AVQDebug@@V0@W4GraphicsItemFlag@QGraphicsItem@@@Z
        691  2B2 002FDA10 ??6@YAAEAVQDataStream@@AEAV0@AEBVQListWidgetItem@@@Z
        692  2B3 00044D50 ??6@YAAEAVQDataStream@@AEAV0@AEBVQSizePolicy@@@Z
        693  2B4 002FDA10 ??6@YAAEAVQDataStream@@AEAV0@AEBVQTableWidgetItem@@@Z
        694  2B5 002FDA10 ??6@YAAEAVQDataStream@@AEAV0@AEBVQTreeWidgetItem@@@Z
        695  2B6 003E0660 ??8QScrollerProperties@@QEBA_NAEBV0@@Z
        696  2B7 00001330 ??8QSizePolicy@@QEBA_NAEBV0@@Z
        697  2B8 003E0840 ??9QScrollerProperties@@QEBA_NAEBV0@@Z
        698  2B9 00001340 ??9QSizePolicy@@QEBA_NAEBV0@@Z
        699  2BA 00044DA0 ??BQSizePolicy@@QEBA?AVQVariant@@XZ
        700  2BB 000016B0 ??DQTreeWidgetItemIterator@@QEBAPEAVQTreeWidgetItem@@XZ
        701  2BC 0033B140 ??EQTreeWidgetItemIterator@@QEAA?BV0@H@Z
        702  2BD 003488B0 ??EQTreeWidgetItemIterator@@QEAAAEAV0@XZ
        703  2BE 0033B180 ??FQTreeWidgetItemIterator@@QEAA?BV0@H@Z
        704  2BF 003488F0 ??FQTreeWidgetItemIterator@@QEAAAEAV0@XZ
        705  2C0 002FDA40 ??MQListWidgetItem@@UEBA_NAEBV0@@Z
        706  2C1 002FDA40 ??MQTableWidgetItem@@UEBA_NAEBV0@@Z
        707  2C2 0033B1C0 ??MQTreeWidgetItem@@UEBA_NAEBV0@@Z
        708  2C3 0033B2A0 ??YQTreeWidgetItemIterator@@QEAAAEAV0@H@Z
        709  2C4 0033B340 ??ZQTreeWidgetItemIterator@@QEAAAEAV0@H@Z
        710  2C5 00479420 ??_7QAbstractButton@@6BQObject@@@
        711  2C6 004795A8 ??_7QAbstractButton@@6BQPaintDevice@@@
        712  2C7 004B3DB0 ??_7QAbstractGraphicsShapeItem@@6B@
        713  2C8 004A8648 ??_7QAbstractItemDelegate@@6B@
        714  2C9 004A9CE8 ??_7QAbstractItemView@@6BQObject@@@
        715  2CA 004A9FB8 ??_7QAbstractItemView@@6BQPaintDevice@@@
        716  2CB 0040EF98 ??_7QAbstractScrollArea@@6BQObject@@@
        717  2CC 0040F130 ??_7QAbstractScrollArea@@6BQPaintDevice@@@
        718  2CD 00479DC8 ??_7QAbstractSlider@@6BQObject@@@
        719  2CE 00479F40 ??_7QAbstractSlider@@6BQPaintDevice@@@
        720  2CF 0048E6C0 ??_7QAbstractSpinBox@@6BQObject@@@
        721  2D0 0048E860 ??_7QAbstractSpinBox@@6BQPaintDevice@@@
        722  2D1 004A51B0 ??_7QAccessibleWidget@@6BQAccessibleActionInterface@@@
        723  2D2 004A5108 ??_7QAccessibleWidget@@6BQAccessibleObject@@@
        724  2D3 003FAFF8 ??_7QApplication@@6B@
        725  2D4 003FB068 ??_7QApplicationPrivate@@6B@
        726  2D5 00478508 ??_7QBlendStyleAnimation@@6B@
        727  2D6 003FB940 ??_7QBoxLayout@@6BQLayoutItem@@@
        728  2D7 003FB898 ??_7QBoxLayout@@6BQObject@@@
        729  2D8 0047A3C0 ??_7QButtonGroup@@6B@
        730  2D9 0047B728 ??_7QCalendarWidget@@6BQObject@@@
        731  2DA 0047B8A0 ??_7QCalendarWidget@@6BQPaintDevice@@@
        732  2DB 0047C820 ??_7QCheckBox@@6BQObject@@@
        733  2DC 0047C9B0 ??_7QCheckBox@@6BQPaintDevice@@@
        734  2DD 00499C30 ??_7QColorDialog@@6BQObject@@@
        735  2DE 00499DC8 ??_7QColorDialog@@6BQPaintDevice@@@
        736  2DF 004AC2D8 ??_7QColumnView@@6BQObject@@@
        737  2E0 004AC5B0 ??_7QColumnView@@6BQPaintDevice@@@
        738  2E1 0047DA88 ??_7QComboBox@@6BQObject@@@
        739  2E2 0047DC18 ??_7QComboBox@@6BQPaintDevice@@@
        740  2E3 0047E2F0 ??_7QComboBoxPrivateContainer@@6BQObject@@@
        741  2E4 0047E468 ??_7QComboBoxPrivateContainer@@6BQPaintDevice@@@
        742  2E5 0047EB40 ??_7QCommandLinkButton@@6BQObject@@@
        743  2E6 0047ECD0 ??_7QCommandLinkButton@@6BQPaintDevice@@@
        744  2E7 004055D0 ??_7QCommonStyle@@6B@
        745  2E8 00405708 ??_7QCommonStylePrivate@@6B@
        746  2E9 004BADF8 ??_7QCompleter@@6B@
        747  2EA 004AD2C8 ??_7QDataWidgetMapper@@6B@
        748  2EB 0047FFF0 ??_7QDateEdit@@6BQObject@@@
        749  2EC 004801A0 ??_7QDateEdit@@6BQPaintDevice@@@
        750  2ED 0047FC10 ??_7QDateTimeEdit@@6BQObject@@@
        751  2EE 0047FDC0 ??_7QDateTimeEdit@@6BQPaintDevice@@@
        752  2EF 00480A20 ??_7QDial@@6BQObject@@@
        753  2F0 00480BA0 ??_7QDial@@6BQPaintDevice@@@
        754  2F1 0049B0C8 ??_7QDialog@@6BQObject@@@
        755  2F2 0049B260 ??_7QDialog@@6BQPaintDevice@@@
        756  2F3 0048CA50 ??_7QDialogButtonBox@@6BQObject@@@
        757  2F4 0048CBC0 ??_7QDialogButtonBox@@6BQPaintDevice@@@
        758  2F5 0048C028 ??_7QDialogPrivate@@6B@
        759  2F6 00481778 ??_7QDockWidget@@6BQObject@@@
        760  2F7 004818F0 ??_7QDockWidget@@6BQPaintDevice@@@
        761  2F8 00481A98 ??_7QDockWidgetLayout@@6BQLayoutItem@@@
        762  2F9 004819F0 ??_7QDockWidgetLayout@@6BQObject@@@
        763  2FA 0048F3D0 ??_7QDoubleSpinBox@@6BQObject@@@
        764  2FB 0048F580 ??_7QDoubleSpinBox@@6BQPaintDevice@@@
        765  2FC 0049B4F8 ??_7QErrorMessage@@6BQObject@@@
        766  2FD 0049B690 ??_7QErrorMessage@@6BQPaintDevice@@@
        767  2FE 0049C688 ??_7QFSCompleter@@6B@
        768  2FF 0049C318 ??_7QFileDialog@@6BQObject@@@
        769  300 0049C4B0 ??_7QFileDialog@@6BQPaintDevice@@@
        770  301 0049C6F8 ??_7QFileDialogPrivate@@6B@
        771  302 003FAAC8 ??_7QFileIconProvider@@6B@
        772  303 004BB518 ??_7QFlickGesture@@6B@
        773  304 0040F688 ??_7QFocusFrame@@6BQObject@@@
        774  305 0040F800 ??_7QFocusFrame@@6BQPaintDevice@@@
        775  306 00482878 ??_7QFontComboBox@@6BQObject@@@
        776  307 00482A08 ??_7QFontComboBox@@6BQPaintDevice@@@
        777  308 0049EA08 ??_7QFontDialog@@6BQObject@@@
        778  309 0049EBA0 ??_7QFontDialog@@6BQPaintDevice@@@
        779  30A 00477258 ??_7QFormLayout@@6BQLayoutItem@@@
        780  30B 004771B0 ??_7QFormLayout@@6BQObject@@@
        781  30C 0040FC40 ??_7QFrame@@6BQObject@@@
        782  30D 0040FDB8 ??_7QFrame@@6BQPaintDevice@@@
        783  30E 00478A38 ??_7QFusionStyle@@6B@
        784  30F 003FC968 ??_7QGesture@@6B@
        785  310 003FB138 ??_7QGestureEvent@@6B@
        786  311 003FB158 ??_7QGestureRecognizer@@6B@
        787  312 004B2D28 ??_7QGraphicsAnchor@@6B@
        788  313 004B2D88 ??_7QGraphicsAnchorLayout@@6B@
        789  314 00476268 ??_7QGraphicsBlurEffect@@6B@
        790  315 004761F0 ??_7QGraphicsColorizeEffect@@6B@
        791  316 004762E0 ??_7QGraphicsDropShadowEffect@@6B@
        792  317 00476178 ??_7QGraphicsEffect@@6B@
        793  318 003FB118 ??_7QGraphicsEffectPrivate@@6B@
        794  319 004763D0 ??_7QGraphicsEffectSource@@6B@
        795  31A 004B4128 ??_7QGraphicsEllipseItem@@6B@
        796  31B 004B30D0 ??_7QGraphicsGridLayout@@6B@
        797  31C 004B3AE0 ??_7QGraphicsItem@@6B@
        798  31D 004BA228 ??_7QGraphicsItemAnimation@@6B@
        799  31E 004B4878 ??_7QGraphicsItemGroup@@6B@
        800  31F 003FD060 ??_7QGraphicsItemPrivate@@6B@
        801  320 004B5BA8 ??_7QGraphicsLayout@@6B@
        802  321 004B5C90 ??_7QGraphicsLayoutItem@@6B@
        803  322 004B4378 ??_7QGraphicsLineItem@@6B@
        804  323 004B5D18 ??_7QGraphicsLinearLayout@@6B@
        805  324 004B3C88 ??_7QGraphicsObject@@6BQGraphicsItem@@@
        806  325 004B3C28 ??_7QGraphicsObject@@6BQObject@@@
        807  326 00476358 ??_7QGraphicsOpacityEffect@@6B@
        808  327 004B3ED8 ??_7QGraphicsPathItem@@6B@
        809  328 004B44A0 ??_7QGraphicsPixmapItem@@6B@
        810  329 004B4250 ??_7QGraphicsPolygonItem@@6B@
        811  32A 004B6328 ??_7QGraphicsProxyWidget@@6B@
        812  32B 004B6200 ??_7QGraphicsProxyWidget@@6BQGraphicsItem@@@
        813  32C 004B6118 ??_7QGraphicsProxyWidget@@6BQObject@@@
        814  32D 004B4000 ??_7QGraphicsRectItem@@6B@
        815  32E 004B8728 ??_7QGraphicsRotation@@6B@
        816  32F 004B86C0 ??_7QGraphicsScale@@6B@
        817  330 004B6F70 ??_7QGraphicsScene@@6B@
        818  331 004B7B20 ??_7QGraphicsSceneContextMenuEvent@@6B@
        819  332 004B7B80 ??_7QGraphicsSceneDragDropEvent@@6B@
        820  333 004B7AC0 ??_7QGraphicsSceneEvent@@6B@
        821  334 004B7B60 ??_7QGraphicsSceneHelpEvent@@6B@
        822  335 004B7B40 ??_7QGraphicsSceneHoverEvent@@6B@
        823  336 004B7AE0 ??_7QGraphicsSceneMouseEvent@@6B@
        824  337 004B7BC0 ??_7QGraphicsSceneMoveEvent@@6B@
        825  338 004B7BA0 ??_7QGraphicsSceneResizeEvent@@6B@
        826  339 004B7B00 ??_7QGraphicsSceneWheelEvent@@6B@
        827  33A 004B4750 ??_7QGraphicsSimpleTextItem@@6B@
        828  33B 004B4628 ??_7QGraphicsTextItem@@6BQGraphicsItem@@@
        829  33C 004B45C8 ??_7QGraphicsTextItem@@6BQObject@@@
        830  33D 004B8658 ??_7QGraphicsTransform@@6B@
        831  33E 004B9398 ??_7QGraphicsView@@6BQObject@@@
        832  33F 004B9548 ??_7QGraphicsView@@6BQPaintDevice@@@
        833  340 004B9588 ??_7QGraphicsViewPrivate@@6B@
        834  341 004B9DD0 ??_7QGraphicsWidget@@6B@
        835  342 004B9CA8 ??_7QGraphicsWidget@@6BQGraphicsItem@@@
        836  343 004B9BC0 ??_7QGraphicsWidget@@6BQObject@@@
        837  344 003FD760 ??_7QGridLayout@@6BQLayoutItem@@@
        838  345 003FD6B8 ??_7QGridLayout@@6BQObject@@@
        839  346 00483130 ??_7QGroupBox@@6BQObject@@@
        840  347 004832A8 ??_7QGroupBox@@6BQPaintDevice@@@
        841  348 003FBA70 ??_7QHBoxLayout@@6BQLayoutItem@@@
        842  349 003FB9C8 ??_7QHBoxLayout@@6BQObject@@@
        843  34A 004AAF98 ??_7QHeaderView@@6BQObject@@@
        844  34B 004AB288 ??_7QHeaderView@@6BQPaintDevice@@@
        845  34C 0049F670 ??_7QInputDialog@@6BQObject@@@
        846  34D 0049F808 ??_7QInputDialog@@6BQPaintDevice@@@
        847  34E 004AB550 ??_7QItemDelegate@@6B@
        848  34F 004AB620 ??_7QItemEditorCreatorBase@@6B@
        849  350 004AB640 ??_7QItemEditorFactory@@6B@
        850  351 00483740 ??_7QKeySequenceEdit@@6BQObject@@@
        851  352 004838B0 ??_7QKeySequenceEdit@@6BQPaintDevice@@@
        852  353 004848F0 ??_7QLCDNumber@@6BQObject@@@
        853  354 00484A68 ??_7QLCDNumber@@6BQPaintDevice@@@
        854  355 00484148 ??_7QLabel@@6BQObject@@@
        855  356 004842C0 ??_7QLabel@@6BQPaintDevice@@@
        856  357 003FDC00 ??_7QLayout@@6BQLayoutItem@@@
        857  358 003FDB58 ??_7QLayout@@6BQObject@@@
        858  359 003FA3E8 ??_7QLayoutItem@@6B@
        859  35A 003FDC88 ??_7QLayoutPrivate@@6B@
        860  35B 00485768 ??_7QLineEdit@@6BQObject@@@
        861  35C 004858E0 ??_7QLineEdit@@6BQPaintDevice@@@
        862  35D 004AD9E0 ??_7QListView@@6BQObject@@@
        863  35E 004ADCB0 ??_7QListView@@6BQPaintDevice@@@
        864  35F 004AE8E0 ??_7QListWidget@@6BQObject@@@
        865  360 004AEBD0 ??_7QListWidget@@6BQPaintDevice@@@
        866  361 004AE8A0 ??_7QListWidgetItem@@6B@
        867  362 00486A70 ??_7QMainWindow@@6BQObject@@@
        868  363 00486BE8 ??_7QMainWindow@@6BQPaintDevice@@@
        869  364 004883B8 ??_7QMdiArea@@6BQObject@@@
        870  365 00488550 ??_7QMdiArea@@6BQPaintDevice@@@
        871  366 004893C8 ??_7QMdiSubWindow@@6BQObject@@@
        872  367 00489538 ??_7QMdiSubWindow@@6BQPaintDevice@@@
        873  368 0048A570 ??_7QMenu@@6BQObject@@@
        874  369 0048A6E8 ??_7QMenu@@6BQPaintDevice@@@
        875  36A 0048B048 ??_7QMenuBar@@6BQObject@@@
        876  36B 0048B1C0 ??_7QMenuBar@@6BQPaintDevice@@@
        877  36C 004A0BE0 ??_7QMessageBox@@6BQObject@@@
        878  36D 004A0D78 ??_7QMessageBox@@6BQPaintDevice@@@
        879  36E 00478480 ??_7QNumberStyleAnimation@@6B@
        880  36F 003FC9C8 ??_7QPanGesture@@6B@
        881  370 003FCA28 ??_7QPinchGesture@@6B@
        882  371 00476958 ??_7QPixmapBlurFilter@@6B@
        883  372 004769C8 ??_7QPixmapColorizeFilter@@6B@
        884  373 004768E8 ??_7QPixmapConvolutionFilter@@6B@
        885  374 00476A38 ??_7QPixmapDropShadowFilter@@6B@
        886  375 00476878 ??_7QPixmapFilter@@6B@
        887  376 00406878 ??_7QPixmapStyle@@6B@
        888  377 00492E78 ??_7QPlainTextDocumentLayout@@6B@
        889  378 00492C78 ??_7QPlainTextEdit@@6BQObject@@@
        890  379 00492E38 ??_7QPlainTextEdit@@6BQPaintDevice@@@
        891  37A 0048BA68 ??_7QProgressBar@@6BQObject@@@
        892  37B 0048BBE8 ??_7QProgressBar@@6BQPaintDevice@@@
        893  37C 004A2570 ??_7QProgressDialog@@6BQObject@@@
        894  37D 004A2708 ??_7QProgressDialog@@6BQPaintDevice@@@
        895  37E 004783F8 ??_7QProgressStyleAnimation@@6B@
        896  37F 00406AF8 ??_7QProxyStyle@@6B@
        897  380 0048BE58 ??_7QPushButton@@6BQObject@@@
        898  381 0048BFE8 ??_7QPushButton@@6BQPaintDevice@@@
        899  382 0048C1B8 ??_7QRadioButton@@6BQObject@@@
        900  383 0048C348 ??_7QRadioButton@@6BQPaintDevice@@@
        901  384 003FDFC0 ??_7QRhiWidget@@6BQObject@@@
        902  385 003FE148 ??_7QRhiWidget@@6BQPaintDevice@@@
        903  386 0048CE88 ??_7QRubberBand@@6BQObject@@@
        904  387 0048D000 ??_7QRubberBand@@6BQPaintDevice@@@
        905  388 0048D218 ??_7QScrollArea@@6BQObject@@@
        906  389 0048D3B0 ??_7QScrollArea@@6BQPaintDevice@@@
        907  38A 0048D568 ??_7QScrollBar@@6BQObject@@@
        908  38B 0048D6E8 ??_7QScrollBar@@6BQPaintDevice@@@
        909  38C 00478590 ??_7QScrollbarStyleAnimation@@6B@
        910  38D 004BBC18 ??_7QScroller@@6B@
        911  38E 004BC438 ??_7QScrollerProperties@@6B@
        912  38F 0048D980 ??_7QSizeGrip@@6BQObject@@@
        913  390 0048DAF0 ??_7QSizeGrip@@6BQPaintDevice@@@
        914  391 0048DE00 ??_7QSlider@@6BQObject@@@
        915  392 0048DF80 ??_7QSlider@@6BQPaintDevice@@@
        916  393 003FA470 ??_7QSpacerItem@@6B@
        917  394 0048F1E0 ??_7QSpinBox@@6BQObject@@@
        918  395 0048F390 ??_7QSpinBox@@6BQPaintDevice@@@
        919  396 0048FA80 ??_7QSplashScreen@@6BQObject@@@
        920  397 0048FBF8 ??_7QSplashScreen@@6BQPaintDevice@@@
        921  398 0048FFA8 ??_7QSplitter@@6BQObject@@@
        922  399 00490128 ??_7QSplitter@@6BQPaintDevice@@@
        923  39A 00490168 ??_7QSplitterHandle@@6BQObject@@@
        924  39B 004902D8 ??_7QSplitterHandle@@6BQPaintDevice@@@
        925  39C 003FEE60 ??_7QStackedLayout@@6BQLayoutItem@@@
        926  39D 003FEDB8 ??_7QStackedLayout@@6BQObject@@@
        927  39E 004908A0 ??_7QStackedWidget@@6BQObject@@@
        928  39F 00490A18 ??_7QStackedWidget@@6BQPaintDevice@@@
        929  3A0 00490DD8 ??_7QStatusBar@@6BQObject@@@
        930  3A1 00490F48 ??_7QStatusBar@@6BQPaintDevice@@@
        931  3A2 0040C338 ??_7QStyle@@6B@
        932  3A3 00478370 ??_7QStyleAnimation@@6B@
        933  3A4 0040C628 ??_7QStylePlugin@@6B@
        934  3A5 004AC088 ??_7QStyledItemDelegate@@6B@
        935  3A6 003FCA98 ??_7QSwipeGesture@@6B@
        936  3A7 0040EA18 ??_7QSystemTrayIcon@@6B@
        937  3A8 004918A8 ??_7QTabBar@@6BQObject@@@
        938  3A9 00491A48 ??_7QTabBar@@6BQPaintDevice@@@
        939  3AA 0040DD80 ??_7QTabBarPrivate@@6B@
        940  3AB 00495408 ??_7QTabWidget@@6BQObject@@@
        941  3AC 00495590 ??_7QTabWidget@@6BQPaintDevice@@@
        942  3AD 004AF828 ??_7QTableView@@6BQObject@@@
        943  3AE 004AFAF8 ??_7QTableView@@6BQPaintDevice@@@
        944  3AF 004B0AB8 ??_7QTableWidget@@6BQObject@@@
        945  3B0 004B0DA8 ??_7QTableWidget@@6BQPaintDevice@@@
        946  3B1 004B0A78 ??_7QTableWidgetItem@@6B@
        947  3B2 003FCB68 ??_7QTapAndHoldGesture@@6B@
        948  3B3 003FCB08 ??_7QTapGesture@@6B@
        949  3B4 00494AC8 ??_7QTextBrowser@@6BQObject@@@
        950  3B5 00494CB0 ??_7QTextBrowser@@6BQPaintDevice@@@
        951  3B6 004941E0 ??_7QTextEdit@@6BQObject@@@
        952  3B7 004943A0 ??_7QTextEdit@@6BQPaintDevice@@@
        953  3B8 0047FE00 ??_7QTimeEdit@@6BQObject@@@
        954  3B9 0047FFB0 ??_7QTimeEdit@@6BQPaintDevice@@@
        955  3BA 00495D70 ??_7QToolBar@@6BQObject@@@
        956  3BB 00495EE8 ??_7QToolBar@@6BQPaintDevice@@@
        957  3BC 00496A68 ??_7QToolBox@@6BQObject@@@
        958  3BD 00496BF0 ??_7QToolBox@@6BQPaintDevice@@@
        959  3BE 00497658 ??_7QToolButton@@6BQObject@@@
        960  3BF 004977E8 ??_7QToolButton@@6BQPaintDevice@@@
        961  3C0 003FF0A8 ??_7QTouchEventWidgetSequence@QTest@@6B@
        962  3C1 004B1A78 ??_7QTreeView@@6BQObject@@@
        963  3C2 004B1D58 ??_7QTreeView@@6BQPaintDevice@@@
        964  3C3 004A7ED0 ??_7QTreeViewPrivate@@6B@
        965  3C4 004B2530 ??_7QTreeWidget@@6BQObject@@@
        966  3C5 004B2830 ??_7QTreeWidget@@6BQPaintDevice@@@
        967  3C6 004B24F0 ??_7QTreeWidgetItem@@6B@
        968  3C7 004BC9C8 ??_7QUndoView@@6BQObject@@@
        969  3C8 004BCC98 ??_7QUndoView@@6BQPaintDevice@@@
        970  3C9 003FBBA0 ??_7QVBoxLayout@@6BQLayoutItem@@@
        971  3CA 003FBAF8 ??_7QVBoxLayout@@6BQObject@@@
        972  3CB 00400C98 ??_7QWidget@@6BQObject@@@
        973  3CC 00400E08 ??_7QWidget@@6BQPaintDevice@@@
        974  3CD 00476C88 ??_7QWidgetAction@@6B@
        975  3CE 003FA4F8 ??_7QWidgetItem@@6B@
        976  3CF 003FDF38 ??_7QWidgetItemV2@@6B@
        977  3D0 0047E6D0 ??_7QWidgetLineControl@@6B@
        978  3D1 00400EE8 ??_7QWidgetPrivate@@6B@
        979  3D2 004989C8 ??_7QWidgetTextControl@@6B@
        980  3D3 00402948 ??_7QWindowContainer@@6BQObject@@@
        981  3D4 00402AB8 ??_7QWindowContainer@@6BQPaintDevice@@@
        982  3D5 004786E8 ??_7QWindowsStyle@@6B@
        983  3D6 00478800 ??_7QWindowsStylePrivate@@6B@
        984  3D7 004A3600 ??_7QWizard@@6BQObject@@@
        985  3D8 004A37B8 ??_7QWizard@@6BQPaintDevice@@@
        986  3D9 004A37F8 ??_7QWizardPage@@6BQObject@@@
        987  3DA 004A3990 ??_7QWizardPage@@6BQPaintDevice@@@
        988  3DB 00476B98 ??_7QtWidgetsActionPrivate@@6B@
        989  3DC 00001570 ??_FQAbstractButton@@QEAAXXZ
        990  3DD 00009170 ??_FQAbstractGraphicsShapeItem@@QEAAXXZ
        991  3DE 0007FDB0 ??_FQAbstractItemDelegate@@QEAAXXZ
        992  3DF 0007FDC0 ??_FQAbstractItemView@@QEAAXXZ
        993  3E0 00001580 ??_FQAbstractScrollArea@@QEAAXXZ
        994  3E1 00001590 ??_FQAbstractSlider@@QEAAXXZ
        995  3E2 00009180 ??_FQAbstractSpinBox@@QEAAXXZ
        996  3E3 0011D2A0 ??_FQButtonGroup@@QEAAXXZ
        997  3E4 00125C80 ??_FQCalendarWidget@@QEAAXXZ
        998  3E5 000B5870 ??_FQCheckBox@@QEAAXXZ
        999  3E6 00239F40 ??_FQColorDialog@@QEAAXXZ
       1000  3E7 002DEAF0 ??_FQColumnView@@QEAAXXZ
       1001  3E8 0009A800 ??_FQComboBox@@QEAAXXZ
       1002  3E9 00142390 ??_FQCommandLinkButton@@QEAAXXZ
       1003  3EA 00132BA0 ??_FQCompleter@@QEAAXXZ
       1004  3EB 002E5C60 ??_FQDataWidgetMapper@@QEAAXXZ
       1005  3EC 00145A20 ??_FQDateEdit@@QEAAXXZ
       1006  3ED 00145A30 ??_FQDateTimeEdit@@QEAAXXZ
       1007  3EE 0014D400 ??_FQDial@@QEAAXXZ
       1008  3EF 00002960 ??_FQDialog@@QEAAXXZ
       1009  3F0 00009190 ??_FQDialogButtonBox@@QEAAXXZ
       1010  3F1 0007FDD0 ??_FQDockWidget@@QEAAXXZ
       1011  3F2 000EE140 ??_FQDockWidgetLayout@@QEAAXXZ
       1012  3F3 0010BD50 ??_FQDoubleSpinBox@@QEAAXXZ
       1013  3F4 002421A0 ??_FQErrorMessage@@QEAAXXZ
       1014  3F5 00002970 ??_FQFileDialog@@QEAAXXZ
       1015  3F6 000EC100 ??_FQFocusFrame@@QEAAXXZ
       1016  3F7 00169E50 ??_FQFontComboBox@@QEAAXXZ
       1017  3F8 002421B0 ??_FQFontDialog@@QEAAXXZ
       1018  3F9 0007FDE0 ??_FQFormLayout@@QEAAXXZ
       1019  3FA 000015A0 ??_FQFrame@@QEAAXXZ
       1020  3FB 000091A0 ??_FQGesture@@QEAAXXZ
       1021  3FC 00349950 ??_FQGraphicsAnchorLayout@@QEAAXXZ
       1022  3FD 000091B0 ??_FQGraphicsBlurEffect@@QEAAXXZ
       1023  3FE 000091C0 ??_FQGraphicsColorizeEffect@@QEAAXXZ
       1024  3FF 000091D0 ??_FQGraphicsDropShadowEffect@@QEAAXXZ
       1025  400 000091E0 ??_FQGraphicsEffect@@QEAAXXZ
       1026  401 000091F0 ??_FQGraphicsEllipseItem@@QEAAXXZ
       1027  402 0035DDB0 ??_FQGraphicsGridLayout@@QEAAXXZ
       1028  403 00009200 ??_FQGraphicsItem@@QEAAXXZ
       1029  404 003C7420 ??_FQGraphicsItemAnimation@@QEAAXXZ
       1030  405 00009210 ??_FQGraphicsItemGroup@@QEAAXXZ
       1031  406 003499A0 ??_FQGraphicsLayout@@QEAAXXZ
       1032  407 00009220 ??_FQGraphicsLayoutItem@@QEAAXXZ
       1033  408 00009230 ??_FQGraphicsLineItem@@QEAAXXZ
       1034  409 0037E8F0 ??_FQGraphicsLinearLayout@@QEAAXXZ
       1035  40A 00009240 ??_FQGraphicsObject@@QEAAXXZ
       1036  40B 00009250 ??_FQGraphicsOpacityEffect@@QEAAXXZ
       1037  40C 00009260 ??_FQGraphicsPathItem@@QEAAXXZ
       1038  40D 00009270 ??_FQGraphicsPixmapItem@@QEAAXXZ
       1039  40E 00009280 ??_FQGraphicsPolygonItem@@QEAAXXZ
       1040  40F 00009290 ??_FQGraphicsProxyWidget@@QEAAXXZ
       1041  410 000092A0 ??_FQGraphicsRectItem@@QEAAXXZ
       1042  411 000285D0 ??_FQGraphicsRotation@@QEAAXXZ
       1043  412 000285E0 ??_FQGraphicsScale@@QEAAXXZ
       1044  413 000092B0 ??_FQGraphicsScene@@QEAAXXZ
       1045  414 000285F0 ??_FQGraphicsSceneContextMenuEvent@@QEAAXXZ
       1046  415 00028600 ??_FQGraphicsSceneDragDropEvent@@QEAAXXZ
       1047  416 00028610 ??_FQGraphicsSceneHelpEvent@@QEAAXXZ
       1048  417 00028620 ??_FQGraphicsSceneHoverEvent@@QEAAXXZ
       1049  418 00028630 ??_FQGraphicsSceneMouseEvent@@QEAAXXZ
       1050  419 00028640 ??_FQGraphicsSceneWheelEvent@@QEAAXXZ
       1051  41A 000092C0 ??_FQGraphicsSimpleTextItem@@QEAAXXZ
       1052  41B 000092D0 ??_FQGraphicsTextItem@@QEAAXXZ
       1053  41C 00028650 ??_FQGraphicsTransform@@QEAAXXZ
       1054  41D 000092E0 ??_FQGraphicsView@@QEAAXXZ
       1055  41E 000092F0 ??_FQGraphicsWidget@@QEAAXXZ
       1056  41F 000015B0 ??_FQGridLayout@@QEAAXXZ
       1057  420 0007FDF0 ??_FQGroupBox@@QEAAXXZ
       1058  421 0026E690 ??_FQInputDialog@@QEAAXXZ
       1059  422 002D53A0 ??_FQItemDelegate@@QEAAXXZ
       1060  423 0016FD20 ??_FQKeySequenceEdit@@QEAAXXZ
       1061  424 00176AF0 ??_FQLCDNumber@@QEAAXXZ
       1062  425 000B5880 ??_FQLabel@@QEAAXXZ
       1063  426 000015C0 ??_FQLayout@@QEAAXXZ
       1064  427 000015D0 ??_FQLayoutItem@@QEAAXXZ
       1065  428 000B5890 ??_FQLineEdit@@QEAAXXZ
       1066  429 0007FE00 ??_FQListView@@QEAAXXZ
       1067  42A 002FDDD0 ??_FQListWidget@@QEAAXXZ
       1068  42B 002FDDE0 ??_FQListWidgetItem@@QEAAXXZ
       1069  42C 000B58A0 ??_FQMainWindow@@QEAAXXZ
       1070  42D 001A1320 ??_FQMdiArea@@QEAAXXZ
       1071  42E 0007CBC0 ??_FQMdiSubWindow@@QEAAXXZ
       1072  42F 00002A00 ??_FQMenu@@QEAAXXZ
       1073  430 00002A10 ??_FQMenuBar@@QEAAXXZ
       1074  431 00009300 ??_FQMessageBox@@QEAAXXZ
       1075  432 00009310 ??_FQPanGesture@@QEAAXXZ
       1076  433 00009320 ??_FQPinchGesture@@QEAAXXZ
       1077  434 00009330 ??_FQPixmapBlurFilter@@QEAAXXZ
       1078  435 00009340 ??_FQPixmapColorizeFilter@@QEAAXXZ
       1079  436 00009350 ??_FQPixmapConvolutionFilter@@QEAAXXZ
       1080  437 00009360 ??_FQPixmapDropShadowFilter@@QEAAXXZ
       1081  438 000B58B0 ??_FQPlainTextEdit@@QEAAXXZ
       1082  439 0009A810 ??_FQProgressBar@@QEAAXXZ
       1083  43A 0027A140 ??_FQProgressDialog@@QEAAXXZ
       1084  43B 000A1B40 ??_FQProxyStyle@@QEAAXXZ
       1085  43C 000B58C0 ??_FQPushButton@@QEAAXXZ
       1086  43D 0016CFD0 ??_FQRadioButton@@QEAAXXZ
       1087  43E 000026B0 ??_FQRhiWidget@@QEAAXXZ
       1088  43F 00009370 ??_FQScrollArea@@QEAAXXZ
       1089  440 0009A820 ??_FQScrollBar@@QEAAXXZ
       1090  441 00009380 ??_FQSlider@@QEAAXXZ
       1091  442 0010BD60 ??_FQSpinBox@@QEAAXXZ
       1092  443 001E85F0 ??_FQSplashScreen@@QEAAXXZ
       1093  444 0010BD70 ??_FQSplitter@@QEAAXXZ
       1094  445 001EEC00 ??_FQStackedWidget@@QEAAXXZ
       1095  446 0018CBA0 ??_FQStatusBar@@QEAAXXZ
       1096  447 00009390 ??_FQStyleHintReturn@@QEAAXXZ
       1097  448 000093A0 ??_FQStyleOption@@QEAAXXZ
       1098  449 000093B0 ??_FQStyleOptionComplex@@QEAAXXZ
       1099  44A 000A5790 ??_FQStylePlugin@@QEAAXXZ
       1100  44B 0007FE10 ??_FQStyledItemDelegate@@QEAAXXZ
       1101  44C 000093C0 ??_FQSwipeGesture@@QEAAXXZ
       1102  44D 000E6CD0 ??_FQSystemTrayIcon@@QEAAXXZ
       1103  44E 000093D0 ??_FQTabBar@@QEAAXXZ
       1104  44F 000093E0 ??_FQTabWidget@@QEAAXXZ
       1105  450 00125C90 ??_FQTableView@@QEAAXXZ
       1106  451 00317C80 ??_FQTableWidget@@QEAAXXZ
       1107  452 00317D00 ??_FQTableWidgetItem@@QEAAXXZ
       1108  453 000093F0 ??_FQTapAndHoldGesture@@QEAAXXZ
       1109  454 00009400 ??_FQTapGesture@@QEAAXXZ
       1110  455 00205FD0 ??_FQTextBrowser@@QEAAXXZ
       1111  456 0009A830 ??_FQTextEdit@@QEAAXXZ
       1112  457 00145A40 ??_FQTimeEdit@@QEAAXXZ
       1113  458 00002A20 ??_FQToolBar@@QEAAXXZ
       1114  459 00220DE0 ??_FQToolBox@@QEAAXXZ
       1115  45A 0007FE20 ??_FQToolButton@@QEAAXXZ
       1116  45B 0007FE30 ??_FQTreeView@@QEAAXXZ
       1117  45C 0033B5F0 ??_FQTreeWidget@@QEAAXXZ
       1118  45D 0033B600 ??_FQTreeWidgetItem@@QEAAXXZ
       1119  45E 003E2060 ??_FQUndoView@@QEAAXXZ
       1120  45F 000015F0 ??_FQWidget@@QEAAXXZ
       1121  460 00132BB0 ??_FQWidgetLineControl@@QEAAXXZ
       1122  461 00009410 ??_FQWidgetPrivate@@QEAAXXZ
       1123  462 000E6D10 ??_FQWidgetTextControl@@QEAAXXZ
       1124  463 0007FE40 ??_FQWizard@@QEAAXXZ
       1125  464 0007FE50 ??_FQWizardPage@@QEAAXXZ
       1126  465 0004ECB0 ?_q_closestWindowHandle@QWidgetPrivate@@QEBAPEAVQWindow@@XZ
       1127  466 00183DD0 ?_q_deleteSelected@QWidgetLineControl@@AEAAXXZ
       1128  467 003B07D0 ?_q_setViewportCursor@QGraphicsViewPrivate@@QEAAXAEBVQCursor@@@Z
       1129  468 0004ED60 ?_q_showIfNotHidden@QWidgetPrivate@@QEAAXXZ
       1130  469 003B0840 ?_q_unsetViewportCursor@QGraphicsViewPrivate@@QEAAXXZ
       1131  46A 00273BE0 ?about@QMessageBox@@SAXPEAVQWidget@@AEBVQString@@1@Z
       1132  46B 00009A30 ?aboutQt@QApplication@@SAXXZ
       1133  46C 00273D50 ?aboutQt@QMessageBox@@SAXPEAVQWidget@@AEBVQString@@@Z
       1134  46D 001AD270 ?aboutToActivate@QMdiSubWindow@@QEAAXXZ
       1135  46E 00009A60 ?aboutToDestroy@QWidgetPrivate@@UEAAXXZ
       1136  46F 001BAB80 ?aboutToHide@QMenu@@QEAAXXZ
       1137  470 001BABA0 ?aboutToShow@QMenu@@QEAAXXZ
       1138  471 002A0630 ?above@QTreeViewPrivate@@QEBAHH@Z
       1139  472 00020370 ?acceleration@QPanGesture@@QEBANXZ
       1140  473 001E3CD0 ?accept@QDialog@@UEAAXXZ
       1141  474 0024B120 ?accept@QFileDialog@@MEAAXXZ
       1142  475 00020380 ?accept@QGestureEvent@@QEAAXPEAVQGesture@@@Z
       1143  476 000203C0 ?accept@QGestureEvent@@QEAAXW4GestureType@Qt@@@Z
       1144  477 003641F0 ?acceptDrops@QGraphicsItem@@QEBA_NXZ
       1145  478 0004ED90 ?acceptDrops@QWidget@@QEBA_NXZ
       1146  479 00364200 ?acceptHoverEvents@QGraphicsItem@@QEBA_NXZ
       1147  47A 0024B7A0 ?acceptMode@QFileDialog@@QEBA?AW4AcceptMode@1@XZ
       1148  47B 003A9E80 ?acceptProposedAction@QGraphicsSceneDragDropEvent@@QEAAXXZ
       1149  47C 002060F0 ?acceptRichText@QTextEdit@@QEBA_NXZ
       1150  47D 00228510 ?acceptRichText@QWidgetTextControl@@QEBA_NXZ
       1151  47E 00364210 ?acceptTouchEvents@QGraphicsItem@@QEBA_NXZ
       1152  47F 00242200 ?accepted@QDialog@@QEAAXXZ
       1153  480 001D5710 ?accepted@QDialogButtonBox@@QEAAXXZ
       1154  481 00183E40 ?accepted@QWidgetLineControl@@QEAAXXZ
       1155  482 00364220 ?acceptedMouseButtons@QGraphicsItem@@QEBA?AV?$QFlags@W4MouseButton@Qt@@@@XZ
       1156  483 0004EDA0 ?accessibleDescription@QWidget@@QEBA?AVQString@@XZ
       1157  484 0004EDD0 ?accessibleName@QWidget@@QEBA?AVQString@@XZ
       1158  485 00132FA0 ?accessibleObject@QWidgetLineControl@@QEAAPEAVQObject@@XZ
       1159  486 001F1C20 ?accessibleTabName@QTabBar@@QEBA?AVQString@@H@Z
       1160  487 002A06E0 ?accessibleTable2Index@QTreeViewPrivate@@QEBAHAEBVQModelIndex@@@Z
       1161  488 00322810 ?accessibleTree2Index@QTreeViewPrivate@@QEBAHAEBVQModelIndex@@@Z
       1162  489 001BABC0 ?actionAt@QMenu@@QEBAPEAVQAction@@AEBVQPoint@@@Z
       1163  48A 001C92E0 ?actionAt@QMenuBar@@QEBAPEAVQAction@@AEBVQPoint@@@Z
       1164  48B 002137C0 ?actionAt@QToolBar@@QEBAPEAVQAction@@AEBVQPoint@@@Z
       1165  48C 00002A30 ?actionAt@QToolBar@@QEBAPEAVQAction@@HH@Z
       1166  48D 001BAD80 ?actionEvent@QMenu@@MEAAXPEAVQActionEvent@@@Z
       1167  48E 001C9410 ?actionEvent@QMenuBar@@MEAAXPEAVQActionEvent@@@Z
       1168  48F 00213820 ?actionEvent@QToolBar@@MEAAXPEAVQActionEvent@@@Z
       1169  490 002235A0 ?actionEvent@QToolButton@@MEAAXPEAVQActionEvent@@@Z
       1170  491 00009A60 ?actionEvent@QWidget@@MEAAXPEAVQActionEvent@@@Z
       1171  492 001BB530 ?actionGeometry@QMenu@@QEBA?AVQRect@@PEAVQAction@@@Z
       1172  493 001C9690 ?actionGeometry@QMenuBar@@QEBA?AVQRect@@PEAVQAction@@@Z
       1173  494 00213950 ?actionGeometry@QToolBar@@QEBA?AVQRect@@PEAVQAction@@@Z
       1174  495 00291710 ?actionNames@QAccessibleWidget@@UEBA?AV?$QList@VQString@@@@XZ
       1175  496 001208C0 ?actionTriggered@QAbstractSlider@@QEAAXH@Z
       1176  497 002139E0 ?actionTriggered@QToolBar@@QEAAXPEAVQAction@@@Z
       1177  498 003BD5D0 ?actions@QGraphicsWidget@@QEBA?AV?$QList@PEAVQAction@@@@XZ
       1178  499 0004EE00 ?actions@QWidget@@QEBA?AV?$QList@PEAVQAction@@@@XZ
       1179  49A 0037C070 ?activate@QGraphicsLayout@@QEAAXXZ
       1180  49B 0003CB30 ?activate@QLayout@@QEAA_NXZ
       1181  49C 0004EE30 ?activateChildLayoutsRecursively@QWidgetPrivate@@QEAAXXZ
       1182  49D 00009A70 ?activateImplicitTouchGrab@QApplicationPrivate@@QEAAXPEAVQWidget@@PEAVQTouchEvent@@W4ImplicitTouchGrabMode@1@@Z
       1183  49E 001A1F10 ?activateNextSubWindow@QMdiArea@@QEAAXXZ
       1184  49F 001A20D0 ?activatePreviousSubWindow@QMdiArea@@QEAAXXZ
       1185  4A0 0003CE40 ?activateRecursiveHelper@QLayout@@CAXPEAVQLayoutItem@@@Z
       1186  4A1 0004EF30 ?activateWindow@QWidget@@QEAAXXZ
       1187  4A2 002AD040 ?activated@QAbstractItemView@@QEAAXAEBVQModelIndex@@@Z
       1188  4A3 001265B0 ?activated@QCalendarWidget@@QEAAXVQDate@@@Z
       1189  4A4 00132FC0 ?activated@QComboBox@@QEAAXH@Z
       1190  4A5 003CD430 ?activated@QCompleter@@QEAAXAEBVQModelIndex@@@Z
       1191  4A6 003CD460 ?activated@QCompleter@@QEAAXAEBVQString@@@Z
       1192  4A7 000E6D20 ?activated@QSystemTrayIcon@@QEAAXW4ActivationReason@1@@Z
       1193  4A8 001A2410 ?activationOrder@QMdiArea@@QEBA?AW4WindowOrder@1@XZ
       1194  4A9 001BBD40 ?activeAction@QMenu@@QEBAPEAVQAction@@XZ
       1195  4AA 001C97F0 ?activeAction@QMenuBar@@QEBAPEAVQAction@@XZ
       1196  4AB 00020400 ?activeGestures@QGestureEvent@@QEBA?AV?$QList@PEAVQGesture@@@@XZ
       1197  4AC 00009B70 ?activeModalWidget@QApplication@@SAPEAVQWidget@@XZ
       1198  4AD 0038CAF0 ?activePanel@QGraphicsScene@@QEBAPEAVQGraphicsItem@@XZ
       1199  4AE 00009BB0 ?activePopupWidget@QApplication@@SAPEAVQWidget@@XZ
       1200  4AF 003D7600 ?activeScrollers@QScroller@@SA?AV?$QList@PEAVQScroller@@@@XZ
       1201  4B0 001A2420 ?activeSubWindow@QMdiArea@@QEBAPEAVQMdiSubWindow@@XZ
       1202  4B1 00009BF0 ?activeWindow@QApplication@@SAPEAVQWidget@@XZ
       1203  4B2 0038CB00 ?activeWindow@QGraphicsScene@@QEBAPEAVQGraphicsWidget@@XZ
       1204  4B3 005E1DA8 ?active_window@QApplicationPrivate@@0PEAVQWidget@@EA
       1205  4B4 003BD600 ?addAction@QGraphicsWidget@@QEAAXPEAVQAction@@@Z
       1206  4B5 0017A880 ?addAction@QLineEdit@@QEAAPEAVQAction@@AEBVQIcon@@W4ActionPosition@1@@Z
       1207  4B6 0017A910 ?addAction@QLineEdit@@QEAAXPEAVQAction@@W4ActionPosition@1@@Z
       1208  4B7 00002A50 ?addAction@QMenu@@QEAAPEAVQAction@@AEBVQIcon@@AEBVQString@@@Z
       1209  4B8 001BBD50 ?addAction@QMenu@@QEAAPEAVQAction@@AEBVQIcon@@AEBVQString@@PEBVQObject@@PEBDAEBVQKeySequence@@@Z
       1210  4B9 00002A60 ?addAction@QMenu@@QEAAPEAVQAction@@AEBVQString@@@Z
       1211  4BA 001BBE10 ?addAction@QMenu@@QEAAPEAVQAction@@AEBVQString@@PEBVQObject@@PEBDAEBVQKeySequence@@@Z
       1212  4BB 00002A60 ?addAction@QMenuBar@@QEAAPEAVQAction@@AEBVQString@@@Z
       1213  4BC 00002A70 ?addAction@QMenuBar@@QEAAPEAVQAction@@AEBVQString@@PEBVQObject@@PEBD@Z
       1214  4BD 00002A50 ?addAction@QToolBar@@QEAAPEAVQAction@@AEBVQIcon@@AEBVQString@@@Z
       1215  4BE 00002A90 ?addAction@QToolBar@@QEAAPEAVQAction@@AEBVQIcon@@AEBVQString@@PEBVQObject@@PEBD@Z
       1216  4BF 00002A60 ?addAction@QToolBar@@QEAAPEAVQAction@@AEBVQString@@@Z
       1217  4C0 00002A70 ?addAction@QToolBar@@QEAAPEAVQAction@@AEBVQString@@PEBVQObject@@PEBD@Z
       1218  4C1 0004EFA0 ?addAction@QWidget@@QEAAPEAVQAction@@AEBVQIcon@@AEBVQString@@@Z
       1219  4C2 0004F010 ?addAction@QWidget@@QEAAPEAVQAction@@AEBVQIcon@@AEBVQString@@AEBVQKeySequence@@@Z
       1220  4C3 0004F0A0 ?addAction@QWidget@@QEAAPEAVQAction@@AEBVQIcon@@AEBVQString@@AEBVQKeySequence@@PEBVQObject@@PEBDW4ConnectionType@Qt@@@Z
       1221  4C4 0004F160 ?addAction@QWidget@@QEAAPEAVQAction@@AEBVQIcon@@AEBVQString@@PEBVQObject@@PEBDW4ConnectionType@Qt@@@Z
       1222  4C5 0004F210 ?addAction@QWidget@@QEAAPEAVQAction@@AEBVQString@@@Z
       1223  4C6 0004F270 ?addAction@QWidget@@QEAAPEAVQAction@@AEBVQString@@AEBVQKeySequence@@@Z
       1224  4C7 0004F2F0 ?addAction@QWidget@@QEAAPEAVQAction@@AEBVQString@@AEBVQKeySequence@@PEBVQObject@@PEBDW4ConnectionType@Qt@@@Z
       1225  4C8 0004F3B0 ?addAction@QWidget@@QEAAPEAVQAction@@AEBVQString@@PEBVQObject@@PEBDW4ConnectionType@Qt@@@Z
       1226  4C9 0004F460 ?addAction@QWidget@@QEAAXPEAVQAction@@@Z
       1227  4CA 003BD610 ?addActions@QGraphicsWidget@@QEAAXAEBV?$QList@PEAVQAction@@@@@Z
       1228  4CB 0004F470 ?addActions@QWidget@@QEAAXAEBV?$QList@PEAVQAction@@@@@Z
       1229  4CC 003499B0 ?addAnchor@QGraphicsAnchorLayout@@QEAAPEAVQGraphicsAnchor@@PEAVQGraphicsLayoutItem@@W4AnchorPoint@Qt@@01@Z
       1230  4CD 00349A00 ?addAnchors@QGraphicsAnchorLayout@@QEAAXPEAVQGraphicsLayoutItem@@0V?$QFlags@W4Orientation@Qt@@@@@Z
       1231  4CE 00122650 ?addButton@QButtonGroup@@QEAAXPEAVQAbstractButton@@H@Z
       1232  4CF 001D5730 ?addButton@QDialogButtonBox@@QEAAPEAVQPushButton@@AEBVQString@@W4ButtonRole@1@@Z
       1233  4D0 001D57D0 ?addButton@QDialogButtonBox@@QEAAPEAVQPushButton@@W4StandardButton@1@@Z
       1234  4D1 001D57E0 ?addButton@QDialogButtonBox@@QEAAXPEAVQAbstractButton@@W4ButtonRole@1@@Z
       1235  4D2 002741E0 ?addButton@QMessageBox@@QEAAPEAVQPushButton@@AEBVQString@@W4ButtonRole@1@@Z
       1236  4D3 00274250 ?addButton@QMessageBox@@QEAAPEAVQPushButton@@W4StandardButton@1@@Z
       1237  4D4 00274280 ?addButton@QMessageBox@@QEAAXPEAVQAbstractButton@@W4ButtonRole@1@@Z
       1238  4D5 00364240 ?addChild@QGraphicsItemPrivate@@QEAAXPEAVQGraphicsItem@@@Z
       1239  4D6 0033B9D0 ?addChild@QTreeWidgetItem@@QEAAXPEAV1@@Z
       1240  4D7 0003CED0 ?addChildLayout@QLayout@@IEAAXPEAV1@@Z
       1241  4D8 0037C1B0 ?addChildLayoutItem@QGraphicsLayout@@IEAAXPEAVQGraphicsLayoutItem@@@Z
       1242  4D9 0003D010 ?addChildWidget@QLayout@@IEAAXPEAVQWidget@@@Z
       1243  4DA 0033BA10 ?addChildren@QTreeWidgetItem@@QEAAXAEBV?$QList@PEAVQTreeWidgetItem@@@@@Z
       1244  4DB 00183E60 ?addCommand@QWidgetLineControl@@AEAAXAEBUCommand@1@@Z
       1245  4DC 00291AC0 ?addControllingSignal@QAccessibleWidget@@IEAAXAEBVQString@@@Z
       1246  4DD 00349B30 ?addCornerAnchors@QGraphicsAnchorLayout@@QEAAXPEAVQGraphicsLayoutItem@@W4Corner@Qt@@01@Z
       1247  4DE 0024B7C0 ?addDefaultSuffixToFiles@QFileDialogPrivate@@QEBA?AV?$QList@VQString@@@@AEBV2@@Z
       1248  4DF 0024BB60 ?addDefaultSuffixToUrls@QFileDialogPrivate@@QEBA?AV?$QList@VQUrl@@@@AEBV2@@Z
       1249  4E0 0009AAF0 ?addDescriptor@QPixmapStyle@@QEAAXW4ControlDescriptor@1@AEBVQString@@VQMargins@@UQTileRules@@@Z
       1250  4E1 00072740 ?addDirtyRenderToTextureWidget@QWidgetRepaintManager@@AEAAXPEAVQWidget@@@Z
       1251  4E2 000727D0 ?addDirtyWidget@QWidgetRepaintManager@@AEAAXPEAVQWidget@@AEBVQRegion@@@Z
       1252  4E3 0018CC20 ?addDockWidget@QMainWindow@@QEAAXW4DockWidgetArea@Qt@@PEAVQDockWidget@@@Z
       1253  4E4 0018CD70 ?addDockWidget@QMainWindow@@QEAAXW4DockWidgetArea@Qt@@PEAVQDockWidget@@W4Orientation@3@@Z
       1254  4E5 0038CB50 ?addEllipse@QGraphicsScene@@QEAAPEAVQGraphicsEllipseItem@@AEBVQRectF@@AEBVQPen@@AEBVQBrush@@@Z
       1255  4E6 00009C00 ?addEllipse@QGraphicsScene@@QEAAPEAVQGraphicsEllipseItem@@NNNNAEBVQPen@@AEBVQBrush@@@Z
       1256  4E7 0001B210 ?addItem@QBoxLayout@@UEAAXPEAVQLayoutItem@@@Z
       1257  4E8 0009AC00 ?addItem@QComboBox@@QEAAXAEBVQIcon@@AEBVQString@@AEBVQVariant@@@Z
       1258  4E9 0009AC50 ?addItem@QComboBox@@QEAAXAEBVQString@@AEBVQVariant@@@Z
       1259  4EA 00161EE0 ?addItem@QDockWidgetLayout@@UEAAXPEAVQLayoutItem@@@Z
       1260  4EB 000F75B0 ?addItem@QFormLayout@@UEAAXPEAVQLayoutItem@@@Z
       1261  4EC 0035DF00 ?addItem@QGraphicsGridLayout@@QEAAXPEAVQGraphicsLayoutItem@@HHHHV?$QFlags@W4AlignmentFlag@Qt@@@@@Z
       1262  4ED 0035E0B0 ?addItem@QGraphicsGridLayout@@QEAAXPEAVQGraphicsLayoutItem@@HHV?$QFlags@W4AlignmentFlag@Qt@@@@@Z
       1263  4EE 0037EA10 ?addItem@QGraphicsLinearLayout@@QEAAXPEAVQGraphicsLayoutItem@@@Z
       1264  4EF 0038CBD0 ?addItem@QGraphicsScene@@QEAAXPEAVQGraphicsItem@@@Z
       1265  4F0 00038450 ?addItem@QGridLayout@@MEAAXPEAVQLayoutItem@@@Z
       1266  4F1 000384E0 ?addItem@QGridLayout@@QEAAXPEAVQLayoutItem@@HHHHV?$QFlags@W4AlignmentFlag@Qt@@@@@Z
       1267  4F2 002FE0B0 ?addItem@QListWidget@@QEAAXAEBVQString@@@Z
       1268  4F3 002FE150 ?addItem@QListWidget@@QEAAXPEAVQListWidgetItem@@@Z
       1269  4F4 00045620 ?addItem@QStackedLayout@@UEAAXPEAVQLayoutItem@@@Z
       1270  4F5 002212A0 ?addItem@QToolBox@@QEAAHPEAVQWidget@@AEBVQIcon@@AEBVQString@@@Z
       1271  4F6 002212C0 ?addItem@QToolBox@@QEAAHPEAVQWidget@@AEBVQString@@@Z
       1272  4F7 0009ACC0 ?addItems@QComboBox@@QEAAXAEBV?$QList@VQString@@@@@Z
       1273  4F8 002FE1E0 ?addItems@QListWidget@@QEAAXAEBV?$QList@VQString@@@@@Z
       1274  4F9 0001B2B0 ?addLayout@QBoxLayout@@QEAAXPEAVQLayout@@H@Z
       1275  4FA 00038590 ?addLayout@QGridLayout@@QEAAXPEAVQLayout@@HHHHV?$QFlags@W4AlignmentFlag@Qt@@@@@Z
       1276  4FB 00038650 ?addLayout@QGridLayout@@QEAAXPEAVQLayout@@HHV?$QFlags@W4AlignmentFlag@Qt@@@@@Z
       1277  4FC 0038D760 ?addLine@QGraphicsScene@@QEAAPEAVQGraphicsLineItem@@AEBVQLineF@@AEBVQPen@@@Z
       1278  4FD 00009C40 ?addLine@QGraphicsScene@@QEAAPEAVQGraphicsLineItem@@NNNNAEBVQPen@@@Z
       1279  4FE 002E5D10 ?addMapping@QDataWidgetMapper@@QEAAXPEAVQWidget@@H@Z
       1280  4FF 002E5F20 ?addMapping@QDataWidgetMapper@@QEAAXPEAVQWidget@@HAEBVQByteArray@@@Z
       1281  500 001BBE40 ?addMenu@QMenu@@QEAAPEAV1@AEBVQIcon@@AEBVQString@@@Z
       1282  501 001BBF10 ?addMenu@QMenu@@QEAAPEAV1@AEBVQString@@@Z
       1283  502 001BBFD0 ?addMenu@QMenu@@QEAAPEAVQAction@@PEAV1@@Z
       1284  503 001C9820 ?addMenu@QMenuBar@@QEAAPEAVQAction@@PEAVQMenu@@@Z
       1285  504 001C9860 ?addMenu@QMenuBar@@QEAAPEAVQMenu@@AEBVQIcon@@AEBVQString@@@Z
       1286  505 001C98D0 ?addMenu@QMenuBar@@QEAAPEAVQMenu@@AEBVQString@@@Z
       1287  506 0027FE30 ?addPage@QWizard@@QEAAHPEAVQWizardPage@@@Z
       1288  507 0038D7C0 ?addPath@QGraphicsScene@@QEAAPEAVQGraphicsPathItem@@AEBVQPainterPath@@AEBVQPen@@AEBVQBrush@@@Z
       1289  508 001EF540 ?addPermanentWidget@QStatusBar@@QEAAXPEAVQWidget@@H@Z
       1290  509 0038D840 ?addPixmap@QGraphicsScene@@QEAAPEAVQGraphicsPixmapItem@@AEBVQPixmap@@@Z
       1291  50A 0009ACF0 ?addPixmap@QPixmapStyle@@QEAAXW4ControlPixmap@1@AEBVQString@@VQMargins@@@Z
       1292  50B 0038D890 ?addPolygon@QGraphicsScene@@QEAAPEAVQGraphicsPolygonItem@@AEBVQPolygonF@@AEBVQPen@@AEBVQBrush@@@Z
       1293  50C 0038DB90 ?addRect@QGraphicsScene@@QEAAPEAVQGraphicsRectItem@@AEBVQRectF@@AEBVQPen@@AEBVQBrush@@@Z
       1294  50D 00009C80 ?addRect@QGraphicsScene@@QEAAPEAVQGraphicsRectItem@@NNNNAEBVQPen@@AEBVQBrush@@@Z
       1295  50E 000F7680 ?addRow@QFormLayout@@QEAAXAEBVQString@@PEAVQLayout@@@Z
       1296  50F 000F7700 ?addRow@QFormLayout@@QEAAXAEBVQString@@PEAVQWidget@@@Z
       1297  510 000F7790 ?addRow@QFormLayout@@QEAAXPEAVQLayout@@@Z
       1298  511 000F7890 ?addRow@QFormLayout@@QEAAXPEAVQWidget@@0@Z
       1299  512 000F7A20 ?addRow@QFormLayout@@QEAAXPEAVQWidget@@@Z
       1300  513 000F7A30 ?addRow@QFormLayout@@QEAAXPEAVQWidget@@PEAVQLayout@@@Z
       1301  514 000E8240 ?addScrollBarWidget@QAbstractScrollArea@@QEAAXPEAVQWidget@@V?$QFlags@W4AlignmentFlag@Qt@@@@@Z
       1302  515 001BC000 ?addSection@QMenu@@QEAAPEAVQAction@@AEBVQIcon@@AEBVQString@@@Z
       1303  516 001BC080 ?addSection@QMenu@@QEAAPEAVQAction@@AEBVQString@@@Z
       1304  517 001BC0F0 ?addSeparator@QMenu@@QEAAPEAVQAction@@XZ
       1305  518 001BC0F0 ?addSeparator@QMenuBar@@QEAAPEAVQAction@@XZ
       1306  519 001BC0F0 ?addSeparator@QToolBar@@QEAAPEAVQAction@@XZ
       1307  51A 0038DC10 ?addSimpleText@QGraphicsScene@@QEAAPEAVQGraphicsSimpleTextItem@@AEBVQString@@AEBVQFont@@@Z
       1308  51B 0001B390 ?addSpacerItem@QBoxLayout@@QEAAXPEAVQSpacerItem@@@Z
       1309  51C 0001B440 ?addSpacing@QBoxLayout@@QEAAXH@Z
       1310  51D 00072970 ?addStaticWidget@QWidgetRepaintManager@@QEAAXPEAVQWidget@@@Z
       1311  51E 0001B530 ?addStretch@QBoxLayout@@QEAAXH@Z
       1312  51F 0037EA20 ?addStretch@QGraphicsLinearLayout@@QEAAXH@Z
       1313  520 0001B610 ?addStrut@QBoxLayout@@QEAAXH@Z
       1314  521 001A2450 ?addSubWindow@QMdiArea@@QEAAPEAVQMdiSubWindow@@PEAVQWidget@@V?$QFlags@W4WindowType@Qt@@@@@Z
       1315  522 001F1C80 ?addTab@QTabBar@@QEAAHAEBVQIcon@@AEBVQString@@@Z
       1316  523 001F1C90 ?addTab@QTabBar@@QEAAHAEBVQString@@@Z
       1317  524 00210430 ?addTab@QTabWidget@@QEAAHPEAVQWidget@@AEBVQIcon@@AEBVQString@@@Z
       1318  525 002104E0 ?addTab@QTabWidget@@QEAAHPEAVQWidget@@AEBVQString@@@Z
       1319  526 0038DC70 ?addText@QGraphicsScene@@QEAAPEAVQGraphicsTextItem@@AEBVQString@@AEBVQFont@@@Z
       1320  527 00364300 ?addToGroup@QGraphicsItemGroup@@QEAAXPEAVQGraphicsItem@@@Z
       1321  528 00364800 ?addToIndex@QGraphicsItem@@IEAAXXZ
       1322  529 0018CDF0 ?addToolBar@QMainWindow@@QEAAPEAVQToolBar@@AEBVQString@@@Z
       1323  52A 0018CE50 ?addToolBar@QMainWindow@@QEAAXPEAVQToolBar@@@Z
       1324  52B 0018D090 ?addToolBar@QMainWindow@@QEAAXW4ToolBarArea@Qt@@PEAVQToolBar@@@Z
       1325  52C 0018D360 ?addToolBarBreak@QMainWindow@@QEAAXW4ToolBarArea@Qt@@@Z
       1326  52D 0033BA20 ?addTopLevelItem@QTreeWidget@@QEAAXPEAVQTreeWidgetItem@@@Z
       1327  52E 0033BA90 ?addTopLevelItems@QTreeWidget@@QEAAXAEBV?$QList@PEAVQTreeWidgetItem@@@@@Z
       1328  52F 0001B6F0 ?addWidget@QBoxLayout@@QEAAXPEAVQWidget@@HV?$QFlags@W4AlignmentFlag@Qt@@@@@Z
       1329  530 0038DE80 ?addWidget@QGraphicsScene@@QEAAPEAVQGraphicsProxyWidget@@PEAVQWidget@@V?$QFlags@W4WindowType@Qt@@@@@Z
       1330  531 00001660 ?addWidget@QGridLayout@@QEAAXPEAVQWidget@@@Z
       1331  532 000386F0 ?addWidget@QGridLayout@@QEAAXPEAVQWidget@@HHHHV?$QFlags@W4AlignmentFlag@Qt@@@@@Z
       1332  533 000387E0 ?addWidget@QGridLayout@@QEAAXPEAVQWidget@@HHV?$QFlags@W4AlignmentFlag@Qt@@@@@Z
       1333  534 0003D1A0 ?addWidget@QLayout@@QEAAXPEAVQWidget@@@Z
       1334  535 001E9A80 ?addWidget@QSplitter@@QEAAXPEAVQWidget@@@Z
       1335  536 000456A0 ?addWidget@QStackedLayout@@QEAAHPEAVQWidget@@@Z
       1336  537 001EEC50 ?addWidget@QStackedWidget@@QEAAHPEAVQWidget@@@Z
       1337  538 001EF560 ?addWidget@QStatusBar@@QEAAXPEAVQWidget@@H@Z
       1338  539 00213A20 ?addWidget@QToolBar@@QEAAPEAVQAction@@PEAVQWidget@@@Z
       1339  53A 0004F740 ?adjustFlags@QWidgetPrivate@@SAXAEAV?$QFlags@W4WindowType@Qt@@@@PEAVQWidget@@@Z
       1340  53B 00242220 ?adjustPosition@QDialog@@IEAAXPEAVQWidget@@@Z
       1341  53C 0004F810 ?adjustQuitOnCloseAttribute@QWidgetPrivate@@QEAAXXZ
       1342  53D 00364840 ?adjustSize@QGraphicsTextItem@@QEAAXXZ
       1343  53E 003BD8C0 ?adjustSize@QGraphicsWidget@@QEAAXXZ
       1344  53F 0004F870 ?adjustSize@QWidget@@QEAAXXZ
       1345  540 00228A10 ?adjustSize@QWidgetTextControl@@QEAAXXZ
       1346  541 003228D0 ?adjustViewOptionsForIndex@QTreeViewPrivate@@UEBAXPEAVQStyleOptionViewItem@@AEBVQModelIndex@@@Z
       1347  542 0004F8D0 ?adjustedSize@QWidgetPrivate@@QEBA?AVQSize@@XZ
       1348  543 0003D220 ?adoptLayout@QLayout@@IEAA_NPEAV1@@Z
       1349  544 00009A60 ?advance@QGraphicsItem@@UEAAXH@Z
       1350  545 0038DEF0 ?advance@QGraphicsScene@@QEAAXXZ
       1351  546 00183F70 ?advanceToEnabledItem@QWidgetLineControl@@AEAA_NH@Z
       1352  547 00009A60 ?afterAnimationStep@QGraphicsItemAnimation@@MEAAXN@Z
       1353  548 00009CC0 ?alert@QApplication@@SAXPEAVQWidget@@H@Z
       1354  549 000A4000 ?alignedRect@QStyle@@SA?AVQRect@@W4LayoutDirection@Qt@@V?$QFlags@W4AlignmentFlag@Qt@@@@AEBVQSize@@AEBV2@@Z
       1355  54A 001DFDC0 ?alignment@QAbstractSpinBox@@QEBA?AV?$QFlags@W4AlignmentFlag@Qt@@@@XZ
       1356  54B 0035E200 ?alignment@QGraphicsGridLayout@@QEBA?AV?$QFlags@W4AlignmentFlag@Qt@@@@PEAVQGraphicsLayoutItem@@@Z
       1357  54C 0037EAD0 ?alignment@QGraphicsLinearLayout@@QEBA?AV?$QFlags@W4AlignmentFlag@Qt@@@@PEAVQGraphicsLayoutItem@@@Z
       1358  54D 003B0A10 ?alignment@QGraphicsView@@QEBA?AV?$QFlags@W4AlignmentFlag@Qt@@@@XZ
       1359  54E 0016D1E0 ?alignment@QGroupBox@@QEBA?AV?$QFlags@W4AlignmentFlag@Qt@@@@XZ
       1360  54F 00171F00 ?alignment@QLabel@@QEBA?AV?$QFlags@W4AlignmentFlag@Qt@@@@XZ
       1361  550 00001670 ?alignment@QLayoutItem@@QEBA?AV?$QFlags@W4AlignmentFlag@Qt@@@@XZ
       1362  551 0017A960 ?alignment@QLineEdit@@QEBA?AV?$QFlags@W4AlignmentFlag@Qt@@@@XZ
       1363  552 001CF7B0 ?alignment@QProgressBar@@QEBA?AV?$QFlags@W4AlignmentFlag@Qt@@@@XZ
       1364  553 001D89A0 ?alignment@QScrollArea@@QEBA?AV?$QFlags@W4AlignmentFlag@Qt@@@@XZ
       1365  554 00206440 ?alignment@QTextEdit@@QEBA?AV?$QFlags@W4AlignmentFlag@Qt@@@@XZ
       1366  555 0003D270 ?alignmentRect@QLayout@@IEBA?AVQRect@@AEBV2@@Z
       1367  556 00322E70 ?allColumnsShowFocus@QTreeView@@QEBA_NXZ
       1368  557 00133000 ?allSelected@QWidgetLineControl@@QEBA_NXZ
       1369  558 00009DB0 ?allWidgets@QApplication@@SA?AV?$QList@PEAVQWidget@@@@XZ
       1370  559 005E1EF8 ?allWidgets@QWidgetPrivate@@2PEAV?$QSet@PEAVQWidget@@@@EA
       1371  55A 003B0A20 ?allocStyleOptionsArray@QGraphicsViewPrivate@@QEAAPEAVQStyleOptionGraphicsItem@@H@Z
       1372  55B 00161F10 ?allowedAreas@QDockWidget@@QEBA?AV?$QFlags@W4DockWidgetArea@Qt@@@@XZ
       1373  55C 00213A90 ?allowedAreas@QToolBar@@QEBA?AV?$QFlags@W4ToolBarArea@Qt@@@@XZ
       1374  55D 00161F20 ?allowedAreasChanged@QDockWidget@@QEAAXV?$QFlags@W4DockWidgetArea@Qt@@@@@Z
       1375  55E 00213AA0 ?allowedAreasChanged@QToolBar@@QEAAXV?$QFlags@W4ToolBarArea@Qt@@@@@Z
       1376  55F 000B72C0 ?altDown@QWindowsStylePrivate@@QEBA_NXZ
       1377  560 002AD2F0 ?alternatingRowColors@QAbstractItemView@@QEBA_NXZ
       1378  561 00349BF0 ?anchor@QGraphicsAnchorLayout@@QEAAPEAVQGraphicsAnchor@@PEAVQGraphicsLayoutItem@@W4AnchorPoint@Qt@@01@Z
       1379  562 001FCD60 ?anchorAt@QPlainTextEdit@@QEBA?AVQString@@AEBVQPoint@@@Z
       1380  563 002064A0 ?anchorAt@QTextEdit@@QEBA?AVQString@@AEBVQPoint@@@Z
       1381  564 00228A20 ?anchorAt@QWidgetTextControl@@UEBA?AVQString@@AEBVQPointF@@@Z
       1382  565 00228A60 ?anchorAtCursor@QWidgetTextControl@@QEBA?AVQString@@XZ
       1383  566 0020CB30 ?anchorClicked@QTextBrowser@@QEAAXAEBVQUrl@@@Z
       1384  567 00228BB0 ?anchorPosition@QWidgetTextControl@@QEBA?AVQPointF@@AEBVQString@@@Z
       1385  568 00184130 ?anchorRect@QWidgetLineControl@@QEBA?AVQRect@@XZ
       1386  569 000F57D0 ?angle@QGraphicsRotation@@QEBANXZ
       1387  56A 003AD1D0 ?angleChanged@QGraphicsRotation@@QEAAXXZ
       1388  56B 0011D420 ?animateClick@QAbstractButton@@QEAAXXZ
       1389  56C 00080010 ?animation@QCommonStylePrivate@@QEBAPEAVQStyleAnimation@@PEBVQObject@@@Z
       1390  56D 001021B0 ?animationStep@QProgressStyleAnimation@@QEBAHXZ
       1391  56E 00042DB0 ?api@QRhiWidget@@QEBA?AW4Api@1@XZ
       1392  56F 005E1D68 ?app_style@QApplicationPrivate@@2PEAVQStyle@@EA
       1393  570 00206580 ?append@QTextEdit@@QEAAXAEBVQString@@@Z
       1394  571 00228F50 ?append@QWidgetTextControl@@QEAAXAEBVQString@@@Z
       1395  572 00364860 ?appendGraphicsTransform@QGraphicsItemPrivate@@QEAAXPEAVQGraphicsTransform@@@Z
       1396  573 001FD330 ?appendHtml@QPlainTextEdit@@QEAAXAEBVQString@@@Z
       1397  574 002290E0 ?appendHtml@QWidgetTextControl@@QEAAXAEBVQString@@@Z
       1398  575 001FD340 ?appendPlainText@QPlainTextEdit@@QEAAXAEBVQString@@@Z
       1399  576 002290F0 ?appendPlainText@QWidgetTextControl@@QEAAXAEBVQString@@@Z
       1400  577 00009F70 ?applyQIconStyleHelper@QApplicationPrivate@@UEBA?AVQPixmap@@W4Mode@QIcon@@AEBV2@@Z
       1401  578 003AD1F0 ?applyTo@QGraphicsRotation@@UEBAXPEAVQMatrix4x4@@@Z
       1402  579 003AD330 ?applyTo@QGraphicsScale@@UEBAXPEAVQMatrix4x4@@@Z
       1403  57A 001F2420 ?arrowType@QToolButton@@QEBA?AW4ArrowType@Qt@@XZ
       1404  57B 00133020 ?ascent@QWidgetLineControl@@QEBAHXZ
       1405  57C 0004FD10 ?associatedScreen@QWidgetPrivate@@QEBAPEAVQScreen@@XZ
       1406  57D 000B72D0 ?at@QTabBarPrivate@@QEAAPEAUTab@1@H@Z
       1407  57E 000B72D0 ?at@QTabBarPrivate@@QEBAPEBUTab@1@H@Z
       1408  57F 0027A1C0 ?autoClose@QProgressDialog@@QEBA_NXZ
       1409  580 0024BEA0 ?autoCompleteFileName@QFileDialogPrivate@@QEAAXAEBVQString@@@Z
       1410  581 001D14B0 ?autoDefault@QPushButton@@QEBA_NXZ
       1411  582 0011D500 ?autoExclusive@QAbstractButton@@QEBA_NXZ
       1412  583 00322E80 ?autoExpandDelay@QTreeView@@QEBAHXZ
       1413  584 003BDA70 ?autoFillBackground@QGraphicsWidget@@QEBA_NXZ
       1414  585 0004FE10 ?autoFillBackground@QWidget@@QEBA_NXZ
       1415  586 00206650 ?autoFormatting@QTextEdit@@QEBA?AV?$QFlags@W4AutoFormattingFlag@QTextEdit@@@@XZ
       1416  587 001F1CE0 ?autoHide@QTabBar@@QEBA_NXZ
       1417  588 001F1D00 ?autoHideTabs@QTabBarPrivate@@QEAAXXZ
       1418  589 00223730 ?autoRaise@QToolButton@@QEBA_NXZ
       1419  58A 0011D510 ?autoRepeat@QAbstractButton@@QEBA_NXZ
       1420  58B 000EB3E0 ?autoRepeatDelay@QAbstractButton@@QEBAHXZ
       1421  58C 000E9070 ?autoRepeatInterval@QAbstractButton@@QEBAHXZ
       1422  58D 0027A1D0 ?autoReset@QProgressDialog@@QEBA_NXZ
       1423  58E 002AD300 ?autoScrollMargin@QAbstractItemView@@QEBAHXZ
       1424  58F 0000A010 ?autoSipEnabled@QApplication@@QEBA_NXZ
       1425  590 005CD380 ?autoSipEnabled@QApplicationPrivate@@2_NA
       1426  591 0000A020 ?availableScreenGeometry@QWidgetPrivate@@SA?AVQRect@@PEBVQWidget@@@Z
       1427  592 0000A150 ?availableScreenGeometry@QWidgetPrivate@@SA?AVQRect@@PEBVQWidget@@AEBVQPoint@@_N@Z
       1428  593 003AD400 ?axis@QGraphicsRotation@@QEBA?AVQVector3D@@XZ
       1429  594 003AD420 ?axisChanged@QGraphicsRotation@@QEAAXXZ
       1430  595 00280210 ?back@QWizard@@QEAAXXZ
       1431  596 002FE260 ?background@QListWidgetItem@@QEBA?AVQBrush@@XZ
       1432  597 001A2A10 ?background@QMdiArea@@QEBA?AVQBrush@@XZ
       1433  598 002FE260 ?background@QTableWidgetItem@@QEBA?AVQBrush@@XZ
       1434  599 0033BB00 ?background@QTreeWidgetItem@@QEBA?AVQBrush@@H@Z
       1435  59A 0038E020 ?backgroundBrush@QGraphicsScene@@QEBA?AVQBrush@@XZ
       1436  59B 003B0D10 ?backgroundBrush@QGraphicsView@@QEBA?AVQBrush@@XZ
       1437  59C 00291C40 ?backgroundColor@QAccessibleWidget@@UEBA?AVQColor@@XZ
       1438  59D 000A6AD0 ?backgroundColor@QStyleHelper@@YA?AVQColor@@AEBVQPalette@@PEBVQWidget@@@Z
       1439  59E 0004FE30 ?backgroundRole@QWidget@@QEBA?AW4ColorRole@QPalette@@XZ
       1440  59F 001FD350 ?backgroundVisible@QPlainTextEdit@@QEBA_NXZ
       1441  5A0 0004FE90 ?backingStore@QWidget@@QEBAPEAVQBackingStore@@XZ
       1442  5A1 000016B0 ?backingStore@QWidgetRepaintManager@@QEBAPEAVQBackingStore@@XZ
       1443  5A2 0017A970 ?backspace@QLineEdit@@QEAAXXZ
       1444  5A3 00184180 ?backspace@QWidgetLineControl@@QEAAXXZ
       1445  5A4 0020CB60 ?backward@QTextBrowser@@UEAAXXZ
       1446  5A5 0020CDF0 ?backwardAvailable@QTextBrowser@@QEAAX_N@Z
       1447  5A6 0020CE30 ?backwardHistoryCount@QTextBrowser@@QEBAHXZ
       1448  5A7 0000A190 ?basePalette@QApplicationPrivate@@MEBA?AVQPalette@@XZ
       1449  5A8 0004FF10 ?baseSize@QWidget@@QEBA?AVQSize@@XZ
       1450  5A9 000A1CA0 ?baseStyle@QProxyStyle@@QEBAPEAVQStyle@@XZ
       1451  5AA 0024C210 ?basename@QFileDialogPrivate@@QEBA?AVQString@@AEBV2@@Z
       1452  5AB 002EBFA0 ?batchSize@QListView@@QEBAHXZ
       1453  5AC 0000A280 ?beep@QApplication@@SAXXZ
       1454  5AD 00009A60 ?beforeAnimationStep@QGraphicsItemAnimation@@MEAAXN@Z
       1455  5AE 00322E90 ?beginAnimatedOperation@QTreeViewPrivate@@QEAAXXZ
       1456  5AF 00009A60 ?beginBackingStorePainting@QWidgetPrivate@@UEAAXXZ
       1457  5B0 00009A60 ?beginCompose@QWidgetPrivate@@UEAAXXZ
       1458  5B1 002A0AB0 ?below@QTreeViewPrivate@@QEBAHH@Z
       1459  5B2 001FD360 ?blockBoundingGeometry@QPlainTextEdit@@IEBA?AVQRectF@@AEBVQTextBlock@@@Z
       1460  5B3 001FD390 ?blockBoundingRect@QPlainTextDocumentLayout@@UEBA?AVQRectF@@AEBVQTextBlock@@@Z
       1461  5B4 001FD5B0 ?blockBoundingRect@QPlainTextEdit@@IEBA?AVQRectF@@AEBVQTextBlock@@@Z
       1462  5B5 00229100 ?blockBoundingRect@QWidgetTextControl@@UEBA?AVQRectF@@AEBVQTextBlock@@@Z
       1463  5B6 001FD970 ?blockCount@QPlainTextEdit@@QEBAHXZ
       1464  5B7 001FD9A0 ?blockCountChanged@QPlainTextEdit@@QEAAXH@Z
       1465  5B8 00229150 ?blockCountChanged@QWidgetTextControl@@QEAAXH@Z
       1466  5B9 00229190 ?blockMarkerHovered@QWidgetTextControl@@QEAAXAEBVQTextBlock@@@Z
       1467  5BA 001FD9E0 ?blockWidth@QPlainTextDocumentLayout@@AEAANAEBVQTextBlock@@@Z
       1468  5BB 002291C0 ?blockWithMarkerAt@QWidgetTextControl@@QEBA?AVQTextBlock@@AEBVQPointF@@@Z
       1469  5BC 00072A10 ?bltRect@QWidgetRepaintManager@@QEAA_NAEBVQRect@@HHPEAVQWidget@@@Z
       1470  5BD 000F0660 ?blurHints@QGraphicsBlurEffect@@QEBA?AV?$QFlags@W4BlurHint@QGraphicsBlurEffect@@@@XZ
       1471  5BE 000F35D0 ?blurHints@QPixmapBlurFilter@@QEBA?AV?$QFlags@W4BlurHint@QGraphicsBlurEffect@@@@XZ
       1472  5BF 000F0690 ?blurHintsChanged@QGraphicsBlurEffect@@QEAAXV?$QFlags@W4BlurHint@QGraphicsBlurEffect@@@@@Z
       1473  5C0 000F06D0 ?blurRadius@QGraphicsBlurEffect@@QEBANXZ
       1474  5C1 000F06E0 ?blurRadius@QGraphicsDropShadowEffect@@QEBANXZ
       1475  5C2 000F35E0 ?blurRadius@QPixmapDropShadowFilter@@QEBANXZ
       1476  5C3 000F06F0 ?blurRadiusChanged@QGraphicsBlurEffect@@QEAAXN@Z
       1477  5C4 000F0730 ?blurRadiusChanged@QGraphicsDropShadowEffect@@QEAAXN@Z
       1478  5C5 00133030 ?bottomMargin@QComboBoxPrivateContainer@@QEBAHXZ
       1479  5C6 000F0770 ?boundingRect@QGraphicsEffect@@QEBA?AVQRectF@@XZ
       1480  5C7 000F0800 ?boundingRect@QGraphicsEffectSource@@QEBA?AVQRectF@@W4CoordinateSystem@Qt@@@Z
       1481  5C8 003649A0 ?boundingRect@QGraphicsEllipseItem@@UEBA?AVQRectF@@XZ
       1482  5C9 00364CB0 ?boundingRect@QGraphicsItemGroup@@UEBA?AVQRectF@@XZ
       1483  5CA 00364CD0 ?boundingRect@QGraphicsLineItem@@UEBA?AVQRectF@@XZ
       1484  5CB 00364DB0 ?boundingRect@QGraphicsPathItem@@UEBA?AVQRectF@@XZ
       1485  5CC 00364F30 ?boundingRect@QGraphicsPixmapItem@@UEBA?AVQRectF@@XZ
       1486  5CD 00365010 ?boundingRect@QGraphicsPolygonItem@@UEBA?AVQRectF@@XZ
       1487  5CE 00365190 ?boundingRect@QGraphicsRectItem@@UEBA?AVQRectF@@XZ
       1488  5CF 003652D0 ?boundingRect@QGraphicsSimpleTextItem@@UEBA?AVQRectF@@XZ
       1489  5D0 003652F0 ?boundingRect@QGraphicsTextItem@@UEBA?AVQRectF@@XZ
       1490  5D1 003BDA80 ?boundingRect@QGraphicsWidget@@UEBA?AVQRectF@@XZ
       1491  5D2 000F0830 ?boundingRectFor@QGraphicsBlurEffect@@UEBA?AVQRectF@@AEBV2@@Z
       1492  5D3 000F0830 ?boundingRectFor@QGraphicsDropShadowEffect@@UEBA?AVQRectF@@AEBV2@@Z
       1493  5D4 000F0860 ?boundingRectFor@QGraphicsEffect@@UEBA?AVQRectF@@AEBV2@@Z
       1494  5D5 000F35F0 ?boundingRectFor@QPixmapBlurFilter@@UEBA?AVQRectF@@AEBV2@@Z
       1495  5D6 000F3640 ?boundingRectFor@QPixmapConvolutionFilter@@UEBA?AVQRectF@@AEBV2@@Z
       1496  5D7 000F36E0 ?boundingRectFor@QPixmapDropShadowFilter@@UEBA?AVQRectF@@AEBV2@@Z
       1497  5D8 000F0860 ?boundingRectFor@QPixmapFilter@@UEBA?AVQRectF@@AEBV2@@Z
       1498  5D9 00365310 ?boundingRegion@QGraphicsItem@@QEBA?AVQRegion@@AEBVQTransform@@@Z
       1499  5DA 00365730 ?boundingRegionGranularity@QGraphicsItem@@QEBANXZ
       1500  5DB 003658D0 ?brush@QAbstractGraphicsShapeItem@@QEBA?AVQBrush@@XZ
       1501  5DC 0038E210 ?bspTreeDepth@QGraphicsScene@@QEBAHXZ
       1502  5DD 00171F20 ?buddy@QLabel@@QEBAPEAVQWidget@@XZ
       1503  5DE 00122980 ?button@QButtonGroup@@QEBAPEAVQAbstractButton@@H@Z
       1504  5DF 001D5D70 ?button@QDialogButtonBox@@QEBAPEAVQPushButton@@W4StandardButton@1@@Z
       1505  5E0 003A9E90 ?button@QGraphicsSceneMouseEvent@@QEBA?AW4MouseButton@Qt@@XZ
       1506  5E1 002747D0 ?button@QMessageBox@@QEBAPEAVQAbstractButton@@W4StandardButton@1@@Z
       1507  5E2 00280240 ?button@QWizard@@QEBAPEAVQAbstractButton@@W4WizardButton@1@@Z
       1508  5E3 00122B00 ?buttonClicked@QButtonGroup@@QEAAXPEAVQAbstractButton@@@Z
       1509  5E4 002747E0 ?buttonClicked@QMessageBox@@QEAAXPEAVQAbstractButton@@@Z
       1510  5E5 003A9EA0 ?buttonDownPos@QGraphicsSceneMouseEvent@@QEBA?AVQPointF@@W4MouseButton@Qt@@@Z
       1511  5E6 003A9F10 ?buttonDownScenePos@QGraphicsSceneMouseEvent@@QEBA?AVQPointF@@W4MouseButton@Qt@@@Z
       1512  5E7 003A9F80 ?buttonDownScreenPos@QGraphicsSceneMouseEvent@@QEBA?AVQPoint@@W4MouseButton@Qt@@@Z
       1513  5E8 00122B40 ?buttonPressed@QButtonGroup@@QEAAXPEAVQAbstractButton@@@Z
       1514  5E9 00122B80 ?buttonReleased@QButtonGroup@@QEAAXPEAVQAbstractButton@@@Z
       1515  5EA 001D5DB0 ?buttonRole@QDialogButtonBox@@QEBA?AW4ButtonRole@1@PEAVQAbstractButton@@@Z
       1516  5EB 002749D0 ?buttonRole@QMessageBox@@QEBA?AW4ButtonRole@1@PEAVQAbstractButton@@@Z
       1517  5EC 001AB4D0 ?buttonSymbols@QAbstractSpinBox@@QEBA?AW4ButtonSymbols@1@XZ
       1518  5ED 002749E0 ?buttonText@QMessageBox@@QEBA?AVQString@@H@Z
       1519  5EE 00280470 ?buttonText@QWizard@@QEBA?AVQString@@W4WizardButton@1@@Z
       1520  5EF 002805E0 ?buttonText@QWizardPage@@QEBA?AVQString@@W4WizardButton@QWizard@@@Z
       1521  5F0 00122BC0 ?buttonToggled@QButtonGroup@@QEAAXPEAVQAbstractButton@@_N@Z
       1522  5F1 00122C20 ?buttons@QButtonGroup@@QEBA?AV?$QList@PEAVQAbstractButton@@@@XZ
       1523  5F2 001D5E90 ?buttons@QDialogButtonBox@@QEBA?AV?$QList@PEAVQAbstractButton@@@@XZ
       1524  5F3 003A9FF0 ?buttons@QGraphicsSceneDragDropEvent@@QEBA?AV?$QFlags@W4MouseButton@Qt@@@@XZ
       1525  5F4 003AA000 ?buttons@QGraphicsSceneMouseEvent@@QEBA?AV?$QFlags@W4MouseButton@Qt@@@@XZ
       1526  5F5 003AA010 ?buttons@QGraphicsSceneWheelEvent@@QEBA?AV?$QFlags@W4MouseButton@Qt@@@@XZ
       1527  5F6 00274B10 ?buttons@QMessageBox@@QEBA?AV?$QList@PEAVQAbstractButton@@@@XZ
       1528  5F7 00365900 ?cacheMode@QGraphicsItem@@QEBA?AW4CacheMode@1@XZ
       1529  5F8 003B0D40 ?cacheMode@QGraphicsView@@QEBA?AV?$QFlags@W4CacheModeFlag@QGraphicsView@@@@XZ
       1530  5F9 00029920 ?calcEffectiveOpacity@QGraphicsItemPrivate@@QEBANXZ
       1531  5FA 00323150 ?calcLogicalIndices@QTreeViewPrivate@@QEBAXPEAV?$QList@H@@PEAV?$QList@W4ViewItemPosition@QStyleOptionViewItem@@@@HH@Z
       1532  5FB 00080410 ?calculateElidedText@QCommonStylePrivate@@QEBA?AVQString@@AEBV2@AEBVQTextOption@@AEBVQFont@@AEBVQRect@@V?$QFlags@W4AlignmentFlag@Qt@@@@W4TextElideMode@Qt@@H_NPEAVQPointF@@@Z
       1533  5FC 001F1D30 ?calculateFirstLastVisible@QTabBarPrivate@@QEAAXH_N0@Z
       1534  5FD 001F1E20 ?calculateNewPosition@QTabBarPrivate@@QEBAHHHH@Z
       1535  5FE 00126810 ?calendar@QCalendarWidget@@QEBA?AVQCalendar@@XZ
       1536  5FF 00145B90 ?calendar@QDateTimeEdit@@QEBA?AVQCalendar@@XZ
       1537  600 00145BB0 ?calendarPopup@QDateTimeEdit@@QEBA_NXZ
       1538  601 00145BC0 ?calendarWidget@QDateTimeEdit@@QEBAPEAVQCalendarWidget@@XZ
       1539  602 002427C0 ?canBeNativeDialog@QDialogPrivate@@UEBA_NXZ
       1540  603 0024C2B0 ?canBeNativeDialog@QFileDialogPrivate@@UEBA_NXZ
       1541  604 001FDA80 ?canInsertFromMimeData@QPlainTextEdit@@MEBA_NPEBVQMimeData@@@Z
       1542  605 00206660 ?canInsertFromMimeData@QTextEdit@@MEBA_NPEBVQMimeData@@@Z
       1543  606 00229420 ?canInsertFromMimeData@QWidgetTextControl@@UEBA_NPEBVQMimeData@@@Z
       1544  607 001FDAF0 ?canPaste@QPlainTextEdit@@QEBA_NXZ
       1545  608 002066D0 ?canPaste@QTextEdit@@QEBA_NXZ
       1546  609 002295A0 ?canPaste@QWidgetTextControl@@QEBA_NXZ
       1547  60A 003B0D50 ?canStartScrollingAt@QGraphicsViewPrivate@@UEBA_NAEBVQPoint@@@Z
       1548  60B 0027A1E0 ?cancel@QProgressDialog@@QEAAXXZ
       1549  60C 0026E760 ?cancelButtonText@QInputDialog@@QEBA?AVQString@@XZ
       1550  60D 00133090 ?cancelPasswordEchoTimer@QWidgetLineControl@@AEAAXXZ
       1551  60E 001330C0 ?cancelText@QWidgetLineControl@@QEBA?AVQString@@XZ
       1552  60F 0027A2D0 ?canceled@QProgressDialog@@QEAAXXZ
       1553  610 000206E0 ?canceledGestures@QGestureEvent@@QEBA?AV?$QList@PEAVQGesture@@@@XZ
       1554  611 001A2A40 ?cascadeSubWindows@QMdiArea@@QEAAXXZ
       1555  612 002C5450 ?cascadingSectionResizes@QHeaderView@@QEBA_NXZ
       1556  613 003CD770 ?caseSensitivity@QCompleter@@QEBA?AW4CaseSensitivity@Qt@@XZ
       1557  614 003180C0 ?cellActivated@QTableWidget@@QEAAXHH@Z
       1558  615 00318120 ?cellChanged@QTableWidget@@QEAAXHH@Z
       1559  616 00318180 ?cellClicked@QTableWidget@@QEAAXHH@Z
       1560  617 003181E0 ?cellDoubleClicked@QTableWidget@@QEAAXHH@Z
       1561  618 00318240 ?cellEntered@QTableWidget@@QEAAXHH@Z
       1562  619 003182A0 ?cellPressed@QTableWidget@@QEAAXHH@Z
       1563  61A 00038B50 ?cellRect@QGridLayout@@QEBA?AVQRect@@HH@Z
       1564  61B 00318300 ?cellWidget@QTableWidget@@QEBAPEAVQWidget@@HH@Z
       1565  61C 001D5EB0 ?centerButtons@QDialogButtonBox@@QEBA_NXZ
       1566  61D 001FDB00 ?centerCursor@QPlainTextEdit@@QEAAXXZ
       1567  61E 003B0E30 ?centerOn@QGraphicsView@@QEAAXAEBVQPointF@@@Z
       1568  61F 0000A2B0 ?centerOn@QGraphicsView@@QEAAXNN@Z
       1569  620 003B1030 ?centerOn@QGraphicsView@@QEAAXPEBVQGraphicsItem@@@Z
       1570  621 001FDB50 ?centerOnScroll@QPlainTextEdit@@QEBA_NXZ
       1571  622 000209C0 ?centerPoint@QPinchGesture@@QEBA?AVQPointF@@XZ
       1572  623 003B1070 ?centerView@QGraphicsViewPrivate@@QEAAXW4ViewportAnchor@QGraphicsView@@@Z
       1573  624 0018D860 ?centralWidget@QMainWindow@@QEBAPEAVQWidget@@XZ
       1574  625 001F1E60 ?changeCurrentOnDrag@QTabBar@@QEBA_NXZ
       1575  626 0011D520 ?changeEvent@QAbstractButton@@MEAAXPEAVQEvent@@@Z
       1576  627 00120930 ?changeEvent@QAbstractSlider@@MEAAXPEAVQEvent@@@Z
       1577  628 001DFFE0 ?changeEvent@QAbstractSpinBox@@MEAAXPEAVQEvent@@@Z
       1578  629 0023A3F0 ?changeEvent@QColorDialog@@MEAAXPEAVQEvent@@@Z
       1579  62A 001330F0 ?changeEvent@QComboBox@@MEAAXPEAVQEvent@@@Z
       1580  62B 00133330 ?changeEvent@QComboBoxPrivateContainer@@MEAAXPEAVQEvent@@@Z
       1581  62C 001D5EC0 ?changeEvent@QDialogButtonBox@@MEAAXPEAVQEvent@@@Z
       1582  62D 00161F60 ?changeEvent@QDockWidget@@MEAAXPEAVQEvent@@@Z
       1583  62E 00245BE0 ?changeEvent@QErrorMessage@@MEAAXPEAVQEvent@@@Z
       1584  62F 0024C360 ?changeEvent@QFileDialog@@MEAAXPEAVQEvent@@@Z
       1585  630 00269920 ?changeEvent@QFontDialog@@MEAAXPEAVQEvent@@@Z
       1586  631 000ED300 ?changeEvent@QFrame@@MEAAXPEAVQEvent@@@Z
       1587  632 003BDAA0 ?changeEvent@QGraphicsWidget@@MEAAXPEAVQEvent@@@Z
       1588  633 0016D2F0 ?changeEvent@QGroupBox@@MEAAXPEAVQEvent@@@Z
       1589  634 00171F60 ?changeEvent@QLabel@@MEAAXPEAVQEvent@@@Z
       1590  635 0017A980 ?changeEvent@QLineEdit@@MEAAXPEAVQEvent@@@Z
       1591  636 001AD290 ?changeEvent@QMdiSubWindow@@MEAAXPEAVQEvent@@@Z
       1592  637 001BC520 ?changeEvent@QMenu@@MEAAXPEAVQEvent@@@Z
       1593  638 001C9F50 ?changeEvent@QMenuBar@@MEAAXPEAVQEvent@@@Z
       1594  639 00274D10 ?changeEvent@QMessageBox@@MEAAXPEAVQEvent@@@Z
       1595  63A 001FDB60 ?changeEvent@QPlainTextEdit@@MEAAXPEAVQEvent@@@Z
       1596  63B 0027A2F0 ?changeEvent@QProgressDialog@@MEAAXPEAVQEvent@@@Z
       1597  63C 001D8270 ?changeEvent@QRubberBand@@MEAAXPEAVQEvent@@@Z
       1598  63D 001E9B50 ?changeEvent@QSplitter@@MEAAXPEAVQEvent@@@Z
       1599  63E 001F1E80 ?changeEvent@QTabBar@@MEAAXPEAVQEvent@@@Z
       1600  63F 00210590 ?changeEvent@QTabWidget@@MEAAXPEAVQEvent@@@Z
       1601  640 002066E0 ?changeEvent@QTextEdit@@MEAAXPEAVQEvent@@@Z
       1602  641 00213AE0 ?changeEvent@QToolBar@@MEAAXPEAVQEvent@@@Z
       1603  642 00221320 ?changeEvent@QToolBox@@MEAAXPEAVQEvent@@@Z
       1604  643 00223740 ?changeEvent@QToolButton@@MEAAXPEAVQEvent@@@Z
       1605  644 003233C0 ?changeEvent@QTreeView@@MEAAXPEAVQEvent@@@Z
       1606  645 00050050 ?changeEvent@QWidget@@MEAAXPEAVQEvent@@@Z
       1607  646 000209E0 ?changeFlags@QPinchGesture@@QEBA?AV?$QFlags@W4ChangeFlag@QPinchGesture@@@@XZ
       1608  647 00041250 ?changeSize@QSpacerItem@@QEAAXHHW4Policy@QSizePolicy@@0@Z
       1609  648 0038ECF0 ?changed@QGraphicsScene@@QEAAXAEBV?$QList@VQRectF@@@@@Z
       1610  649 00274E10 ?checkBox@QMessageBox@@QEBAPEAVQCheckBox@@XZ
       1611  64A 0003D500 ?checkLayout@QLayoutPrivate@@QEBA_NPEAVQLayout@@@Z
       1612  64B 00176C80 ?checkOverflow@QLCDNumber@@QEBA_NH@Z
       1613  64C 00176CD0 ?checkOverflow@QLCDNumber@@QEBA_NN@Z
       1614  64D 000502B0 ?checkRestoredGeometry@QWidgetPrivate@@SAXAEBVQRect@@PEAV2@H@Z
       1615  64E 0012F050 ?checkState@QCheckBox@@QEBA?AW4CheckState@Qt@@XZ
       1616  64F 002FE2C0 ?checkState@QListWidgetItem@@QEBA?AW4CheckState@Qt@@XZ
       1617  650 002FE2C0 ?checkState@QTableWidgetItem@@QEBA?AW4CheckState@Qt@@XZ
       1618  651 0033BD30 ?checkState@QTreeWidgetItem@@QEBA?AW4CheckState@Qt@@H@Z
       1619  652 0012F080 ?checkStateChanged@QCheckBox@@QEAAXW4CheckState@Qt@@@Z
       1620  653 00009A60 ?checkStateSet@QAbstractButton@@MEAAXXZ
       1621  654 0012F0C0 ?checkStateSet@QCheckBox@@MEAAXXZ
       1622  655 002237F0 ?checkStateSet@QToolButton@@MEAAXXZ
       1623  656 0003D600 ?checkWidget@QLayoutPrivate@@QEBA_NPEAVQWidget@@@Z
       1624  657 00122C50 ?checkedButton@QButtonGroup@@QEBAPEAVQAbstractButton@@XZ
       1625  658 00122C80 ?checkedId@QButtonGroup@@QEBAHXZ
       1626  659 00291DE0 ?child@QAccessibleWidget@@UEBAPEAVQAccessibleInterface@@H@Z
       1627  65A 0033BE60 ?child@QTreeWidgetItem@@QEBAPEAV1@H@Z
       1628  65B 000503D0 ?childAt@QWidget@@QEBAPEAV1@AEBVQPoint@@@Z
       1629  65C 00050420 ?childAt@QWidget@@QEBAPEAV1@AEBVQPointF@@@Z
       1630  65D 00001680 ?childAt@QWidget@@QEBAPEAV1@HH@Z
       1631  65E 00050470 ?childAtRecursiveHelper@QWidgetPrivate@@QEBAPEAVQWidget@@AEBVQPointF@@_N@Z
       1632  65F 000506D0 ?childAt_helper@QWidgetPrivate@@QEBAPEAVQWidget@@AEBVQPointF@@_N@Z
       1633  660 00291E80 ?childCount@QAccessibleWidget@@UEBAHXZ
       1634  661 0033BED0 ?childCount@QTreeWidgetItem@@QEBAHXZ
       1635  662 0016D3F0 ?childEvent@QGroupBox@@MEAAXPEAVQChildEvent@@@Z
       1636  663 0003D800 ?childEvent@QLayout@@MEAAXPEAVQChildEvent@@@Z
       1637  664 001A2A90 ?childEvent@QMdiArea@@MEAAXPEAVQChildEvent@@@Z
       1638  665 001AD4E0 ?childEvent@QMdiSubWindow@@MEAAXPEAVQChildEvent@@@Z
       1639  666 001E9BA0 ?childEvent@QSplitter@@MEAAXPEAVQChildEvent@@@Z
       1640  667 0033BEE0 ?childIndicatorPolicy@QTreeWidgetItem@@QEBA?AW4ChildIndicatorPolicy@1@XZ
       1641  668 00365920 ?childItems@QGraphicsItem@@QEBA?AV?$QList@PEAVQGraphicsItem@@@@XZ
       1642  669 00365980 ?childrenBoundingRect@QGraphicsItem@@QEBA?AVQRectF@@XZ
       1643  66A 00365A10 ?childrenBoundingRectHelper@QGraphicsItemPrivate@@QEAAXPEAVQTransform@@PEAVQRectF@@PEAVQGraphicsItem@@@Z
       1644  66B 00365D20 ?childrenChanged@QGraphicsObject@@QEAAXXZ
       1645  66C 0033BEF0 ?childrenCheckState@QTreeWidgetItem@@AEBA?AVQVariant@@H@Z
       1646  66D 0002A400 ?childrenClippedToShape@QGraphicsItemPrivate@@QEBA_NXZ
       1647  66E 001E9E50 ?childrenCollapsible@QSplitter@@QEBA_NXZ
       1648  66F 0002A420 ?childrenCombineOpacity@QGraphicsItemPrivate@@QEBA_NXZ
       1649  670 00050730 ?childrenRect@QWidget@@QEBA?AVQRect@@XZ
       1650  671 000507F0 ?childrenRegion@QWidget@@QEBA?AVQRegion@@XZ
       1651  672 003E21A0 ?cleanIcon@QUndoView@@QEBA?AVQIcon@@XZ
       1652  673 001E5C70 ?cleanText@QDoubleSpinBox@@QEBA?AVQString@@XZ
       1653  674 001E5C70 ?cleanText@QSpinBox@@QEBA?AVQString@@XZ
       1654  675 000E6220 ?cleanup@QColormap@@SAXXZ
       1655  676 00009A60 ?cleanupMultitouch@QApplicationPrivate@@QEAAXXZ
       1656  677 00009A60 ?cleanupMultitouch_sys@QApplicationPrivate@@QEAAXXZ
       1657  678 00280710 ?cleanupPage@QWizard@@MEAAXH@Z
       1658  679 00280780 ?cleanupPage@QWizardPage@@UEAAXXZ
       1659  67A 001E02B0 ?clear@QAbstractSpinBox@@UEAAXXZ
       1660  67B 00133370 ?clear@QComboBox@@QEAAXXZ
       1661  67C 00145CA0 ?clear@QDateTimeEdit@@UEAAXXZ
       1662  67D 001D5F60 ?clear@QDialogButtonBox@@QEAAXXZ
       1663  67E 003C7430 ?clear@QGraphicsItemAnimation@@QEAAXXZ
       1664  67F 0038EE40 ?clear@QGraphicsScene@@QEAAXXZ
       1665  680 0016FE60 ?clear@QKeySequenceEdit@@QEAAXXZ
       1666  681 001720A0 ?clear@QLabel@@QEAAXXZ
       1667  682 0017AB70 ?clear@QLineEdit@@QEAAXXZ
       1668  683 002FE500 ?clear@QListWidget@@QEAAXXZ
       1669  684 001BC800 ?clear@QMenu@@QEAAXXZ
       1670  685 001CA080 ?clear@QMenuBar@@QEAAXXZ
       1671  686 001FDCC0 ?clear@QPlainTextEdit@@QEAAXXZ
       1672  687 002105D0 ?clear@QTabWidget@@QEAAXXZ
       1673  688 00318530 ?clear@QTableWidget@@QEAAXXZ
       1674  689 00206810 ?clear@QTextEdit@@QEAAXXZ
       1675  68A 00213C30 ?clear@QToolBar@@QEAAXXZ
       1676  68B 0033C3C0 ?clear@QTreeWidget@@QEAAXXZ
       1677  68C 001842C0 ?clear@QWidgetLineControl@@QEAAXXZ
       1678  68D 00229600 ?clear@QWidgetTextControl@@QEAAXXZ
       1679  68E 003234E0 ?clearConnections@QTreeViewPrivate@@QEAAXXZ
       1680  68F 00318580 ?clearContents@QTableWidget@@QEAAXXZ
       1681  690 001334A0 ?clearEditText@QComboBox@@QEAAXXZ
       1682  691 00365D40 ?clearFocus@QGraphicsItem@@QEAAXXZ
       1683  692 0038EFA0 ?clearFocus@QGraphicsScene@@QEAAXXZ
       1684  693 00050AD0 ?clearFocus@QWidget@@QEAAXXZ
       1685  694 00365D50 ?clearFocusHelper@QGraphicsItemPrivate@@QEAAX_N0@Z
       1686  695 0020CF60 ?clearHistory@QTextBrowser@@QEAAXXZ
       1687  696 002E6140 ?clearMapping@QDataWidgetMapper@@QEAAXXZ
       1688  697 00050E30 ?clearMask@QWidget@@QEAAXXZ
       1689  698 00126BE0 ?clearMaximumDate@QCalendarWidget@@QEAAXXZ
       1690  699 00145E40 ?clearMaximumDate@QDateTimeEdit@@QEAAXXZ
       1691  69A 00145EE0 ?clearMaximumDateTime@QDateTimeEdit@@QEAAXXZ
       1692  69B 00145F30 ?clearMaximumTime@QDateTimeEdit@@QEAAXXZ
       1693  69C 001E8720 ?clearMessage@QSplashScreen@@QEAAXXZ
       1694  69D 001EF5D0 ?clearMessage@QStatusBar@@QEAAXXZ
       1695  69E 00126C20 ?clearMinimumDate@QCalendarWidget@@QEAAXXZ
       1696  69F 00145FE0 ?clearMinimumDate@QDateTimeEdit@@QEAAXXZ
       1697  6A0 001460A0 ?clearMinimumDateTime@QDateTimeEdit@@QEAAXXZ
       1698  6A1 001460F0 ?clearMinimumTime@QDateTimeEdit@@QEAAXXZ
       1699  6A2 002EC280 ?clearPropertyFlags@QListView@@QEAAXXZ
       1700  6A3 003B11E0 ?clearRubberBand@QGraphicsViewPrivate@@QEAAXXZ
       1701  6A4 002ADD40 ?clearSelection@QAbstractItemView@@QEAAXXZ
       1702  6A5 0038EFE0 ?clearSelection@QGraphicsScene@@QEAAXXZ
       1703  6A6 00307BF0 ?clearSpans@QTableView@@QEAAXXZ
       1704  6A7 00184310 ?clearString@QWidgetLineControl@@AEBA?AVQString@@HH@Z
       1705  6A8 00365F60 ?clearSubFocus@QGraphicsItemPrivate@@QEAAXPEAVQGraphicsItem@@0@Z
       1706  6A9 00133550 ?clearUndo@QWidgetLineControl@@QEAAXXZ
       1707  6AA 0011D590 ?click@QAbstractButton@@QEAAXXZ
       1708  6AB 0011D780 ?clicked@QAbstractButton@@QEAAX_N@Z
       1709  6AC 002ADD90 ?clicked@QAbstractItemView@@QEAAXAEBVQModelIndex@@@Z
       1710  6AD 00126C90 ?clicked@QCalendarWidget@@QEAAXVQDate@@@Z
       1711  6AE 001D60B0 ?clicked@QDialogButtonBox@@QEAAXPEAVQAbstractButton@@@Z
       1712  6AF 0016D5F0 ?clicked@QGroupBox@@QEAAX_N@Z
       1713  6B0 00274E20 ?clickedButton@QMessageBox@@QEBAPEAVQAbstractButton@@XZ
       1714  6B1 003660E0 ?clipPath@QGraphicsItem@@QEBA?AVQPainterPath@@XZ
       1715  6B2 00050E80 ?clipRect@QWidgetPrivate@@QEBA?AVQRect@@XZ
       1716  6B3 000511B0 ?clipRegion@QWidgetPrivate@@QEBA?AVQRegion@@XZ
       1717  6B4 00051670 ?clipToEffectiveMask@QWidgetPrivate@@QEBAXAEAVQRegion@@@Z
       1718  6B5 002FE640 ?clone@QListWidgetItem@@UEBAPEAV1@XZ
       1719  6B6 003187E0 ?clone@QTableWidgetItem@@UEBAPEAV1@XZ
       1720  6B7 0033C5E0 ?clone@QTreeWidgetItem@@UEBAPEAV1@XZ
       1721  6B8 00242890 ?close@QDialogPrivate@@QEAAXH@Z
       1722  6B9 003BDB90 ?close@QGraphicsWidget@@QEAA_NXZ
       1723  6BA 000517A0 ?close@QWidget@@QEAA_NXZ
       1724  6BB 00051810 ?close@QWidgetPrivate@@QEAA_NXZ
       1725  6BC 001A2C90 ?closeActiveSubWindow@QMdiArea@@QEAAXXZ
       1726  6BD 001A2CE0 ?closeAllSubWindows@QMdiArea@@QEAAXXZ
       1727  6BE 0000A2D0 ?closeAllWindows@QApplication@@SAXXZ
       1728  6BF 002A8A50 ?closeEditor@QAbstractItemDelegate@@QEAAXPEAVQWidget@@W4EndEditHint@1@@Z
       1729  6C0 002ADDC0 ?closeEditor@QAbstractItemView@@MEAAXPEAVQWidget@@W4EndEditHint@QAbstractItemDelegate@@@Z
       1730  6C1 001E0430 ?closeEvent@QAbstractSpinBox@@MEAAXPEAVQCloseEvent@@@Z
       1731  6C2 00242960 ?closeEvent@QDialog@@MEAAXPEAVQCloseEvent@@@Z
       1732  6C3 00162170 ?closeEvent@QDockWidget@@MEAAXPEAVQCloseEvent@@@Z
       1733  6C4 00051870 ?closeEvent@QGraphicsWidget@@MEAAXPEAVQCloseEvent@@@Z
       1734  6C5 001AD520 ?closeEvent@QMdiSubWindow@@MEAAXPEAVQCloseEvent@@@Z
       1735  6C6 00274E30 ?closeEvent@QMessageBox@@MEAAXPEAVQCloseEvent@@@Z
       1736  6C7 0027A390 ?closeEvent@QProgressDialog@@MEAAXPEAVQCloseEvent@@@Z
       1737  6C8 00051870 ?closeEvent@QWidget@@MEAAXPEAVQCloseEvent@@@Z
       1738  6C9 002AE220 ?closePersistentEditor@QAbstractItemView@@QEAAXAEBVQModelIndex@@@Z
       1739  6CA 002FE6C0 ?closePersistentEditor@QListWidget@@QEAAXPEAVQListWidgetItem@@@Z
       1740  6CB 00318860 ?closePersistentEditor@QTableWidget@@QEAAXPEAVQTableWidgetItem@@@Z
       1741  6CC 0033C9B0 ?closePersistentEditor@QTreeWidget@@QEAAXPEAVQTreeWidgetItem@@H@Z
       1742  6CD 0000A320 ?closePopup@QApplicationPrivate@@QEAAXPEAVQWidget@@@Z
       1743  6CE 001F2030 ?closeTab@QTabBarPrivate@@QEAAXXZ
       1744  6CF 0003D850 ?closestAcceptableSize@QLayout@@SA?AVQSize@@PEBVQWidget@@AEBV2@@Z
       1745  6D0 001E9E60 ?closestLegalPosition@QSplitter@@IEAAHHH@Z
       1746  6D1 001E9F30 ?closestLegalPosition@QSplitterHandle@@IEAAHH@Z
       1747  6D2 00051880 ?closestParentWidgetWithWindowHandle@QWidgetPrivate@@QEBAPEAVQWidget@@XZ
       1748  6D3 00323570 ?collapse@QTreeView@@QEAAXAEBVQModelIndex@@@Z
       1749  6D4 00323760 ?collapse@QTreeViewPrivate@@QEAAXH_N@Z
       1750  6D5 00323BC0 ?collapseAll@QTreeView@@QEAAXXZ
       1751  6D6 0033CA10 ?collapseItem@QTreeWidget@@QEAAXPEBVQTreeWidgetItem@@@Z
       1752  6D7 00323E70 ?collapsed@QTreeView@@QEAAXAEBVQModelIndex@@@Z
       1753  6D8 00366340 ?collidesWithItem@QGraphicsItem@@UEBA_NPEBV1@W4ItemSelectionMode@Qt@@@Z
       1754  6D9 003665C0 ?collidesWithPath@QGraphicsItem@@UEBA_NAEBVQPainterPath@@W4ItemSelectionMode@Qt@@@Z
       1755  6DA 00366890 ?collidingItems@QGraphicsItem@@QEBA?AV?$QList@PEAVQGraphicsItem@@@@W4ItemSelectionMode@Qt@@@Z
       1756  6DB 0038F400 ?collidingItems@QGraphicsScene@@QEBA?AV?$QList@PEAVQGraphicsItem@@@@PEBVQGraphicsItem@@W4ItemSelectionMode@Qt@@@Z
       1757  6DC 000F0880 ?color@QGraphicsColorizeEffect@@QEBA?AVQColor@@XZ
       1758  6DD 000F08B0 ?color@QGraphicsDropShadowEffect@@QEBA?AVQColor@@XZ
       1759  6DE 00020C20 ?color@QPixmapColorizeFilter@@QEBA?AVQColor@@XZ
       1760  6DF 000F3780 ?color@QPixmapDropShadowFilter@@QEBA?AVQColor@@XZ
       1761  6E0 000E6250 ?colorAt@QColormap@@QEBA?BVQColor@@I@Z
       1762  6E1 00042E20 ?colorBufferFormat@QRhiWidget@@QEBA?AW4TextureFormat@1@XZ
       1763  6E2 000026C0 ?colorBufferFormatChanged@QRhiWidget@@QEAAXW4TextureFormat@1@@Z
       1764  6E3 000F08E0 ?colorChanged@QGraphicsColorizeEffect@@QEAAXAEBVQColor@@@Z
       1765  6E4 000F0910 ?colorChanged@QGraphicsDropShadowEffect@@QEAAXAEBVQColor@@@Z
       1766  6E5 0023A4D0 ?colorSelected@QColorDialog@@QEAAXAEBVQColor@@@Z
       1767  6E6 00042E30 ?colorTexture@QRhiWidget@@IEBAPEAVQRhiTexture@@XZ
       1768  6E7 000E6310 ?colormap@QColormap@@QEBA?BV?$QList@VQColor@@@@XZ
       1769  6E8 003188C0 ?column@QTableWidget@@QEBAHPEBVQTableWidgetItem@@@Z
       1770  6E9 00318900 ?column@QTableWidgetItem@@QEBAHXZ
       1771  6EA 0035E230 ?columnAlignment@QGraphicsGridLayout@@QEBA?AV?$QFlags@W4AlignmentFlag@Qt@@@@H@Z
       1772  6EB 00307D50 ?columnAt@QTableView@@QEBAHH@Z
       1773  6EC 00323EA0 ?columnAt@QTreeView@@QEBAHH@Z
       1774  6ED 00323EB0 ?columnAt@QTreeViewPrivate@@QEBAHH@Z
       1775  6EE 0035E260 ?columnCount@QGraphicsGridLayout@@QEBAHXZ
       1776  6EF 00038C00 ?columnCount@QGridLayout@@QEBAHXZ
       1777  6F0 001BC970 ?columnCount@QMenu@@IEBAHXZ
       1778  6F1 00318970 ?columnCount@QTableWidget@@QEBAHXZ
       1779  6F2 00318970 ?columnCount@QTreeWidget@@QEBAHXZ
       1780  6F3 0033CAD0 ?columnCount@QTreeWidgetItem@@QEBAHXZ
       1781  6F4 00307D60 ?columnCountChanged@QTableView@@IEAAXHH@Z
       1782  6F5 00323EC0 ?columnCountChanged@QTreeView@@IEAAXHH@Z
       1783  6F6 0035E290 ?columnMaximumWidth@QGraphicsGridLayout@@QEBANH@Z
       1784  6F7 0035E2B0 ?columnMinimumWidth@QGraphicsGridLayout@@QEBANH@Z
       1785  6F8 00038C10 ?columnMinimumWidth@QGridLayout@@QEBAHH@Z
       1786  6F9 00307DF0 ?columnMoved@QTableView@@IEAAXHHH@Z
       1787  6FA 00323F10 ?columnMoved@QTreeView@@IEAAXXZ
       1788  6FB 0035E2D0 ?columnPreferredWidth@QGraphicsGridLayout@@QEBANH@Z
       1789  6FC 00323F40 ?columnRanges@QTreeViewPrivate@@QEBA?AV?$QList@U?$pair@HH@std@@@@AEBVQModelIndex@@0@Z
       1790  6FD 00307F20 ?columnResized@QTableView@@IEAAXHHH@Z
       1791  6FE 00324180 ?columnResized@QTreeView@@IEAAXHHH@Z
       1792  6FF 0035E2F0 ?columnSpacing@QGraphicsGridLayout@@QEBANH@Z
       1793  700 00307FB0 ?columnSpan@QTableView@@QEBAHHH@Z
       1794  701 00038C30 ?columnStretch@QGridLayout@@QEBAHH@Z
       1795  702 0035E310 ?columnStretchFactor@QGraphicsGridLayout@@QEBAHH@Z
       1796  703 00308130 ?columnViewportPosition@QTableView@@QEBAHH@Z
       1797  704 00324210 ?columnViewportPosition@QTreeView@@QEBAHH@Z
       1798  705 00308140 ?columnWidth@QTableView@@QEBAHH@Z
       1799  706 00324220 ?columnWidth@QTreeView@@QEBAHH@Z
       1800  707 002DFE30 ?columnWidths@QColumnView@@QEBA?AV?$QList@H@@XZ
       1801  708 000F37A0 ?columns@QPixmapConvolutionFilter@@AEBAHXZ
       1802  709 00324230 ?columnsAboutToBeRemoved@QTreeViewPrivate@@UEAAXAEBVQModelIndex@@HH@Z
       1803  70A 00324290 ?columnsRemoved@QTreeViewPrivate@@UEAAXAEBVQModelIndex@@HH@Z
       1804  70B 0002B790 ?combineOpacityFromParent@QGraphicsItemPrivate@@QEBANN@Z
       1805  70C 003668E0 ?combineTransformFromParent@QGraphicsItemPrivate@@QEBAXPEAVQTransform@@PEBV2@@Z
       1806  70D 003669A0 ?combineTransformToParent@QGraphicsItemPrivate@@QEBAXPEAVQTransform@@PEBV2@@Z
       1807  70E 000A4100 ?combinedLayoutSpacing@QStyle@@QEBAHV?$QFlags@W4ControlType@QSizePolicy@@@@0W4Orientation@Qt@@PEAVQStyleOption@@PEAVQWidget@@@Z
       1808  70F 0026EBC0 ?comboBoxItems@QInputDialog@@QEBA?AV?$QList@VQString@@@@XZ
       1809  710 0009ADB0 ?comboBoxSizeFromContents@QPixmapStyle@@IEBA?AVQSize@@PEBVQStyleOption@@AEBV2@PEBVQWidget@@@Z
       1810  711 0009AFE0 ?comboBoxSubControlRect@QPixmapStyle@@IEBA?AVQRect@@PEBVQStyleOptionComplex@@W4SubControl@QStyle@@PEBVQWidget@@@Z
       1811  712 00133580 ?comboStyleOption@QComboBoxPrivateContainer@@IEBA?AVQStyleOptionComboBox@@XZ
       1812  713 00048410 ?commit@QTouchEventWidgetSequence@QTest@@UEAA_N_N@Z
       1813  714 002A8AB0 ?commitData@QAbstractItemDelegate@@QEAAXPEAVQWidget@@@Z
       1814  715 002AEEA0 ?commitData@QAbstractItemView@@MEAAXPEAVQWidget@@@Z
       1815  716 001843C0 ?commitPreedit@QWidgetLineControl@@QEAAXXZ
       1816  717 00366AA0 ?commonAncestorItem@QGraphicsItem@@QEBAPEAV1@PEBV1@@Z
       1817  718 003CD8C0 ?complete@QCompleter@@QEAAXAEBVQRect@@@Z
       1818  719 00184490 ?complete@QWidgetLineControl@@QEAAXH@Z
       1819  71A 002809D0 ?completeChanged@QWizardPage@@QEAAXXZ
       1820  71B 001335E0 ?completer@QComboBox@@QEBAPEAVQCompleter@@XZ
       1821  71C 0017ABA0 ?completer@QLineEdit@@QEBAPEAVQCompleter@@XZ
       1822  71D 00133600 ?completer@QWidgetLineControl@@QEBAPEAVQCompleter@@XZ
       1823  71E 0001BB90 ?completionColumn@QCompleter@@QEBAHXZ
       1824  71F 003CDAC0 ?completionCount@QCompleter@@QEBAHXZ
       1825  720 003CDB60 ?completionMode@QCompleter@@QEBA?AW4CompletionMode@1@XZ
       1826  721 00372BF0 ?completionModel@QCompleter@@QEBAPEAVQAbstractItemModel@@XZ
       1827  722 003CDB70 ?completionPrefix@QCompleter@@QEBA?AVQString@@XZ
       1828  723 001FE2D0 ?completionRole@QCompleter@@QEBAHXZ
       1829  724 00133880 ?composeMode@QWidgetLineControl@@QEBA_NXZ
       1830  725 0000A600 ?compressEvent@QApplication@@MEAA_NPEAVQEvent@@PEAVQObject@@PEAVQPostEventList@@@Z
       1831  726 0007CC50 ?containedWindow@QWindowContainer@@QEBAPEAVQWindow@@XZ
       1832  727 00366E40 ?contains@QGraphicsEllipseItem@@UEBA_NAEBVQPointF@@@Z
       1833  728 00366E40 ?contains@QGraphicsItem@@UEBA_NAEBVQPointF@@@Z
       1834  729 00366E40 ?contains@QGraphicsLineItem@@UEBA_NAEBVQPointF@@@Z
       1835  72A 00366E40 ?contains@QGraphicsPathItem@@UEBA_NAEBVQPointF@@@Z
       1836  72B 00366E40 ?contains@QGraphicsPixmapItem@@UEBA_NAEBVQPointF@@@Z
       1837  72C 00366E40 ?contains@QGraphicsPolygonItem@@UEBA_NAEBVQPointF@@@Z
       1838  72D 00366E40 ?contains@QGraphicsRectItem@@UEBA_NAEBVQPointF@@@Z
       1839  72E 00366ED0 ?contains@QGraphicsSimpleTextItem@@UEBA_NAEBVQPointF@@@Z
       1840  72F 00366EF0 ?contains@QGraphicsTextItem@@UEBA_NAEBVQPointF@@@Z
       1841  730 001FDCF0 ?contentOffset@QPlainTextEdit@@IEBA?AVQPointF@@XZ
       1842  731 0003DA80 ?contentsMargins@QLayout@@QEBA?AVQMargins@@XZ
       1843  732 000518D0 ?contentsMargins@QWidget@@QEBA?AVQMargins@@XZ
       1844  733 0037CF50 ?contentsRect@QGraphicsLayoutItem@@QEBA?AVQRectF@@XZ
       1845  734 0003DC20 ?contentsRect@QLayout@@QEBA?AVQRect@@XZ
       1846  735 000519A0 ?contentsRect@QWidget@@QEBA?AVQRect@@XZ
       1847  736 002EC520 ?contentsSize@QListView@@IEBA?AVQSize@@XZ
       1848  737 000F59B0 ?contextMatcher@QtWidgetsActionPrivate@@UEBAP6A_NPEAVQObject@@W4ShortcutContext@Qt@@@ZXZ
       1849  738 000E6E70 ?contextMenu@QSystemTrayIcon@@QEBAPEAVQMenu@@XZ
       1850  739 00051AA0 ?contextMenuEvent@QAbstractScrollArea@@MEAAXPEAVQContextMenuEvent@@@Z
       1851  73A 001E04F0 ?contextMenuEvent@QAbstractSpinBox@@MEAAXPEAVQContextMenuEvent@@@Z
       1852  73B 001340E0 ?contextMenuEvent@QComboBox@@MEAAXPEAVQContextMenuEvent@@@Z
       1853  73C 00242A20 ?contextMenuEvent@QDialog@@MEAAXPEAVQContextMenuEvent@@@Z
       1854  73D 00051AA0 ?contextMenuEvent@QGraphicsItem@@MEAAXPEAVQGraphicsSceneContextMenuEvent@@@Z
       1855  73E 0037FF70 ?contextMenuEvent@QGraphicsProxyWidget@@MEAAXPEAVQGraphicsSceneContextMenuEvent@@@Z
       1856  73F 0038F720 ?contextMenuEvent@QGraphicsScene@@MEAAXPEAVQGraphicsSceneContextMenuEvent@@@Z
       1857  740 00366F00 ?contextMenuEvent@QGraphicsTextItem@@MEAAXPEAVQGraphicsSceneContextMenuEvent@@@Z
       1858  741 003B1360 ?contextMenuEvent@QGraphicsView@@MEAAXPEAVQContextMenuEvent@@@Z
       1859  742 001722E0 ?contextMenuEvent@QLabel@@MEAAXPEAVQContextMenuEvent@@@Z
       1860  743 0017ABD0 ?contextMenuEvent@QLineEdit@@MEAAXPEAVQContextMenuEvent@@@Z
       1861  744 0018D890 ?contextMenuEvent@QMainWindow@@MEAAXPEAVQContextMenuEvent@@@Z
       1862  745 001AD610 ?contextMenuEvent@QMdiSubWindow@@MEAAXPEAVQContextMenuEvent@@@Z
       1863  746 001FDDA0 ?contextMenuEvent@QPlainTextEdit@@MEAAXPEAVQContextMenuEvent@@@Z
       1864  747 001DA1B0 ?contextMenuEvent@QScrollBar@@MEAAXPEAVQContextMenuEvent@@@Z
       1865  748 00206820 ?contextMenuEvent@QTextEdit@@MEAAXPEAVQContextMenuEvent@@@Z
       1866  749 00051AA0 ?contextMenuEvent@QWidget@@MEAAXPEAVQContextMenuEvent@@@Z
       1867  74A 00051AB0 ?contextMenuPolicy@QWidget@@QEBA?AW4ContextMenuPolicy@Qt@@XZ
       1868  74B 00044DD0 ?controlType@QSizePolicy@@QEBA?AW4ControlType@1@XZ
       1869  74C 0003DDD0 ?controlTypes@QLayout@@UEBA?AV?$QFlags@W4ControlType@QSizePolicy@@@@XZ
       1870  74D 00041270 ?controlTypes@QLayoutItem@@UEBA?AV?$QFlags@W4ControlType@QSizePolicy@@@@XZ
       1871  74E 00041280 ?controlTypes@QWidgetItem@@UEBA?AV?$QFlags@W4ControlType@QSizePolicy@@@@XZ
       1872  74F 000F4280 ?convolutionKernel@QPixmapConvolutionFilter@@AEBAPEBNXZ
       1873  750 003242F0 ?coordinateForItem@QTreeViewPrivate@@QEBAHH@Z
       1874  751 0017AC20 ?copy@QLineEdit@@QEBAXXZ
       1875  752 001FDDB0 ?copy@QPlainTextEdit@@QEAAXXZ
       1876  753 002068F0 ?copy@QTextEdit@@QEAAXXZ
       1877  754 00184820 ?copy@QWidgetLineControl@@QEBAXW4Mode@QClipboard@@@Z
       1878  755 002299F0 ?copy@QWidgetTextControl@@QEAAXXZ
       1879  756 001FDDC0 ?copyAvailable@QPlainTextEdit@@QEAAX_N@Z
       1880  757 00206900 ?copyAvailable@QTextEdit@@QEAAX_N@Z
       1881  758 00229A50 ?copyAvailable@QWidgetTextControl@@QEAAX_N@Z
       1882  759 0009B3A0 ?copyDescriptor@QPixmapStyle@@QEAAXW4ControlDescriptor@1@0@Z
       1883  75A 0009B580 ?copyPixmap@QPixmapStyle@@QEAAXW4ControlPixmap@1@0@Z
       1884  75B 0018DA10 ?corner@QMainWindow@@QEBA?AW4DockWidgetArea@Qt@@W4Corner@3@@Z
       1885  75C 000E84C0 ?cornerWidget@QAbstractScrollArea@@QEBAPEAVQWidget@@XZ
       1886  75D 001CA200 ?cornerWidget@QMenuBar@@QEBAPEAVQWidget@@W4Corner@Qt@@@Z
       1887  75E 002106D0 ?cornerWidget@QTabWidget@@QEBAPEAVQWidget@@W4Corner@Qt@@@Z
       1888  75F 001A2410 ?correctionMode@QAbstractSpinBox@@QEBA?AW4CorrectionMode@1@XZ
       1889  760 0001BB90 ?count@QBoxLayout@@UEBAHXZ
       1890  761 00134150 ?count@QComboBox@@QEBAHXZ
       1891  762 00162200 ?count@QDockWidgetLayout@@UEBAHXZ
       1892  763 000F8410 ?count@QFormLayout@@UEBAHXZ
       1893  764 00038C50 ?count@QGraphicsAnchorLayout@@UEBAHXZ
       1894  765 0035E360 ?count@QGraphicsGridLayout@@UEBAHXZ
       1895  766 0037EB00 ?count@QGraphicsLinearLayout@@UEBAHXZ
       1896  767 00038C50 ?count@QGridLayout@@UEBAHXZ
       1897  768 002C57D0 ?count@QHeaderView@@QEBAHXZ
       1898  769 002FE7D0 ?count@QListWidget@@QEBAHXZ
       1899  76A 000EB3E0 ?count@QSplitter@@QEBAHXZ
       1900  76B 0001BB90 ?count@QStackedLayout@@UEBAHXZ
       1901  76C 001EEC60 ?count@QStackedWidget@@QEBAHXZ
       1902  76D 001F2420 ?count@QTabBar@@QEBAHXZ
       1903  76E 002106F0 ?count@QTabWidget@@QEBAHXZ
       1904  76F 00221360 ?count@QToolBox@@QEBAHXZ
       1905  770 000378F0 ?create@QGestureRecognizer@@UEAAPEAVQGesture@@PEAVQObject@@@Z
       1906  771 000A59A0 ?create@QStyleFactory@@SAPEAVQStyle@@AEBVQString@@@Z
       1907  772 00051AC0 ?create@QWidget@@IEAAX_K_N1@Z
       1908  773 00051F60 ?create@QWidgetPrivate@@QEAAXXZ
       1909  774 001004F0 ?createAction@QWhatsThis@@SAPEAVQAction@@PEAVQObject@@@Z
       1910  775 000F59C0 ?createActionPrivate@QApplicationPrivate@@UEBAPEAVQActionPrivate@@XZ
       1911  776 002E01E0 ?createColumn@QColumnView@@MEAAPEAVQAbstractItemView@@AEBVQModelIndex@@@Z
       1912  777 0024C5B0 ?createDirectory@QFileDialogPrivate@@QEAAXXZ
       1913  778 0001C9E0 ?createEditor@QAbstractItemDelegate@@UEBAPEAVQWidget@@PEAV2@AEBVQStyleOptionViewItem@@AEBVQModelIndex@@@Z
       1914  779 002D54D0 ?createEditor@QItemDelegate@@UEBAPEAVQWidget@@PEAV2@AEBVQStyleOptionViewItem@@AEBVQModelIndex@@@Z
       1915  77A 002DB0B0 ?createEditor@QItemEditorFactory@@UEBAPEAVQWidget@@HPEAV2@@Z
       1916  77B 002DC690 ?createEditor@QStyledItemDelegate@@UEBAPEAVQWidget@@PEAV2@AEBVQStyleOptionViewItem@@AEBVQModelIndex@@@Z
       1917  77C 0000A7A0 ?createEventDispatcher@QApplicationPrivate@@UEAAXXZ
       1918  77D 000527F0 ?createExtra@QWidgetPrivate@@QEAAXXZ
       1919  77E 001EA030 ?createHandle@QSplitter@@MEAAPEAVQSplitterHandle@@XZ
       1920  77F 0038F870 ?createItemGroup@QGraphicsScene@@QEAAPEAVQGraphicsItemGroup@@AEBV?$QList@PEAVQGraphicsItem@@@@@Z
       1921  780 0024CC00 ?createMenuActions@QFileDialogPrivate@@QEAAXXZ
       1922  781 001FDE00 ?createMimeDataFromSelection@QPlainTextEdit@@MEBAPEAVQMimeData@@XZ
       1923  782 00206940 ?createMimeDataFromSelection@QTextEdit@@MEBAPEAVQMimeData@@XZ
       1924  783 00229A90 ?createMimeDataFromSelection@QWidgetTextControl@@UEBAPEAVQMimeData@@XZ
       1925  784 0018DA40 ?createPopupMenu@QMainWindow@@UEAAPEAVQMenu@@XZ
       1926  785 00380360 ?createProxyForChildWidget@QGraphicsProxyWidget@@QEAAPEAV1@PEAVQWidget@@@Z
       1927  786 000529B0 ?createRecursively@QWidgetPrivate@@QEAAXXZ
       1928  787 000FE3E0 ?createShortcutPrivate@QApplicationPrivate@@UEBAPEAVQShortcutPrivate@@XZ
       1929  788 0003DE80 ?createSpacerItem@QLayoutPrivate@@SAPEAVQSpacerItem@@PEBVQLayout@@HHW4Policy@QSizePolicy@@1@Z
       1930  789 0017AC40 ?createStandardContextMenu@QLineEdit@@QEAAPEAVQMenu@@XZ
       1931  78A 001FDE60 ?createStandardContextMenu@QPlainTextEdit@@QEAAPEAVQMenu@@AEBVQPoint@@@Z
       1932  78B 001FDE90 ?createStandardContextMenu@QPlainTextEdit@@QEAAPEAVQMenu@@XZ
       1933  78C 002069A0 ?createStandardContextMenu@QTextEdit@@QEAAPEAVQMenu@@AEBVQPoint@@@Z
       1934  78D 002069D0 ?createStandardContextMenu@QTextEdit@@QEAAPEAVQMenu@@XZ
       1935  78E 00229AF0 ?createStandardContextMenu@QWidgetTextControl@@QEAAPEAVQMenu@@AEBVQPointF@@PEAVQWidget@@@Z
       1936  78F 00009A60 ?createSysExtra@QWidgetPrivate@@QEAAXXZ
       1937  790 00052A50 ?createTLExtra@QWidgetPrivate@@QEAAXXZ
       1938  791 00052BF0 ?createTLSysExtra@QWidgetPrivate@@QEAAXXZ
       1939  792 0024D180 ?createToolButtons@QFileDialogPrivate@@QEAAXXZ
       1940  793 0001C9E0 ?createWidget@QWidgetAction@@MEAAPEAVQWidget@@PEAV2@@Z
       1941  794 0003DF10 ?createWidgetItem@QLayoutPrivate@@SAPEAVQWidgetItem@@PEBVQLayout@@PEAVQWidget@@@Z
       1942  795 0024D820 ?createWidgets@QFileDialogPrivate@@QEAAXXZ
       1943  796 00052EF0 ?createWinId@QWidget@@QEAAXXZ
       1944  797 00052F00 ?createWinId@QWidgetPrivate@@QEAAXXZ
       1945  798 0007CC80 ?createWindowContainer@QWidget@@SAPEAV1@PEAVQWindow@@PEAV1@V?$QFlags@W4WindowType@Qt@@@@@Z
       1946  799 000F6010 ?createdWidgets@QWidgetAction@@IEBA?AV?$QList@PEAVQWidget@@@@XZ
       1947  79A 00274EF0 ?critical@QMessageBox@@SA?AW4StandardButton@1@PEAVQWidget@@AEBVQString@@1V?$QFlags@W4StandardButton@QMessageBox@@@@W421@@Z
       1948  79B 00274F20 ?critical@QMessageBox@@SAHPEAVQWidget@@AEBVQString@@1111HH@Z
       1949  79C 00274F70 ?critical@QMessageBox@@SAHPEAVQWidget@@AEBVQString@@1HHH@Z
       1950  79D 0000A7B0 ?critical@QMessageBox@@SAHPEAVQWidget@@AEBVQString@@1W4StandardButton@1@2@Z
       1951  79E 00318ED0 ?currentCellChanged@QTableWidget@@QEAAXHHHH@Z
       1952  79F 002AF1E0 ?currentChanged@QAbstractItemView@@MEAAXAEBVQModelIndex@@0@Z
       1953  7A0 002E0B80 ?currentChanged@QColumnView@@MEAAXAEBVQModelIndex@@0@Z
       1954  7A1 0024F590 ?currentChanged@QFileDialog@@QEAAXAEBVQString@@@Z
       1955  7A2 0024F5C0 ?currentChanged@QFileDialogPrivate@@QEAAXAEBVQModelIndex@@@Z
       1956  7A3 002C5960 ?currentChanged@QHeaderView@@MEAAXAEBVQModelIndex@@0@Z
       1957  7A4 002EC540 ?currentChanged@QListView@@MEAAXAEBVQModelIndex@@0@Z
       1958  7A5 00045790 ?currentChanged@QStackedLayout@@QEAAXH@Z
       1959  7A6 001EEC80 ?currentChanged@QStackedWidget@@QEAAXH@Z
       1960  7A7 001F2430 ?currentChanged@QTabBar@@QEAAXH@Z
       1961  7A8 00210700 ?currentChanged@QTabWidget@@QEAAXH@Z
       1962  7A9 003082D0 ?currentChanged@QTableView@@MEAAXAEBVQModelIndex@@0@Z
       1963  7AA 00221380 ?currentChanged@QToolBox@@QEAAXH@Z
       1964  7AB 00324620 ?currentChanged@QTreeView@@MEAAXAEBVQModelIndex@@0@Z
       1965  7AC 001FDEC0 ?currentCharFormat@QPlainTextEdit@@QEBA?AVQTextCharFormat@@XZ
       1966  7AD 00206A00 ?currentCharFormat@QTextEdit@@QEBA?AVQTextCharFormat@@XZ
       1967  7AE 0022B630 ?currentCharFormat@QWidgetTextControl@@QEBA?AVQTextCharFormat@@XZ
       1968  7AF 00206A30 ?currentCharFormatChanged@QTextEdit@@QEAAXAEBVQTextCharFormat@@@Z
       1969  7B0 0022B660 ?currentCharFormatChanged@QWidgetTextControl@@QEAAXAEBVQTextCharFormat@@@Z
       1970  7B1 0023A560 ?currentColor@QColorDialog@@QEBA?AVQColor@@XZ
       1971  7B2 0023A5C0 ?currentColorChanged@QColorDialog@@QEAAXAEBVQColor@@@Z
       1972  7B3 00318F50 ?currentColumn@QTableWidget@@QEBAHXZ
       1973  7B4 00318F50 ?currentColumn@QTreeWidget@@QEBAHXZ
       1974  7B5 003CDCD0 ?currentCompletion@QCompleter@@QEBA?AVQString@@XZ
       1975  7B6 001341A0 ?currentData@QComboBox@@QEBA?AVQVariant@@H@Z
       1976  7B7 0016A3E0 ?currentFont@QFontComboBox@@QEBA?AVQFont@@XZ
       1977  7B8 002699D0 ?currentFont@QFontDialog@@QEBA?AVQFont@@XZ
       1978  7B9 00206A60 ?currentFont@QTextEdit@@QEBA?AVQFont@@XZ
       1979  7BA 0016A410 ?currentFontChanged@QFontComboBox@@QEAAXAEBVQFont@@@Z
       1980  7BB 00269A50 ?currentFontChanged@QFontDialog@@QEAAXAEBVQFont@@@Z
       1981  7BC 00139E20 ?currentId@QWizard@@QEBAHXZ
       1982  7BD 00280AB0 ?currentIdChanged@QWizard@@QEAAXH@Z
       1983  7BE 00102760 ?currentImage@QBlendStyleAnimation@@QEBA?AVQImage@@XZ
       1984  7BF 002AF670 ?currentIndex@QAbstractItemView@@QEBA?AVQModelIndex@@XZ
       1985  7C0 001341D0 ?currentIndex@QComboBox@@QEBAHXZ
       1986  7C1 003CDDE0 ?currentIndex@QCompleter@@QEBA?AVQModelIndex@@XZ
       1987  7C2 002E6540 ?currentIndex@QDataWidgetMapper@@QEBAHXZ
       1988  7C3 000457D0 ?currentIndex@QStackedLayout@@QEBAHXZ
       1989  7C4 001EECC0 ?currentIndex@QStackedWidget@@QEBAHXZ
       1990  7C5 001F2470 ?currentIndex@QTabBar@@QEBAHXZ
       1991  7C6 00210740 ?currentIndex@QTabWidget@@QEBAHXZ
       1992  7C7 002213C0 ?currentIndex@QToolBox@@QEBAHXZ
       1993  7C8 001341F0 ?currentIndexChanged@QComboBox@@QEAAXH@Z
       1994  7C9 002E6570 ?currentIndexChanged@QDataWidgetMapper@@QEAAXH@Z
       1995  7CA 002FE810 ?currentItem@QListWidget@@QEBAPEAVQListWidgetItem@@XZ
       1996  7CB 00318F70 ?currentItem@QTableWidget@@QEBAPEAVQTableWidgetItem@@XZ
       1997  7CC 0033CAE0 ?currentItem@QTreeWidget@@QEBAPEAVQTreeWidgetItem@@XZ
       1998  7CD 002FE870 ?currentItemChanged@QListWidget@@QEAAXPEAVQListWidgetItem@@0@Z
       1999  7CE 00319000 ?currentItemChanged@QTableWidget@@QEAAXPEAVQTableWidgetItem@@0@Z
       2000  7CF 0033CB40 ?currentItemChanged@QTreeWidget@@QEAAXPEAVQTreeWidgetItem@@0@Z
       2001  7D0 001E6B30 ?currentMessage@QStatusBar@@QEBA?AVQString@@XZ
       2002  7D1 00280AF0 ?currentPage@QWizard@@QEBAPEAVQWizardPage@@XZ
       2003  7D2 00127AC0 ?currentPageChanged@QCalendarWidget@@QEAAXHH@Z
       2004  7D3 003CDEB0 ?currentRow@QCompleter@@QEBAHXZ
       2005  7D4 002FE8D0 ?currentRow@QListWidget@@QEBAHXZ
       2006  7D5 002FE8D0 ?currentRow@QTableWidget@@QEBAHXZ
       2007  7D6 002FE8F0 ?currentRowChanged@QListWidget@@QEAAXH@Z
       2008  7D7 00146420 ?currentSection@QDateTimeEdit@@QEBA?AW4Section@1@XZ
       2009  7D8 00146530 ?currentSectionIndex@QDateTimeEdit@@QEBAHXZ
       2010  7D9 001A30A0 ?currentSubWindow@QMdiArea@@QEBAPEAVQMdiSubWindow@@XZ
       2011  7DA 00134230 ?currentText@QComboBox@@QEBA?AVQString@@XZ
       2012  7DB 00134380 ?currentTextChanged@QComboBox@@QEAAXAEBVQString@@@Z
       2013  7DC 002FE930 ?currentTextChanged@QListWidget@@QEAAXAEBVQString@@@Z
       2014  7DD 0024F6D0 ?currentUrlChanged@QFileDialog@@QEAAXAEBVQUrl@@@Z
       2015  7DE 00102780 ?currentValue@QNumberStyleAnimation@@QEBANXZ
       2016  7DF 0024F700 ?currentView@QFileDialogPrivate@@QEBAPEAVQAbstractItemView@@XZ
       2017  7E0 000457E0 ?currentWidget@QStackedLayout@@QEBAPEAVQWidget@@XZ
       2018  7E1 001EECD0 ?currentWidget@QStackedWidget@@QEBAPEAVQWidget@@XZ
       2019  7E2 00210750 ?currentWidget@QTabWidget@@QEBAPEAVQWidget@@XZ
       2020  7E3 00221440 ?currentWidget@QToolBox@@QEBAPEAVQWidget@@XZ
       2021  7E4 00366F80 ?cursor@QGraphicsItem@@QEBA?AVQCursor@@XZ
       2022  7E5 00053040 ?cursor@QWidget@@QEBA?AVQCursor@@XZ
       2023  7E6 00102A60 ?cursor@QWidgetLineControl@@QEBAHXZ
       2024  7E7 0017C800 ?cursorBackward@QLineEdit@@QEAAX_NH@Z
       2025  7E8 001343B0 ?cursorBlinkStatus@QWidgetLineControl@@QEBA_NXZ
       2026  7E9 0000A7C0 ?cursorFlashTime@QApplication@@SAHXZ
       2027  7EA 001FDEF0 ?cursorForPosition@QPlainTextEdit@@QEBA?AVQTextCursor@@AEBVQPoint@@@Z
       2028  7EB 00206AC0 ?cursorForPosition@QTextEdit@@QEBA?AVQTextCursor@@AEBVQPoint@@@Z
       2029  7EC 0022B740 ?cursorForPosition@QWidgetTextControl@@QEBA?AVQTextCursor@@AEBVQPointF@@@Z
       2030  7ED 0017C810 ?cursorForward@QLineEdit@@QEAAX_NH@Z
       2031  7EE 001343C0 ?cursorForward@QWidgetLineControl@@QEAAX_NH@Z
       2032  7EF 0022B7B0 ?cursorIsFocusIndicator@QWidgetTextControl@@QEBA_NXZ
       2033  7F0 0017C8F0 ?cursorMoveStyle@QLineEdit@@QEBA?AW4CursorMoveStyle@Qt@@XZ
       2034  7F1 00134490 ?cursorMoveStyle@QWidgetLineControl@@QEBA?AW4CursorMoveStyle@Qt@@XZ
       2035  7F2 00128880 ?cursorPosition@QLineEdit@@QEBAHXZ
       2036  7F3 00102A60 ?cursorPosition@QWidgetLineControl@@QEBAHXZ
       2037  7F4 0017C910 ?cursorPositionAt@QLineEdit@@QEAAHAEBVQPoint@@@Z
       2038  7F5 0017C920 ?cursorPositionChanged@QLineEdit@@QEAAXHH@Z
       2039  7F6 001FDFE0 ?cursorPositionChanged@QPlainTextEdit@@QEAAXXZ
       2040  7F7 00206B90 ?cursorPositionChanged@QTextEdit@@QEAAXXZ
       2041  7F8 001848E0 ?cursorPositionChanged@QWidgetLineControl@@QEAAXHH@Z
       2042  7F9 0022BD10 ?cursorPositionChanged@QWidgetTextControl@@QEAAXXZ
       2043  7FA 0017C980 ?cursorRect@QLineEdit@@IEBA?AVQRect@@XZ
       2044  7FB 001FE090 ?cursorRect@QPlainTextEdit@@QEBA?AVQRect@@AEBVQTextCursor@@@Z
       2045  7FC 001FE1C0 ?cursorRect@QPlainTextEdit@@QEBA?AVQRect@@XZ
       2046  7FD 00206C30 ?cursorRect@QTextEdit@@QEBA?AVQRect@@AEBVQTextCursor@@@Z
       2047  7FE 00206D10 ?cursorRect@QTextEdit@@QEBA?AVQRect@@XZ
       2048  7FF 00184940 ?cursorRect@QWidgetLineControl@@QEBA?AVQRect@@XZ
       2049  800 0022BD30 ?cursorRect@QWidgetTextControl@@QEBA?AVQRectF@@AEBVQTextCursor@@@Z
       2050  801 0022BDB0 ?cursorRect@QWidgetTextControl@@QEBA?AVQRectF@@XZ
       2051  802 001344A0 ?cursorToX@QWidgetLineControl@@QEBANH@Z
       2052  803 001344E0 ?cursorToX@QWidgetLineControl@@QEBANXZ
       2053  804 001FE2D0 ?cursorWidth@QPlainTextDocumentLayout@@QEBAHXZ
       2054  805 001FE2E0 ?cursorWidth@QPlainTextEdit@@QEBAHXZ
       2055  806 00206DB0 ?cursorWidth@QTextEdit@@QEBAHXZ
       2056  807 00134530 ?cursorWidth@QWidgetLineControl@@QEBAHXZ
       2057  808 0022BE30 ?cursorWidth@QWidgetTextControl@@QEBAHXZ
       2058  809 0017C9A0 ?cursorWordBackward@QLineEdit@@QEAAX_N@Z
       2059  80A 00134540 ?cursorWordBackward@QWidgetLineControl@@QEAAX_N@Z
       2060  80B 0017C9F0 ?cursorWordForward@QLineEdit@@QEAAX_N@Z
       2061  80C 00134580 ?cursorWordForward@QWidgetLineControl@@QEAAX_N@Z
       2062  80D 00280B50 ?customButtonClicked@QWizard@@QEAAXH@Z
       2063  80E 0023A620 ?customColor@QColorDialog@@SA?AVQColor@@H@Z
       2064  80F 00053130 ?customContextMenuRequested@QWidget@@QEAAXAEBVQPoint@@@Z
       2065  810 0023A650 ?customCount@QColorDialog@@SAHXZ
       2066  811 0017CA40 ?cut@QLineEdit@@QEAAXXZ
       2067  812 001FE2F0 ?cut@QPlainTextEdit@@QEAAXXZ
       2068  813 00206DC0 ?cut@QTextEdit@@QEAAXXZ
       2069  814 0022BEA0 ?cut@QWidgetTextControl@@QEAAXXZ
       2070  815 000016B0 ?d_func@QAbstractButton@@AEAAPEAVQAbstractButtonPrivate@@XZ
       2071  816 000016B0 ?d_func@QAbstractButton@@AEBAPEBVQAbstractButtonPrivate@@XZ
       2072  817 000016B0 ?d_func@QAbstractGraphicsShapeItem@@AEAAPEAVQAbstractGraphicsShapeItemPrivate@@XZ
       2073  818 000016B0 ?d_func@QAbstractGraphicsShapeItem@@AEBAPEBVQAbstractGraphicsShapeItemPrivate@@XZ
       2074  819 000016B0 ?d_func@QAbstractItemDelegate@@AEAAPEAVQAbstractItemDelegatePrivate@@XZ
       2075  81A 000016B0 ?d_func@QAbstractItemDelegate@@AEBAPEBVQAbstractItemDelegatePrivate@@XZ
       2076  81B 000016B0 ?d_func@QAbstractItemView@@AEAAPEAVQAbstractItemViewPrivate@@XZ
       2077  81C 000016B0 ?d_func@QAbstractItemView@@AEBAPEBVQAbstractItemViewPrivate@@XZ
       2078  81D 000016B0 ?d_func@QAbstractScrollArea@@AEAAPEAVQAbstractScrollAreaPrivate@@XZ
       2079  81E 000016B0 ?d_func@QAbstractScrollArea@@AEBAPEBVQAbstractScrollAreaPrivate@@XZ
       2080  81F 000016B0 ?d_func@QAbstractSlider@@AEAAPEAVQAbstractSliderPrivate@@XZ
       2081  820 000016B0 ?d_func@QAbstractSlider@@AEBAPEBVQAbstractSliderPrivate@@XZ
       2082  821 000016B0 ?d_func@QAbstractSpinBox@@AEAAPEAVQAbstractSpinBoxPrivate@@XZ
       2083  822 000016B0 ?d_func@QAbstractSpinBox@@AEBAPEBVQAbstractSpinBoxPrivate@@XZ
       2084  823 000016B0 ?d_func@QApplication@@AEAAPEAVQApplicationPrivate@@XZ
       2085  824 000016B0 ?d_func@QApplication@@AEBAPEBVQApplicationPrivate@@XZ
       2086  825 000016B0 ?d_func@QBoxLayout@@AEAAPEAVQBoxLayoutPrivate@@XZ
       2087  826 000016B0 ?d_func@QBoxLayout@@AEBAPEBVQBoxLayoutPrivate@@XZ
       2088  827 000016B0 ?d_func@QButtonGroup@@AEAAPEAVQButtonGroupPrivate@@XZ
       2089  828 000016B0 ?d_func@QButtonGroup@@AEBAPEBVQButtonGroupPrivate@@XZ
       2090  829 000016B0 ?d_func@QCalendarWidget@@AEAAPEAVQCalendarWidgetPrivate@@XZ
       2091  82A 000016B0 ?d_func@QCalendarWidget@@AEBAPEBVQCalendarWidgetPrivate@@XZ
       2092  82B 000016B0 ?d_func@QCheckBox@@AEAAPEAVQCheckBoxPrivate@@XZ
       2093  82C 000016B0 ?d_func@QCheckBox@@AEBAPEBVQCheckBoxPrivate@@XZ
       2094  82D 000016B0 ?d_func@QColorDialog@@AEAAPEAVQColorDialogPrivate@@XZ
       2095  82E 000016B0 ?d_func@QColorDialog@@AEBAPEBVQColorDialogPrivate@@XZ
       2096  82F 000016B0 ?d_func@QColumnView@@AEAAPEAVQColumnViewPrivate@@XZ
       2097  830 000016B0 ?d_func@QColumnView@@AEBAPEBVQColumnViewPrivate@@XZ
       2098  831 000016B0 ?d_func@QComboBox@@AEAAPEAVQComboBoxPrivate@@XZ
       2099  832 000016B0 ?d_func@QComboBox@@AEBAPEBVQComboBoxPrivate@@XZ
       2100  833 000016B0 ?d_func@QCommandLinkButton@@AEAAPEAVQCommandLinkButtonPrivate@@XZ
       2101  834 000016B0 ?d_func@QCommandLinkButton@@AEBAPEBVQCommandLinkButtonPrivate@@XZ
       2102  835 000016B0 ?d_func@QCommonStyle@@AEAAPEAVQCommonStylePrivate@@XZ
       2103  836 000016B0 ?d_func@QCommonStyle@@AEBAPEBVQCommonStylePrivate@@XZ
       2104  837 000016B0 ?d_func@QCompleter@@AEAAPEAVQCompleterPrivate@@XZ
       2105  838 000016B0 ?d_func@QCompleter@@AEBAPEBVQCompleterPrivate@@XZ
       2106  839 000016B0 ?d_func@QDataWidgetMapper@@AEAAPEAVQDataWidgetMapperPrivate@@XZ
       2107  83A 000016B0 ?d_func@QDataWidgetMapper@@AEBAPEBVQDataWidgetMapperPrivate@@XZ
       2108  83B 000016B0 ?d_func@QDateTimeEdit@@AEAAPEAVQDateTimeEditPrivate@@XZ
       2109  83C 000016B0 ?d_func@QDateTimeEdit@@AEBAPEBVQDateTimeEditPrivate@@XZ
       2110  83D 000016B0 ?d_func@QDial@@AEAAPEAVQDialPrivate@@XZ
       2111  83E 000016B0 ?d_func@QDial@@AEBAPEBVQDialPrivate@@XZ
       2112  83F 000016B0 ?d_func@QDialog@@AEAAPEAVQDialogPrivate@@XZ
       2113  840 000016B0 ?d_func@QDialog@@AEBAPEBVQDialogPrivate@@XZ
       2114  841 000016B0 ?d_func@QDialogButtonBox@@AEAAPEAVQDialogButtonBoxPrivate@@XZ
       2115  842 000016B0 ?d_func@QDialogButtonBox@@AEBAPEBVQDialogButtonBoxPrivate@@XZ
       2116  843 000016B0 ?d_func@QDockWidget@@AEAAPEAVQDockWidgetPrivate@@XZ
       2117  844 000016B0 ?d_func@QDockWidget@@AEBAPEBVQDockWidgetPrivate@@XZ
       2118  845 000016B0 ?d_func@QDoubleSpinBox@@AEAAPEAVQDoubleSpinBoxPrivate@@XZ
       2119  846 000016B0 ?d_func@QDoubleSpinBox@@AEBAPEBVQDoubleSpinBoxPrivate@@XZ
       2120  847 000016B0 ?d_func@QErrorMessage@@AEAAPEAVQErrorMessagePrivate@@XZ
       2121  848 000016B0 ?d_func@QErrorMessage@@AEBAPEBVQErrorMessagePrivate@@XZ
       2122  849 000016B0 ?d_func@QFileDialog@@AEAAPEAVQFileDialogPrivate@@XZ
       2123  84A 000016B0 ?d_func@QFileDialog@@AEBAPEBVQFileDialogPrivate@@XZ
       2124  84B 000016B0 ?d_func@QFileIconProvider@@AEAAPEAVQFileIconProviderPrivate@@XZ
       2125  84C 000016B0 ?d_func@QFileIconProvider@@AEBAPEBVQFileIconProviderPrivate@@XZ
       2126  84D 000016B0 ?d_func@QFlickGesture@@AEAAPEAVQFlickGesturePrivate@@XZ
       2127  84E 000016B0 ?d_func@QFlickGesture@@AEBAPEBVQFlickGesturePrivate@@XZ
       2128  84F 000016B0 ?d_func@QFocusFrame@@AEAAPEAVQFocusFramePrivate@@XZ
       2129  850 000016B0 ?d_func@QFocusFrame@@AEBAPEBVQFocusFramePrivate@@XZ
       2130  851 000016B0 ?d_func@QFontComboBox@@AEAAPEAVQFontComboBoxPrivate@@XZ
       2131  852 000016B0 ?d_func@QFontComboBox@@AEBAPEBVQFontComboBoxPrivate@@XZ
       2132  853 000016B0 ?d_func@QFontDialog@@AEAAPEAVQFontDialogPrivate@@XZ
       2133  854 000016B0 ?d_func@QFontDialog@@AEBAPEBVQFontDialogPrivate@@XZ
       2134  855 000016B0 ?d_func@QFormLayout@@AEAAPEAVQFormLayoutPrivate@@XZ
       2135  856 000016B0 ?d_func@QFormLayout@@AEBAPEBVQFormLayoutPrivate@@XZ
       2136  857 000016B0 ?d_func@QFrame@@AEAAPEAVQFramePrivate@@XZ
       2137  858 000016B0 ?d_func@QFrame@@AEBAPEBVQFramePrivate@@XZ
       2138  859 000016B0 ?d_func@QFusionStyle@@AEAAPEAVQFusionStylePrivate@@XZ
       2139  85A 000016B0 ?d_func@QFusionStyle@@AEBAPEBVQFusionStylePrivate@@XZ
       2140  85B 000016B0 ?d_func@QGesture@@AEAAPEAVQGesturePrivate@@XZ
       2141  85C 000016B0 ?d_func@QGesture@@AEBAPEBVQGesturePrivate@@XZ
       2142  85D 000016B0 ?d_func@QGraphicsAnchor@@AEAAPEAVQGraphicsAnchorPrivate@@XZ
       2143  85E 000016B0 ?d_func@QGraphicsAnchor@@AEBAPEBVQGraphicsAnchorPrivate@@XZ
       2144  85F 000016B0 ?d_func@QGraphicsAnchorLayout@@AEAAPEAVQGraphicsAnchorLayoutPrivate@@XZ
       2145  860 000016B0 ?d_func@QGraphicsAnchorLayout@@AEBAPEBVQGraphicsAnchorLayoutPrivate@@XZ
       2146  861 000016B0 ?d_func@QGraphicsBlurEffect@@AEAAPEAVQGraphicsBlurEffectPrivate@@XZ
       2147  862 000016B0 ?d_func@QGraphicsBlurEffect@@AEBAPEBVQGraphicsBlurEffectPrivate@@XZ
       2148  863 000016B0 ?d_func@QGraphicsColorizeEffect@@AEAAPEAVQGraphicsColorizeEffectPrivate@@XZ
       2149  864 000016B0 ?d_func@QGraphicsColorizeEffect@@AEBAPEBVQGraphicsColorizeEffectPrivate@@XZ
       2150  865 000016B0 ?d_func@QGraphicsDropShadowEffect@@AEAAPEAVQGraphicsDropShadowEffectPrivate@@XZ
       2151  866 000016B0 ?d_func@QGraphicsDropShadowEffect@@AEBAPEBVQGraphicsDropShadowEffectPrivate@@XZ
       2152  867 000016B0 ?d_func@QGraphicsEffect@@AEAAPEAVQGraphicsEffectPrivate@@XZ
       2153  868 000016B0 ?d_func@QGraphicsEffect@@AEBAPEBVQGraphicsEffectPrivate@@XZ
       2154  869 000016B0 ?d_func@QGraphicsEffectSource@@AEAAPEAVQGraphicsEffectSourcePrivate@@XZ
       2155  86A 000016B0 ?d_func@QGraphicsEffectSource@@AEBAPEBVQGraphicsEffectSourcePrivate@@XZ
       2156  86B 000016B0 ?d_func@QGraphicsEllipseItem@@AEAAPEAVQGraphicsEllipseItemPrivate@@XZ
       2157  86C 000016B0 ?d_func@QGraphicsEllipseItem@@AEBAPEBVQGraphicsEllipseItemPrivate@@XZ
       2158  86D 000016B0 ?d_func@QGraphicsGridLayout@@AEAAPEAVQGraphicsGridLayoutPrivate@@XZ
       2159  86E 000016B0 ?d_func@QGraphicsGridLayout@@AEBAPEBVQGraphicsGridLayoutPrivate@@XZ
       2160  86F 000016B0 ?d_func@QGraphicsItem@@AEAAPEAVQGraphicsItemPrivate@@XZ
       2161  870 000016B0 ?d_func@QGraphicsItem@@AEBAPEBVQGraphicsItemPrivate@@XZ
       2162  871 000016B0 ?d_func@QGraphicsItemGroup@@AEAAPEAVQGraphicsItemGroupPrivate@@XZ
       2163  872 000016B0 ?d_func@QGraphicsItemGroup@@AEBAPEBVQGraphicsItemGroupPrivate@@XZ
       2164  873 000016B0 ?d_func@QGraphicsLayout@@AEAAPEAVQGraphicsLayoutPrivate@@XZ
       2165  874 000016B0 ?d_func@QGraphicsLayout@@AEBAPEBVQGraphicsLayoutPrivate@@XZ
       2166  875 000016B0 ?d_func@QGraphicsLayoutItem@@AEAAPEAVQGraphicsLayoutItemPrivate@@XZ
       2167  876 000016B0 ?d_func@QGraphicsLayoutItem@@AEBAPEBVQGraphicsLayoutItemPrivate@@XZ
       2168  877 000016B0 ?d_func@QGraphicsLineItem@@AEAAPEAVQGraphicsLineItemPrivate@@XZ
       2169  878 000016B0 ?d_func@QGraphicsLineItem@@AEBAPEBVQGraphicsLineItemPrivate@@XZ
       2170  879 000016B0 ?d_func@QGraphicsLinearLayout@@AEAAPEAVQGraphicsLinearLayoutPrivate@@XZ
       2171  87A 000016B0 ?d_func@QGraphicsLinearLayout@@AEBAPEBVQGraphicsLinearLayoutPrivate@@XZ
       2172  87B 000016B0 ?d_func@QGraphicsOpacityEffect@@AEAAPEAVQGraphicsOpacityEffectPrivate@@XZ
       2173  87C 000016B0 ?d_func@QGraphicsOpacityEffect@@AEBAPEBVQGraphicsOpacityEffectPrivate@@XZ
       2174  87D 000016B0 ?d_func@QGraphicsPathItem@@AEAAPEAVQGraphicsPathItemPrivate@@XZ
       2175  87E 000016B0 ?d_func@QGraphicsPathItem@@AEBAPEBVQGraphicsPathItemPrivate@@XZ
       2176  87F 000016B0 ?d_func@QGraphicsPixmapItem@@AEAAPEAVQGraphicsPixmapItemPrivate@@XZ
       2177  880 000016B0 ?d_func@QGraphicsPixmapItem@@AEBAPEBVQGraphicsPixmapItemPrivate@@XZ
       2178  881 000016B0 ?d_func@QGraphicsPolygonItem@@AEAAPEAVQGraphicsPolygonItemPrivate@@XZ
       2179  882 000016B0 ?d_func@QGraphicsPolygonItem@@AEBAPEBVQGraphicsPolygonItemPrivate@@XZ
       2180  883 0000A7E0 ?d_func@QGraphicsProxyWidget@@AEAAPEAVQGraphicsProxyWidgetPrivate@@XZ
       2181  884 0000A7E0 ?d_func@QGraphicsProxyWidget@@AEBAPEBVQGraphicsProxyWidgetPrivate@@XZ
       2182  885 000016B0 ?d_func@QGraphicsRectItem@@AEAAPEAVQGraphicsRectItemPrivate@@XZ
       2183  886 000016B0 ?d_func@QGraphicsRectItem@@AEBAPEBVQGraphicsRectItemPrivate@@XZ
       2184  887 000016B0 ?d_func@QGraphicsRotation@@AEAAPEAVQGraphicsRotationPrivate@@XZ
       2185  888 000016B0 ?d_func@QGraphicsRotation@@AEBAPEBVQGraphicsRotationPrivate@@XZ
       2186  889 000016B0 ?d_func@QGraphicsScale@@AEAAPEAVQGraphicsScalePrivate@@XZ
       2187  88A 000016B0 ?d_func@QGraphicsScale@@AEBAPEBVQGraphicsScalePrivate@@XZ
       2188  88B 000016B0 ?d_func@QGraphicsScene@@AEAAPEAVQGraphicsScenePrivate@@XZ
       2189  88C 000016B0 ?d_func@QGraphicsScene@@AEBAPEBVQGraphicsScenePrivate@@XZ
       2190  88D 0002B7D0 ?d_func@QGraphicsSceneContextMenuEvent@@AEAAPEAVQGraphicsSceneContextMenuEventPrivate@@XZ
       2191  88E 0002B7D0 ?d_func@QGraphicsSceneContextMenuEvent@@AEBAPEBVQGraphicsSceneContextMenuEventPrivate@@XZ
       2192  88F 0002B7D0 ?d_func@QGraphicsSceneDragDropEvent@@AEAAPEAVQGraphicsSceneDragDropEventPrivate@@XZ
       2193  890 0002B7D0 ?d_func@QGraphicsSceneDragDropEvent@@AEBAPEBVQGraphicsSceneDragDropEventPrivate@@XZ
       2194  891 0002B7D0 ?d_func@QGraphicsSceneEvent@@IEAAPEAVQGraphicsSceneEventPrivate@@XZ
       2195  892 0002B7D0 ?d_func@QGraphicsSceneEvent@@IEBAPEBVQGraphicsSceneEventPrivate@@XZ
       2196  893 0002B7D0 ?d_func@QGraphicsSceneHelpEvent@@AEAAPEAVQGraphicsSceneHelpEventPrivate@@XZ
       2197  894 0002B7D0 ?d_func@QGraphicsSceneHelpEvent@@AEBAPEBVQGraphicsSceneHelpEventPrivate@@XZ
       2198  895 0002B7D0 ?d_func@QGraphicsSceneHoverEvent@@AEAAPEAVQGraphicsSceneHoverEventPrivate@@XZ
       2199  896 0002B7D0 ?d_func@QGraphicsSceneHoverEvent@@AEBAPEBVQGraphicsSceneHoverEventPrivate@@XZ
       2200  897 0002B7D0 ?d_func@QGraphicsSceneMouseEvent@@AEAAPEAVQGraphicsSceneMouseEventPrivate@@XZ
       2201  898 0002B7D0 ?d_func@QGraphicsSceneMouseEvent@@AEBAPEBVQGraphicsSceneMouseEventPrivate@@XZ
       2202  899 0002B7D0 ?d_func@QGraphicsSceneMoveEvent@@AEAAPEAVQGraphicsSceneMoveEventPrivate@@XZ
       2203  89A 0002B7D0 ?d_func@QGraphicsSceneMoveEvent@@AEBAPEBVQGraphicsSceneMoveEventPrivate@@XZ
       2204  89B 0002B7D0 ?d_func@QGraphicsSceneResizeEvent@@AEAAPEAVQGraphicsSceneResizeEventPrivate@@XZ
       2205  89C 0002B7D0 ?d_func@QGraphicsSceneResizeEvent@@AEBAPEBVQGraphicsSceneResizeEventPrivate@@XZ
       2206  89D 0002B7D0 ?d_func@QGraphicsSceneWheelEvent@@AEAAPEAVQGraphicsSceneWheelEventPrivate@@XZ
       2207  89E 0002B7D0 ?d_func@QGraphicsSceneWheelEvent@@AEBAPEBVQGraphicsSceneWheelEventPrivate@@XZ
       2208  89F 000016B0 ?d_func@QGraphicsSimpleTextItem@@AEAAPEAVQGraphicsSimpleTextItemPrivate@@XZ
       2209  8A0 000016B0 ?d_func@QGraphicsSimpleTextItem@@AEBAPEBVQGraphicsSimpleTextItemPrivate@@XZ
       2210  8A1 000016B0 ?d_func@QGraphicsTransform@@AEAAPEAVQGraphicsTransformPrivate@@XZ
       2211  8A2 000016B0 ?d_func@QGraphicsTransform@@AEBAPEBVQGraphicsTransformPrivate@@XZ
       2212  8A3 000016B0 ?d_func@QGraphicsView@@AEAAPEAVQGraphicsViewPrivate@@XZ
       2213  8A4 000016B0 ?d_func@QGraphicsView@@AEBAPEBVQGraphicsViewPrivate@@XZ
       2214  8A5 0000A7E0 ?d_func@QGraphicsWidget@@AEAAPEAVQGraphicsWidgetPrivate@@XZ
       2215  8A6 0000A7E0 ?d_func@QGraphicsWidget@@AEBAPEBVQGraphicsWidgetPrivate@@XZ
       2216  8A7 000016B0 ?d_func@QGridLayout@@AEAAPEAVQGridLayoutPrivate@@XZ
       2217  8A8 000016B0 ?d_func@QGridLayout@@AEBAPEBVQGridLayoutPrivate@@XZ
       2218  8A9 000016B0 ?d_func@QGroupBox@@AEAAPEAVQGroupBoxPrivate@@XZ
       2219  8AA 000016B0 ?d_func@QGroupBox@@AEBAPEBVQGroupBoxPrivate@@XZ
       2220  8AB 000016B0 ?d_func@QHeaderView@@AEAAPEAVQHeaderViewPrivate@@XZ
       2221  8AC 000016B0 ?d_func@QHeaderView@@AEBAPEBVQHeaderViewPrivate@@XZ
       2222  8AD 000016B0 ?d_func@QInputDialog@@AEAAPEAVQInputDialogPrivate@@XZ
       2223  8AE 000016B0 ?d_func@QInputDialog@@AEBAPEBVQInputDialogPrivate@@XZ
       2224  8AF 000016B0 ?d_func@QItemDelegate@@AEAAPEAVQItemDelegatePrivate@@XZ
       2225  8B0 000016B0 ?d_func@QItemDelegate@@AEBAPEBVQItemDelegatePrivate@@XZ
       2226  8B1 000016B0 ?d_func@QKeySequenceEdit@@AEAAPEAVQKeySequenceEditPrivate@@XZ
       2227  8B2 000016B0 ?d_func@QKeySequenceEdit@@AEBAPEBVQKeySequenceEditPrivate@@XZ
       2228  8B3 000016B0 ?d_func@QLCDNumber@@AEAAPEAVQLCDNumberPrivate@@XZ
       2229  8B4 000016B0 ?d_func@QLCDNumber@@AEBAPEBVQLCDNumberPrivate@@XZ
       2230  8B5 000016B0 ?d_func@QLabel@@AEAAPEAVQLabelPrivate@@XZ
       2231  8B6 000016B0 ?d_func@QLabel@@AEBAPEBVQLabelPrivate@@XZ
       2232  8B7 000016B0 ?d_func@QLayout@@AEAAPEAVQLayoutPrivate@@XZ
       2233  8B8 000016B0 ?d_func@QLayout@@AEBAPEBVQLayoutPrivate@@XZ
       2234  8B9 000016B0 ?d_func@QLineEdit@@AEAAPEAVQLineEditPrivate@@XZ
       2235  8BA 000016B0 ?d_func@QLineEdit@@AEBAPEBVQLineEditPrivate@@XZ
       2236  8BB 000016B0 ?d_func@QListView@@AEAAPEAVQListViewPrivate@@XZ
       2237  8BC 000016B0 ?d_func@QListView@@AEBAPEBVQListViewPrivate@@XZ
       2238  8BD 000016B0 ?d_func@QListWidget@@AEAAPEAVQListWidgetPrivate@@XZ
       2239  8BE 000016B0 ?d_func@QListWidget@@AEBAPEBVQListWidgetPrivate@@XZ
       2240  8BF 000016B0 ?d_func@QMainWindow@@AEAAPEAVQMainWindowPrivate@@XZ
       2241  8C0 000016B0 ?d_func@QMainWindow@@AEBAPEBVQMainWindowPrivate@@XZ
       2242  8C1 000016B0 ?d_func@QMdiArea@@AEAAPEAVQMdiAreaPrivate@@XZ
       2243  8C2 000016B0 ?d_func@QMdiArea@@AEBAPEBVQMdiAreaPrivate@@XZ
       2244  8C3 000016B0 ?d_func@QMdiSubWindow@@AEAAPEAVQMdiSubWindowPrivate@@XZ
       2245  8C4 000016B0 ?d_func@QMdiSubWindow@@AEBAPEBVQMdiSubWindowPrivate@@XZ
       2246  8C5 000016B0 ?d_func@QMenu@@AEAAPEAVQMenuPrivate@@XZ
       2247  8C6 000016B0 ?d_func@QMenu@@AEBAPEBVQMenuPrivate@@XZ
       2248  8C7 000016B0 ?d_func@QMenuBar@@AEAAPEAVQMenuBarPrivate@@XZ
       2249  8C8 000016B0 ?d_func@QMenuBar@@AEBAPEBVQMenuBarPrivate@@XZ
       2250  8C9 000016B0 ?d_func@QMessageBox@@AEAAPEAVQMessageBoxPrivate@@XZ
       2251  8CA 000016B0 ?d_func@QMessageBox@@AEBAPEBVQMessageBoxPrivate@@XZ
       2252  8CB 000016B0 ?d_func@QPanGesture@@AEAAPEAVQPanGesturePrivate@@XZ
       2253  8CC 000016B0 ?d_func@QPanGesture@@AEBAPEBVQPanGesturePrivate@@XZ
       2254  8CD 000016B0 ?d_func@QPinchGesture@@AEAAPEAVQPinchGesturePrivate@@XZ
       2255  8CE 000016B0 ?d_func@QPinchGesture@@AEBAPEBVQPinchGesturePrivate@@XZ
       2256  8CF 000016B0 ?d_func@QPixmapBlurFilter@@AEAAPEAVQPixmapBlurFilterPrivate@@XZ
       2257  8D0 000016B0 ?d_func@QPixmapBlurFilter@@AEBAPEBVQPixmapBlurFilterPrivate@@XZ
       2258  8D1 000016B0 ?d_func@QPixmapColorizeFilter@@AEAAPEAVQPixmapColorizeFilterPrivate@@XZ
       2259  8D2 000016B0 ?d_func@QPixmapColorizeFilter@@AEBAPEBVQPixmapColorizeFilterPrivate@@XZ
       2260  8D3 000016B0 ?d_func@QPixmapConvolutionFilter@@AEAAPEAVQPixmapConvolutionFilterPrivate@@XZ
       2261  8D4 000016B0 ?d_func@QPixmapConvolutionFilter@@AEBAPEBVQPixmapConvolutionFilterPrivate@@XZ
       2262  8D5 000016B0 ?d_func@QPixmapDropShadowFilter@@AEAAPEAVQPixmapDropShadowFilterPrivate@@XZ
       2263  8D6 000016B0 ?d_func@QPixmapDropShadowFilter@@AEBAPEBVQPixmapDropShadowFilterPrivate@@XZ
       2264  8D7 000016B0 ?d_func@QPixmapFilter@@AEAAPEAVQPixmapFilterPrivate@@XZ
       2265  8D8 000016B0 ?d_func@QPixmapFilter@@AEBAPEBVQPixmapFilterPrivate@@XZ
       2266  8D9 000016B0 ?d_func@QPixmapStyle@@AEAAPEAVQPixmapStylePrivate@@XZ
       2267  8DA 000016B0 ?d_func@QPixmapStyle@@AEBAPEBVQPixmapStylePrivate@@XZ
       2268  8DB 000016B0 ?d_func@QPlainTextDocumentLayout@@AEAAPEAVQPlainTextDocumentLayoutPrivate@@XZ
       2269  8DC 000016B0 ?d_func@QPlainTextDocumentLayout@@AEBAPEBVQPlainTextDocumentLayoutPrivate@@XZ
       2270  8DD 000016B0 ?d_func@QPlainTextEdit@@AEAAPEAVQPlainTextEditPrivate@@XZ
       2271  8DE 000016B0 ?d_func@QPlainTextEdit@@AEBAPEBVQPlainTextEditPrivate@@XZ
       2272  8DF 000016B0 ?d_func@QProgressBar@@AEAAPEAVQProgressBarPrivate@@XZ
       2273  8E0 000016B0 ?d_func@QProgressBar@@AEBAPEBVQProgressBarPrivate@@XZ
       2274  8E1 000016B0 ?d_func@QProgressDialog@@AEAAPEAVQProgressDialogPrivate@@XZ
       2275  8E2 000016B0 ?d_func@QProgressDialog@@AEBAPEBVQProgressDialogPrivate@@XZ
       2276  8E3 000016B0 ?d_func@QProxyStyle@@AEAAPEAVQProxyStylePrivate@@XZ
       2277  8E4 000016B0 ?d_func@QProxyStyle@@AEBAPEBVQProxyStylePrivate@@XZ
       2278  8E5 000016B0 ?d_func@QPushButton@@AEAAPEAVQPushButtonPrivate@@XZ
       2279  8E6 000016B0 ?d_func@QPushButton@@AEBAPEBVQPushButtonPrivate@@XZ
       2280  8E7 000016B0 ?d_func@QRadioButton@@AEAAPEAVQRadioButtonPrivate@@XZ
       2281  8E8 000016B0 ?d_func@QRadioButton@@AEBAPEBVQRadioButtonPrivate@@XZ
       2282  8E9 000016B0 ?d_func@QRhiWidget@@AEAAPEAVQRhiWidgetPrivate@@XZ
       2283  8EA 000016B0 ?d_func@QRhiWidget@@AEBAPEBVQRhiWidgetPrivate@@XZ
       2284  8EB 000016B0 ?d_func@QRubberBand@@AEAAPEAVQRubberBandPrivate@@XZ
       2285  8EC 000016B0 ?d_func@QRubberBand@@AEBAPEBVQRubberBandPrivate@@XZ
       2286  8ED 000016B0 ?d_func@QScrollArea@@AEAAPEAVQScrollAreaPrivate@@XZ
       2287  8EE 000016B0 ?d_func@QScrollArea@@AEBAPEBVQScrollAreaPrivate@@XZ
       2288  8EF 000016B0 ?d_func@QScrollBar@@AEAAPEAVQScrollBarPrivate@@XZ
       2289  8F0 000016B0 ?d_func@QScrollBar@@AEBAPEBVQScrollBarPrivate@@XZ
       2290  8F1 0002B7D0 ?d_func@QScroller@@AEAAPEAVQScrollerPrivate@@XZ
       2291  8F2 0002B7D0 ?d_func@QScroller@@AEBAPEBVQScrollerPrivate@@XZ
       2292  8F3 000016B0 ?d_func@QSizeGrip@@AEAAPEAVQSizeGripPrivate@@XZ
       2293  8F4 000016B0 ?d_func@QSizeGrip@@AEBAPEBVQSizeGripPrivate@@XZ
       2294  8F5 000016B0 ?d_func@QSlider@@AEAAPEAVQSliderPrivate@@XZ
       2295  8F6 000016B0 ?d_func@QSlider@@AEBAPEBVQSliderPrivate@@XZ
       2296  8F7 000016B0 ?d_func@QSpinBox@@AEAAPEAVQSpinBoxPrivate@@XZ
       2297  8F8 000016B0 ?d_func@QSpinBox@@AEBAPEBVQSpinBoxPrivate@@XZ
       2298  8F9 000016B0 ?d_func@QSplashScreen@@AEAAPEAVQSplashScreenPrivate@@XZ
       2299  8FA 000016B0 ?d_func@QSplashScreen@@AEBAPEBVQSplashScreenPrivate@@XZ
       2300  8FB 000016B0 ?d_func@QSplitter@@AEAAPEAVQSplitterPrivate@@XZ
       2301  8FC 000016B0 ?d_func@QSplitter@@AEBAPEBVQSplitterPrivate@@XZ
       2302  8FD 000016B0 ?d_func@QSplitterHandle@@AEAAPEAVQSplitterHandlePrivate@@XZ
       2303  8FE 000016B0 ?d_func@QSplitterHandle@@AEBAPEBVQSplitterHandlePrivate@@XZ
       2304  8FF 000016B0 ?d_func@QStackedLayout@@AEAAPEAVQStackedLayoutPrivate@@XZ
       2305  900 000016B0 ?d_func@QStackedLayout@@AEBAPEBVQStackedLayoutPrivate@@XZ
       2306  901 000016B0 ?d_func@QStackedWidget@@AEAAPEAVQStackedWidgetPrivate@@XZ
       2307  902 000016B0 ?d_func@QStackedWidget@@AEBAPEBVQStackedWidgetPrivate@@XZ
       2308  903 000016B0 ?d_func@QStatusBar@@AEAAPEAVQStatusBarPrivate@@XZ
       2309  904 000016B0 ?d_func@QStatusBar@@AEBAPEBVQStatusBarPrivate@@XZ
       2310  905 000016B0 ?d_func@QStyle@@AEAAPEAVQStylePrivate@@XZ
       2311  906 000016B0 ?d_func@QStyle@@AEBAPEBVQStylePrivate@@XZ
       2312  907 000016B0 ?d_func@QStyledItemDelegate@@AEAAPEAVQStyledItemDelegatePrivate@@XZ
       2313  908 000016B0 ?d_func@QStyledItemDelegate@@AEBAPEBVQStyledItemDelegatePrivate@@XZ
       2314  909 000016B0 ?d_func@QSwipeGesture@@AEAAPEAVQSwipeGesturePrivate@@XZ
       2315  90A 000016B0 ?d_func@QSwipeGesture@@AEBAPEBVQSwipeGesturePrivate@@XZ
       2316  90B 000016B0 ?d_func@QSystemTrayIcon@@AEAAPEAVQSystemTrayIconPrivate@@XZ
       2317  90C 000016B0 ?d_func@QSystemTrayIcon@@AEBAPEBVQSystemTrayIconPrivate@@XZ
       2318  90D 000016B0 ?d_func@QTabBar@@AEAAPEAVQTabBarPrivate@@XZ
       2319  90E 000016B0 ?d_func@QTabBar@@AEBAPEBVQTabBarPrivate@@XZ
       2320  90F 000016B0 ?d_func@QTabWidget@@AEAAPEAVQTabWidgetPrivate@@XZ
       2321  910 000016B0 ?d_func@QTabWidget@@AEBAPEBVQTabWidgetPrivate@@XZ
       2322  911 000016B0 ?d_func@QTableView@@AEAAPEAVQTableViewPrivate@@XZ
       2323  912 000016B0 ?d_func@QTableView@@AEBAPEBVQTableViewPrivate@@XZ
       2324  913 000016B0 ?d_func@QTableWidget@@AEAAPEAVQTableWidgetPrivate@@XZ
       2325  914 000016B0 ?d_func@QTableWidget@@AEBAPEBVQTableWidgetPrivate@@XZ
       2326  915 000016B0 ?d_func@QTapAndHoldGesture@@AEAAPEAVQTapAndHoldGesturePrivate@@XZ
       2327  916 000016B0 ?d_func@QTapAndHoldGesture@@AEBAPEBVQTapAndHoldGesturePrivate@@XZ
       2328  917 000016B0 ?d_func@QTapGesture@@AEAAPEAVQTapGesturePrivate@@XZ
       2329  918 000016B0 ?d_func@QTapGesture@@AEBAPEBVQTapGesturePrivate@@XZ
       2330  919 000016B0 ?d_func@QTextBrowser@@AEAAPEAVQTextBrowserPrivate@@XZ
       2331  91A 000016B0 ?d_func@QTextBrowser@@AEBAPEBVQTextBrowserPrivate@@XZ
       2332  91B 000016B0 ?d_func@QTextEdit@@AEAAPEAVQTextEditPrivate@@XZ
       2333  91C 000016B0 ?d_func@QTextEdit@@AEBAPEBVQTextEditPrivate@@XZ
       2334  91D 000016B0 ?d_func@QToolBar@@AEAAPEAVQToolBarPrivate@@XZ
       2335  91E 000016B0 ?d_func@QToolBar@@AEBAPEBVQToolBarPrivate@@XZ
       2336  91F 000016B0 ?d_func@QToolBox@@AEAAPEAVQToolBoxPrivate@@XZ
       2337  920 000016B0 ?d_func@QToolBox@@AEBAPEBVQToolBoxPrivate@@XZ
       2338  921 000016B0 ?d_func@QToolButton@@AEAAPEAVQToolButtonPrivate@@XZ
       2339  922 000016B0 ?d_func@QToolButton@@AEBAPEBVQToolButtonPrivate@@XZ
       2340  923 000016B0 ?d_func@QTreeView@@AEAAPEAVQTreeViewPrivate@@XZ
       2341  924 000016B0 ?d_func@QTreeView@@AEBAPEBVQTreeViewPrivate@@XZ
       2342  925 000016B0 ?d_func@QTreeWidget@@AEAAPEAVQTreeWidgetPrivate@@XZ
       2343  926 000016B0 ?d_func@QTreeWidget@@AEBAPEBVQTreeWidgetPrivate@@XZ
       2344  927 0033CBA0 ?d_func@QTreeWidgetItemIterator@@AEAAPEAVQTreeWidgetItemIteratorPrivate@@XZ
       2345  928 0033CBA0 ?d_func@QTreeWidgetItemIterator@@AEBAPEBVQTreeWidgetItemIteratorPrivate@@XZ
       2346  929 000016B0 ?d_func@QUndoView@@AEAAPEAVQUndoViewPrivate@@XZ
       2347  92A 000016B0 ?d_func@QUndoView@@AEBAPEBVQUndoViewPrivate@@XZ
       2348  92B 000016B0 ?d_func@QWidget@@AEAAPEAVQWidgetPrivate@@XZ
       2349  92C 000016B0 ?d_func@QWidget@@AEBAPEBVQWidgetPrivate@@XZ
       2350  92D 000016B0 ?d_func@QWidgetAction@@AEAAPEAVQWidgetActionPrivate@@XZ
       2351  92E 000016B0 ?d_func@QWidgetAction@@AEBAPEBVQWidgetActionPrivate@@XZ
       2352  92F 000016B0 ?d_func@QWidgetTextControl@@AEAAPEAVQWidgetTextControlPrivate@@XZ
       2353  930 000016B0 ?d_func@QWidgetTextControl@@AEBAPEBVQWidgetTextControlPrivate@@XZ
       2354  931 000016B0 ?d_func@QWindowContainer@@AEAAPEAVQWindowContainerPrivate@@XZ
       2355  932 000016B0 ?d_func@QWindowContainer@@AEBAPEBVQWindowContainerPrivate@@XZ
       2356  933 000016B0 ?d_func@QWindowsStyle@@AEAAPEAVQWindowsStylePrivate@@XZ
       2357  934 000016B0 ?d_func@QWindowsStyle@@AEBAPEBVQWindowsStylePrivate@@XZ
       2358  935 000016B0 ?d_func@QWizard@@AEAAPEAVQWizardPrivate@@XZ
       2359  936 000016B0 ?d_func@QWizard@@AEBAPEBVQWizardPrivate@@XZ
       2360  937 000016B0 ?d_func@QWizardPage@@AEAAPEAVQWizardPagePrivate@@XZ
       2361  938 000016B0 ?d_func@QWizardPage@@AEBAPEBVQWizardPagePrivate@@XZ
       2362  939 00367130 ?data@QGraphicsItem@@QEBA?AVQVariant@@H@Z
       2363  93A 002FE9C0 ?data@QListWidgetItem@@UEBA?AVQVariant@@H@Z
       2364  93B 003190E0 ?data@QTableWidgetItem@@UEBA?AVQVariant@@H@Z
       2365  93C 0033CC10 ?data@QTreeWidgetItem@@UEBA?AVQVariant@@HH@Z
       2366  93D 002AF710 ?dataChanged@QAbstractItemView@@MEAAXAEBVQModelIndex@@0AEBV?$QList@H@@@Z
       2367  93E 002C5CC0 ?dataChanged@QHeaderView@@MEAAXAEBVQModelIndex@@0AEBV?$QList@H@@@Z
       2368  93F 002EC840 ?dataChanged@QListView@@MEAAXAEBVQModelIndex@@0AEBV?$QList@H@@@Z
       2369  940 00324750 ?dataChanged@QTreeView@@UEAAXAEBVQModelIndex@@0AEBV?$QList@H@@@Z
       2370  941 00146560 ?date@QDateTimeEdit@@QEBA?AVQDate@@XZ
       2371  942 00146590 ?dateChanged@QDateTimeEdit@@QEAAXVQDate@@@Z
       2372  943 00127E70 ?dateEditAcceptDelay@QCalendarWidget@@QEBAHXZ
       2373  944 00127F60 ?dateTextFormat@QCalendarWidget@@QEBA?AV?$QMap@VQDate@@VQTextCharFormat@@@@XZ
       2374  945 00127F90 ?dateTextFormat@QCalendarWidget@@QEBA?AVQTextCharFormat@@VQDate@@@Z
       2375  946 001465D0 ?dateTime@QDateTimeEdit@@QEBA?AVQDateTime@@XZ
       2376  947 00146600 ?dateTimeChanged@QDateTimeEdit@@QEAAXAEBVQDateTime@@@Z
       2377  948 00146630 ?dateTimeFromText@QDateTimeEdit@@MEBA?AVQDateTime@@AEBVQString@@@Z
       2378  949 00053160 ?deactivateWidgetCleanup@QWidgetPrivate@@QEAAXXZ
       2379  94A 001E5CC0 ?decimals@QDoubleSpinBox@@QEBAHXZ
       2380  94B 002D5650 ?decoration@QItemDelegate@@IEBA?AVQPixmap@@AEBVQStyleOptionViewItem@@AEBVQVariant@@@Z
       2381  94C 000531A0 ?deepestFocusProxy@QWidgetPrivate@@QEBAPEAVQWidget@@XZ
       2382  94D 001BCDE0 ?defaultAction@QMenu@@QEBAPEAVQAction@@XZ
       2383  94E 00223840 ?defaultAction@QToolButton@@QEBAPEAVQAction@@XZ
       2384  94F 002C5E90 ?defaultAlignment@QHeaderView@@QEBA?AV?$QFlags@W4AlignmentFlag@Qt@@@@XZ
       2385  950 00275050 ?defaultButton@QMessageBox@@QEBAPEAVQPushButton@@XZ
       2386  951 002AFB00 ?defaultDropAction@QAbstractItemView@@QEBA?AW4DropAction@Qt@@XZ
       2387  952 002DB2A0 ?defaultFactory@QItemEditorFactory@@SAPEBV1@XZ
       2388  953 0000A7F0 ?defaultModality@QApplicationPrivate@@UEBA?AW4WindowModality@Qt@@XZ
       2389  954 002C5EA0 ?defaultSectionSize@QHeaderView@@QEBAHXZ
       2390  955 0024F770 ?defaultSuffix@QFileDialog@@QEBA?AVQString@@XZ
       2391  956 00367540 ?defaultTextColor@QGraphicsTextItem@@QEBA?AVQColor@@XZ
       2392  957 000F6040 ?defaultWidget@QWidgetAction@@QEBAPEAVQWidget@@XZ
       2393  958 0017CA90 ?del@QLineEdit@@QEAAXXZ
       2394  959 00184A60 ?del@QWidgetLineControl@@QEAAXXZ
       2395  95A 001027F0 ?delay@QStyleAnimation@@QEBAHXZ
       2396  95B 0024F7A0 ?deleteCurrent@QFileDialogPrivate@@QEAAXXZ
       2397  95C 00053210 ?deleteExtra@QWidgetPrivate@@QEAAXXZ
       2398  95D 00009A60 ?deleteSysExtra@QWidgetPrivate@@QEAAXXZ
       2399  95E 000532E0 ?deleteTLSysExtra@QWidgetPrivate@@QEAAXXZ
       2400  95F 000F6070 ?deleteWidget@QWidgetAction@@MEAAXPEAVQWidget@@@Z
       2401  960 003AA020 ?delta@QGraphicsSceneWheelEvent@@QEBAHXZ
       2402  961 000209F0 ?delta@QPanGesture@@QEBA?AVQPointF@@XZ
       2403  962 000E6330 ?depth@QColormap@@QEBAHXZ
       2404  963 00367590 ?depth@QGraphicsItemPrivate@@QEBAHXZ
       2405  964 00042E40 ?depthStencilBuffer@QRhiWidget@@IEBAPEAVQRhiRenderBuffer@@XZ
       2406  965 001425B0 ?description@QCommandLinkButton@@QEBA?AVQString@@XZ
       2407  966 0017CAA0 ?deselect@QLineEdit@@QEAAXXZ
       2408  967 001348B0 ?deselect@QWidgetLineControl@@QEAAXXZ
       2409  968 0000A800 ?desktop@QApplicationPrivate@@SAPEAVQWidget@@XZ
       2410  969 0000A880 ?desktopStyleKey@QApplicationPrivate@@SA?AVQString@@XZ
       2411  96A 00053350 ?destroy@QWidget@@IEAAX_N0@Z
       2412  96B 000F5A00 ?destroy@QtWidgetsActionPrivate@@UEAAXXZ
       2413  96C 002A8B80 ?destroyEditor@QAbstractItemDelegate@@UEBAXPEAVQWidget@@AEBVQModelIndex@@@Z
       2414  96D 0038FA80 ?destroyItemGroup@QGraphicsScene@@QEAAXPEAVQGraphicsItemGroup@@@Z
       2415  96E 00275060 ?detailedText@QMessageBox@@QEBA?AVQString@@XZ
       2416  96F 000536E0 ?determineLastFocusChild@QWidgetPrivate@@QEAAPEAVQWidget@@PEAV2@@Z
       2417  970 00053930 ?devType@QWidget@@UEBAHXZ
       2418  971 00367980 ?deviceTransform@QGraphicsItem@@QEBA?AVQTransform@@AEBV2@@Z
       2419  972 001D1520 ?dialogCode@QDialogPrivate@@MEBAHXZ
       2420  973 00176E70 ?digitCount@QLCDNumber@@QEBAHXZ
       2421  974 0001BBA0 ?direction@QBoxLayout@@QEBA?AW4Direction@1@XZ
       2422  975 0024FD90 ?directory@QFileDialog@@QEBA?AVQDir@@XZ
       2423  976 0024FF40 ?directoryEntered@QFileDialog@@QEAAXAEBVQString@@@Z
       2424  977 0024FF70 ?directoryUrl@QFileDialog@@QEBA?AVQUrl@@XZ
       2425  978 00250010 ?directoryUrlEntered@QFileDialog@@QEAAXAEBVQUrl@@@Z
       2426  979 00250040 ?directory_sys@QFileDialogPrivate@@QEBA?AVQUrl@@XZ
       2427  97A 00042E50 ?dirtyRegion@QWidgetRepaintManager@@QEBA?AVQRegion@@XZ
       2428  97B 002B03C0 ?dirtyRegionOffset@QAbstractItemView@@IEBA?AVQPoint@@XZ
       2429  97C 00042E70 ?dirtyWidgetList@QWidgetRepaintManager@@QEBA?AV?$QList@PEAVQWidget@@@@XZ
       2430  97D 00367CB0 ?discardUpdateRequest@QGraphicsItemPrivate@@QEBA_N_N00@Z
       2431  97E 0000AE70 ?dispatchEnterLeave@QApplicationPrivate@@SAXPEAVQWidget@@0AEBVQPointF@@@Z
       2432  97F 0002D680 ?dispatchPendingUpdateRequests@QGraphicsViewPrivate@@QEAAXXZ
       2433  980 00176E80 ?display@QLCDNumber@@QEAAXAEBVQString@@@Z
       2434  981 00176EE0 ?display@QLCDNumber@@QEAAXH@Z
       2435  982 00176F70 ?display@QLCDNumber@@QEAAXN@Z
       2436  983 0016A440 ?displayFont@QFontComboBox@@QEBA?AV?$optional@VQFont@@@std@@AEBVQString@@@Z
       2437  984 001466B0 ?displayFormat@QDateTimeEdit@@QEBA?AVQString@@XZ
       2438  985 001E5CC0 ?displayIntegerBase@QSpinBox@@QEBAHXZ
       2439  986 0017CB00 ?displayText@QLineEdit@@QEBA?AVQString@@XZ
       2440  987 002DC7B0 ?displayText@QStyledItemDelegate@@UEBA?AVQString@@AEBVQVariant@@AEBVQLocale@@@Z
       2441  988 00134B20 ?displayText@QWidgetLineControl@@QEBA?AVQString@@XZ
       2442  989 00184AF0 ?displayTextChanged@QWidgetLineControl@@QEAAXAEBVQString@@@Z
       2443  98A 00146710 ?displayedSections@QDateTimeEdit@@QEBA?AV?$QFlags@W4Section@QDateTimeEdit@@@@XZ
       2444  98B 00291EF0 ?doAction@QAccessibleWidget@@UEAAXAEBVQString@@@Z
       2445  98C 002B0C00 ?doAutoScroll@QAbstractItemView@@IEAAXXZ
       2446  98D 002D5BD0 ?doCheck@QItemDelegate@@IEBA?AVQRect@@AEBVQStyleOptionViewItem@@AEBV2@AEBVQVariant@@@Z
       2447  98E 002B1030 ?doItemsLayout@QAbstractItemView@@UEAAXXZ
       2448  98F 002C5EB0 ?doItemsLayout@QHeaderView@@UEAAXXZ
       2449  990 002ED3A0 ?doItemsLayout@QListView@@UEAAXXZ
       2450  991 00308640 ?doItemsLayout@QTableView@@UEAAXXZ
       2451  992 00324BE0 ?doItemsLayout@QTreeView@@UEAAXXZ
       2452  993 002D5CB0 ?doLayout@QItemDelegate@@IEBAXAEBVQStyleOptionViewItem@@PEAVQRect@@11_N@Z
       2453  994 0003DF50 ?doResize@QLayoutPrivate@@QEAAXXZ
       2454  995 0020D280 ?doSetSource@QTextBrowser@@MEAAXAEBVQUrl@@W4ResourceType@QTextDocument@@@Z
       2455  996 001FE300 ?doSetTextCursor@QPlainTextEdit@@MEAAXAEBVQTextCursor@@@Z
       2456  997 00206DD0 ?doSetTextCursor@QTextEdit@@MEAAXAEBVQTextCursor@@@Z
       2457  998 00162230 ?dockLocationChanged@QDockWidget@@QEAAXW4DockWidgetArea@Qt@@@Z
       2458  999 0018DDA0 ?dockOptions@QMainWindow@@QEBA?AV?$QFlags@W4DockOption@QMainWindow@@@@XZ
       2459  99A 0018DDE0 ?dockWidgetArea@QMainWindow@@QEBA?AW4DockWidgetArea@Qt@@PEAVQDockWidget@@@Z
       2460  99B 00367D60 ?document@QGraphicsTextItem@@QEBAPEAVQTextDocument@@XZ
       2461  99C 001FE320 ?document@QPlainTextEdit@@QEBAPEAVQTextDocument@@XZ
       2462  99D 00206DF0 ?document@QTextEdit@@QEBAPEAVQTextDocument@@XZ
       2463  99E 000F2C50 ?document@QWidgetTextControl@@QEBAPEAVQTextDocument@@XZ
       2464  99F 001FE330 ?documentChanged@QPlainTextDocumentLayout@@MEAAXHHH@Z
       2465  9A0 0018DE10 ?documentMode@QMainWindow@@QEBA_NXZ
       2466  9A1 001A3150 ?documentMode@QMdiArea@@QEBA_NXZ
       2467  9A2 001F2720 ?documentMode@QTabBar@@QEBA_NXZ
       2468  9A3 00210760 ?documentMode@QTabWidget@@QEBA_NXZ
       2469  9A4 001FE720 ?documentSize@QPlainTextDocumentLayout@@UEBA?AVQSizeF@@XZ
       2470  9A5 0022C270 ?documentSizeChanged@QWidgetTextControl@@QEAAXAEBVQSizeF@@@Z
       2471  9A6 000B9F30 ?documentTitle@QPlainTextEdit@@QEBA?AVQString@@XZ
       2472  9A7 0009BBF0 ?documentTitle@QTextEdit@@QEBA?AVQString@@XZ
       2473  9A8 0023A660 ?done@QColorDialog@@MEAAXH@Z
       2474  9A9 00242CA0 ?done@QDialog@@UEAAXH@Z
       2475  9AA 00245CF0 ?done@QErrorMessage@@MEAAXH@Z
       2476  9AB 00250090 ?done@QFileDialog@@MEAAXH@Z
       2477  9AC 00269A80 ?done@QFontDialog@@MEAAXH@Z
       2478  9AD 0026F250 ?done@QInputDialog@@UEAAXH@Z
       2479  9AE 00280F70 ?done@QWizard@@MEAAXH@Z
       2480  9AF 0000BA00 ?doubleClickInterval@QApplication@@SAHXZ
       2481  9B0 002B1080 ?doubleClicked@QAbstractItemView@@QEAAXAEBVQModelIndex@@@Z
       2482  9B1 0026F4F0 ?doubleDecimals@QInputDialog@@QEBAHXZ
       2483  9B2 0026F510 ?doubleMaximum@QInputDialog@@QEBANXZ
       2484  9B3 0026F530 ?doubleMinimum@QInputDialog@@QEBANXZ
       2485  9B4 0026F550 ?doubleStep@QInputDialog@@QEBANXZ
       2486  9B5 0026F570 ?doubleValue@QInputDialog@@QEBANXZ
       2487  9B6 0026F590 ?doubleValueChanged@QInputDialog@@QEAAXN@Z
       2488  9B7 0026F5D0 ?doubleValueSelected@QInputDialog@@QEAAXN@Z
       2489  9B8 000A72F0 ?dpi@QStyleHelper@@YANPEBVQStyleOption@@@Z
       2490  9B9 000A7340 ?dpiScaled@QStyleHelper@@YANNN@Z
       2491  9BA 000A7350 ?dpiScaled@QStyleHelper@@YANNPEBVQPaintDevice@@@Z
       2492  9BB 000A7390 ?dpiScaled@QStyleHelper@@YANNPEBVQStyleOption@@@Z
       2493  9BC 002B10B0 ?dragDropMode@QAbstractItemView@@QEBA?AW4DragDropMode@1@XZ
       2494  9BD 002B1170 ?dragDropOverwriteMode@QAbstractItemView@@QEBA_NXZ
       2495  9BE 002B1180 ?dragEnabled@QAbstractItemView@@QEBA_NXZ
       2496  9BF 0017CB30 ?dragEnabled@QLineEdit@@QEBA_NXZ
       2497  9C0 002B1190 ?dragEnterEvent@QAbstractItemView@@MEAAXPEAVQDragEnterEvent@@@Z
       2498  9C1 00009A60 ?dragEnterEvent@QAbstractScrollArea@@MEAAXPEAVQDragEnterEvent@@@Z
       2499  9C2 00367D80 ?dragEnterEvent@QGraphicsItem@@MEAAXPEAVQGraphicsSceneDragDropEvent@@@Z
       2500  9C3 003804C0 ?dragEnterEvent@QGraphicsProxyWidget@@MEAAXPEAVQGraphicsSceneDragDropEvent@@@Z
       2501  9C4 00390970 ?dragEnterEvent@QGraphicsScene@@MEAAXPEAVQGraphicsSceneDragDropEvent@@@Z
       2502  9C5 00366F00 ?dragEnterEvent@QGraphicsTextItem@@MEAAXPEAVQGraphicsSceneDragDropEvent@@@Z
       2503  9C6 003B14E0 ?dragEnterEvent@QGraphicsView@@MEAAXPEAVQDragEnterEvent@@@Z
       2504  9C7 0017CB40 ?dragEnterEvent@QLineEdit@@MEAAXPEAVQDragEnterEvent@@@Z
       2505  9C8 001FE770 ?dragEnterEvent@QPlainTextEdit@@MEAAXPEAVQDragEnterEvent@@@Z
       2506  9C9 00206E00 ?dragEnterEvent@QTextEdit@@MEAAXPEAVQDragEnterEvent@@@Z
       2507  9CA 00009A60 ?dragEnterEvent@QWidget@@MEAAXPEAVQDragEnterEvent@@@Z
       2508  9CB 002B1280 ?dragLeaveEvent@QAbstractItemView@@MEAAXPEAVQDragLeaveEvent@@@Z
       2509  9CC 00009A60 ?dragLeaveEvent@QAbstractScrollArea@@MEAAXPEAVQDragLeaveEvent@@@Z
       2510  9CD 00367DD0 ?dragLeaveEvent@QGraphicsItem@@MEAAXPEAVQGraphicsSceneDragDropEvent@@@Z
       2511  9CE 00380650 ?dragLeaveEvent@QGraphicsProxyWidget@@MEAAXPEAVQGraphicsSceneDragDropEvent@@@Z
       2512  9CF 00390990 ?dragLeaveEvent@QGraphicsScene@@MEAAXPEAVQGraphicsSceneDragDropEvent@@@Z
       2513  9D0 00366F00 ?dragLeaveEvent@QGraphicsTextItem@@MEAAXPEAVQGraphicsSceneDragDropEvent@@@Z
       2514  9D1 003B15D0 ?dragLeaveEvent@QGraphicsView@@MEAAXPEAVQDragLeaveEvent@@@Z
       2515  9D2 0017CB50 ?dragLeaveEvent@QLineEdit@@MEAAXPEAVQDragLeaveEvent@@@Z
       2516  9D3 002EDC60 ?dragLeaveEvent@QListView@@MEAAXPEAVQDragLeaveEvent@@@Z
       2517  9D4 001FE780 ?dragLeaveEvent@QPlainTextEdit@@MEAAXPEAVQDragLeaveEvent@@@Z
       2518  9D5 00206ED0 ?dragLeaveEvent@QTextEdit@@MEAAXPEAVQDragLeaveEvent@@@Z
       2519  9D6 00009A60 ?dragLeaveEvent@QWidget@@MEAAXPEAVQDragLeaveEvent@@@Z
       2520  9D7 003B17F0 ?dragMode@QGraphicsView@@QEBA?AW4DragMode@1@XZ
       2521  9D8 002B12F0 ?dragMoveEvent@QAbstractItemView@@MEAAXPEAVQDragMoveEvent@@@Z
       2522  9D9 00009A60 ?dragMoveEvent@QAbstractScrollArea@@MEAAXPEAVQDragMoveEvent@@@Z
       2523  9DA 00367E20 ?dragMoveEvent@QGraphicsItem@@MEAAXPEAVQGraphicsSceneDragDropEvent@@@Z
       2524  9DB 003806C0 ?dragMoveEvent@QGraphicsProxyWidget@@MEAAXPEAVQGraphicsSceneDragDropEvent@@@Z
       2525  9DC 00390A30 ?dragMoveEvent@QGraphicsScene@@MEAAXPEAVQGraphicsSceneDragDropEvent@@@Z
       2526  9DD 00366F00 ?dragMoveEvent@QGraphicsTextItem@@MEAAXPEAVQGraphicsSceneDragDropEvent@@@Z
       2527  9DE 003B1800 ?dragMoveEvent@QGraphicsView@@MEAAXPEAVQDragMoveEvent@@@Z
       2528  9DF 0017CB70 ?dragMoveEvent@QLineEdit@@MEAAXPEAVQDragMoveEvent@@@Z
       2529  9E0 002EE390 ?dragMoveEvent@QListView@@MEAAXPEAVQDragMoveEvent@@@Z
       2530  9E1 001FE7C0 ?dragMoveEvent@QPlainTextEdit@@MEAAXPEAVQDragMoveEvent@@@Z
       2531  9E2 00206FB0 ?dragMoveEvent@QTextEdit@@MEAAXPEAVQDragMoveEvent@@@Z
       2532  9E3 00325230 ?dragMoveEvent@QTreeView@@MEAAXPEAVQDragMoveEvent@@@Z
       2533  9E4 00009A60 ?dragMoveEvent@QWidget@@MEAAXPEAVQDragMoveEvent@@@Z
       2534  9E5 00325280 ?draggablePaintPairs@QTreeViewPrivate@@UEBA?AV?$QList@UQItemViewPaintPair@@@@AEBV?$QList@VQModelIndex@@@@PEAVQRect@@@Z
       2535  9E6 000F0940 ?draw@QGraphicsBlurEffect@@MEAAXPEAVQPainter@@@Z
       2536  9E7 000F0B60 ?draw@QGraphicsColorizeEffect@@MEAAXPEAVQPainter@@@Z
       2537  9E8 000F1080 ?draw@QGraphicsDropShadowEffect@@MEAAXPEAVQPainter@@@Z
       2538  9E9 000F13B0 ?draw@QGraphicsEffectSource@@QEAAXPEAVQPainter@@@Z
       2539  9EA 000F14E0 ?draw@QGraphicsOpacityEffect@@MEAAXPEAVQPainter@@@Z
       2540  9EB 000F4290 ?draw@QPixmapBlurFilter@@UEBAXPEAVQPainter@@AEBVQPointF@@AEBVQPixmap@@AEBVQRectF@@@Z
       2541  9EC 000F4520 ?draw@QPixmapColorizeFilter@@UEBAXPEAVQPainter@@AEBVQPointF@@AEBVQPixmap@@AEBVQRectF@@@Z
       2542  9ED 000F4910 ?draw@QPixmapConvolutionFilter@@UEBAXPEAVQPainter@@AEBVQPointF@@AEBVQPixmap@@AEBVQRectF@@@Z
       2543  9EE 000F4D40 ?draw@QPixmapDropShadowFilter@@UEBAXPEAVQPainter@@AEBVQPointF@@AEBVQPixmap@@AEBVQRectF@@@Z
       2544  9EF 00009A60 ?draw@QPlainTextDocumentLayout@@UEAAXPEAVQPainter@@AEBUPaintContext@QAbstractTextDocumentLayout@@@Z
       2545  9F0 00184B20 ?draw@QWidgetLineControl@@QEAAXPEAVQPainter@@AEBVQPoint@@AEBVQRect@@H@Z
       2546  9F1 003255D0 ?drawAnimatedOperation@QTreeViewPrivate@@QEBAXPEAVQPainter@@@Z
       2547  9F2 00391880 ?drawBackground@QGraphicsScene@@MEAAXPEAVQPainter@@AEBVQRectF@@@Z
       2548  9F3 003B18F0 ?drawBackground@QGraphicsView@@MEAAXPEAVQPainter@@AEBVQRectF@@@Z
       2549  9F4 002D6370 ?drawBackground@QItemDelegate@@IEBAXPEAVQPainter@@AEBVQStyleOptionViewItem@@AEBVQModelIndex@@@Z
       2550  9F5 001F2740 ?drawBase@QTabBar@@QEBA_NXZ
       2551  9F6 000A73F0 ?drawBorderPixmap@QStyleHelper@@YAXAEBVQPixmap@@PEAVQPainter@@AEBVQRect@@HHHH@Z
       2552  9F7 00325760 ?drawBranches@QTreeView@@MEBAXPEAVQPainter@@AEBVQRect@@AEBVQModelIndex@@@Z
       2553  9F8 0009BC20 ?drawCachedPixmap@QPixmapStyle@@QEBAXW4ControlDescriptor@1@AEBVQRect@@PEAVQPainter@@@Z
       2554  9F9 002D65C0 ?drawCheck@QItemDelegate@@MEBAXPEAVQPainter@@AEBVQStyleOptionViewItem@@AEBVQRect@@W4CheckState@Qt@@@Z
       2555  9FA 0009BD40 ?drawCheckBox@QPixmapStyle@@IEBAXPEBVQStyleOption@@PEAVQPainter@@PEBVQWidget@@@Z
       2556  9FB 0009BF20 ?drawComboBox@QPixmapStyle@@IEBAXPEBVQStyleOptionComplex@@PEAVQPainter@@PEBVQWidget@@@Z
       2557  9FC 00080BD0 ?drawComplexControl@QCommonStyle@@UEBAXW4ComplexControl@QStyle@@PEBVQStyleOptionComplex@@PEAVQPainter@@PEBVQWidget@@@Z
       2558  9FD 0010BED0 ?drawComplexControl@QFusionStyle@@UEBAXW4ComplexControl@QStyle@@PEBVQStyleOptionComplex@@PEAVQPainter@@PEBVQWidget@@@Z
       2559  9FE 0009C170 ?drawComplexControl@QPixmapStyle@@UEBAXW4ComplexControl@QStyle@@PEBVQStyleOptionComplex@@PEAVQPainter@@PEBVQWidget@@@Z
       2560  9FF 000A1CE0 ?drawComplexControl@QProxyStyle@@UEBAXW4ComplexControl@QStyle@@PEBVQStyleOptionComplex@@PEAVQPainter@@PEBVQWidget@@@Z
       2561  A00 001037B0 ?drawComplexControl@QWindowsStyle@@UEBAXW4ComplexControl@QStyle@@PEBVQStyleOptionComplex@@PEAVQPainter@@PEBVQWidget@@@Z
       2562  A01 001E8780 ?drawContents@QSplashScreen@@MEAAXPEAVQPainter@@@Z
       2563  A02 0022C5B0 ?drawContents@QWidgetTextControl@@QEAAXPEAVQPainter@@AEBVQRectF@@PEAVQWidget@@@Z
       2564  A03 00084310 ?drawControl@QCommonStyle@@UEBAXW4ControlElement@QStyle@@PEBVQStyleOption@@PEAVQPainter@@PEBVQWidget@@@Z
       2565  A04 00111BD0 ?drawControl@QFusionStyle@@UEBAXW4ControlElement@QStyle@@PEBVQStyleOption@@PEAVQPainter@@PEBVQWidget@@@Z
       2566  A05 0009C1D0 ?drawControl@QPixmapStyle@@UEBAXW4ControlElement@QStyle@@PEBVQStyleOption@@PEAVQPainter@@PEBVQWidget@@@Z
       2567  A06 000A1D60 ?drawControl@QProxyStyle@@UEBAXW4ControlElement@QStyle@@PEBVQStyleOption@@PEAVQPainter@@PEBVQWidget@@@Z
       2568  A07 00104E80 ?drawControl@QWindowsStyle@@UEBAXW4ControlElement@QStyle@@PEBVQStyleOption@@PEAVQPainter@@PEBVQWidget@@@Z
       2569  A08 002D6800 ?drawDecoration@QItemDelegate@@MEBAXPEAVQPainter@@AEBVQStyleOptionViewItem@@AEBVQRect@@AEBVQPixmap@@@Z
       2570  A09 000A7860 ?drawDial@QStyleHelper@@YAXPEBVQStyleOptionSlider@@PEAVQPainter@@@Z
       2571  A0A 002D6930 ?drawDisplay@QItemDelegate@@MEBAXPEAVQPainter@@AEBVQStyleOptionViewItem@@AEBVQRect@@AEBVQString@@@Z
       2572  A0B 002D71A0 ?drawFocus@QItemDelegate@@MEBAXPEAVQPainter@@AEBVQStyleOptionViewItem@@AEBVQRect@@@Z
       2573  A0C 00391940 ?drawForeground@QGraphicsScene@@MEAAXPEAVQPainter@@AEBVQRectF@@@Z
       2574  A0D 003B1A00 ?drawForeground@QGraphicsView@@MEAAXPEAVQPainter@@AEBVQRectF@@@Z
       2575  A0E 000ED340 ?drawFrame@QFrame@@IEAAXPEAVQPainter@@@Z
       2576  A0F 00116200 ?drawItemPixmap@QFusionStyle@@UEBAXPEAVQPainter@@AEBVQRect@@HAEBVQPixmap@@@Z
       2577  A10 000A1DE0 ?drawItemPixmap@QProxyStyle@@UEBAXPEAVQPainter@@AEBVQRect@@HAEBVQPixmap@@@Z
       2578  A11 000A4230 ?drawItemPixmap@QStyle@@UEBAXPEAVQPainter@@AEBVQRect@@HAEBVQPixmap@@@Z
       2579  A12 00116210 ?drawItemText@QFusionStyle@@UEBAXPEAVQPainter@@AEBVQRect@@HAEBVQPalette@@_NAEBVQString@@W4ColorRole@4@@Z
       2580  A13 000A1E60 ?drawItemText@QProxyStyle@@UEBAXPEAVQPainter@@AEBVQRect@@HAEBVQPalette@@_NAEBVQString@@W4ColorRole@4@@Z
       2581  A14 000A44A0 ?drawItemText@QStyle@@UEBAXPEAVQPainter@@AEBVQRect@@HAEBVQPalette@@_NAEBVQString@@W4ColorRole@4@@Z
       2582  A15 00393220 ?drawItems@QGraphicsScene@@MEAAXPEAVQPainter@@HQEAPEAVQGraphicsItem@@QEBVQStyleOptionGraphicsItem@@PEAVQWidget@@@Z
       2583  A16 003B1AB0 ?drawItems@QGraphicsView@@MEAAXPEAVQPainter@@HQEAPEAVQGraphicsItem@@QEBVQStyleOptionGraphicsItem@@@Z
       2584  A17 0009C6B0 ?drawLineEdit@QPixmapStyle@@IEBAXPEBVQStyleOption@@PEAVQPainter@@PEBVQWidget@@@Z
       2585  A18 0009C730 ?drawPanelItemViewItem@QPixmapStyle@@IEBAXPEBVQStyleOption@@PEAVQPainter@@PEBVQWidget@@@Z
       2586  A19 000890B0 ?drawPrimitive@QCommonStyle@@UEBAXW4PrimitiveElement@QStyle@@PEBVQStyleOption@@PEAVQPainter@@PEBVQWidget@@@Z
       2587  A1A 00116330 ?drawPrimitive@QFusionStyle@@UEBAXW4PrimitiveElement@QStyle@@PEBVQStyleOption@@PEAVQPainter@@PEBVQWidget@@@Z
       2588  A1B 0009C9E0 ?drawPrimitive@QPixmapStyle@@UEBAXW4PrimitiveElement@QStyle@@PEBVQStyleOption@@PEAVQPainter@@PEBVQWidget@@@Z
       2589  A1C 000A1F10 ?drawPrimitive@QProxyStyle@@UEBAXW4PrimitiveElement@QStyle@@PEBVQStyleOption@@PEAVQPainter@@PEBVQWidget@@@Z
       2590  A1D 00108370 ?drawPrimitive@QWindowsStyle@@UEBAXW4PrimitiveElement@QStyle@@PEBVQStyleOption@@PEAVQPainter@@PEBVQWidget@@@Z
       2591  A1E 0009CCA0 ?drawProgressBarBackground@QPixmapStyle@@IEBAXPEBVQStyleOption@@PEAVQPainter@@PEBVQWidget@@@Z
       2592  A1F 0009CCE0 ?drawProgressBarFill@QPixmapStyle@@IEBAXPEBVQStyleOption@@PEAVQPainter@@PEBVQWidget@@@Z
       2593  A20 0009CE20 ?drawProgressBarLabel@QPixmapStyle@@IEBAXPEBVQStyleOption@@PEAVQPainter@@PEBVQWidget@@@Z
       2594  A21 0009CEB0 ?drawPushButton@QPixmapStyle@@IEBAXPEBVQStyleOption@@PEAVQPainter@@PEBVQWidget@@@Z
       2595  A22 0009CF10 ?drawRadioButton@QPixmapStyle@@IEBAXPEBVQStyleOption@@PEAVQPainter@@PEBVQWidget@@@Z
       2596  A23 00325D40 ?drawRow@QTreeView@@MEBAXPEAVQPainter@@AEBVQStyleOptionViewItem@@AEBVQModelIndex@@@Z
       2597  A24 0009D0F0 ?drawScrollBar@QPixmapStyle@@IEBAXPEBVQStyleOptionComplex@@PEAVQPainter@@PEBVQWidget@@@Z
       2598  A25 0009D1E0 ?drawSlider@QPixmapStyle@@IEBAXPEBVQStyleOptionComplex@@PEAVQPainter@@PEBVQWidget@@@Z
       2599  A26 000F17C0 ?drawSource@QGraphicsEffect@@IEAAXPEAVQPainter@@@Z
       2600  A27 0009D760 ?drawTextEdit@QPixmapStyle@@IEBAXPEBVQStyleOption@@PEAVQPainter@@PEBVQWidget@@@Z
       2601  A28 00326FE0 ?drawTree@QTreeView@@IEBAXPEAVQPainter@@AEBVQRegion@@@Z
       2602  A29 00053AE0 ?drawWidget@QWidgetPrivate@@QEAAXPEAVQPaintDevice@@AEBVQRegion@@AEBVQPoint@@V?$QFlags@W4DrawWidgetFlag@QWidgetPrivate@@@@PEAVQPainter@@PEAVQWidgetRepaintManager@@@Z
       2603  A2A 003AA020 ?dropAction@QGraphicsSceneDragDropEvent@@QEBA?AW4DropAction@Qt@@XZ
       2604  A2B 002B1A60 ?dropEvent@QAbstractItemView@@MEAAXPEAVQDropEvent@@@Z
       2605  A2C 00009A60 ?dropEvent@QAbstractScrollArea@@MEAAXPEAVQDropEvent@@@Z
       2606  A2D 00367FE0 ?dropEvent@QGraphicsItem@@MEAAXPEAVQGraphicsSceneDragDropEvent@@@Z
       2607  A2E 00380C60 ?dropEvent@QGraphicsProxyWidget@@MEAAXPEAVQGraphicsSceneDragDropEvent@@@Z
       2608  A2F 00390990 ?dropEvent@QGraphicsScene@@MEAAXPEAVQGraphicsSceneDragDropEvent@@@Z
       2609  A30 00366F00 ?dropEvent@QGraphicsTextItem@@MEAAXPEAVQGraphicsSceneDragDropEvent@@@Z
       2610  A31 003B1BB0 ?dropEvent@QGraphicsView@@MEAAXPEAVQDropEvent@@@Z
       2611  A32 0017CC90 ?dropEvent@QLineEdit@@MEAAXPEAVQDropEvent@@@Z
       2612  A33 002EE8E0 ?dropEvent@QListView@@MEAAXPEAVQDropEvent@@@Z
       2613  A34 002FEB80 ?dropEvent@QListWidget@@MEAAXPEAVQDropEvent@@@Z
       2614  A35 001FE780 ?dropEvent@QPlainTextEdit@@MEAAXPEAVQDropEvent@@@Z
       2615  A36 003094D0 ?dropEvent@QTableView@@MEAAXPEAVQDropEvent@@@Z
       2616  A37 00319210 ?dropEvent@QTableWidget@@MEAAXPEAVQDropEvent@@@Z
       2617  A38 00206ED0 ?dropEvent@QTextEdit@@MEAAXPEAVQDropEvent@@@Z
       2618  A39 0033CF40 ?dropEvent@QTreeWidget@@MEAAXPEAVQDropEvent@@@Z
       2619  A3A 00009A60 ?dropEvent@QWidget@@MEAAXPEAVQDropEvent@@@Z
       2620  A3B 002B1C20 ?dropIndicatorPosition@QAbstractItemView@@IEBA?AW4DropIndicatorPosition@1@XZ
       2621  A3C 002FEC20 ?dropMimeData@QListWidget@@MEAA_NHPEBVQMimeData@@W4DropAction@Qt@@@Z
       2622  A3D 00319690 ?dropMimeData@QTableWidget@@MEAA_NHHPEBVQMimeData@@W4DropAction@Qt@@@Z
       2623  A3E 0033D750 ?dropMimeData@QTreeWidget@@MEAA_NPEAVQTreeWidgetItem@@HPEBVQMimeData@@W4DropAction@Qt@@@Z
       2624  A3F 00009A60 ?dump@QGraphicsLinearLayout@@QEBAXH@Z
       2625  A40 00134CA0 ?duplicatesEnabled@QComboBox@@QEBA_NXZ
       2626  A41 00102800 ?duration@QStyleAnimation@@UEBAHXZ
       2627  A42 0017CE40 ?echoMode@QLineEdit@@QEBA?AW4EchoMode@1@XZ
       2628  A43 00134CB0 ?echoMode@QWidgetLineControl@@QEBAIXZ
       2629  A44 002B2210 ?edit@QAbstractItemView@@MEAA_NAEBVQModelIndex@@W4EditTrigger@1@PEAVQEvent@@@Z
       2630  A45 002B25F0 ?edit@QAbstractItemView@@QEAAXAEBVQModelIndex@@@Z
       2631  A46 002FED20 ?editItem@QListWidget@@QEAAXPEAVQListWidgetItem@@@Z
       2632  A47 00319790 ?editItem@QTableWidget@@QEAAXPEAVQTableWidgetItem@@@Z
       2633  A48 0033D820 ?editItem@QTreeWidget@@QEAAXPEAVQTreeWidgetItem@@H@Z
       2634  A49 00134CC0 ?editTextChanged@QComboBox@@QEAAXAEBVQString@@@Z
       2635  A4A 002B2690 ?editTriggers@QAbstractItemView@@QEBA?AV?$QFlags@W4EditTrigger@QAbstractItemView@@@@XZ
       2636  A4B 001E0960 ?editingFinished@QAbstractSpinBox@@QEAAXXZ
       2637  A4C 0016FE90 ?editingFinished@QKeySequenceEdit@@QEAAXXZ
       2638  A4D 0017CE60 ?editingFinished@QLineEdit@@QEAAXXZ
       2639  A4E 001850B0 ?editingFinished@QWidgetLineControl@@QEAAXXZ
       2640  A4F 002B2880 ?editorDestroyed@QAbstractItemView@@MEAAXPEAVQObject@@@Z
       2641  A50 0000FF60 ?editorEvent@QAbstractItemDelegate@@UEAA_NPEAVQEvent@@PEAVQAbstractItemModel@@AEBVQStyleOptionViewItem@@AEBVQModelIndex@@@Z
       2642  A51 002D72B0 ?editorEvent@QItemDelegate@@MEAA_NPEAVQEvent@@PEAVQAbstractItemModel@@AEBVQStyleOptionViewItem@@AEBVQModelIndex@@@Z
       2643  A52 002DC7E0 ?editorEvent@QStyledItemDelegate@@MEAA_NPEAVQEvent@@PEAVQAbstractItemModel@@AEBVQStyleOptionViewItem@@AEBVQModelIndex@@@Z
       2644  A53 00368050 ?effectiveBoundingRect@QGraphicsItemPrivate@@QEBA?AVQRectF@@AEBV2@@Z
       2645  A54 00368230 ?effectiveBoundingRect@QGraphicsItemPrivate@@QEBA?AVQRectF@@PEAVQGraphicsItem@@@Z
       2646  A55 0000BA20 ?effectiveFocusWidget@QWidgetPrivate@@QEAAPEAVQWidget@@XZ
       2647  A56 003684E0 ?effectiveOpacity@QGraphicsItem@@QEBANXZ
       2648  A57 0002D6D0 ?effectiveOpacity@QGraphicsItemPrivate@@QEBANXZ
       2649  A58 0000BA60 ?effectiveRectFor@QWidgetPrivate@@QEBA?AVQRect@@AEBV2@@Z
       2650  A59 0000BB00 ?effectiveRectFor@QWidgetPrivate@@QEBA?AVQRect@@AEBVQRegion@@@Z
       2651  A5A 0037D050 ?effectiveSizeHint@QGraphicsLayoutItem@@QEBA?AVQSizeF@@W4SizeHint@Qt@@AEBV2@@Z
       2652  A5B 00054A60 ?effectiveWinId@QWidget@@QEBA_KXZ
       2653  A5C 001F2750 ?elideMode@QTabBar@@QEBA?AW4TextElideMode@Qt@@XZ
       2654  A5D 00210770 ?elideMode@QTabWidget@@QEBA?AW4TextElideMode@Qt@@XZ
       2655  A5E 001850D0 ?emitCursorPositionChanged@QWidgetLineControl@@AEAAXXZ
       2656  A5F 0033DB30 ?emitDataChanged@QTreeWidgetItem@@IEAAXXZ
       2657  A60 00250190 ?emitFilesSelected@QFileDialogPrivate@@QEAAXAEBV?$QList@VQString@@@@@Z
       2658  A61 00250210 ?emitUrlSelected@QFileDialogPrivate@@QEAAXAEBVQUrl@@@Z
       2659  A62 002502B0 ?emitUrlsSelected@QFileDialogPrivate@@QEAAXAEBV?$QList@VQUrl@@@@@Z
       2660  A63 003E22C0 ?emptyLabel@QUndoView@@QEBA?AVQString@@XZ
       2661  A64 005CD400 ?enabledAnimations@QApplicationPrivate@@2HA
       2662  A65 000F17E0 ?enabledChanged@QGraphicsEffect@@QEAAX_N@Z
       2663  A66 00368550 ?enabledChanged@QGraphicsObject@@QEAAXXZ
       2664  A67 0017CE80 ?end@QLineEdit@@QEAAX_N@Z
       2665  A68 001356C0 ?end@QWidgetLineControl@@QEAAX_N@Z
       2666  A69 00102F60 ?end@QWidgetLineControl@@QEBAHXZ
       2667  A6A 00327780 ?endAnimatedOperation@QTreeViewPrivate@@QEAAXXZ
       2668  A6B 00009A60 ?endBackingStorePainting@QWidgetPrivate@@UEAAXXZ
       2669  A6C 00009A60 ?endCompose@QWidgetPrivate@@UEAAXXZ
       2670  A6D 00102810 ?endImage@QBlendStyleAnimation@@QEBA?AVQImage@@XZ
       2671  A6E 00102830 ?endValue@QNumberStyleAnimation@@QEBANXZ
       2672  A6F 0000BBB0 ?enforceNativeChildren@QWidgetPrivate@@QEAAXXZ
       2673  A70 001FE860 ?ensureBlockLayout@QPlainTextDocumentLayout@@QEBAXAEBVQTextBlock@@@Z
       2674  A71 001FE8B0 ?ensureCursorVisible@QPlainTextEdit@@QEAAXXZ
       2675  A72 002070E0 ?ensureCursorVisible@QTextEdit@@QEAAXXZ
       2676  A73 0022C870 ?ensureCursorVisible@QWidgetTextControl@@UEAAXXZ
       2677  A74 00054AC0 ?ensurePolished@QWidget@@QEBAXXZ
       2678  A75 0002D730 ?ensureSceneTransform@QGraphicsItemPrivate@@QEAAXXZ
       2679  A76 00368570 ?ensureSceneTransformRecursive@QGraphicsItemPrivate@@QEAAXPEAPEAVQGraphicsItem@@@Z
       2680  A77 00368630 ?ensureSequentialSiblingIndex@QGraphicsItemPrivate@@QEAAXXZ
       2681  A78 0002D750 ?ensureSortedChildren@QGraphicsItemPrivate@@QEAAXXZ
       2682  A79 00368760 ?ensureVisible@QGraphicsItem@@QEAAXAEBVQRectF@@HH@Z
       2683  A7A 0000BC40 ?ensureVisible@QGraphicsItem@@QEAAXNNNNHH@Z
       2684  A7B 003B1CB0 ?ensureVisible@QGraphicsView@@QEAAXAEBVQRectF@@HH@Z
       2685  A7C 0000BC80 ?ensureVisible@QGraphicsView@@QEAAXNNNNHH@Z
       2686  A7D 003B1F40 ?ensureVisible@QGraphicsView@@QEAAXPEBVQGraphicsItem@@HH@Z
       2687  A7E 001D89B0 ?ensureVisible@QScrollArea@@QEAAXHHHH@Z
       2688  A7F 003D9800 ?ensureVisible@QScroller@@QEAAXAEBVQRectF@@NN@Z
       2689  A80 003D9820 ?ensureVisible@QScroller@@QEAAXAEBVQRectF@@NNH@Z
       2690  A81 001D8B60 ?ensureWidgetVisible@QScrollArea@@QEAAXPEAVQWidget@@HH@Z
       2691  A82 002506E0 ?enterDirectory@QFileDialogPrivate@@QEAAXAEBVQModelIndex@@@Z
       2692  A83 001BCF50 ?enterEvent@QMenu@@MEAAXPEAVQEnterEvent@@@Z
       2693  A84 00223850 ?enterEvent@QToolButton@@MEAAXPEAVQEnterEvent@@@Z
       2694  A85 00009A60 ?enterEvent@QWidget@@MEAAXPEAVQEnterEvent@@@Z
       2695  A86 00100520 ?enterWhatsThisMode@QWhatsThis@@SAXXZ
       2696  A87 002B2C70 ?entered@QAbstractItemView@@QEAAXAEBVQModelIndex@@@Z
       2697  A88 00275310 ?escapeButton@QMessageBox@@QEBAPEAVQAbstractButton@@XZ
       2698  A89 0011DD60 ?event@QAbstractButton@@MEAA_NPEAVQEvent@@@Z
       2699  A8A 002B3210 ?event@QAbstractItemView@@MEAA_NPEAVQEvent@@@Z
       2700  A8B 000E84D0 ?event@QAbstractScrollArea@@MEAA_NPEAVQEvent@@@Z
       2701  A8C 00120A20 ?event@QAbstractSlider@@MEAA_NPEAVQEvent@@@Z
       2702  A8D 001E0D30 ?event@QAbstractSpinBox@@UEAA_NPEAVQEvent@@@Z
       2703  A8E 0000BCC0 ?event@QApplication@@MEAA_NPEAVQEvent@@@Z
       2704  A8F 00128420 ?event@QCalendarWidget@@MEAA_NPEAVQEvent@@@Z
       2705  A90 0012F190 ?event@QCheckBox@@MEAA_NPEAVQEvent@@@Z
       2706  A91 00135700 ?event@QComboBox@@UEAA_NPEAVQEvent@@@Z
       2707  A92 001427A0 ?event@QCommandLinkButton@@MEAA_NPEAVQEvent@@@Z
       2708  A93 000E6E90 ?event@QCompleter@@MEAA_NPEAVQEvent@@@Z
       2709  A94 00146C90 ?event@QDateTimeEdit@@UEAA_NPEAVQEvent@@@Z
       2710  A95 0014D570 ?event@QDial@@MEAA_NPEAVQEvent@@@Z
       2711  A96 001D65D0 ?event@QDialogButtonBox@@MEAA_NPEAVQEvent@@@Z
       2712  A97 00162570 ?event@QDockWidget@@MEAA_NPEAVQEvent@@@Z
       2713  A98 000EC150 ?event@QFocusFrame@@MEAA_NPEAVQEvent@@@Z
       2714  A99 0016A500 ?event@QFontComboBox@@MEAA_NPEAVQEvent@@@Z
       2715  A9A 000ED3C0 ?event@QFrame@@MEAA_NPEAVQEvent@@@Z
       2716  A9B 00368B90 ?event@QGraphicsObject@@MEAA_NPEAVQEvent@@@Z
       2717  A9C 00380EF0 ?event@QGraphicsProxyWidget@@MEAA_NPEAVQEvent@@@Z
       2718  A9D 00394A00 ?event@QGraphicsScene@@MEAA_NPEAVQEvent@@@Z
       2719  A9E 003B1F90 ?event@QGraphicsView@@MEAA_NPEAVQEvent@@@Z
       2720  A9F 003BDC20 ?event@QGraphicsWidget@@MEAA_NPEAVQEvent@@@Z
       2721  AA0 0016D630 ?event@QGroupBox@@MEAA_NPEAVQEvent@@@Z
       2722  AA1 002C6130 ?event@QHeaderView@@MEAA_NPEAVQEvent@@@Z
       2723  AA2 0016FEB0 ?event@QKeySequenceEdit@@MEAA_NPEAVQEvent@@@Z
       2724  AA3 00178810 ?event@QLCDNumber@@MEAA_NPEAVQEvent@@@Z
       2725  AA4 00172CF0 ?event@QLabel@@MEAA_NPEAVQEvent@@@Z
       2726  AA5 0017CEA0 ?event@QLineEdit@@UEAA_NPEAVQEvent@@@Z
       2727  AA6 00128410 ?event@QListView@@MEAA_NPEAVQEvent@@@Z
       2728  AA7 002FF310 ?event@QListWidget@@MEAA_NPEAVQEvent@@@Z
       2729  AA8 0018DE40 ?event@QMainWindow@@MEAA_NPEAVQEvent@@@Z
       2730  AA9 001A33F0 ?event@QMdiArea@@MEAA_NPEAVQEvent@@@Z
       2731  AAA 001AE9B0 ?event@QMdiSubWindow@@MEAA_NPEAVQEvent@@@Z
       2732  AAB 001BD020 ?event@QMenu@@MEAA_NPEAVQEvent@@@Z
       2733  AAC 001CA290 ?event@QMenuBar@@MEAA_NPEAVQEvent@@@Z
       2734  AAD 00275320 ?event@QMessageBox@@MEAA_NPEAVQEvent@@@Z
       2735  AAE 001FEFC0 ?event@QPlainTextEdit@@MEAA_NPEAVQEvent@@@Z
       2736  AAF 001CF7C0 ?event@QProgressBar@@MEAA_NPEAVQEvent@@@Z
       2737  AB0 000A22B0 ?event@QProxyStyle@@MEAA_NPEAVQEvent@@@Z
       2738  AB1 001D1530 ?event@QPushButton@@MEAA_NPEAVQEvent@@@Z
       2739  AB2 001D2D70 ?event@QRadioButton@@MEAA_NPEAVQEvent@@@Z
       2740  AB3 000436B0 ?event@QRhiWidget@@MEAA_NPEAVQEvent@@@Z
       2741  AB4 00120A20 ?event@QRubberBand@@MEAA_NPEAVQEvent@@@Z
       2742  AB5 001D8EE0 ?event@QScrollArea@@MEAA_NPEAVQEvent@@@Z
       2743  AB6 001DA770 ?event@QScrollBar@@UEAA_NPEAVQEvent@@@Z
       2744  AB7 00120A20 ?event@QSizeGrip@@MEAA_NPEAVQEvent@@@Z
       2745  AB8 001DD700 ?event@QSlider@@UEAA_NPEAVQEvent@@@Z
       2746  AB9 001E5E90 ?event@QSpinBox@@MEAA_NPEAVQEvent@@@Z
       2747  ABA 001E8A20 ?event@QSplashScreen@@MEAA_NPEAVQEvent@@@Z
       2748  ABB 001EAC00 ?event@QSplitter@@MEAA_NPEAVQEvent@@@Z
       2749  ABC 001EAC90 ?event@QSplitterHandle@@MEAA_NPEAVQEvent@@@Z
       2750  ABD 00178810 ?event@QStackedWidget@@MEAA_NPEAVQEvent@@@Z
       2751  ABE 001EF640 ?event@QStatusBar@@MEAA_NPEAVQEvent@@@Z
       2752  ABF 000E6E90 ?event@QSystemTrayIcon@@MEAA_NPEAVQEvent@@@Z
       2753  AC0 001F2A20 ?event@QTabBar@@MEAA_NPEAVQEvent@@@Z
       2754  AC1 00210780 ?event@QTabWidget@@MEAA_NPEAVQEvent@@@Z
       2755  AC2 00128410 ?event@QTableWidget@@MEAA_NPEAVQEvent@@@Z
       2756  AC3 0020D680 ?event@QTextBrowser@@MEAA_NPEAVQEvent@@@Z
       2757  AC4 00207330 ?event@QTextEdit@@MEAA_NPEAVQEvent@@@Z
       2758  AC5 00213E50 ?event@QToolBar@@MEAA_NPEAVQEvent@@@Z
       2759  AC6 00178810 ?event@QToolBox@@MEAA_NPEAVQEvent@@@Z
       2760  AC7 002238B0 ?event@QToolButton@@MEAA_NPEAVQEvent@@@Z
       2761  AC8 0033EC90 ?event@QTreeWidget@@MEAA_NPEAVQEvent@@@Z
       2762  AC9 00054E80 ?event@QWidget@@MEAA_NPEAVQEvent@@@Z
       2763  ACA 000F6090 ?event@QWidgetAction@@MEAA_NPEAVQEvent@@@Z
       2764  ACB 000E6E90 ?event@QWidgetTextControl@@MEAA_NPEAVQEvent@@@Z
       2765  ACC 0007CE30 ?event@QWindowContainer@@MEAA_NPEAVQEvent@@@Z
       2766  ACD 002810E0 ?event@QWizard@@MEAA_NPEAVQEvent@@@Z
       2767  ACE 002B3410 ?eventFilter@QAbstractItemView@@MEAA_NPEAVQObject@@PEAVQEvent@@@Z
       2768  ACF 000E8B10 ?eventFilter@QAbstractScrollArea@@MEAA_NPEAVQObject@@PEAVQEvent@@@Z
       2769  AD0 001286F0 ?eventFilter@QCalendarWidget@@MEAA_NPEAVQObject@@PEAVQEvent@@@Z
       2770  AD1 001359F0 ?eventFilter@QComboBoxPrivateContainer@@MEAA_NPEAVQObject@@PEAVQEvent@@@Z
       2771  AD2 003CEBF0 ?eventFilter@QCompleter@@MEAA_NPEAVQObject@@PEAVQEvent@@@Z
       2772  AD3 000F6180 ?eventFilter@QDialog@@MEAA_NPEAVQObject@@PEAVQEvent@@@Z
       2773  AD4 000EC190 ?eventFilter@QFocusFrame@@MEAA_NPEAVQObject@@PEAVQEvent@@@Z
       2774  AD5 00269C60 ?eventFilter@QFontDialog@@MEAA_NPEAVQObject@@PEAVQEvent@@@Z
       2775  AD6 00381550 ?eventFilter@QGraphicsProxyWidget@@MEAA_NPEAVQObject@@PEAVQEvent@@@Z
       2776  AD7 00395450 ?eventFilter@QGraphicsScene@@MEAA_NPEAVQObject@@PEAVQEvent@@@Z
       2777  AD8 002D7610 ?eventFilter@QItemDelegate@@MEAA_NPEAVQObject@@PEAVQEvent@@@Z
       2778  AD9 001A37C0 ?eventFilter@QMdiArea@@MEAA_NPEAVQObject@@PEAVQEvent@@@Z
       2779  ADA 001AF440 ?eventFilter@QMdiSubWindow@@MEAA_NPEAVQObject@@PEAVQEvent@@@Z
       2780  ADB 001CA510 ?eventFilter@QMenuBar@@MEAA_NPEAVQObject@@PEAVQEvent@@@Z
       2781  ADC 0009D7B0 ?eventFilter@QPixmapStyle@@UEAA_NPEAVQObject@@PEAVQEvent@@@Z
       2782  ADD 001D8F20 ?eventFilter@QScrollArea@@MEAA_NPEAVQObject@@PEAVQEvent@@@Z
       2783  ADE 001DC340 ?eventFilter@QSizeGrip@@MEAA_NPEAVQObject@@PEAVQEvent@@@Z
       2784  ADF 002D7610 ?eventFilter@QStyledItemDelegate@@MEAA_NPEAVQObject@@PEAVQEvent@@@Z
       2785  AE0 000F6180 ?eventFilter@QWidgetAction@@MEAA_NPEAVQObject@@PEAVQEvent@@@Z
       2786  AE1 0007D3C0 ?eventFilter@QWindowContainer@@MEAA_NPEAVQObject@@PEAVQEvent@@@Z
       2787  AE2 00109D30 ?eventFilter@QWindowsStyle@@MEAA_NPEAVQObject@@PEAVQEvent@@@Z
       2788  AE3 00122EF0 ?exclusive@QButtonGroup@@QEBA_NXZ
       2789  AE4 0000C1A0 ?exec@QApplication@@SAHXZ
       2790  AE5 00242E40 ?exec@QDialog@@UEAAHXZ
       2791  AE6 001BD560 ?exec@QMenu@@QEAAPEAVQAction@@AEBVQPoint@@PEAV2@@Z
       2792  AE7 001BD580 ?exec@QMenu@@QEAAPEAVQAction@@XZ
       2793  AE8 001BD5C0 ?exec@QMenu@@SAPEAVQAction@@AEBV?$QList@PEAVQAction@@@@AEBVQPoint@@PEAV2@PEAVQWidget@@@Z
       2794  AE9 002B35C0 ?executeDelayedItemsLayout@QAbstractItemView@@IEAAXXZ
       2795  AEA 0033EE70 ?executePendingSort@QTreeWidgetItem@@AEBAXXZ
       2796  AEB 00327910 ?expand@QTreeView@@QEAAXAEBVQModelIndex@@@Z
       2797  AEC 00327C50 ?expand@QTreeViewPrivate@@QEAAXH_N@Z
       2798  AED 00327FA0 ?expandAll@QTreeView@@QEAAXXZ
       2799  AEE 0033EEB0 ?expandItem@QTreeWidget@@QEAAXPEBVQTreeWidgetItem@@@Z
       2800  AEF 003280F0 ?expandOrCollapseItemAtPos@QTreeViewPrivate@@QEAA_NAEBVQPoint@@@Z
       2801  AF0 00328210 ?expandRecursively@QTreeView@@QEAAXAEBVQModelIndex@@H@Z
       2802  AF1 003287E0 ?expandToDepth@QTreeView@@QEAAXH@Z
       2803  AF2 00328FD0 ?expanded@QTreeView@@QEAAXAEBVQModelIndex@@@Z
       2804  AF3 001F2FA0 ?expanding@QTabBar@@QEBA_NXZ
       2805  AF4 0001BBB0 ?expandingDirections@QBoxLayout@@UEBA?AV?$QFlags@W4Orientation@Qt@@@@XZ
       2806  AF5 000F8420 ?expandingDirections@QFormLayout@@UEBA?AV?$QFlags@W4Orientation@Qt@@@@XZ
       2807  AF6 000391E0 ?expandingDirections@QGridLayout@@UEBA?AV?$QFlags@W4Orientation@Qt@@@@XZ
       2808  AF7 0003E160 ?expandingDirections@QLayout@@UEBA?AV?$QFlags@W4Orientation@Qt@@@@XZ
       2809  AF8 000016C0 ?expandingDirections@QSizePolicy@@QEBA?AV?$QFlags@W4Orientation@Qt@@@@XZ
       2810  AF9 000412B0 ?expandingDirections@QSpacerItem@@UEBA?AV?$QFlags@W4Orientation@Qt@@@@XZ
       2811  AFA 000412D0 ?expandingDirections@QWidgetItem@@UEBA?AV?$QFlags@W4Orientation@Qt@@@@XZ
       2812  AFB 003004F0 ?expandsOnDoubleClick@QTreeView@@QEBA_NXZ
       2813  AFC 001E4980 ?extension@QGraphicsEllipseItem@@MEBA?AVQVariant@@AEBV2@@Z
       2814  AFD 001E4980 ?extension@QGraphicsItem@@MEBA?AVQVariant@@AEBV2@@Z
       2815  AFE 001E4980 ?extension@QGraphicsLineItem@@MEBA?AVQVariant@@AEBV2@@Z
       2816  AFF 001E4980 ?extension@QGraphicsPathItem@@MEBA?AVQVariant@@AEBV2@@Z
       2817  B00 001E4980 ?extension@QGraphicsPixmapItem@@MEBA?AVQVariant@@AEBV2@@Z
       2818  B01 001E4980 ?extension@QGraphicsPolygonItem@@MEBA?AVQVariant@@AEBV2@@Z
       2819  B02 001E4980 ?extension@QGraphicsRectItem@@MEBA?AVQVariant@@AEBV2@@Z
       2820  B03 001E4980 ?extension@QGraphicsSimpleTextItem@@MEBA?AVQVariant@@AEBV2@@Z
       2821  B04 001E4980 ?extension@QGraphicsTextItem@@MEBA?AVQVariant@@AEBV2@@Z
       2822  B05 0002E5E0 ?extra@QGraphicsItemPrivate@@QEBA?AVQVariant@@W4Extra@1@@Z
       2823  B06 0000C1B0 ?extraData@QWidgetPrivate@@QEBAPEAUQWExtra@@XZ
       2824  B07 00368BF0 ?extraItemCache@QGraphicsItemPrivate@@QEBAPEAVQGraphicsItemCache@@XZ
       2825  B08 001FF360 ?extraSelections@QPlainTextEdit@@QEBA?AV?$QList@UExtraSelection@QTextEdit@@@@XZ
       2826  B09 00207500 ?extraSelections@QTextEdit@@QEBA?AV?$QList@UExtraSelection@QTextEdit@@@@XZ
       2827  B0A 0022D110 ?extraSelections@QWidgetTextControl@@QEBA?AV?$QList@UExtraSelection@QTextEdit@@@@XZ
       2828  B0B 00162B90 ?features@QDockWidget@@QEBA?AV?$QFlags@W4DockWidgetFeature@QDockWidget@@@@XZ
       2829  B0C 00162BA0 ?featuresChanged@QDockWidget@@QEAAXV?$QFlags@W4DockWidgetFeature@QDockWidget@@@@@Z
       2830  B0D 002812D0 ?field@QWizard@@QEBA?AVQVariant@@AEBVQString@@@Z
       2831  B0E 002813B0 ?field@QWizardPage@@IEBA?AVQVariant@@AEBVQString@@@Z
       2832  B0F 000F8470 ?fieldGrowthPolicy@QFormLayout@@QEBA?AW4FieldGrowthPolicy@1@XZ
       2833  B10 00250D90 ?fileMode@QFileDialog@@QEBA?AW4FileMode@1@XZ
       2834  B11 00250DB0 ?fileRenamed@QFileDialogPrivate@@QEAAXAEBVQString@@00@Z
       2835  B12 00250FB0 ?fileSelected@QFileDialog@@QEAAXAEBVQString@@@Z
       2836  B13 00250FE0 ?filesSelected@QFileDialog@@QEAAXAEBV?$QList@VQString@@@@@Z
       2837  B14 00368DF0 ?fillRule@QGraphicsPolygonItem@@QEBA?AW4FillRule@Qt@@XZ
       2838  B15 00251010 ?filter@QFileDialog@@QEBA?AV?$QFlags@W4Filter@QDir@@@@XZ
       2839  B16 00251060 ?filterForMode@QFileDialogPrivate@@QEBA?AV?$QFlags@W4Filter@QDir@@@@V2@@Z
       2840  B17 003D07F0 ?filterMode@QCompleter@@QEBA?AV?$QFlags@W4MatchFlag@Qt@@@@XZ
       2841  B18 002510B0 ?filterSelected@QFileDialog@@QEAAXAEBVQString@@@Z
       2842  B19 00368E00 ?filtersChildEvents@QGraphicsItem@@QEBA_NXZ
       2843  B1A 003D9ED0 ?finalPosition@QScroller@@QEBA?AVQPointF@@XZ
       2844  B1B 001FF390 ?find@QPlainTextEdit@@QEAA_NAEBVQRegularExpression@@V?$QFlags@W4FindFlag@QTextDocument@@@@@Z
       2845  B1C 001FF3A0 ?find@QPlainTextEdit@@QEAA_NAEBVQString@@V?$QFlags@W4FindFlag@QTextDocument@@@@@Z
       2846  B1D 00207530 ?find@QTextEdit@@QEAA_NAEBVQRegularExpression@@V?$QFlags@W4FindFlag@QTextDocument@@@@@Z
       2847  B1E 00207540 ?find@QTextEdit@@QEAA_NAEBVQString@@V?$QFlags@W4FindFlag@QTextDocument@@@@@Z
       2848  B1F 00056160 ?find@QWidget@@SAPEAV1@_K@Z
       2849  B20 0022D320 ?find@QWidgetTextControl@@QEAA_NAEBVQRegularExpression@@V?$QFlags@W4FindFlag@QTextDocument@@@@@Z
       2850  B21 0022D3A0 ?find@QWidgetTextControl@@QEAA_NAEBVQString@@V?$QFlags@W4FindFlag@QTextDocument@@@@@Z
       2851  B22 0000C400 ?findClosestTouchPointTarget@QApplicationPrivate@@QEAAPEAVQWidget@@PEBVQPointingDevice@@AEBVQEventPoint@@@Z
       2852  B23 00135EF0 ?findData@QComboBox@@QEBAHAEBVQVariant@@HV?$QFlags@W4MatchFlag@Qt@@@@@Z
       2853  B24 001851C0 ?findInMask@QWidgetLineControl@@AEBAHH_N0VQChar@@@Z
       2854  B25 003B20B0 ?findItems@QGraphicsViewPrivate@@QEBA?AV?$QList@PEAVQGraphicsItem@@@@AEBVQRegion@@PEA_NAEBVQTransform@@@Z
       2855  B26 002FF320 ?findItems@QListWidget@@QEBA?AV?$QList@PEAVQListWidgetItem@@@@AEBVQString@@V?$QFlags@W4MatchFlag@Qt@@@@@Z
       2856  B27 0031AF50 ?findItems@QTableWidget@@QEBA?AV?$QList@PEAVQTableWidgetItem@@@@AEBVQString@@V?$QFlags@W4MatchFlag@Qt@@@@@Z
       2857  B28 0033EF60 ?findItems@QTreeWidget@@QEBA?AV?$QList@PEAVQTreeWidgetItem@@@@AEBVQString@@V?$QFlags@W4MatchFlag@Qt@@@@H@Z
       2858  B29 0022D420 ?findNextPrevAnchor@QWidgetTextControl@@QEAA_NAEBVQTextCursor@@_NAEAV2@@Z
       2859  B2A 0009DC00 ?findText@QComboBox@@QEBAHAEBVQString@@V?$QFlags@W4MatchFlag@Qt@@@@@Z
       2860  B2B 001E8B10 ?finish@QSplashScreen@@QEAAXPEAVQWidget@@@Z
       2861  B2C 00185290 ?finishChange@QWidgetLineControl@@AEAA_NH_N0@Z
       2862  B2D 002430D0 ?finished@QDialog@@QEAAXH@Z
       2863  B2E 001700B0 ?finishingKeyCombinations@QKeySequenceEdit@@QEBA?AV?$QList@VQKeyCombination@@@@XZ
       2864  B2F 00128880 ?firstDayOfWeek@QCalendarWidget@@QEBA?AW4DayOfWeek@Qt@@XZ
       2865  B30 001FF3B0 ?firstVisibleBlock@QPlainTextEdit@@IEBA?AVQTextBlock@@XZ
       2866  B31 00329000 ?firstVisibleItem@QTreeViewPrivate@@QEBAHPEAH@Z
       2867  B32 003B23C0 ?fitInView@QGraphicsView@@QEAAXAEBVQRectF@@W4AspectRatioMode@Qt@@@Z
       2868  B33 0000C540 ?fitInView@QGraphicsView@@QEAAXNNNNW4AspectRatioMode@Qt@@@Z
       2869  B34 003B25D0 ?fitInView@QGraphicsView@@QEAAXPEBVQGraphicsItem@@W4AspectRatioMode@Qt@@@Z
       2870  B35 000562B0 ?fixPosIncludesFrame@QWidgetPrivate@@QEAAXXZ
       2871  B36 000437A0 ?fixedColorBufferSize@QRhiWidget@@QEBA?AVQSize@@XZ
       2872  B37 00002700 ?fixedColorBufferSizeChanged@QRhiWidget@@QEAAXAEBVQSize@@@Z
       2873  B38 00109FE0 ?fixedPixelMetric@QWindowsStylePrivate@@SAHW4PixelMetric@QStyle@@@Z
       2874  B39 00009A60 ?fixup@QAbstractSpinBox@@UEBAXAEAVQString@@@Z
       2875  B3A 00146D60 ?fixup@QDateTimeEdit@@MEBAXAEAVQString@@@Z
       2876  B3B 001E5ED0 ?fixup@QDoubleSpinBox@@UEBAXAEAVQString@@@Z
       2877  B3C 001E5F20 ?fixup@QSpinBox@@MEBAXAEAVQString@@@Z
       2878  B3D 00185580 ?fixup@QWidgetLineControl@@QEAA_NXZ
       2879  B3E 00368E10 ?flags@QGraphicsItem@@QEBA?AV?$QFlags@W4GraphicsItemFlag@QGraphicsItem@@@@XZ
       2880  B3F 003AA030 ?flags@QGraphicsSceneMouseEvent@@QEBA?AV?$QFlags@W4MouseEventFlag@Qt@@@@XZ
       2881  B40 002FF5C0 ?flags@QListWidgetItem@@QEBA?AV?$QFlags@W4ItemFlag@Qt@@@@XZ
       2882  B41 0031B2E0 ?flags@QTableWidgetItem@@QEBA?AV?$QFlags@W4ItemFlag@Qt@@@@XZ
       2883  B42 0033F430 ?flags@QTreeWidgetItem@@QEBA?AV?$QFlags@W4ItemFlag@Qt@@@@XZ
       2884  B43 00056390 ?flagsForDumping@QWidgetPrivate@@UEBA?AV?$basic_string@DU?$char_traits@D@std@@V?$allocator@D@2@@std@@XZ
       2885  B44 002F04C0 ?flow@QListView@@QEBA?AW4Flow@1@XZ
       2886  B45 00072F70 ?flush@QWidgetRepaintManager@@AEAAXPEAVQWidget@@AEBVQRegion@@PEAVQPlatformTextureList@@@Z
       2887  B46 000733E0 ?flush@QWidgetRepaintManager@@AEAAXXZ
       2888  B47 0000C580 ?focusChanged@QApplication@@QEAAXPEAVQWidget@@0@Z
       2889  B48 00292050 ?focusChild@QAccessibleWidget@@UEBAPEAVQAccessibleInterface@@XZ
       2890  B49 0011DEB0 ?focusInEvent@QAbstractButton@@MEAAXPEAVQFocusEvent@@@Z
       2891  B4A 002B3C50 ?focusInEvent@QAbstractItemView@@MEAAXPEAVQFocusEvent@@@Z
       2892  B4B 001E0F70 ?focusInEvent@QAbstractSpinBox@@MEAAXPEAVQFocusEvent@@@Z
       2893  B4C 00135FF0 ?focusInEvent@QComboBox@@MEAAXPEAVQFocusEvent@@@Z
       2894  B4D 00146E10 ?focusInEvent@QDateTimeEdit@@MEAAXPEAVQFocusEvent@@@Z
       2895  B4E 00368E30 ?focusInEvent@QGraphicsItem@@MEAAXPEAVQFocusEvent@@@Z
       2896  B4F 00381A90 ?focusInEvent@QGraphicsProxyWidget@@MEAAXPEAVQFocusEvent@@@Z
       2897  B50 003954E0 ?focusInEvent@QGraphicsScene@@MEAAXPEAVQFocusEvent@@@Z
       2898  B51 00368E60 ?focusInEvent@QGraphicsTextItem@@MEAAXPEAVQFocusEvent@@@Z
       2899  B52 003B2710 ?focusInEvent@QGraphicsView@@MEAAXPEAVQFocusEvent@@@Z
       2900  B53 003BE020 ?focusInEvent@QGraphicsWidget@@MEAAXPEAVQFocusEvent@@@Z
       2901  B54 0016DAD0 ?focusInEvent@QGroupBox@@MEAAXPEAVQFocusEvent@@@Z
       2902  B55 00172E60 ?focusInEvent@QLabel@@MEAAXPEAVQFocusEvent@@@Z
       2903  B56 0017D0D0 ?focusInEvent@QLineEdit@@MEAAXPEAVQFocusEvent@@@Z
       2904  B57 001AFF00 ?focusInEvent@QMdiSubWindow@@MEAAXPEAVQFocusEvent@@@Z
       2905  B58 001CA9C0 ?focusInEvent@QMenuBar@@MEAAXPEAVQFocusEvent@@@Z
       2906  B59 001FF3F0 ?focusInEvent@QPlainTextEdit@@MEAAXPEAVQFocusEvent@@@Z
       2907  B5A 001D1660 ?focusInEvent@QPushButton@@MEAAXPEAVQFocusEvent@@@Z
       2908  B5B 00207550 ?focusInEvent@QTextEdit@@MEAAXPEAVQFocusEvent@@@Z
       2909  B5C 00056760 ?focusInEvent@QWidget@@MEAAXPEAVQFocusEvent@@@Z
       2910  B5D 00368F20 ?focusItem@QGraphicsItem@@QEBAPEAV1@XZ
       2911  B5E 003955D0 ?focusItem@QGraphicsScene@@QEBAPEAVQGraphicsItem@@XZ
       2912  B5F 003955F0 ?focusItemChanged@QGraphicsScene@@QEAAXPEAVQGraphicsItem@@0W4FocusReason@Qt@@@Z
       2913  B60 000016E0 ?focusNextChild@QWidget@@IEAA_NXZ
       2914  B61 002B3F00 ?focusNextPrevChild@QAbstractItemView@@MEAA_N_N@Z
       2915  B62 00147110 ?focusNextPrevChild@QDateTimeEdit@@MEAA_N_N@Z
       2916  B63 00381E60 ?focusNextPrevChild@QGraphicsProxyWidget@@MEAA_N_N@Z
       2917  B64 00395660 ?focusNextPrevChild@QGraphicsScene@@MEAA_N_N@Z
       2918  B65 003B27C0 ?focusNextPrevChild@QGraphicsView@@MEAA_N_N@Z
       2919  B66 003BE050 ?focusNextPrevChild@QGraphicsWidget@@MEAA_N_N@Z
       2920  B67 00172F30 ?focusNextPrevChild@QLabel@@MEAA_N_N@Z
       2921  B68 001BDA10 ?focusNextPrevChild@QMenu@@MEAA_N_N@Z
       2922  B69 001FF450 ?focusNextPrevChild@QPlainTextEdit@@MEAA_N_N@Z
       2923  B6A 001D8F90 ?focusNextPrevChild@QScrollArea@@UEAA_N_N@Z
       2924  B6B 0020D990 ?focusNextPrevChild@QTextBrowser@@MEAA_N_N@Z
       2925  B6C 00207640 ?focusNextPrevChild@QTextEdit@@MEAA_N_N@Z
       2926  B6D 000567B0 ?focusNextPrevChild@QWidget@@MEAA_N_N@Z
       2927  B6E 0000C5E0 ?focusNextPrevChild_helper@QApplicationPrivate@@SAPEAVQWidget@@PEAV2@_NPEA_N@Z
       2928  B6F 00056930 ?focusObject@QWidgetPrivate@@UEAAPEAVQObject@@XZ
       2929  B70 00395990 ?focusOnTouch@QGraphicsScene@@QEBA_NXZ
       2930  B71 0011DFB0 ?focusOutEvent@QAbstractButton@@MEAAXPEAVQFocusEvent@@@Z
       2931  B72 002B4000 ?focusOutEvent@QAbstractItemView@@MEAAXPEAVQFocusEvent@@@Z
       2932  B73 001E1060 ?focusOutEvent@QAbstractSpinBox@@MEAAXPEAVQFocusEvent@@@Z
       2933  B74 00136070 ?focusOutEvent@QComboBox@@MEAAXPEAVQFocusEvent@@@Z
       2934  B75 00368E30 ?focusOutEvent@QGraphicsItem@@MEAAXPEAVQFocusEvent@@@Z
       2935  B76 00381F40 ?focusOutEvent@QGraphicsProxyWidget@@MEAAXPEAVQFocusEvent@@@Z
       2936  B77 003959A0 ?focusOutEvent@QGraphicsScene@@MEAAXPEAVQFocusEvent@@@Z
       2937  B78 00368F30 ?focusOutEvent@QGraphicsTextItem@@MEAAXPEAVQFocusEvent@@@Z
       2938  B79 003B27D0 ?focusOutEvent@QGraphicsView@@MEAAXPEAVQFocusEvent@@@Z
       2939  B7A 003BE020 ?focusOutEvent@QGraphicsWidget@@MEAAXPEAVQFocusEvent@@@Z
       2940  B7B 001700E0 ?focusOutEvent@QKeySequenceEdit@@MEAAXPEAVQFocusEvent@@@Z
       2941  B7C 00172F80 ?focusOutEvent@QLabel@@MEAAXPEAVQFocusEvent@@@Z
       2942  B7D 0017D3C0 ?focusOutEvent@QLineEdit@@MEAAXPEAVQFocusEvent@@@Z
       2943  B7E 00009A60 ?focusOutEvent@QMdiSubWindow@@MEAAXPEAVQFocusEvent@@@Z
       2944  B7F 001CAA60 ?focusOutEvent@QMenuBar@@MEAAXPEAVQFocusEvent@@@Z
       2945  B80 001FF4B0 ?focusOutEvent@QPlainTextEdit@@MEAAXPEAVQFocusEvent@@@Z
       2946  B81 001D1750 ?focusOutEvent@QPushButton@@MEAAXPEAVQFocusEvent@@@Z
       2947  B82 0020D9E0 ?focusOutEvent@QTextBrowser@@MEAAXPEAVQFocusEvent@@@Z
       2948  B83 002076A0 ?focusOutEvent@QTextEdit@@MEAAXPEAVQFocusEvent@@@Z
       2949  B84 000569A0 ?focusOutEvent@QWidget@@MEAAXPEAVQFocusEvent@@@Z
       2950  B85 003BE130 ?focusPolicy@QGraphicsWidget@@QEBA?AW4FocusPolicy@Qt@@XZ
       2951  B86 00056D00 ?focusPolicy@QWidget@@QEBA?AW4FocusPolicy@Qt@@XZ
       2952  B87 00001700 ?focusPreviousChild@QWidget@@IEAA_NXZ
       2953  B88 00368FD0 ?focusProxy@QGraphicsItem@@QEBAPEAV1@XZ
       2954  B89 00056D10 ?focusProxy@QWidget@@QEBAPEAV1@XZ
       2955  B8A 00368FE0 ?focusScopeItem@QGraphicsItem@@QEBAPEAV1@XZ
       2956  B8B 00009A60 ?focusScopeItemChange@QGraphicsItemPrivate@@UEAAX_N@Z
       2957  B8C 0000C7D0 ?focusWidget@QApplication@@SAPEAVQWidget@@XZ
       2958  B8D 003BE140 ?focusWidget@QGraphicsWidget@@QEBAPEAV1@XZ
       2959  B8E 00056D40 ?focusWidget@QWidget@@QEBAPEAV1@XZ
       2960  B8F 005E1D88 ?focus_widget@QApplicationPrivate@@2PEAVQWidget@@EA
       2961  B90 0000C7E0 ?font@QApplication@@SA?AVQFont@@PEBD@Z
       2962  B91 0000C9B0 ?font@QApplication@@SA?AVQFont@@PEBVQWidget@@@Z
       2963  B92 0000CC90 ?font@QApplication@@SA?AVQFont@@XZ
       2964  B93 00395A10 ?font@QGraphicsScene@@QEBA?AVQFont@@XZ
       2965  B94 00368FF0 ?font@QGraphicsSimpleTextItem@@QEBA?AVQFont@@XZ
       2966  B95 00369020 ?font@QGraphicsTextItem@@QEBA?AVQFont@@XZ
       2967  B96 003BE170 ?font@QGraphicsWidget@@QEBA?AVQFont@@XZ
       2968  B97 002FF5D0 ?font@QListWidgetItem@@QEBA?AVQFont@@XZ
       2969  B98 002FF5D0 ?font@QTableWidgetItem@@QEBA?AVQFont@@XZ
       2970  B99 000FEC00 ?font@QToolTip@@SA?AVQFont@@XZ
       2971  B9A 0033F440 ?font@QTreeWidgetItem@@QEBA?AVQFont@@H@Z
       2972  B9B 00001720 ?font@QWidget@@QEBAAEBVQFont@@XZ
       2973  B9C 00207770 ?fontFamily@QTextEdit@@QEBA?AVQString@@XZ
       2974  B9D 0016A5C0 ?fontFilters@QFontComboBox@@QEBA?AV?$QFlags@W4FontFilter@QFontComboBox@@@@XZ
       2975  B9E 00001730 ?fontInfo@QWidget@@QEBA?AVQFontInfo@@XZ
       2976  B9F 002078B0 ?fontItalic@QTextEdit@@QEBA_NXZ
       2977  BA0 0000CCB0 ?fontMetrics@QApplication@@SA?AVQFontMetrics@@XZ
       2978  BA1 00001760 ?fontMetrics@QWidget@@QEBA?AVQFontMetrics@@XZ
       2979  BA2 00207910 ?fontPointSize@QTextEdit@@QEBANXZ
       2980  BA3 00269F90 ?fontSelected@QFontDialog@@QEAAXAEBVQFont@@@Z
       2981  BA4 00207970 ?fontUnderline@QTextEdit@@QEBA_NXZ
       2982  BA5 002079D0 ?fontWeight@QTextEdit@@QEBAHXZ
       2983  BA6 0027A440 ?forceShow@QProgressDialog@@IEAAXXZ
       2984  BA7 002FF710 ?foreground@QListWidgetItem@@QEBA?AVQBrush@@XZ
       2985  BA8 002FF710 ?foreground@QTableWidgetItem@@QEBA?AVQBrush@@XZ
       2986  BA9 0033F590 ?foreground@QTreeWidgetItem@@QEBA?AVQBrush@@H@Z
       2987  BAA 00395A40 ?foregroundBrush@QGraphicsScene@@QEBA?AVQBrush@@XZ
       2988  BAB 003B2840 ?foregroundBrush@QGraphicsView@@QEBA?AVQBrush@@XZ
       2989  BAC 002921A0 ?foregroundColor@QAccessibleWidget@@UEBA?AVQColor@@XZ
       2990  BAD 00056D50 ?foregroundRole@QWidget@@QEBA?AW4ColorRole@QPalette@@XZ
       2991  BAE 000F84E0 ?formAlignment@QFormLayout@@QEBA?AV?$QFlags@W4AlignmentFlag@Qt@@@@XZ
       2992  BAF 001CF870 ?format@QProgressBar@@QEBA?AVQString@@XZ
       2993  BB0 0020DA80 ?forward@QTextBrowser@@UEAAXXZ
       2994  BB1 0020DD80 ?forwardAvailable@QTextBrowser@@QEAAX_N@Z
       2995  BB2 0020DDC0 ?forwardHistoryCount@QTextBrowser@@QEBAHXZ
       2996  BB3 001FF4E0 ?frameBoundingRect@QPlainTextDocumentLayout@@UEBA?AVQRectF@@PEAVQTextFrame@@@Z
       2997  BB4 00056E70 ?frameGeometry@QWidget@@QEBA?AVQRect@@XZ
       2998  BB5 00102840 ?frameRate@QStyleAnimation@@QEBA?AW4FrameRate@1@XZ
       2999  BB6 000ED420 ?frameRect@QFrame@@QEBA?AVQRect@@XZ
       3000  BB7 000ED470 ?frameShadow@QFrame@@QEBA?AW4Shadow@1@XZ
       3001  BB8 000ED480 ?frameShape@QFrame@@QEBA?AW4Shape@1@XZ
       3002  BB9 00056FC0 ?frameSize@QWidget@@QEBA?AVQSize@@XZ
       3003  BBA 000570F0 ?frameStrut@QWidgetPrivate@@QEBA?AVQRect@@XZ
       3004  BBB 000ED490 ?frameStyle@QFrame@@QEBAHXZ
       3005  BBC 00002730 ?frameSubmitted@QRhiWidget@@QEAAXXZ
       3006  BBD 000ED4A0 ?frameWidth@QFrame@@QEBAHXZ
       3007  BBE 003B2870 ?freeStyleOptionsArray@QGraphicsViewPrivate@@QEAAXPEAVQStyleOptionGraphicsItem@@@Z
       3008  BBF 0008BBF0 ?generatedIconPixmap@QCommonStyle@@UEBA?AVQPixmap@@W4Mode@QIcon@@AEBV2@PEBVQStyleOption@@@Z
       3009  BC0 00118BC0 ?generatedIconPixmap@QFusionStyle@@UEBA?AVQPixmap@@W4Mode@QIcon@@AEBV2@PEBVQStyleOption@@@Z
       3010  BC1 000A2320 ?generatedIconPixmap@QProxyStyle@@UEBA?AVQPixmap@@W4Mode@QIcon@@AEBV2@PEBVQStyleOption@@@Z
       3011  BC2 00369340 ?genericMapFromScene@QGraphicsItemPrivate@@QEBA?AVQPointF@@AEBV2@PEBVQWidget@@@Z
       3012  BC3 00369440 ?genericMapFromSceneTransform@QGraphicsItemPrivate@@QEBA?AVQTransform@@PEBVQWidget@@@Z
       3013  BC4 002C65E0 ?geometriesChanged@QHeaderView@@QEAAXXZ
       3014  BC5 0037D5C0 ?geometry@QGraphicsLayoutItem@@QEBA?AVQRectF@@XZ
       3015  BC6 0003E170 ?geometry@QLayout@@UEBA?AVQRect@@XZ
       3016  BC7 000413F0 ?geometry@QSpacerItem@@UEBA?AVQRect@@XZ
       3017  BC8 000E6EA0 ?geometry@QSystemTrayIcon@@QEBA?AVQRect@@XZ
       3018  BC9 00001790 ?geometry@QWidget@@QEBAAEBVQRect@@XZ
       3019  BCA 00041400 ?geometry@QWidgetItem@@UEBA?AVQRect@@XZ
       3020  BCB 003BE1B0 ?geometryChanged@QGraphicsWidget@@QEAAXXZ
       3021  BCC 00020B30 ?gesture@QGestureEvent@@QEBAPEAVQGesture@@W4GestureType@Qt@@@Z
       3022  BCD 00020B70 ?gestureCancelPolicy@QGesture@@QEBA?AW4GestureCancelPolicy@1@XZ
       3023  BCE 00020B80 ?gestureType@QGesture@@QEBA?AW4GestureType@Qt@@XZ
       3024  BCF 00020B90 ?gestures@QGestureEvent@@QEBA?AV?$QList@PEAVQGesture@@@@XZ
       3025  BD0 000016B0 ?get@QGraphicsItemPrivate@@SAPEAV1@PEAVQGraphicsItem@@@Z
       3026  BD1 000016B0 ?get@QGraphicsItemPrivate@@SAPEBV1@PEBVQGraphicsItem@@@Z
       3027  BD2 000016B0 ?get@QWidgetPrivate@@SAPEAV1@PEAVQWidget@@@Z
       3028  BD3 000016B0 ?get@QWidgetPrivate@@SAPEBV1@PEBVQWidget@@@Z
       3029  BD4 0023B2B0 ?getColor@QColorDialog@@SA?AVQColor@@AEBV2@PEAVQWidget@@AEBVQString@@V?$QFlags@W4ColorDialogOption@QColorDialog@@@@@Z
       3030  BD5 0037C1C0 ?getContentsMargins@QGraphicsLayout@@UEBAXPEAN000@Z
       3031  BD6 0037D5E0 ?getContentsMargins@QGraphicsLayoutItem@@UEBAXPEAN000@Z
       3032  BD7 003BE1D0 ?getContentsMargins@QGraphicsWidget@@UEBAXPEAN000@Z
       3033  BD8 0003E190 ?getContentsMargins@QLayout@@QEBAXPEAH000@Z
       3034  BD9 0026FFE0 ?getDouble@QInputDialog@@SANPEAVQWidget@@AEBVQString@@1NNNHPEA_NV?$QFlags@W4WindowType@Qt@@@@N@Z
       3035  BDA 002510E0 ?getEnvironmentVariable@QFileDialogPrivate@@QEAA?AVQString@@AEBV2@@Z
       3036  BDB 00251240 ?getExistingDirectory@QFileDialog@@SA?AVQString@@PEAVQWidget@@AEBV2@1V?$QFlags@W4Option@QFileDialog@@@@@Z
       3037  BDC 00251400 ?getExistingDirectoryUrl@QFileDialog@@SA?AVQUrl@@PEAVQWidget@@AEBVQString@@AEBV2@V?$QFlags@W4Option@QFileDialog@@@@AEBV?$QList@VQString@@@@@Z
       3038  BDD 00269FC0 ?getFont@QFontDialog@@SA?AVQFont@@PEA_NAEBV2@PEAVQWidget@@AEBVQString@@V?$QFlags@W4FontDialogOption@QFontDialog@@@@@Z
       3039  BDE 00269FF0 ?getFont@QFontDialog@@SA?AVQFont@@PEA_NPEAVQWidget@@@Z
       3040  BDF 0000CE20 ?getHWNDForWidget@QApplicationPrivate@@SAPEAUHWND__@@PEBVQWidget@@@Z
       3041  BE0 00270210 ?getInt@QInputDialog@@SAHPEAVQWidget@@AEBVQString@@1HHHHPEA_NV?$QFlags@W4WindowType@Qt@@@@@Z
       3042  BE1 002703F0 ?getItem@QInputDialog@@SA?AVQString@@PEAVQWidget@@AEBV2@1AEBV?$QList@VQString@@@@H_NPEA_NV?$QFlags@W4WindowType@Qt@@@@V?$QFlags@W4InputMethodHint@Qt@@@@@Z
       3043  BE2 000F8560 ?getItemPosition@QFormLayout@@QEBAXHPEAHPEAW4ItemRole@1@@Z
       3044  BE3 00039450 ?getItemPosition@QGridLayout@@QEBAXHPEAH000@Z
       3045  BE4 000571D0 ?getLayoutItemMargins@QWidgetPrivate@@QEBAXPEAH000@Z
       3046  BE5 000F8650 ?getLayoutPosition@QFormLayout@@QEBAXPEAVQLayout@@PEAHPEAW4ItemRole@1@@Z
       3047  BE6 0003E350 ?getMargin@QLayoutPrivate@@QEBAXPEAHHW4PixelMetric@QStyle@@@Z
       3048  BE7 00270660 ?getMultiLineText@QInputDialog@@SA?AVQString@@PEAVQWidget@@AEBV2@11PEA_NV?$QFlags@W4WindowType@Qt@@@@V?$QFlags@W4InputMethodHint@Qt@@@@@Z
       3049  BE8 00057210 ?getOpaqueChildren@QWidgetPrivate@@QEBAAEBVQRegion@@XZ
       3050  BE9 00002AB0 ?getOpenFileContent@QFileDialog@@SAXAEBVQString@@AEBV?$function@$$A6AXAEBVQString@@AEBVQByteArray@@@Z@std@@@Z
       3051  BEA 002516B0 ?getOpenFileContent@QFileDialog@@SAXAEBVQString@@AEBV?$function@$$A6AXAEBVQString@@AEBVQByteArray@@@Z@std@@PEAVQWidget@@@Z
       3052  BEB 002518B0 ?getOpenFileName@QFileDialog@@SA?AVQString@@PEAVQWidget@@AEBV2@11PEAV2@V?$QFlags@W4Option@QFileDialog@@@@@Z
       3053  BEC 00251A80 ?getOpenFileNames@QFileDialog@@SA?AV?$QList@VQString@@@@PEAVQWidget@@AEBVQString@@11PEAV4@V?$QFlags@W4Option@QFileDialog@@@@@Z
       3054  BED 00251D70 ?getOpenFileUrl@QFileDialog@@SA?AVQUrl@@PEAVQWidget@@AEBVQString@@AEBV2@1PEAV4@V?$QFlags@W4Option@QFileDialog@@@@AEBV?$QList@VQString@@@@@Z
       3055  BEE 00252090 ?getOpenFileUrls@QFileDialog@@SA?AV?$QList@VQUrl@@@@PEAVQWidget@@AEBVQString@@AEBVQUrl@@1PEAV4@V?$QFlags@W4Option@QFileDialog@@@@AEBV?$QList@VQString@@@@@Z
       3056  BEF 001FF520 ?getPaintContext@QPlainTextEdit@@IEBA?AUPaintContext@QAbstractTextDocumentLayout@@XZ
       3057  BF0 0022E5F0 ?getPaintContext@QWidgetTextControl@@QEBA?AUPaintContext@QAbstractTextDocumentLayout@@PEAVQWidget@@@Z
       3058  BF1 001EACF0 ?getRange@QSplitter@@QEBAXHPEAH0@Z
       3059  BF2 00252320 ?getSaveFileName@QFileDialog@@SA?AVQString@@PEAVQWidget@@AEBV2@11PEAV2@V?$QFlags@W4Option@QFileDialog@@@@@Z
       3060  BF3 002524F0 ?getSaveFileUrl@QFileDialog@@SA?AVQUrl@@PEAVQWidget@@AEBVQString@@AEBV2@1PEAV4@V?$QFlags@W4Option@QFileDialog@@@@AEBV?$QList@VQString@@@@@Z
       3061  BF4 00270950 ?getText@QInputDialog@@SA?AVQString@@PEAVQWidget@@AEBV2@1W4EchoMode@QLineEdit@@1PEA_NV?$QFlags@W4WindowType@Qt@@@@V?$QFlags@W4InputMethodHint@Qt@@@@@Z
       3062  BF5 000F87A0 ?getWidgetPosition@QFormLayout@@QEBAXPEAVQWidget@@PEAHPEAW4ItemRole@1@@Z
       3063  BF6 003BE280 ?getWindowFrameMargins@QGraphicsWidget@@QEBAXPEAN000@Z
       3064  BF7 0000CF30 ?giveFocusAccordingToFocusPolicy@QApplicationPrivate@@CAXPEAVQWidget@@PEAVQEvent@@VQPoint@@@Z
       3065  BF8 00252830 ?goHome@QFileDialogPrivate@@QEAAXXZ
       3066  BF9 00252870 ?goToDirectory@QFileDialogPrivate@@QEAAXAEBVQString@@@Z
       3067  BFA 00252CA0 ?goToUrl@QFileDialogPrivate@@QEAAXAEBVQUrl@@@Z
       3068  BFB 00057440 ?grab@QWidget@@QEAA?AVQPixmap@@AEBVQRect@@@Z
       3069  BFC 000437C0 ?grabFramebuffer@QRhiWidget@@QEBA?AVQImage@@XZ
       3070  BFD 0000D3D0 ?grabFramebuffer@QWidgetPrivate@@UEAA?AVQImage@@XZ
       3071  BFE 00369520 ?grabGesture@QGraphicsObject@@QEAAXW4GestureType@Qt@@V?$QFlags@W4GestureFlag@Qt@@@@@Z
       3072  BFF 003D9F50 ?grabGesture@QScroller@@SA?AW4GestureType@Qt@@PEAVQObject@@W4ScrollerGestureType@1@@Z
       3073  C00 000576A0 ?grabGesture@QWidget@@QEAAXW4GestureType@Qt@@V?$QFlags@W4GestureFlag@Qt@@@@@Z
       3074  C01 00369600 ?grabKeyboard@QGraphicsItem@@QEAAXXZ
       3075  C02 000576E0 ?grabKeyboard@QWidget@@QEAAXXZ
       3076  C03 00009A60 ?grabKeyboardEvent@QGraphicsWidget@@MEAAXPEAVQEvent@@@Z
       3077  C04 00369680 ?grabMouse@QGraphicsItem@@QEAAXXZ
       3078  C05 00057800 ?grabMouse@QWidget@@QEAAXAEBVQCursor@@@Z
       3079  C06 000578F0 ?grabMouse@QWidget@@QEAAXXZ
       3080  C07 00009A60 ?grabMouseEvent@QGraphicsProxyWidget@@MEAAXPEAVQEvent@@@Z
       3081  C08 00009A60 ?grabMouseEvent@QGraphicsWidget@@MEAAXPEAVQEvent@@@Z
       3082  C09 003BE330 ?grabShortcut@QGraphicsWidget@@QEAAHAEBVQKeySequence@@W4ShortcutContext@Qt@@@Z
       3083  C0A 000579B0 ?grabShortcut@QWidget@@QEAAHAEBVQKeySequence@@W4ShortcutContext@Qt@@@Z
       3084  C0B 003DA0D0 ?grabbedGesture@QScroller@@SA?AW4GestureType@Qt@@PEAVQObject@@@Z
       3085  C0C 00369700 ?graphicsEffect@QGraphicsItem@@QEBAPEAVQGraphicsEffect@@XZ
       3086  C0D 00057A40 ?graphicsEffect@QWidget@@QEBAPEAVQGraphicsEffect@@XZ
       3087  C0E 000F1820 ?graphicsItem@QGraphicsEffectSource@@QEBAPEBVQGraphicsItem@@XZ
       3088  C0F 0037D610 ?graphicsItem@QGraphicsLayoutItem@@QEBAPEAVQGraphicsItem@@XZ
       3089  C10 00057A50 ?graphicsProxyWidget@QWidget@@QEBAPEAVQGraphicsProxyWidget@@XZ
       3090  C11 002F04D0 ?gridSize@QListView@@QEBA?AVQSize@@XZ
       3091  C12 002CA280 ?gridStyle@QTableView@@QEBA?AW4PenStyle@Qt@@XZ
       3092  C13 000E9060 ?group@QAbstractButton@@QEBAPEAVQButtonGroup@@XZ
       3093  C14 00369710 ?group@QGraphicsItem@@QEBAPEAVQGraphicsItemGroup@@XZ
       3094  C15 003E22F0 ?group@QUndoView@@QEBAPEAVQUndoGroup@@XZ
       3095  C16 001EB280 ?handle@QSplitter@@QEBAPEAVQSplitterHandle@@H@Z
       3096  C17 00057A70 ?handleClose@QWidgetPrivate@@QEAA_NW4CloseMode@1@@Z
       3097  C18 003DA430 ?handleInput@QScroller@@QEAA_NW4Input@1@AEBVQPointF@@_J@Z
       3098  C19 0000D3F0 ?handlePaletteChanged@QApplicationPrivate@@MEAAXPEBD@Z
       3099  C1A 0000D5A0 ?handleSoftwareInputPanel@QWidgetPrivate@@QEAAXW4MouseButton@Qt@@_N@Z
       3100  C1B 0000D620 ?handleSoftwareInputPanel@QWidgetPrivate@@QEAAX_N@Z
       3101  C1C 0000D6A0 ?handleThemeChanged@QApplicationPrivate@@MEAAXXZ
       3102  C1D 001EB2B0 ?handleWidth@QSplitter@@QEBAHXZ
       3103  C1E 00369780 ?handlesChildEvents@QGraphicsItem@@QEBA_NXZ
       3104  C1F 001E11F0 ?hasAcceptableInput@QAbstractSpinBox@@QEBA_NXZ
       3105  C20 0017D560 ?hasAcceptableInput@QLineEdit@@QEBA_NXZ
       3106  C21 001856F0 ?hasAcceptableInput@QWidgetLineControl@@AEBA_NAEBVQString@@@Z
       3107  C22 00137150 ?hasAcceptableInput@QWidgetLineControl@@QEBA_NXZ
       3108  C23 000A8690 ?hasAncestor@QStyleHelper@@YA_NPEAVQObject@@W4Role@QAccessible@@@Z
       3109  C24 002B4020 ?hasAutoScroll@QAbstractItemView@@QEBA_NXZ
       3110  C25 00057CF0 ?hasChildWithFocusPolicy@QWidgetPrivate@@QEBA_NW4FocusPolicy@Qt@@PEBVQWidget@@@Z
       3111  C26 002D7620 ?hasClipping@QItemDelegate@@QEBA_NXZ
       3112  C27 00369790 ?hasCursor@QGraphicsItem@@QEBA_NXZ
       3113  C28 003697A0 ?hasFocus@QGraphicsItem@@QEBA_NXZ
       3114  C29 00398880 ?hasFocus@QGraphicsScene@@QEBA_NXZ
       3115  C2A 00057DF0 ?hasFocus@QWidget@@QEBA_NXZ
       3116  C2B 001E1200 ?hasFrame@QAbstractSpinBox@@QEBA_NXZ
       3117  C2C 00137160 ?hasFrame@QComboBox@@QEBA_NXZ
       3118  C2D 0017D580 ?hasFrame@QLineEdit@@QEBA_NXZ
       3119  C2E 0001BBF0 ?hasHeightForWidth@QBoxLayout@@UEBA_NXZ
       3120  C2F 000F88A0 ?hasHeightForWidth@QFormLayout@@UEBA_NXZ
       3121  C30 000394C0 ?hasHeightForWidth@QGridLayout@@UEBA_NXZ
       3122  C31 0000FF60 ?hasHeightForWidth@QLayoutItem@@UEBA_NXZ
       3123  C32 000017A0 ?hasHeightForWidth@QSizePolicy@@QEBA_NXZ
       3124  C33 00045810 ?hasHeightForWidth@QStackedLayout@@UEBA_NXZ
       3125  C34 002107C0 ?hasHeightForWidth@QTabWidget@@UEBA_NXZ
       3126  C35 00057EF0 ?hasHeightForWidth@QWidget@@UEBA_NXZ
       3127  C36 000414A0 ?hasHeightForWidth@QWidgetItem@@UEBA_NXZ
       3128  C37 00020BC0 ?hasHotSpot@QGesture@@QEBA_NXZ
       3129  C38 000017B0 ?hasMouseTracking@QWidget@@QEBA_NXZ
       3130  C39 001730A0 ?hasScaledContents@QLabel@@QEBA_NXZ
       3131  C3A 003DA6F0 ?hasScroller@QScroller@@SA_NPEAVQObject@@@Z
       3132  C3B 0010A0B0 ?hasSeenAlt@QWindowsStylePrivate@@QEBA_NPEBVQWidget@@@Z
       3133  C3C 001730B0 ?hasSelectedText@QLabel@@QEBA_NXZ
       3134  C3D 0017D590 ?hasSelectedText@QLineEdit@@QEBA_NXZ
       3135  C3E 00137180 ?hasSelectedText@QWidgetLineControl@@QEBA_NXZ
       3136  C3F 000737A0 ?hasStaticContents@QWidgetRepaintManager@@AEBA_NXZ
       3137  C40 000017C0 ?hasTabletTracking@QWidget@@QEBA_NXZ
       3138  C41 00120A30 ?hasTracking@QAbstractSlider@@QEBA_NXZ
       3139  C42 00032210 ?hasTranslateOnlySceneTransform@QGraphicsItemPrivate@@QEAA_NXZ
       3140  C43 00329240 ?hasVisibleChildren@QTreeViewPrivate@@QEBA_NAEBVQModelIndex@@@Z
       3141  C44 00281980 ?hasVisitedPage@QWizard@@QEBA_NH@Z
       3142  C45 000017D0 ?hasWidthForHeight@QSizePolicy@@QEBA_NXZ
       3143  C46 00329370 ?header@QTreeView@@QEBAPEAVQHeaderView@@XZ
       3144  C47 002C6600 ?headerDataChanged@QHeaderView@@QEAAXW4Orientation@Qt@@HH@Z
       3145  C48 0033F6D0 ?headerItem@QTreeWidget@@QEBAPEAVQTreeWidgetItem@@XZ
       3146  C49 001294E0 ?headerTextFormat@QCalendarWidget@@QEBA?AVQTextCharFormat@@XZ
       3147  C4A 00369860 ?height@QGraphicsItemPrivate@@UEBANXZ
       3148  C4B 0000D710 ?height@QGraphicsScene@@QEBANXZ
       3149  C4C 000017E0 ?height@QWidget@@QEBAHXZ
       3150  C4D 001371A0 ?height@QWidgetLineControl@@QEBAHXZ
       3151  C4E 00369870 ?heightChanged@QGraphicsObject@@QEAAXXZ
       3152  C4F 0001BC20 ?heightForWidth@QBoxLayout@@UEBAHH@Z
       3153  C50 00142870 ?heightForWidth@QCommandLinkButton@@UEBAHH@Z
       3154  C51 000F8940 ?heightForWidth@QFormLayout@@UEBAHH@Z
       3155  C52 00039540 ?heightForWidth@QGridLayout@@UEBAHH@Z
       3156  C53 00173100 ?heightForWidth@QLabel@@UEBAHH@Z
       3157  C54 000414E0 ?heightForWidth@QLayoutItem@@UEBAHH@Z
       3158  C55 001CB180 ?heightForWidth@QMenuBar@@UEBAHH@Z
       3159  C56 000458A0 ?heightForWidth@QStackedLayout@@UEBAHH@Z
       3160  C57 002107F0 ?heightForWidth@QTabWidget@@UEBAHH@Z
       3161  C58 00057F20 ?heightForWidth@QWidget@@UEBAHH@Z
       3162  C59 000414F0 ?heightForWidth@QWidgetItem@@UEBAHH@Z
       3163  C5A 000416B0 ?heightForWidth@QWidgetItemV2@@UEBAHH@Z
       3164  C5B 002A8F10 ?helpEvent@QAbstractItemDelegate@@UEAA_NPEAVQHelpEvent@@PEAVQAbstractItemView@@AEBVQStyleOptionViewItem@@AEBVQModelIndex@@@Z
       3165  C5C 00398890 ?helpEvent@QGraphicsScene@@MEAAXPEAVQGraphicsSceneHelpEvent@@@Z
       3166  C5D 001D69D0 ?helpRequested@QDialogButtonBox@@QEAAXXZ
       3167  C5E 002819D0 ?helpRequested@QWizard@@QEAAXXZ
       3168  C5F 00009A60 ?helperDone@QDialogPrivate@@EEAAXW4DialogCode@QDialog@@PEAVQPlatformDialogHelper@@@Z
       3169  C60 002530A0 ?helperDone@QFileDialogPrivate@@EEAAXW4DialogCode@QDialog@@PEAVQPlatformDialogHelper@@@Z
       3170  C61 00009A60 ?helperPrepareShow@QDialogPrivate@@EEAAXPEAVQPlatformDialogHelper@@@Z
       3171  C62 00253230 ?helperPrepareShow@QFileDialogPrivate@@EEAAXPEAVQPlatformDialogHelper@@@Z
       3172  C63 002C69F0 ?hiddenSectionCount@QHeaderView@@QEBAHXZ
       3173  C64 005E1D90 ?hidden_focus_widget@QApplicationPrivate@@2PEAVQWidget@@EA
       3174  C65 0000D730 ?hide@QGraphicsItem@@QEAAXXZ
       3175  C66 000E6EE0 ?hide@QSystemTrayIcon@@QEAAXXZ
       3176  C67 00057F90 ?hide@QWidget@@QEAAXXZ
       3177  C68 00057FA0 ?hideChildren@QWidgetPrivate@@QEAAX_N@Z
       3178  C69 0030A610 ?hideColumn@QTableView@@QEAAXH@Z
       3179  C6A 00329380 ?hideColumn@QTreeView@@QEAAXH@Z
       3180  C6B 00243110 ?hideDefault@QDialogPrivate@@QEAAXXZ
       3181  C6C 001E1210 ?hideEvent@QAbstractSpinBox@@MEAAXPEAVQHideEvent@@@Z
       3182  C6D 00137200 ?hideEvent@QComboBox@@MEAAXPEAVQHideEvent@@@Z
       3183  C6E 00137220 ?hideEvent@QComboBoxPrivateContainer@@MEAAXPEAVQHideEvent@@@Z
       3184  C6F 00009A60 ?hideEvent@QGraphicsProxyWidget@@MEAAXPEAVQHideEvent@@@Z
       3185  C70 00009A60 ?hideEvent@QGraphicsWidget@@MEAAXPEAVQHideEvent@@@Z
       3186  C71 001B0410 ?hideEvent@QMdiSubWindow@@MEAAXPEAVQHideEvent@@@Z
       3187  C72 001BDDD0 ?hideEvent@QMenu@@MEAAXPEAVQHideEvent@@@Z
       3188  C73 001DAB70 ?hideEvent@QScrollBar@@MEAAXPEAVQHideEvent@@@Z
       3189  C74 0008F0D0 ?hideEvent@QSizeGrip@@MEAAXPEAVQHideEvent@@@Z
       3190  C75 00009A60 ?hideEvent@QTabBar@@MEAAXPEAVQHideEvent@@@Z
       3191  C76 00009A60 ?hideEvent@QWidget@@MEAAXPEAVQHideEvent@@@Z
       3192  C77 001EF840 ?hideOrShow@QStatusBar@@IEAAXXZ
       3193  C78 00137280 ?hidePopup@QComboBox@@UEAAXXZ
       3194  C79 0030A630 ?hideRow@QTableView@@QEAAXH@Z
       3195  C7A 001374E0 ?hideScrollers@QComboBoxPrivateContainer@@QEAAXXZ
       3196  C7B 000C56D0 ?hideSection@QHeaderView@@QEAAXH@Z
       3197  C7C 001BE370 ?hideTearOffMenu@QMenu@@QEAAXXZ
       3198  C7D 0000D740 ?hideText@QToolTip@@SAXXZ
       3199  C7E 00100A00 ?hideText@QWhatsThis@@SAXXZ
       3200  C7F 00058540 ?hide_helper@QWidgetPrivate@@QEAAXXZ
       3201  C80 00058750 ?hide_sys@QWidgetPrivate@@QEAAXXZ
       3202  C81 002C6A10 ?highlightSections@QHeaderView@@QEBA_NXZ
       3203  C82 00137510 ?highlighted@QComboBox@@QEAAXH@Z
       3204  C83 003D0B70 ?highlighted@QCompleter@@QEAAXAEBVQModelIndex@@@Z
       3205  C84 003D0BA0 ?highlighted@QCompleter@@QEAAXAEBVQString@@@Z
       3206  C85 0020DF50 ?highlighted@QTextBrowser@@QEAAXAEBVQUrl@@@Z
       3207  C86 00253490 ?history@QFileDialog@@QEBA?AV?$QList@VQString@@@@XZ
       3208  C87 0020DF80 ?historyChanged@QTextBrowser@@QEAAXXZ
       3209  C88 0020DFA0 ?historyTitle@QTextBrowser@@QEBA?AVQString@@H@Z
       3210  C89 0020E0F0 ?historyUrl@QTextBrowser@@QEBA?AVQUrl@@H@Z
       3211  C8A 0011E010 ?hitButton@QAbstractButton@@MEBA_NAEBVQPoint@@@Z
       3212  C8B 0012F1D0 ?hitButton@QCheckBox@@MEBA_NAEBVQPoint@@@Z
       3213  C8C 001D1890 ?hitButton@QPushButton@@MEBA_NAEBVQPoint@@@Z
       3214  C8D 001D2DB0 ?hitButton@QRadioButton@@MEBA_NAEBVQPoint@@@Z
       3215  C8E 00223BC0 ?hitButton@QToolButton@@MEBA_NAEBVQPoint@@@Z
       3216  C8F 000414E0 ?hitTest@QPlainTextDocumentLayout@@UEBAHAEBVQPointF@@W4HitTestAccuracy@Qt@@@Z
       3217  C90 0022EE20 ?hitTest@QWidgetTextControl@@UEBAHAEBVQPointF@@W4HitTestAccuracy@Qt@@@Z
       3218  C91 0008C490 ?hitTestComplexControl@QCommonStyle@@UEBA?AW4SubControl@QStyle@@W4ComplexControl@3@PEBVQStyleOptionComplex@@AEBVQPoint@@PEBVQWidget@@@Z
       3219  C92 00118CA0 ?hitTestComplexControl@QFusionStyle@@UEBA?AW4SubControl@QStyle@@W4ComplexControl@3@PEBVQStyleOptionComplex@@AEBVQPoint@@PEBVQWidget@@@Z
       3220  C93 0009E0D0 ?hitTestComplexControl@QPixmapStyle@@UEBA?AW4SubControl@QStyle@@W4ComplexControl@3@PEBVQStyleOptionComplex@@AEBVQPoint@@PEBVQWidget@@@Z
       3221  C94 000A23B0 ?hitTestComplexControl@QProxyStyle@@UEBA?AW4SubControl@QStyle@@W4ComplexControl@3@PEBVQStyleOptionComplex@@AEBVQPoint@@PEBVQWidget@@@Z
       3222  C95 0017D5C0 ?home@QLineEdit@@QEAAX_N@Z
       3223  C96 0020E240 ?home@QTextBrowser@@UEAAXXZ
       3224  C97 00137550 ?home@QWidgetLineControl@@QEAAX_N@Z
       3225  C98 00020BD0 ?horizontalDirection@QSwipeGesture@@QEBA?AW4SwipeDirection@1@XZ
       3226  C99 0030A650 ?horizontalHeader@QTableView@@QEBAPEAVQHeaderView@@XZ
       3227  C9A 00129760 ?horizontalHeaderFormat@QCalendarWidget@@QEBA?AW4HorizontalHeaderFormat@1@XZ
       3228  C9B 0031B6C0 ?horizontalHeaderItem@QTableWidget@@QEBAPEAVQTableWidgetItem@@H@Z
       3229  C9C 002E1A90 ?horizontalOffset@QColumnView@@MEBAHXZ
       3230  C9D 002C6A20 ?horizontalOffset@QHeaderView@@MEBAHXZ
       3231  C9E 002F0B50 ?horizontalOffset@QListView@@MEBAHXZ
       3232  C9F 0030A660 ?horizontalOffset@QTableView@@MEBAHXZ
       3233  CA0 003293E0 ?horizontalOffset@QTreeView@@MEBAHXZ
       3234  CA1 000017F0 ?horizontalPolicy@QSizePolicy@@QEBA?AW4Policy@1@XZ
       3235  CA2 003C79D0 ?horizontalScaleAt@QGraphicsItemAnimation@@QEBANN@Z
       3236  CA3 003B2920 ?horizontalScroll@QGraphicsViewPrivate@@QEBA_JXZ
       3237  CA4 000E9060 ?horizontalScrollBar@QAbstractScrollArea@@QEBAPEAVQScrollBar@@XZ
       3238  CA5 000E9070 ?horizontalScrollBarPolicy@QAbstractScrollArea@@QEBA?AW4ScrollBarPolicy@Qt@@XZ
       3239  CA6 002B41D0 ?horizontalScrollMode@QAbstractItemView@@QEBA?AW4ScrollMode@1@XZ
       3240  CA7 00009A60 ?horizontalScrollbarAction@QAbstractItemView@@MEAAXH@Z
       3241  CA8 0008F0D0 ?horizontalScrollbarAction@QTableView@@MEAAXH@Z
       3242  CA9 0008F0D0 ?horizontalScrollbarAction@QTreeView@@MEAAXH@Z
       3243  CAA 002B41E0 ?horizontalScrollbarValueChanged@QAbstractItemView@@MEAAXH@Z
       3244  CAB 003C7A60 ?horizontalShearAt@QGraphicsItemAnimation@@QEBANN@Z
       3245  CAC 000F8AF0 ?horizontalSpacing@QFormLayout@@QEBAHXZ
       3246  CAD 00349C00 ?horizontalSpacing@QGraphicsAnchorLayout@@QEBANXZ
       3247  CAE 0035E380 ?horizontalSpacing@QGraphicsGridLayout@@QEBANXZ
       3248  CAF 00039620 ?horizontalSpacing@QGridLayout@@QEBAHXZ
       3249  CB0 00001800 ?horizontalStretch@QSizePolicy@@QEBAHXZ
       3250  CB1 00020C20 ?hotSpot@QGesture@@QEBA?AVQPointF@@XZ
       3251  CB2 00368E30 ?hoverEnterEvent@QGraphicsItem@@MEAAXPEAVQGraphicsSceneHoverEvent@@@Z
       3252  CB3 00009A60 ?hoverEnterEvent@QGraphicsProxyWidget@@MEAAXPEAVQGraphicsSceneHoverEvent@@@Z
       3253  CB4 00366F00 ?hoverEnterEvent@QGraphicsTextItem@@MEAAXPEAVQGraphicsSceneHoverEvent@@@Z
       3254  CB5 00368E30 ?hoverLeaveEvent@QGraphicsItem@@MEAAXPEAVQGraphicsSceneHoverEvent@@@Z
       3255  CB6 00382060 ?hoverLeaveEvent@QGraphicsProxyWidget@@MEAAXPEAVQGraphicsSceneHoverEvent@@@Z
       3256  CB7 00366F00 ?hoverLeaveEvent@QGraphicsTextItem@@MEAAXPEAVQGraphicsSceneHoverEvent@@@Z
       3257  CB8 003BE3A0 ?hoverLeaveEvent@QGraphicsWidget@@MEAAXPEAVQGraphicsSceneHoverEvent@@@Z
       3258  CB9 00009A60 ?hoverMoveEvent@QGraphicsItem@@MEAAXPEAVQGraphicsSceneHoverEvent@@@Z
       3259  CBA 00382130 ?hoverMoveEvent@QGraphicsProxyWidget@@MEAAXPEAVQGraphicsSceneHoverEvent@@@Z
       3260  CBB 00366F00 ?hoverMoveEvent@QGraphicsTextItem@@MEAAXPEAVQGraphicsSceneHoverEvent@@@Z
       3261  CBC 00009A60 ?hoverMoveEvent@QGraphicsWidget@@MEAAXPEAVQGraphicsSceneHoverEvent@@@Z
       3262  CBD 001BE590 ?hovered@QMenu@@QEAAXPEAVQAction@@@Z
       3263  CBE 001CB440 ?hovered@QMenuBar@@QEAAXPEAVQAction@@@Z
       3264  CBF 001F2FC0 ?hoveredTabIndex@QTabBarPrivate@@QEBAHXZ
       3265  CC0 0011E050 ?icon@QAbstractButton@@QEBA?AVQIcon@@XZ
       3266  CC1 00002F30 ?icon@QFileIconProvider@@UEBA?AVQIcon@@AEBVQFileInfo@@@Z
       3267  CC2 000032E0 ?icon@QFileIconProvider@@UEBA?AVQIcon@@W4IconType@QAbstractFileIconProvider@@@Z
       3268  CC3 002FF770 ?icon@QListWidgetItem@@QEBA?AVQIcon@@XZ
       3269  CC4 001BE5D0 ?icon@QMenu@@QEBA?AVQIcon@@XZ
       3270  CC5 001F2420 ?icon@QMessageBox@@QEBA?AW4Icon@1@XZ
       3271  CC6 000E6F00 ?icon@QSystemTrayIcon@@QEBA?AVQIcon@@XZ
       3272  CC7 002FF770 ?icon@QTableWidgetItem@@QEBA?AVQIcon@@XZ
       3273  CC8 0033F700 ?icon@QTreeWidgetItem@@QEBA?AVQIcon@@H@Z
       3274  CC9 0008CBC0 ?iconFromApplicationTheme@QCommonStylePrivate@@QEBA?AVQIcon@@W4StandardPixmap@QStyle@@PEBVQStyleOption@@PEBVQWidget@@@Z
       3275  CCA 0008D630 ?iconFromMacTheme@QCommonStylePrivate@@QEBA?AVQIcon@@W4StandardPixmap@QStyle@@PEBVQStyleOption@@PEBVQWidget@@@Z
       3276  CCB 0008D650 ?iconFromResourceTheme@QCommonStylePrivate@@QEBA?AVQIcon@@W4StandardPixmap@QStyle@@PEBVQStyleOption@@PEBVQWidget@@@Z
       3277  CCC 00118CB0 ?iconFromTheme@QFusionStyle@@QEBA?AVQIcon@@W4StandardPixmap@QStyle@@@Z
       3278  CCD 0008E0A0 ?iconFromWindowsTheme@QCommonStylePrivate@@QEBA?AVQIcon@@W4StandardPixmap@QStyle@@PEBVQStyleOption@@PEBVQWidget@@@Z
       3279  CCE 00275A40 ?iconPixmap@QMessageBox@@QEBA?AVQPixmap@@XZ
       3280  CCF 00253710 ?iconProvider@QFileDialog@@QEBAPEAVQAbstractFileIconProvider@@XZ
       3281  CD0 0011E080 ?iconSize@QAbstractButton@@QEBA?AVQSize@@XZ
       3282  CD1 002B4350 ?iconSize@QAbstractItemView@@QEBA?AVQSize@@XZ
       3283  CD2 00137560 ?iconSize@QComboBox@@QEBA?AVQSize@@XZ
       3284  CD3 0018E220 ?iconSize@QMainWindow@@QEBA?AVQSize@@XZ
       3285  CD4 001F2FF0 ?iconSize@QTabBar@@QEBA?AVQSize@@XZ
       3286  CD5 00210A50 ?iconSize@QTabWidget@@QEBA?AVQSize@@XZ
       3287  CD6 0018E220 ?iconSize@QToolBar@@QEBA?AVQSize@@XZ
       3288  CD7 002B4370 ?iconSizeChanged@QAbstractItemView@@QEAAXAEBVQSize@@@Z
       3289  CD8 0018E240 ?iconSizeChanged@QMainWindow@@QEAAXAEBVQSize@@@Z
       3290  CD9 002142F0 ?iconSizeChanged@QToolBar@@QEAAXAEBVQSize@@@Z
       3291  CDA 00122F00 ?id@QButtonGroup@@QEBAHPEAVQAbstractButton@@@Z
       3292  CDB 00123030 ?idClicked@QButtonGroup@@QEAAXH@Z
       3293  CDC 00123070 ?idPressed@QButtonGroup@@QEAAXH@Z
       3294  CDD 001230B0 ?idReleased@QButtonGroup@@QEAAXH@Z
       3295  CDE 001230F0 ?idToggled@QButtonGroup@@QEAAXH_N@Z
       3296  CDF 00020C40 ?ignore@QGestureEvent@@QEAAXPEAVQGesture@@@Z
       3297  CE0 00020C80 ?ignore@QGestureEvent@@QEAAXW4GestureType@Qt@@@Z
       3298  CE1 0022EE70 ?ignoreUnusedNavigationEvents@QWidgetTextControl@@QEBA_NXZ
       3299  CE2 0000D7A0 ?inPopupMode@QApplicationPrivate@@SA_NXZ
       3300  CE3 00137AA0 ?inSelection@QWidgetLineControl@@QEBA_NH@Z
       3301  CE4 00100A20 ?inWhatsThisMode@QWhatsThis@@SA_NXZ
       3302  CE5 00173140 ?indent@QLabel@@QEBAHXZ
       3303  CE6 003293F0 ?indentation@QTreeView@@QEBAHXZ
       3304  CE7 00329400 ?indentationForItem@QTreeViewPrivate@@QEBAHH@Z
       3305  CE8 00329440 ?indexAbove@QTreeView@@QEBA?AVQModelIndex@@AEBV2@@Z
       3306  CE9 002E1AA0 ?indexAt@QColumnView@@UEBA?AVQModelIndex@@AEBVQPoint@@@Z
       3307  CEA 002C6B90 ?indexAt@QHeaderView@@MEBA?AVQModelIndex@@AEBVQPoint@@@Z
       3308  CEB 002F0EB0 ?indexAt@QListView@@UEBA?AVQModelIndex@@AEBVQPoint@@@Z
       3309  CEC 0030A710 ?indexAt@QTableView@@UEBA?AVQModelIndex@@AEBVQPoint@@@Z
       3310  CED 003295C0 ?indexAt@QTreeView@@UEBA?AVQModelIndex@@AEBVQPoint@@@Z
       3311  CEE 001F3070 ?indexAtPos@QTabBarPrivate@@QEBAHAEBVQPoint@@@Z
       3312  CEF 00329770 ?indexBelow@QTreeView@@QEBA?AVQModelIndex@@AEBV2@@Z
       3313  CF0 002FFA50 ?indexFromItem@QListWidget@@QEBA?AVQModelIndex@@PEBVQListWidgetItem@@@Z
       3314  CF1 0031B890 ?indexFromItem@QTableWidget@@QEBA?AVQModelIndex@@PEBVQTableWidgetItem@@@Z
       3315  CF2 0033FBB0 ?indexFromItem@QTreeWidget@@QEBA?AVQModelIndex@@PEBVQTreeWidgetItem@@H@Z
       3316  CF3 0003E3F0 ?indexOf@QLayout@@UEBAHPEBVQLayoutItem@@@Z
       3317  CF4 0003E460 ?indexOf@QLayout@@UEBAHPEBVQWidget@@@Z
       3318  CF5 001EB300 ?indexOf@QSplitter@@QEBAHPEAVQWidget@@@Z
       3319  CF6 001EECE0 ?indexOf@QStackedWidget@@QEBAHPEBVQWidget@@@Z
       3320  CF7 00210A80 ?indexOf@QTabWidget@@QEBAHPEBVQWidget@@@Z
       3321  CF8 00221460 ?indexOf@QToolBox@@QEBAHPEBVQWidget@@@Z
       3322  CF9 00292250 ?indexOfChild@QAccessibleWidget@@UEBAHPEBVQAccessibleInterface@@@Z
       3323  CFA 0033FC10 ?indexOfChild@QTreeWidgetItem@@QEBAHPEAV1@@Z
       3324  CFB 0033FCA0 ?indexOfTopLevelItem@QTreeWidget@@QEBAHPEAVQTreeWidgetItem@@@Z
       3325  CFC 003298F0 ?indexRowSizeHint@QTreeView@@IEBAHAEBVQModelIndex@@@Z
       3326  CFD 002B48A0 ?indexWidget@QAbstractItemView@@QEBAPEAVQWidget@@AEBVQModelIndex@@@Z
       3327  CFE 002F1430 ?indexesMoved@QListView@@QEAAXAEBV?$QList@VQModelIndex@@@@@Z
       3328  CFF 00275AC0 ?information@QMessageBox@@SA?AW4StandardButton@1@PEAVQWidget@@AEBVQString@@1V?$QFlags@W4StandardButton@QMessageBox@@@@W421@@Z
       3329  D00 0000D7C0 ?information@QMessageBox@@SA?AW4StandardButton@1@PEAVQWidget@@AEBVQString@@1W421@2@Z
       3330  D01 00275AF0 ?information@QMessageBox@@SAHPEAVQWidget@@AEBVQString@@1111HH@Z
       3331  D02 00275B40 ?information@QMessageBox@@SAHPEAVQWidget@@AEBVQString@@1HHH@Z
       3332  D03 00275C20 ?informativeText@QMessageBox@@QEBA?AVQString@@XZ
       3333  D04 000588B0 ?inheritStyle@QWidgetPrivate@@QEAAXXZ
       3334  D05 0000D7D0 ?init@QApplicationPrivate@@QEAAXXZ
       3335  D06 00253970 ?init@QFileDialogPrivate@@QEAAXAEBUQFileDialogArgs@@@Z
       3336  D07 001F32A0 ?init@QTabBarPrivate@@QEAAXXZ
       3337  D08 00185810 ?init@QWidgetLineControl@@AEAAXAEBVQString@@@Z
       3338  D09 00058A90 ?init@QWidgetPrivate@@QEAAXPEAVQWidget@@V?$QFlags@W4WindowType@Qt@@@@@Z
       3339  D0A 001F3630 ?initBasicStyleOption@QTabBarPrivate@@QEBAXPEAVQStyleOptionTab@@H@Z
       3340  D0B 00058DE0 ?initFocusChain@QWidgetPrivate@@QEAAXXZ
       3341  D0C 000AAE10 ?initFrom@QStyleOption@@QEAAXPEBVQWidget@@@Z
       3342  D0D 00009A60 ?initHelper@QDialogPrivate@@EEAAXPEAVQPlatformDialogHelper@@@Z
       3343  D0E 00253C00 ?initHelper@QFileDialogPrivate@@EEAAXPEAVQPlatformDialogHelper@@@Z
       3344  D0F 00058F00 ?initPainter@QWidget@@MEBAXPEAVQPainter@@@Z
       3345  D10 000C5DA0 ?initStyleBaseOption@QTabBarPrivate@@SAXPEAVQStyleOptionTabBarBase@@PEAVQTabBar@@VQSize@@@Z
       3346  D11 001E14B0 ?initStyleOption@QAbstractSpinBox@@MEBAXPEAVQStyleOptionSpinBox@@@Z
       3347  D12 0012F2F0 ?initStyleOption@QCheckBox@@MEBAXPEAVQStyleOptionButton@@@Z
       3348  D13 00137BB0 ?initStyleOption@QComboBox@@MEBAXPEAVQStyleOptionComboBox@@@Z
       3349  D14 00142A50 ?initStyleOption@QCommandLinkButton@@UEBAXPEAVQStyleOptionButton@@@Z
       3350  D15 00147AA0 ?initStyleOption@QDateTimeEdit@@MEBAXPEAVQStyleOptionSpinBox@@@Z
       3351  D16 0014D580 ?initStyleOption@QDial@@MEBAXPEAVQStyleOptionSlider@@@Z
       3352  D17 00163310 ?initStyleOption@QDockWidget@@MEBAXPEAVQStyleOptionDockWidget@@@Z
       3353  D18 000EC3F0 ?initStyleOption@QFocusFrame@@MEBAXPEAVQStyleOption@@@Z
       3354  D19 000ED4B0 ?initStyleOption@QFrame@@MEBAXPEAVQStyleOptionFrame@@@Z
       3355  D1A 00369A20 ?initStyleOption@QGraphicsItemPrivate@@QEBAXPEAVQStyleOptionGraphicsItem@@AEBVQTransform@@AEBVQRegion@@_N@Z
       3356  D1B 003BE3B0 ?initStyleOption@QGraphicsWidget@@MEBAXPEAVQStyleOption@@@Z
       3357  D1C 0016DC70 ?initStyleOption@QGroupBox@@MEBAXPEAVQStyleOptionGroupBox@@@Z
       3358  D1D 002C6BB0 ?initStyleOption@QHeaderView@@EEBAXPEAVQStyleOptionFrame@@@Z
       3359  D1E 002C6BC0 ?initStyleOption@QHeaderView@@MEBAXPEAVQStyleOptionHeader@@@Z
       3360  D1F 0017D610 ?initStyleOption@QLineEdit@@MEBAXPEAVQStyleOptionFrame@@@Z
       3361  D20 001BE850 ?initStyleOption@QMenu@@MEBAXPEAVQStyleOptionMenuItem@@PEBVQAction@@@Z
       3362  D21 001CB650 ?initStyleOption@QMenuBar@@MEBAXPEAVQStyleOptionMenuItem@@PEBVQAction@@@Z
       3363  D22 001CFAB0 ?initStyleOption@QProgressBar@@MEBAXPEAVQStyleOptionProgressBar@@@Z
       3364  D23 001D1A20 ?initStyleOption@QPushButton@@MEBAXPEAVQStyleOptionButton@@@Z
       3365  D24 001D2EE0 ?initStyleOption@QRadioButton@@MEBAXPEAVQStyleOptionButton@@@Z
       3366  D25 001D82D0 ?initStyleOption@QRubberBand@@MEBAXPEAVQStyleOptionRubberBand@@@Z
       3367  D26 001DACC0 ?initStyleOption@QScrollBar@@MEBAXPEAVQStyleOptionSlider@@@Z
       3368  D27 001DD940 ?initStyleOption@QSlider@@MEBAXPEAVQStyleOptionSlider@@@Z
       3369  D28 002DCB50 ?initStyleOption@QStyledItemDelegate@@MEBAXPEAVQStyleOptionViewItem@@AEBVQModelIndex@@@Z
       3370  D29 001F39D0 ?initStyleOption@QTabBar@@MEBAXPEAVQStyleOptionTab@@H@Z
       3371  D2A 00210E50 ?initStyleOption@QTabWidget@@MEBAXPEAVQStyleOptionTabWidgetFrame@@@Z
       3372  D2B 00214490 ?initStyleOption@QToolBar@@MEBAXPEAVQStyleOptionToolBar@@@Z
       3373  D2C 00223E10 ?initStyleOption@QToolButton@@MEBAXPEAVQStyleOptionToolButton@@@Z
       3374  D2D 002C6C40 ?initStyleOptionForIndex@QHeaderView@@MEBAXPEAVQStyleOptionHeader@@H@Z
       3375  D2E 002B4CB0 ?initViewItemOption@QAbstractItemView@@MEBAXPEAVQStyleOptionViewItem@@@Z
       3376  D2F 002F1C80 ?initViewItemOption@QListView@@MEBAXPEAVQStyleOptionViewItem@@@Z
       3377  D30 0030AA00 ?initViewItemOption@QTableView@@MEBAXPEAVQStyleOptionViewItem@@@Z
       3378  D31 0000D8A0 ?initialize@QApplicationPrivate@@QEAAXXZ
       3379  D32 000E6340 ?initialize@QColormap@@SAXXZ
       3380  D33 002C7930 ?initialize@QHeaderView@@IEAAXXZ
       3381  D34 00009A60 ?initialize@QRhiWidget@@MEAAXPEAVQRhiCommandBuffer@@@Z
       3382  D35 00329C90 ?initialize@QTreeViewPrivate@@QEAAXXZ
       3383  D36 002E1D70 ?initializeColumn@QColumnView@@IEBAXPEAVQAbstractItemView@@@Z
       3384  D37 00009A60 ?initializeMultitouch@QApplicationPrivate@@QEAAXXZ
       3385  D38 00009A60 ?initializeMultitouch_sys@QApplicationPrivate@@QEAAXXZ
       3386  D39 00281D80 ?initializePage@QWizard@@MEAAXH@Z
       3387  D3A 00009A60 ?initializePage@QWizardPage@@UEAAXXZ
       3388  D3B 002C7B60 ?initializeSections@QHeaderView@@IEAAXHH@Z
       3389  D3C 002C8480 ?initializeSections@QHeaderView@@IEAAXXZ
       3390  D3D 00009A60 ?initializeViewportFramebuffer@QWidgetPrivate@@UEAAXXZ
       3391  D3E 0000DB30 ?initializeWidgetFontHash@QApplicationPrivate@@SAXXZ
       3392  D3F 0000F360 ?initializeWidgetPalettesFromTheme@QApplicationPrivate@@SAXXZ
       3393  D40 0017D6D0 ?inputMask@QLineEdit@@QEBA?AVQString@@XZ
       3394  D41 00137E70 ?inputMask@QWidgetLineControl@@QEBA?AVQString@@XZ
       3395  D42 002B4E20 ?inputMethodEvent@QAbstractItemView@@MEAAXPEAVQInputMethodEvent@@@Z
       3396  D43 00137EE0 ?inputMethodEvent@QComboBox@@MEAAXPEAVQInputMethodEvent@@@Z
       3397  D44 00051AA0 ?inputMethodEvent@QGraphicsItem@@MEAAXPEAVQInputMethodEvent@@@Z
       3398  D45 003823C0 ?inputMethodEvent@QGraphicsProxyWidget@@MEAAXPEAVQInputMethodEvent@@@Z
       3399  D46 00398BF0 ?inputMethodEvent@QGraphicsScene@@MEAAXPEAVQInputMethodEvent@@@Z
       3400  D47 00366F00 ?inputMethodEvent@QGraphicsTextItem@@MEAAXPEAVQInputMethodEvent@@@Z
       3401  D48 003B2960 ?inputMethodEvent@QGraphicsView@@MEAAXPEAVQInputMethodEvent@@@Z
       3402  D49 0017D750 ?inputMethodEvent@QLineEdit@@MEAAXPEAVQInputMethodEvent@@@Z
       3403  D4A 00200300 ?inputMethodEvent@QPlainTextEdit@@MEAAXPEAVQInputMethodEvent@@@Z
       3404  D4B 002083D0 ?inputMethodEvent@QTextEdit@@MEAAXPEAVQInputMethodEvent@@@Z
       3405  D4C 00051AA0 ?inputMethodEvent@QWidget@@MEAAXPEAVQInputMethodEvent@@@Z
       3406  D4D 00369D00 ?inputMethodHints@QGraphicsItem@@QEBA?AV?$QFlags@W4InputMethodHint@Qt@@@@XZ
       3407  D4E 000590C0 ?inputMethodHints@QWidget@@QEBA?AV?$QFlags@W4InputMethodHint@Qt@@@@XZ
       3408  D4F 002B51F0 ?inputMethodQuery@QAbstractItemView@@UEBA?AVQVariant@@W4InputMethodQuery@Qt@@@Z
       3409  D50 001E1600 ?inputMethodQuery@QAbstractSpinBox@@UEBA?AVQVariant@@W4InputMethodQuery@Qt@@@Z
       3410  D51 00137F20 ?inputMethodQuery@QComboBox@@QEBA?AVQVariant@@W4InputMethodQuery@Qt@@AEBV2@@Z
       3411  D52 00137F90 ?inputMethodQuery@QComboBox@@UEBA?AVQVariant@@W4InputMethodQuery@Qt@@@Z
       3412  D53 001E4980 ?inputMethodQuery@QGraphicsItem@@MEBA?AVQVariant@@W4InputMethodQuery@Qt@@@Z
       3413  D54 00382420 ?inputMethodQuery@QGraphicsProxyWidget@@MEBA?AVQVariant@@W4InputMethodQuery@Qt@@@Z
       3414  D55 00398C70 ?inputMethodQuery@QGraphicsScene@@UEBA?AVQVariant@@W4InputMethodQuery@Qt@@@Z
       3415  D56 00369D10 ?inputMethodQuery@QGraphicsTextItem@@MEBA?AVQVariant@@W4InputMethodQuery@Qt@@@Z
       3416  D57 003B29B0 ?inputMethodQuery@QGraphicsView@@UEBA?AVQVariant@@W4InputMethodQuery@Qt@@@Z
       3417  D58 0017D7F0 ?inputMethodQuery@QLineEdit@@QEBA?AVQVariant@@W4InputMethodQuery@Qt@@V2@@Z
       3418  D59 0017DBE0 ?inputMethodQuery@QLineEdit@@UEBA?AVQVariant@@W4InputMethodQuery@Qt@@@Z
       3419  D5A 00200350 ?inputMethodQuery@QPlainTextEdit@@QEBA?AVQVariant@@W4InputMethodQuery@Qt@@V2@@Z
       3420  D5B 002008C0 ?inputMethodQuery@QPlainTextEdit@@UEBA?AVQVariant@@W4InputMethodQuery@Qt@@@Z
       3421  D5C 002084D0 ?inputMethodQuery@QTextEdit@@QEBA?AVQVariant@@W4InputMethodQuery@Qt@@V2@@Z
       3422  D5D 00208A40 ?inputMethodQuery@QTextEdit@@UEBA?AVQVariant@@W4InputMethodQuery@Qt@@@Z
       3423  D5E 00059110 ?inputMethodQuery@QWidget@@UEBA?AVQVariant@@W4InputMethodQuery@Qt@@@Z
       3424  D5F 0022FEB0 ?inputMethodQuery@QWidgetTextControl@@UEBA?AVQVariant@@W4InputMethodQuery@Qt@@V2@@Z
       3425  D60 00270C10 ?inputMode@QInputDialog@@QEBA?AW4InputMode@1@XZ
       3426  D61 0017DC30 ?inputRejected@QLineEdit@@QEAAXXZ
       3427  D62 00185920 ?inputRejected@QWidgetLineControl@@QEAAXXZ
       3428  D63 0017DC50 ?insert@QLineEdit@@QEAAXAEBVQString@@@Z
       3429  D64 00185940 ?insert@QWidgetLineControl@@QEAAXAEBVQString@@@Z
       3430  D65 003BE570 ?insertAction@QGraphicsWidget@@QEAAXPEAVQAction@@0@Z
       3431  D66 00059C50 ?insertAction@QWidget@@QEAAXPEAVQAction@@0@Z
       3432  D67 003BE7E0 ?insertActions@QGraphicsWidget@@QEAAXPEAVQAction@@AEBV?$QList@PEAVQAction@@@@@Z
       3433  D68 00059EE0 ?insertActions@QWidget@@QEAAXPEAVQAction@@AEBV?$QList@PEAVQAction@@@@@Z
       3434  D69 0033FF60 ?insertChild@QTreeWidgetItem@@QEAAXHPEAV1@@Z
       3435  D6A 003402B0 ?insertChildren@QTreeWidgetItem@@QEAAXHAEBV?$QList@PEAVQTreeWidgetItem@@@@@Z
       3436  D6B 0031B8E0 ?insertColumn@QTableWidget@@QEAAXH@Z
       3437  D6C 00200910 ?insertFromMimeData@QPlainTextEdit@@MEAAXPEBVQMimeData@@@Z
       3438  D6D 00208A90 ?insertFromMimeData@QTextEdit@@MEAAXPEBVQMimeData@@@Z
       3439  D6E 00230830 ?insertFromMimeData@QWidgetTextControl@@UEAAXPEBVQMimeData@@@Z
       3440  D6F 00208B00 ?insertHtml@QTextEdit@@QEAAXAEBVQString@@@Z
       3441  D70 00230CA0 ?insertHtml@QWidgetTextControl@@QEAAXAEBVQString@@@Z
       3442  D71 0005A1E0 ?insertIntoFocusChain@QWidgetPrivate@@QEAA_NW4FocusDirection@1@PEAVQWidget@@@Z
       3443  D72 0005A6E0 ?insertIntoFocusChain@QWidgetPrivate@@SA_NAEBV?$QList@PEAVQWidget@@@@W4FocusDirection@1@PEAVQWidget@@@Z
       3444  D73 0000FC90 ?insertIntoFocusChainAfter@QWidgetPrivate@@QEAA_NPEAVQWidget@@@Z
       3445  D74 0000FCA0 ?insertIntoFocusChainBefore@QWidgetPrivate@@QEAA_NPEAVQWidget@@@Z
       3446  D75 0001BCC0 ?insertItem@QBoxLayout@@QEAAXHPEAVQLayoutItem@@@Z
       3447  D76 00138310 ?insertItem@QComboBox@@QEAAXHAEBVQIcon@@AEBVQString@@AEBVQVariant@@@Z
       3448  D77 0009E440 ?insertItem@QComboBox@@QEAAXHAEBVQString@@AEBVQVariant@@@Z
       3449  D78 0037EB20 ?insertItem@QGraphicsLinearLayout@@QEAAXHPEAVQGraphicsLayoutItem@@@Z
       3450  D79 002FFF40 ?insertItem@QListWidget@@QEAAXHAEBVQString@@@Z
       3451  D7A 002FFFB0 ?insertItem@QListWidget@@QEAAXHPEAVQListWidgetItem@@@Z
       3452  D7B 00221660 ?insertItem@QToolBox@@QEAAHHPEAVQWidget@@AEBVQIcon@@AEBVQString@@@Z
       3453  D7C 00221B00 ?insertItem@QToolBox@@QEAAHHPEAVQWidget@@AEBVQString@@@Z
       3454  D7D 001386F0 ?insertItems@QComboBox@@QEAAXHAEBV?$QList@VQString@@@@@Z
       3455  D7E 00300000 ?insertItems@QListWidget@@QEAAXHAEBV?$QList@VQString@@@@@Z
       3456  D7F 0001BDD0 ?insertLayout@QBoxLayout@@QEAAXHPEAVQLayout@@H@Z
       3457  D80 001BF030 ?insertMenu@QMenu@@QEAAPEAVQAction@@PEAV2@PEAV1@@Z
       3458  D81 001CB7F0 ?insertMenu@QMenuBar@@QEAAPEAVQAction@@PEAV2@PEAVQMenu@@@Z
       3459  D82 001EFA50 ?insertPermanentWidget@QStatusBar@@QEAAHHPEAVQWidget@@H@Z
       3460  D83 00200980 ?insertPlainText@QPlainTextEdit@@QEAAXAEBVQString@@@Z
       3461  D84 00208B10 ?insertPlainText@QTextEdit@@QEAAXAEBVQString@@@Z
       3462  D85 00230F60 ?insertPlainText@QWidgetTextControl@@QEAAXAEBVQString@@@Z
       3463  D86 00138B30 ?insertPolicy@QComboBox@@QEBA?AW4InsertPolicy@1@XZ
       3464  D87 000F8CB0 ?insertRow@QFormLayout@@QEAAXHAEBVQString@@PEAVQLayout@@@Z
       3465  D88 000F8D30 ?insertRow@QFormLayout@@QEAAXHAEBVQString@@PEAVQWidget@@@Z
       3466  D89 000F8DD0 ?insertRow@QFormLayout@@QEAAXHPEAVQLayout@@@Z
       3467  D8A 000F8EC0 ?insertRow@QFormLayout@@QEAAXHPEAVQWidget@@0@Z
       3468  D8B 000F9050 ?insertRow@QFormLayout@@QEAAXHPEAVQWidget@@@Z
       3469  D8C 000F9170 ?insertRow@QFormLayout@@QEAAXHPEAVQWidget@@PEAVQLayout@@@Z
       3470  D8D 0031BAA0 ?insertRow@QTableWidget@@QEAAXH@Z
       3471  D8E 001BF060 ?insertSection@QMenu@@QEAAPEAVQAction@@PEAV2@AEBVQIcon@@AEBVQString@@@Z
       3472  D8F 001BF0F0 ?insertSection@QMenu@@QEAAPEAVQAction@@PEAV2@AEBVQString@@@Z
       3473  D90 00138B40 ?insertSeparator@QComboBox@@QEAAXH@Z
       3474  D91 001BF170 ?insertSeparator@QMenu@@QEAAPEAVQAction@@PEAV2@@Z
       3475  D92 001BF170 ?insertSeparator@QMenuBar@@QEAAPEAVQAction@@PEAV2@@Z
       3476  D93 001BF170 ?insertSeparator@QToolBar@@QEAAPEAVQAction@@PEAV2@@Z
       3477  D94 0001BF10 ?insertSpacerItem@QBoxLayout@@QEAAXHPEAVQSpacerItem@@@Z
       3478  D95 0001C020 ?insertSpacing@QBoxLayout@@QEAAXHH@Z
       3479  D96 0001C170 ?insertStretch@QBoxLayout@@QEAAXHH@Z
       3480  D97 0037ECD0 ?insertStretch@QGraphicsLinearLayout@@QEAAXHH@Z
       3481  D98 001F3AA0 ?insertTab@QTabBar@@QEAAHHAEBVQIcon@@AEBVQString@@@Z
       3482  D99 001F4030 ?insertTab@QTabBar@@QEAAHHAEBVQString@@@Z
       3483  D9A 002110A0 ?insertTab@QTabWidget@@QEAAHHPEAVQWidget@@AEBVQIcon@@AEBVQString@@@Z
       3484  D9B 00211140 ?insertTab@QTabWidget@@QEAAHHPEAVQWidget@@AEBVQString@@@Z
       3485  D9C 0018E350 ?insertToolBar@QMainWindow@@QEAAXPEAVQToolBar@@0@Z
       3486  D9D 0018E460 ?insertToolBarBreak@QMainWindow@@QEAAXPEAVQToolBar@@@Z
       3487  D9E 00340F30 ?insertTopLevelItem@QTreeWidget@@QEAAXHPEAVQTreeWidgetItem@@@Z
       3488  D9F 00340F70 ?insertTopLevelItems@QTreeWidget@@QEAAXHAEBV?$QList@PEAVQTreeWidgetItem@@@@@Z
       3489  DA0 0032A5F0 ?insertViewItems@QTreeViewPrivate@@QEAAXHHAEBUQTreeViewItem@@@Z
       3490  DA1 0001C2C0 ?insertWidget@QBoxLayout@@QEAAXHPEAVQWidget@@HV?$QFlags@W4AlignmentFlag@Qt@@@@@Z
       3491  DA2 001EB390 ?insertWidget@QSplitter@@QEAAXHPEAVQWidget@@@Z
       3492  DA3 00045970 ?insertWidget@QStackedLayout@@QEAAHHPEAVQWidget@@@Z
       3493  DA4 001EED00 ?insertWidget@QStackedWidget@@QEAAHHPEAVQWidget@@@Z
       3494  DA5 001EFB90 ?insertWidget@QStatusBar@@QEAAHHPEAVQWidget@@H@Z
       3495  DA6 00214560 ?insertWidget@QToolBar@@QEAAPEAVQAction@@PEAV2@PEAVQWidget@@@Z
       3496  DA7 00033140 ?insertionOrder@QGraphicsItemPrivate@@SA_NPEAVQGraphicsItem@@0@Z
       3497  DA8 0036A100 ?installSceneEventFilter@QGraphicsItem@@QEAAXPEAV1@@Z
       3498  DA9 0000FCB0 ?instance@QApplicationPrivate@@SAPEAV1@XZ
       3499  DAA 000E6180 ?instance@QColormap@@SA?AV1@H@Z
       3500  DAB 005E1F00 ?instanceCounter@QWidgetPrivate@@2HA
       3501  DAC 0037C250 ?instantInvalidatePropagation@QGraphicsLayout@@SA_NXZ
       3502  DAD 00270C50 ?intMaximum@QInputDialog@@QEBAHXZ
       3503  DAE 00270C70 ?intMinimum@QInputDialog@@QEBAHXZ
       3504  DAF 00270C90 ?intStep@QInputDialog@@QEBAHXZ
       3505  DB0 00270CB0 ?intValue@QInputDialog@@QEBAHXZ
       3506  DB1 00178CA0 ?intValue@QLCDNumber@@QEBAHXZ
       3507  DB2 00270CD0 ?intValueChanged@QInputDialog@@QEAAXH@Z
       3508  DB3 00270D10 ?intValueSelected@QInputDialog@@QEAAXH@Z
       3509  DB4 00292340 ?interface_cast@QAccessibleWidget@@UEAAPEAXW4InterfaceType@QAccessible@@@Z
       3510  DB5 001BF1E0 ?internalDelayedPopup@QMenu@@AEAAXXZ
       3511  DB6 00185990 ?internalDelete@QWidgetLineControl@@AEAAX_N@Z
       3512  DB7 00138D70 ?internalDeselect@QWidgetLineControl@@AEAAXXZ
       3513  DB8 00185C00 ?internalInsert@QWidgetLineControl@@AEAAXAEBVQString@@@Z
       3514  DB9 00186020 ?internalRedo@QWidgetLineControl@@AEAAXXZ
       3515  DBA 00186210 ?internalSetText@QWidgetLineControl@@AEAAXAEBVQString@@H_N@Z
       3516  DBB 001865F0 ?internalUndo@QWidgetLineControl@@AEAAXH@Z
       3517  DBC 00001810 ?internalWinId@QWidget@@QEBA_KXZ
       3518  DBD 001E1A00 ?interpretText@QAbstractSpinBox@@QEAAXXZ
       3519  DBE 0032A7F0 ?intersectedRect@QTreeViewPrivate@@UEBA?AVQRect@@V2@AEBVQModelIndex@@1@Z
       3520  DBF 0001C400 ?invalidate@QBoxLayout@@UEAAXXZ
       3521  DC0 000F92D0 ?invalidate@QFormLayout@@UEAAXXZ
       3522  DC1 00349C20 ?invalidate@QGraphicsAnchorLayout@@UEAAXXZ
       3523  DC2 0035E400 ?invalidate@QGraphicsGridLayout@@UEAAXXZ
       3524  DC3 0037C260 ?invalidate@QGraphicsLayout@@UEAAXXZ
       3525  DC4 0037ED70 ?invalidate@QGraphicsLinearLayout@@UEAAXXZ
       3526  DC5 00399AD0 ?invalidate@QGraphicsScene@@QEAAXAEBVQRectF@@V?$QFlags@W4SceneLayer@QGraphicsScene@@@@@Z
       3527  DC6 0000FD20 ?invalidate@QGraphicsScene@@QEAAXNNNNV?$QFlags@W4SceneLayer@QGraphicsScene@@@@@Z
       3528  DC7 00039640 ?invalidate@QGridLayout@@UEAAXXZ
       3529  DC8 0003E4E0 ?invalidate@QLayout@@UEAAXXZ
       3530  DC9 00009A60 ?invalidate@QLayoutItem@@UEAAXXZ
       3531  DCA 000737B0 ?invalidateBackingStore_resizeHelper@QWidgetPrivate@@QEAAXAEBVQPoint@@AEBVQSize@@@Z
       3532  DCB 0036A190 ?invalidateChildGraphicsEffectsRecursively@QGraphicsItemPrivate@@QEAAXW4InvalidateReason@1@@Z
       3533  DCC 000336F0 ?invalidateChildrenSceneTransform@QGraphicsItemPrivate@@QEAAXXZ
       3534  DCD 0036A250 ?invalidateDepthRecursively@QGraphicsItemPrivate@@QEAAXXZ
       3535  DCE 0005AB40 ?invalidateGraphicsEffectsRecursively@QWidgetPrivate@@QEAAXXZ
       3536  DCF 002A30D0 ?invalidateHeightCache@QTreeViewPrivate@@QEBAXH@Z
       3537  DD0 0036A2D0 ?invalidateParentGraphicsEffectsRecursively@QGraphicsItemPrivate@@QEAAXXZ
       3538  DD1 003B2CE0 ?invalidateScene@QGraphicsView@@QEAAXAEBVQRectF@@V?$QFlags@W4SceneLayer@QGraphicsScene@@@@@Z
       3539  DD2 00001820 ?invalidateSizeCache@QWidgetItemV2@@AEAAXXZ
       3540  DD3 00120A40 ?invertedAppearance@QAbstractSlider@@QEBA_NXZ
       3541  DD4 001CFB80 ?invertedAppearance@QProgressBar@@QEBA_NXZ
       3542  DD5 00120A50 ?invertedControls@QAbstractSlider@@QEBA_NXZ
       3543  DD6 00340FB0 ?invisibleRootItem@QTreeWidget@@QEBAPEAVQTreeWidgetItem@@XZ
       3544  DD7 0005ABB0 ?isAboutToShow@QWidgetPrivate@@QEBA_NXZ
       3545  DD8 001E1A20 ?isAccelerated@QAbstractSpinBox@@QEBA_NXZ
       3546  DD9 00020CC0 ?isAccepted@QGestureEvent@@QEBA_NPEAVQGesture@@@Z
       3547  DDA 00020D20 ?isAccepted@QGestureEvent@@QEBA_NW4GestureType@Qt@@@Z
       3548  DDB 0037C380 ?isActivated@QGraphicsLayout@@QEBA_NXZ
       3549  DDC 0036A330 ?isActive@QGraphicsItem@@QEBA_NXZ
       3550  DDD 00399B80 ?isActive@QGraphicsScene@@QEBA_NXZ
       3551  DDE 003BEAB0 ?isActiveWindow@QGraphicsWidget@@QEBA_NXZ
       3552  DDF 0005AC00 ?isActiveWindow@QWidget@@QEBA_NXZ
       3553  DE0 0000FD60 ?isAlien@QApplicationPrivate@@CA_NPEAVQWidget@@@Z
       3554  DE1 0036A3B0 ?isAncestorOf@QGraphicsItem@@QEBA_NPEBV1@@Z
       3555  DE2 0005AF00 ?isAncestorOf@QWidget@@QEBA_NPEBV1@@Z
       3556  DE3 0018E490 ?isAnimated@QMainWindow@@QEBA_NXZ
       3557  DE4 000C6AE0 ?isAnimated@QTabBarPrivate@@QEBA_NXZ
       3558  DE5 0032B280 ?isAnimated@QTreeView@@QEBA_NXZ
       3559  DE6 0008E630 ?isAreaAllowed@QDockWidget@@QEBA_NW4DockWidgetArea@Qt@@@Z
       3560  DE7 00002AC0 ?isAreaAllowed@QToolBar@@QEBA_NW4ToolBarArea@Qt@@@Z
       3561  DE8 00043EC0 ?isAutoRenderTargetEnabled@QRhiWidget@@IEBA_NXZ
       3562  DE9 0020E510 ?isBackwardAvailable@QTextBrowser@@QEBA_NXZ
       3563  DEA 0000FD80 ?isBlockedByModal@QApplicationPrivate@@SA_NPEAVQWidget@@@Z
       3564  DEB 0036A4D0 ?isBlockedByModalPanel@QGraphicsItem@@QEBA_NPEAPEAV1@@Z
       3565  DEC 0011E360 ?isCheckable@QAbstractButton@@QEBA_NXZ
       3566  DED 0016DDF0 ?isCheckable@QGroupBox@@QEBA_NXZ
       3567  DEE 0011E370 ?isChecked@QAbstractButton@@QEBA_NXZ
       3568  DEF 0016DE00 ?isChecked@QGroupBox@@QEBA_NXZ
       3569  DF0 00170480 ?isClearButtonEnabled@QKeySequenceEdit@@QEBA_NXZ
       3570  DF1 0017DC60 ?isClearButtonEnabled@QLineEdit@@QEBA_NXZ
       3571  DF2 0036A790 ?isClipped@QGraphicsItem@@QEBA_NXZ
       3572  DF3 001EB8B0 ?isCollapsible@QSplitter@@QEBA_NH@Z
       3573  DF4 0030AEE0 ?isColumnHidden@QTableView@@QEBA_NH@Z
       3574  DF5 0032B290 ?isColumnHidden@QTreeView@@QEBA_NH@Z
       3575  DF6 00270D50 ?isComboBoxEditable@QInputDialog@@QEBA_NXZ
       3576  DF7 00282660 ?isCommitPage@QWizardPage@@QEBA_NXZ
       3577  DF8 00282670 ?isComplete@QWizardPage@@UEBA_NXZ
       3578  DF9 0030AEF0 ?isCornerButtonEnabled@QTableView@@QEBA_NXZ
       3579  DFA 00129890 ?isDateEditEnabled@QCalendarWidget@@QEBA_NXZ
       3580  DFB 00043ED0 ?isDebugLayerEnabled@QRhiWidget@@QEBA_NXZ
       3581  DFC 001D1BC0 ?isDefault@QPushButton@@QEBA_NXZ
       3582  DFD 001CB840 ?isDefaultUp@QMenuBar@@QEBA_NXZ
       3583  DFE 00073F90 ?isDirty@QWidgetRepaintManager@@QEBA_NXZ
       3584  DFF 00340FE0 ?isDisabled@QTreeWidgetItem@@QEBA_NXZ
       3585  E00 0018E4D0 ?isDockNestingEnabled@QMainWindow@@QEBA_NXZ
       3586  E01 0011E380 ?isDown@QAbstractButton@@QEBA_NXZ
       3587  E02 00230F80 ?isDragEnabled@QWidgetTextControl@@QEBA_NXZ
       3588  E03 00138DB0 ?isEditable@QComboBox@@QEBA_NXZ
       3589  E04 0000FDC0 ?isEffectEnabled@QApplication@@SA_NW4UIEffect@Qt@@@Z
       3590  E05 0037D7C0 ?isEmpty@QGraphicsLayoutItem@@UEBA_NXZ
       3591  E06 0003E5A0 ?isEmpty@QLayout@@UEBA_NXZ
       3592  E07 001BF860 ?isEmpty@QMenu@@QEBA_NXZ
       3593  E08 000417C0 ?isEmpty@QSpacerItem@@UEBA_NXZ
       3594  E09 000417D0 ?isEmpty@QWidgetItem@@UEBA_NXZ
       3595  E0A 00020BC0 ?isEnabled@QGraphicsEffect@@QEBA_NXZ
       3596  E0B 0036A7B0 ?isEnabled@QGraphicsItem@@QEBA_NXZ
       3597  E0C 0003E620 ?isEnabled@QLayout@@QEBA_NXZ
       3598  E0D 00001830 ?isEnabled@QWidget@@QEBA_NXZ
       3599  E0E 0005AF40 ?isEnabledTo@QWidget@@QEBA_NPEBV1@@Z
       3600  E0F 0032B2A0 ?isExpanded@QTreeView@@QEBA_NAEBVQModelIndex@@@Z
       3601  E10 00340FF0 ?isExpanded@QTreeWidgetItem@@QEBA_NXZ
       3602  E11 0005AFC0 ?isExplicitlyHidden@QWidgetPrivate@@QEBA_NXZ
       3603  E12 002827C0 ?isFinalPage@QWizardPage@@QEBA_NXZ
       3604  E13 0032B2B0 ?isFirstColumnSpanned@QTreeView@@QEBA_NHAEBVQModelIndex@@@Z
       3605  E14 003410A0 ?isFirstColumnSpanned@QTreeWidgetItem@@QEBA_NXZ
       3606  E15 002C8780 ?isFirstSectionMovable@QHeaderView@@QEBA_NXZ
       3607  E16 0016DE20 ?isFlat@QGroupBox@@QEBA_NXZ
       3608  E17 001D1BD0 ?isFlat@QPushButton@@QEBA_NXZ
       3609  E18 002145E0 ?isFloatable@QToolBar@@QEBA_NXZ
       3610  E19 000018A0 ?isFloating@QDockWidget@@QEBA_NXZ
       3611  E1A 000018A0 ?isFloating@QToolBar@@QEBA_NXZ
       3612  E1B 0005AFF0 ?isFocusChainConsistent@QWidgetPrivate@@QEBA_NXZ
       3613  E1C 0020E520 ?isForwardAvailable@QTextBrowser@@QEBA_NXZ
       3614  E1D 0005B560 ?isFullScreen@QWidget@@QEBA_NXZ
       3615  E1E 00033730 ?isFullyTransparent@QGraphicsItemPrivate@@QEBA_NXZ
       3616  E1F 001298A0 ?isGridVisible@QCalendarWidget@@QEBA_NXZ
       3617  E20 001E1A30 ?isGroupSeparatorShown@QAbstractSpinBox@@QEBA_NXZ
       3618  E21 0032B450 ?isHeaderHidden@QTreeView@@QEBA_NXZ
       3619  E22 00300260 ?isHidden@QListWidgetItem@@QEBA_NXZ
       3620  E23 00341160 ?isHidden@QTreeWidgetItem@@QEBA_NXZ
       3621  E24 00001840 ?isHidden@QWidget@@QEBA_NXZ
       3622  E25 0005B570 ?isInFocusChain@QWidgetPrivate@@QEBA_NXZ
       3623  E26 002A31D0 ?isIndexExpanded@QTreeViewPrivate@@QEBA_NAEBVQModelIndex@@@Z
       3624  E27 0000FF60 ?isIndexHidden@QColumnView@@MEBA_NAEBVQModelIndex@@@Z
       3625  E28 000417C0 ?isIndexHidden@QHeaderView@@MEBA_NAEBVQModelIndex@@@Z
       3626  E29 002F29D0 ?isIndexHidden@QListView@@MEBA_NAEBVQModelIndex@@@Z
       3627  E2A 0030AF10 ?isIndexHidden@QTableView@@MEBA_NAEBVQModelIndex@@@Z
       3628  E2B 0032B470 ?isIndexHidden@QTreeView@@MEBA_NAEBVQModelIndex@@@Z
       3629  E2C 000A8750 ?isInstanceOf@QStyleHelper@@YA_NPEAVQObject@@W4Role@QAccessible@@@Z
       3630  E2D 003B2DF0 ?isInteractive@QGraphicsView@@QEBA_NXZ
       3631  E2E 003AA320 ?isInverted@QGraphicsSceneWheelEvent@@QEBA_NXZ
       3632  E2F 00033790 ?isInvisible@QGraphicsItemPrivate@@QEBA_NXZ
       3633  E30 00221B70 ?isItemEnabled@QToolBox@@QEBA_NH@Z
       3634  E31 002A33C0 ?isItemHiddenOrDisabled@QTreeViewPrivate@@QEBA_NH@Z
       3635  E32 0037D800 ?isLayout@QGraphicsLayoutItem@@QEBA_NXZ
       3636  E33 00001850 ?isLeftToRight@QWidget@@QEBA_NXZ
       3637  E34 0005B590 ?isMaximized@QWidget@@QEBA_NXZ
       3638  E35 0005B5A0 ?isMinimized@QWidget@@QEBA_NXZ
       3639  E36 00043EE0 ?isMirrorVerticallyEnabled@QRhiWidget@@QEBA_NXZ
       3640  E37 00001870 ?isModal@QWidget@@QEBA_NXZ
       3641  E38 0017DCC0 ?isModified@QLineEdit@@QEBA_NXZ
       3642  E39 00138DC0 ?isModified@QWidgetLineControl@@QEBA_NXZ
       3643  E3A 001F4090 ?isMovable@QTabBar@@QEBA_NXZ
       3644  E3B 002111F0 ?isMovable@QTabWidget@@QEBA_NXZ
       3645  E3C 002145F0 ?isMovable@QToolBar@@QEBA_NXZ
       3646  E3D 001CB850 ?isNativeMenuBar@QMenuBar@@QEBA_NXZ
       3647  E3E 001298B0 ?isNavigationBarVisible@QCalendarWidget@@QEBA_NXZ
       3648  E3F 0036A7C0 ?isObscured@QGraphicsItem@@QEBA_NAEBVQRectF@@@Z
       3649  E40 0000FEE0 ?isObscured@QGraphicsItem@@QEBA_NNNNN@Z
       3650  E41 0036A9E0 ?isObscuredBy@QAbstractGraphicsShapeItem@@UEBA_NPEBVQGraphicsItem@@@Z
       3651  E42 0036A9E0 ?isObscuredBy@QGraphicsEllipseItem@@UEBA_NPEBVQGraphicsItem@@@Z
       3652  E43 0036A9E0 ?isObscuredBy@QGraphicsItem@@UEBA_NPEBV1@@Z
       3653  E44 0036A9E0 ?isObscuredBy@QGraphicsItemGroup@@UEBA_NPEBVQGraphicsItem@@@Z
       3654  E45 0036A9E0 ?isObscuredBy@QGraphicsLineItem@@UEBA_NPEBVQGraphicsItem@@@Z
       3655  E46 0036A9E0 ?isObscuredBy@QGraphicsPathItem@@UEBA_NPEBVQGraphicsItem@@@Z
       3656  E47 0036A9E0 ?isObscuredBy@QGraphicsPixmapItem@@UEBA_NPEBVQGraphicsItem@@@Z
       3657  E48 0036A9E0 ?isObscuredBy@QGraphicsPolygonItem@@UEBA_NPEBVQGraphicsItem@@@Z
       3658  E49 0036A9E0 ?isObscuredBy@QGraphicsRectItem@@UEBA_NPEBVQGraphicsItem@@@Z
       3659  E4A 0036A9E0 ?isObscuredBy@QGraphicsSimpleTextItem@@UEBA_NPEBVQGraphicsItem@@@Z
       3660  E4B 0036A9E0 ?isObscuredBy@QGraphicsTextItem@@UEBA_NPEBVQGraphicsItem@@@Z
       3661  E4C 00033850 ?isOpacityNull@QGraphicsItemPrivate@@QEBA_NXZ
       3662  E4D 00033870 ?isOpacityNull@QGraphicsItemPrivate@@SA_NN@Z
       3663  E4E 0000FF20 ?isOverlapped@QWidgetPrivate@@QEBA_NAEBVQRect@@@Z
       3664  E4F 0036AA50 ?isPanel@QGraphicsItem@@QEBA_NXZ
       3665  E50 002B5940 ?isPersistentEditorOpen@QAbstractItemView@@QEBA_NAEBVQModelIndex@@@Z
       3666  E51 003002A0 ?isPersistentEditorOpen@QListWidget@@QEBA_NPEAVQListWidgetItem@@@Z
       3667  E52 0031BC40 ?isPersistentEditorOpen@QTableWidget@@QEBA_NPEAVQTableWidgetItem@@@Z
       3668  E53 00341250 ?isPersistentEditorOpen@QTreeWidget@@QEBA_NPEAVQTreeWidgetItem@@H@Z
       3669  E54 000F1870 ?isPixmap@QGraphicsEffectSource@@QEBA_NXZ
       3670  E55 00230F90 ?isPreediting@QWidgetTextControl@@QEAA_NXZ
       3671  E56 0000FF60 ?isProxyWidget@QGraphicsItemPrivate@@UEBA_NXZ
       3672  E57 001E1A40 ?isReadOnly@QAbstractSpinBox@@QEBA_NXZ
       3673  E58 0017DCE0 ?isReadOnly@QLineEdit@@QEBA_NXZ
       3674  E59 00200990 ?isReadOnly@QPlainTextEdit@@QEBA_NXZ
       3675  E5A 00208B20 ?isReadOnly@QTextEdit@@QEBA_NXZ
       3676  E5B 00138DD0 ?isReadOnly@QWidgetLineControl@@QEBA_NXZ
       3677  E5C 0017DD00 ?isRedoAvailable@QLineEdit@@QEBA_NXZ
       3678  E5D 001867D0 ?isRedoAvailable@QWidgetLineControl@@QEBA_NXZ
       3679  E5E 00001880 ?isRightToLeft@QWidget@@QEBA_NXZ
       3680  E5F 002F2A80 ?isRowHidden@QListView@@QEBA_NH@Z
       3681  E60 0030AFB0 ?isRowHidden@QTableView@@QEBA_NH@Z
       3682  E61 0032B5D0 ?isRowHidden@QTreeView@@QEBA_NHAEBVQModelIndex@@@Z
       3683  E62 002A3440 ?isRowHidden@QTreeViewPrivate@@QEBA_NAEBVQModelIndex@@@Z
       3684  E63 000F9340 ?isRowVisible@QFormLayout@@QEBA_NH@Z
       3685  E64 000F9470 ?isRowVisible@QFormLayout@@QEBA_NPEAVQLayout@@@Z
       3686  E65 000F95C0 ?isRowVisible@QFormLayout@@QEBA_NPEAVQWidget@@@Z
       3687  E66 002C8790 ?isSectionHidden@QHeaderView@@QEBA_NH@Z
       3688  E67 0036AAB0 ?isSelected@QGraphicsItem@@QEBA_NXZ
       3689  E68 003003B0 ?isSelected@QListWidgetItem@@QEBA_NXZ
       3690  E69 0031BC90 ?isSelected@QTableWidgetItem@@QEBA_NXZ
       3691  E6A 003412B0 ?isSelected@QTreeWidgetItem@@QEBA_NXZ
       3692  E6B 002F2A90 ?isSelectionRectVisible@QListView@@QEBA_NXZ
       3693  E6C 0018E510 ?isSeparator@QMainWindow@@QEBA_NAEBVQPoint@@@Z
       3694  E6D 001B0AD0 ?isShaded@QMdiSubWindow@@QEBA_NXZ
       3695  E6E 001EFCF0 ?isSizeGripEnabled@QDialog@@QEBA_NXZ
       3696  E6F 001EFCF0 ?isSizeGripEnabled@QStatusBar@@QEBA_NXZ
       3697  E70 00120A60 ?isSliderDown@QAbstractSlider@@QEBA_NXZ
       3698  E71 002C8A30 ?isSortIndicatorClearable@QHeaderView@@QEBA_NXZ
       3699  E72 002C8A40 ?isSortIndicatorShown@QHeaderView@@QEBA_NXZ
       3700  E73 003004F0 ?isSortingEnabled@QListWidget@@QEBA_NXZ
       3701  E74 0030AFC0 ?isSortingEnabled@QTableView@@QEBA_NXZ
       3702  E75 0031BD00 ?isSortingEnabled@QTableWidget@@QEBA_NXZ
       3703  E76 0032B620 ?isSortingEnabled@QTreeView@@QEBA_NXZ
       3704  E77 0000FF60 ?isStereoEnabled@QWidgetPrivate@@UEAA_NXZ
       3705  E78 000E71E0 ?isSystemTrayAvailable@QSystemTrayIcon@@SA_NXZ
       3706  E79 001F40A0 ?isTabEnabled@QTabBar@@QEBA_NH@Z
       3707  E7A 00211200 ?isTabEnabled@QTabWidget@@QEBA_NH@Z
       3708  E7B 001F40D0 ?isTabVisible@QTabBar@@QEBA_NH@Z
       3709  E7C 00211210 ?isTabVisible@QTabWidget@@QEBA_NH@Z
       3710  E7D 001BF970 ?isTearOffEnabled@QMenu@@QEBA_NXZ
       3711  E7E 001BF980 ?isTearOffMenuVisible@QMenu@@QEBA_NXZ
       3712  E7F 001CFB90 ?isTextVisible@QProgressBar@@QEBA_NXZ
       3713  E80 000018A0 ?isTopLevel@QWidget@@QEBA_NXZ
       3714  E81 003B2E00 ?isTransformed@QGraphicsView@@QEBA_NXZ
       3715  E82 002A3920 ?isTreePosition@QTreeViewPrivate@@QEBA_NH@Z
       3716  E83 0012F3E0 ?isTristate@QCheckBox@@QEBA_NXZ
       3717  E84 0036AB20 ?isUnderMouse@QGraphicsItem@@QEBA_NXZ
       3718  E85 0017DD10 ?isUndoAvailable@QLineEdit@@QEBA_NXZ
       3719  E86 00186810 ?isUndoAvailable@QWidgetLineControl@@QEBA_NXZ
       3720  E87 000C6BB0 ?isUndoRedoEnabled@QPlainTextEdit@@QEBA_NXZ
       3721  E88 0009E4A0 ?isUndoRedoEnabled@QTextEdit@@QEBA_NXZ
       3722  E89 00102850 ?isUpdateNeeded@QNumberStyleAnimation@@MEBA_NXZ
       3723  E8A 00102930 ?isUpdateNeeded@QProgressStyleAnimation@@MEBA_NXZ
       3724  E8B 001029A0 ?isUpdateNeeded@QStyleAnimation@@MEBA_NXZ
       3725  E8C 00292360 ?isValid@QAccessibleWidget@@UEBA_NXZ
       3726  E8D 00186850 ?isValidInput@QWidgetLineControl@@AEBA_NVQChar@@0@Z
       3727  E8E 0008E660 ?isViewItemCached@QCommonStylePrivate@@QEBA_NAEBVQStyleOptionViewItem@@@Z
       3728  E8F 0036AC40 ?isVisible@QGraphicsItem@@QEBA_NXZ
       3729  E90 000E71F0 ?isVisible@QSystemTrayIcon@@QEBA_NXZ
       3730  E91 000FEC70 ?isVisible@QToolTip@@SA_NXZ
       3731  E92 000018B0 ?isVisible@QWidget@@QEBA_NXZ
       3732  E93 0036AC50 ?isVisibleTo@QGraphicsItem@@QEBA_NPEBV1@@Z
       3733  E94 0005B5B0 ?isVisibleTo@QWidget@@QEBA_NPEBV1@@Z
       3734  E95 0036AC90 ?isWidget@QGraphicsItem@@QEBA_NXZ
       3735  E96 0036ACA0 ?isWindow@QGraphicsItem@@QEBA_NXZ
       3736  E97 000018A0 ?isWindow@QWidget@@QEBA_NXZ
       3737  E98 0005B640 ?isWindowModified@QWidget@@QEBA_NXZ
       3738  E99 00231090 ?isWordSelectionEnabled@QWidgetTextControl@@QEBA_NXZ
       3739  E9A 002F2AA0 ?isWrapping@QListView@@QEBA_NXZ
       3740  E9B 003AA690 ?item@QGraphicsItemAnimation@@QEBAPEAVQGraphicsItem@@XZ
       3741  E9C 00300500 ?item@QListWidget@@QEBAPEAVQListWidgetItem@@H@Z
       3742  E9D 0031BD10 ?item@QTableWidget@@QEBAPEAVQTableWidgetItem@@HH@Z
       3743  E9E 003412C0 ?itemAbove@QTreeWidget@@QEBAPEAVQTreeWidgetItem@@PEBV2@@Z
       3744  E9F 003005A0 ?itemActivated@QListWidget@@QEAAXPEAVQListWidgetItem@@@Z
       3745  EA0 0031BDE0 ?itemActivated@QTableWidget@@QEAAXPEAVQTableWidgetItem@@@Z
       3746  EA1 00341380 ?itemActivated@QTreeWidget@@QEAAXPEAVQTreeWidgetItem@@H@Z
       3747  EA2 002F2AB0 ?itemAlignment@QListView@@QEBA?AV?$QFlags@W4AlignmentFlag@Qt@@@@XZ
       3748  EA3 00254260 ?itemAlreadyExists@QFileDialogPrivate@@AEAA_NAEBVQString@@@Z
       3749  EA4 0001C4E0 ?itemAt@QBoxLayout@@UEBAPEAVQLayoutItem@@H@Z
       3750  EA5 001634A0 ?itemAt@QDockWidgetLayout@@UEBAPEAVQLayoutItem@@H@Z
       3751  EA6 000F96C0 ?itemAt@QFormLayout@@QEBAPEAVQLayoutItem@@HW4ItemRole@1@@Z
       3752  EA7 000F9740 ?itemAt@QFormLayout@@UEBAPEAVQLayoutItem@@H@Z
       3753  EA8 00349C40 ?itemAt@QGraphicsAnchorLayout@@UEBAPEAVQGraphicsLayoutItem@@H@Z
       3754  EA9 0035E450 ?itemAt@QGraphicsGridLayout@@QEBAPEAVQGraphicsLayoutItem@@HH@Z
       3755  EAA 0035E510 ?itemAt@QGraphicsGridLayout@@UEBAPEAVQGraphicsLayoutItem@@H@Z
       3756  EAB 0037EDC0 ?itemAt@QGraphicsLinearLayout@@UEBAPEAVQGraphicsLayoutItem@@H@Z
       3757  EAC 00399B90 ?itemAt@QGraphicsScene@@QEBAPEAVQGraphicsItem@@AEBVQPointF@@AEBVQTransform@@@Z
       3758  EAD 0000FF70 ?itemAt@QGraphicsScene@@QEBAPEAVQGraphicsItem@@NNAEBVQTransform@@@Z
       3759  EAE 003B2E60 ?itemAt@QGraphicsView@@QEBAPEAVQGraphicsItem@@AEBVQPoint@@@Z
       3760  EAF 0000FFA0 ?itemAt@QGraphicsView@@QEBAPEAVQGraphicsItem@@HH@Z
       3761  EB0 00039660 ?itemAt@QGridLayout@@UEBAPEAVQLayoutItem@@H@Z
       3762  EB1 003005E0 ?itemAt@QListWidget@@QEBAPEAVQListWidgetItem@@AEBVQPoint@@@Z
       3763  EB2 00300660 ?itemAt@QListWidget@@QEBAPEAVQListWidgetItem@@HH@Z
       3764  EB3 00045A60 ?itemAt@QStackedLayout@@UEBAPEAVQLayoutItem@@H@Z
       3765  EB4 0031BE20 ?itemAt@QTableWidget@@QEBAPEAVQTableWidgetItem@@AEBVQPoint@@@Z
       3766  EB5 0031BED0 ?itemAt@QTableWidget@@QEBAPEAVQTableWidgetItem@@HH@Z
       3767  EB6 003413E0 ?itemAt@QTreeWidget@@QEBAPEAVQTreeWidgetItem@@AEBVQPoint@@@Z
       3768  EB7 00341450 ?itemAt@QTreeWidget@@QEBAPEAVQTreeWidgetItem@@HH@Z
       3769  EB8 0032B630 ?itemAtCoordinate@QTreeViewPrivate@@QEBAHH@Z
       3770  EB9 00039690 ?itemAtPosition@QGridLayout@@QEBAPEAVQLayoutItem@@HH@Z
       3771  EBA 003414D0 ?itemBelow@QTreeWidget@@QEBAPEAVQTreeWidgetItem@@PEBV2@@Z
       3772  EBB 0036ACE0 ?itemChange@QGraphicsItem@@MEAA?AVQVariant@@W4GraphicsItemChange@1@AEBV2@@Z
       3773  EBC 00382770 ?itemChange@QGraphicsProxyWidget@@MEAA?AVQVariant@@W4GraphicsItemChange@QGraphicsItem@@AEBV2@@Z
       3774  EBD 003BEAC0 ?itemChange@QGraphicsWidget@@MEAA?AVQVariant@@W4GraphicsItemChange@QGraphicsItem@@AEBV2@@Z
       3775  EBE 003007E0 ?itemChanged@QListWidget@@QEAAXPEAVQListWidgetItem@@@Z
       3776  EBF 0031C1B0 ?itemChanged@QTableWidget@@QEAAXPEAVQTableWidgetItem@@@Z
       3777  EC0 00341590 ?itemChanged@QTreeWidget@@QEAAXPEAVQTreeWidgetItem@@H@Z
       3778  EC1 003415F0 ?itemChanged@QTreeWidgetItem@@AEAAXXZ
       3779  EC2 00300820 ?itemClicked@QListWidget@@QEAAXPEAVQListWidgetItem@@@Z
       3780  EC3 0031C1F0 ?itemClicked@QTableWidget@@QEAAXPEAVQTableWidgetItem@@@Z
       3781  EC4 003416D0 ?itemClicked@QTreeWidget@@QEAAXPEAVQTreeWidgetItem@@H@Z
       3782  EC5 00341730 ?itemCollapsed@QTreeWidget@@QEAAXPEAVQTreeWidgetItem@@@Z
       3783  EC6 00138F20 ?itemData@QComboBox@@QEBA?AVQVariant@@HH@Z
       3784  EC7 0032B990 ?itemDecorationAt@QTreeViewPrivate@@QEBAHAEBVQPoint@@@Z
       3785  EC8 0032BB50 ?itemDecorationRect@QTreeViewPrivate@@QEBA?AVQRect@@AEBVQModelIndex@@@Z
       3786  EC9 0008E800 ?itemDelegate@QAbstractItemView@@QEBAPEAVQAbstractItemDelegate@@AEBVQModelIndex@@@Z
       3787  ECA 001735E0 ?itemDelegate@QAbstractItemView@@QEBAPEAVQAbstractItemDelegate@@XZ
       3788  ECB 00138FD0 ?itemDelegate@QComboBox@@QEBAPEAVQAbstractItemDelegate@@XZ
       3789  ECC 000F4280 ?itemDelegate@QDataWidgetMapper@@QEBAPEAVQAbstractItemDelegate@@XZ
       3790  ECD 00254320 ?itemDelegate@QFileDialog@@QEBAPEAVQAbstractItemDelegate@@XZ
       3791  ECE 002B5980 ?itemDelegateForColumn@QAbstractItemView@@QEBAPEAVQAbstractItemDelegate@@H@Z
       3792  ECF 002B5A20 ?itemDelegateForIndex@QAbstractItemView@@UEBAPEAVQAbstractItemDelegate@@AEBVQModelIndex@@@Z
       3793  ED0 002B5A30 ?itemDelegateForRow@QAbstractItemView@@QEBAPEAVQAbstractItemDelegate@@H@Z
       3794  ED1 00300D80 ?itemDoubleClicked@QListWidget@@QEAAXPEAVQListWidgetItem@@@Z
       3795  ED2 0031C780 ?itemDoubleClicked@QTableWidget@@QEAAXPEAVQTableWidgetItem@@@Z
       3796  ED3 00341C40 ?itemDoubleClicked@QTreeWidget@@QEAAXPEAVQTreeWidgetItem@@H@Z
       3797  ED4 000F2C50 ?itemEditorFactory@QItemDelegate@@QEBAPEAVQItemEditorFactory@@XZ
       3798  ED5 000F2C50 ?itemEditorFactory@QStyledItemDelegate@@QEBAPEAVQItemEditorFactory@@XZ
       3799  ED6 00300DC0 ?itemEntered@QListWidget@@QEAAXPEAVQListWidgetItem@@@Z
       3800  ED7 0031C7C0 ?itemEntered@QTableWidget@@QEAAXPEAVQTableWidgetItem@@@Z
       3801  ED8 00341CA0 ?itemEntered@QTreeWidget@@QEAAXPEAVQTreeWidgetItem@@H@Z
       3802  ED9 00341D00 ?itemExpanded@QTreeWidget@@QEAAXPEAVQTreeWidgetItem@@@Z
       3803  EDA 0032BDC0 ?itemForKeyEnd@QTreeViewPrivate@@QEBAHXZ
       3804  EDB 0032BE90 ?itemForKeyHome@QTreeViewPrivate@@QEBAHXZ
       3805  EDC 001634E0 ?itemForRole@QDockWidgetLayout@@QEBAPEAVQLayoutItem@@W4Role@1@@Z
       3806  EDD 00300E00 ?itemFromIndex@QListWidget@@QEBAPEAVQListWidgetItem@@AEBVQModelIndex@@@Z
       3807  EDE 0031C800 ?itemFromIndex@QTableWidget@@QEBAPEAVQTableWidgetItem@@AEBVQModelIndex@@@Z
       3808  EDF 00341D40 ?itemFromIndex@QTreeWidget@@QEBAPEAVQTreeWidgetItem@@AEBVQModelIndex@@@Z
       3809  EE0 0032BF60 ?itemHeight@QTreeViewPrivate@@QEBAHH@Z
       3810  EE1 00138FF0 ?itemIcon@QComboBox@@QEBA?AVQIcon@@H@Z
       3811  EE2 00221BB0 ?itemIcon@QToolBox@@QEBA?AVQIcon@@H@Z
       3812  EE3 00399C10 ?itemIndexMethod@QGraphicsScene@@QEBA?AW4ItemIndexMethod@1@XZ
       3813  EE4 00009A60 ?itemInserted@QToolBox@@MEAAXH@Z
       3814  EE5 00033880 ?itemIsUntransformable@QGraphicsItemPrivate@@QEBA_NXZ
       3815  EE6 00254350 ?itemNotFound@QFileDialogPrivate@@AEAAXAEBVQString@@W4FileMode@QFileDialog@@@Z
       3816  EE7 00118D40 ?itemPixmapRect@QFusionStyle@@UEBA?AVQRect@@AEBV2@HAEBVQPixmap@@@Z
       3817  EE8 000A2430 ?itemPixmapRect@QProxyStyle@@UEBA?AVQRect@@AEBV2@HAEBVQPixmap@@@Z
       3818  EE9 000A4770 ?itemPixmapRect@QStyle@@UEBA?AVQRect@@AEBV2@HAEBVQPixmap@@@Z
       3819  EEA 00300EA0 ?itemPressed@QListWidget@@QEAAXPEAVQListWidgetItem@@@Z
       3820  EEB 0031C870 ?itemPressed@QTableWidget@@QEAAXPEAVQTableWidgetItem@@@Z
       3821  EEC 00341D90 ?itemPressed@QTreeWidget@@QEAAXPEAVQTreeWidgetItem@@H@Z
       3822  EED 0031C8B0 ?itemPrototype@QTableWidget@@QEBAPEBVQTableWidgetItem@@XZ
       3823  EEE 00009A60 ?itemRemoved@QToolBox@@MEAAXH@Z
       3824  EEF 00139300 ?itemSelected@QComboBoxPrivateContainer@@QEAAXAEBVQModelIndex@@@Z
       3825  EF0 00300EE0 ?itemSelectionChanged@QListWidget@@QEAAXXZ
       3826  EF1 0031C8E0 ?itemSelectionChanged@QTableWidget@@QEAAXXZ
       3827  EF2 00341DF0 ?itemSelectionChanged@QTreeWidget@@QEAAXXZ
       3828  EF3 0037EE50 ?itemSpacing@QGraphicsLinearLayout@@QEBANH@Z
       3829  EF4 00139330 ?itemText@QComboBox@@QEBA?AVQString@@H@Z
       3830  EF5 00221C50 ?itemText@QToolBox@@QEBA?AVQString@@H@Z
       3831  EF6 000A24C0 ?itemTextRect@QProxyStyle@@UEBA?AVQRect@@AEBVQFontMetrics@@AEBV2@H_NAEBVQString@@@Z
       3832  EF7 000A4880 ?itemTextRect@QStyle@@UEBA?AVQRect@@AEBVQFontMetrics@@AEBV2@H_NAEBVQString@@@Z
       3833  EF8 00221CF0 ?itemToolTip@QToolBox@@QEBA?AVQString@@H@Z
       3834  EF9 0036AD00 ?itemTransform@QGraphicsItem@@QEBA?AVQTransform@@PEBV1@PEA_N@Z
       3835  EFA 00139470 ?itemView@QComboBoxPrivateContainer@@QEBAPEAVQAbstractItemView@@XZ
       3836  EFB 00254450 ?itemViewKeyboardEvent@QFileDialogPrivate@@QEAA_NPEAVQKeyEvent@@@Z
       3837  EFC 0009E4C0 ?itemViewSizeFromContents@QPixmapStyle@@IEBA?AVQSize@@PEBVQStyleOption@@AEBV2@PEBVQWidget@@@Z
       3838  EFD 00300F00 ?itemWidget@QListWidget@@QEBAPEAVQWidget@@PEAVQListWidgetItem@@@Z
       3839  EFE 00341E10 ?itemWidget@QTreeWidget@@QEBAPEAVQWidget@@PEAVQTreeWidgetItem@@H@Z
       3840  EFF 00399C20 ?items@QGraphicsScene@@QEBA?AV?$QList@PEAVQGraphicsItem@@@@AEBVQPainterPath@@W4ItemSelectionMode@Qt@@W4SortOrder@5@AEBVQTransform@@@Z
       3841  F00 00399C60 ?items@QGraphicsScene@@QEBA?AV?$QList@PEAVQGraphicsItem@@@@AEBVQPointF@@W4ItemSelectionMode@Qt@@W4SortOrder@5@AEBVQTransform@@@Z
       3842  F01 00399CA0 ?items@QGraphicsScene@@QEBA?AV?$QList@PEAVQGraphicsItem@@@@AEBVQPolygonF@@W4ItemSelectionMode@Qt@@W4SortOrder@5@AEBVQTransform@@@Z
       3843  F02 00399CE0 ?items@QGraphicsScene@@QEBA?AV?$QList@PEAVQGraphicsItem@@@@AEBVQRectF@@W4ItemSelectionMode@Qt@@W4SortOrder@5@AEBVQTransform@@@Z
       3844  F03 0000FFC0 ?items@QGraphicsScene@@QEBA?AV?$QList@PEAVQGraphicsItem@@@@NNNNW4ItemSelectionMode@Qt@@W4SortOrder@4@AEBVQTransform@@@Z
       3845  F04 00399D20 ?items@QGraphicsScene@@QEBA?AV?$QList@PEAVQGraphicsItem@@@@W4SortOrder@Qt@@@Z
       3846  F05 003B2EF0 ?items@QGraphicsView@@QEBA?AV?$QList@PEAVQGraphicsItem@@@@AEBVQPainterPath@@W4ItemSelectionMode@Qt@@@Z
       3847  F06 003B3080 ?items@QGraphicsView@@QEBA?AV?$QList@PEAVQGraphicsItem@@@@AEBVQPoint@@@Z
       3848  F07 003B3290 ?items@QGraphicsView@@QEBA?AV?$QList@PEAVQGraphicsItem@@@@AEBVQPolygon@@W4ItemSelectionMode@Qt@@@Z
       3849  F08 003B33B0 ?items@QGraphicsView@@QEBA?AV?$QList@PEAVQGraphicsItem@@@@AEBVQRect@@W4ItemSelectionMode@Qt@@@Z
       3850  F09 00010030 ?items@QGraphicsView@@QEBA?AV?$QList@PEAVQGraphicsItem@@@@HH@Z
       3851  F0A 00010060 ?items@QGraphicsView@@QEBA?AV?$QList@PEAVQGraphicsItem@@@@HHHHW4ItemSelectionMode@Qt@@@Z
       3852  F0B 003B34D0 ?items@QGraphicsView@@QEBA?AV?$QList@PEAVQGraphicsItem@@@@XZ
       3853  F0C 00301010 ?items@QListWidget@@QEBA?AV?$QList@PEAVQListWidgetItem@@@@PEBVQMimeData@@@Z
       3854  F0D 0031C900 ?items@QTableWidget@@QEBA?AV?$QList@PEAVQTableWidgetItem@@@@PEBVQMimeData@@@Z
       3855  F0E 00399FD0 ?itemsBoundingRect@QGraphicsScene@@QEBA?AVQRectF@@XZ
       3856  F0F 0032C030 ?itemsExpandable@QTreeView@@QEBA_NXZ
       3857  F10 000E6310 ?keyBindingsForAction@QAccessibleWidget@@UEBA?AV?$QList@VQString@@@@AEBVQString@@@Z
       3858  F11 0011E390 ?keyPressEvent@QAbstractButton@@MEAAXPEAVQKeyEvent@@@Z
       3859  F12 002B5AD0 ?keyPressEvent@QAbstractItemView@@MEAAXPEAVQKeyEvent@@@Z
       3860  F13 000E9580 ?keyPressEvent@QAbstractScrollArea@@MEAAXPEAVQKeyEvent@@@Z
       3861  F14 00120AD0 ?keyPressEvent@QAbstractSlider@@MEAAXPEAVQKeyEvent@@@Z
       3862  F15 001E1A50 ?keyPressEvent@QAbstractSpinBox@@MEAAXPEAVQKeyEvent@@@Z
       3863  F16 00129900 ?keyPressEvent@QCalendarWidget@@MEAAXPEAVQKeyEvent@@@Z
       3864  F17 00139480 ?keyPressEvent@QComboBox@@MEAAXPEAVQKeyEvent@@@Z
       3865  F18 00147BF0 ?keyPressEvent@QDateTimeEdit@@MEAAXPEAVQKeyEvent@@@Z
       3866  F19 002431C0 ?keyPressEvent@QDialog@@MEAAXPEAVQKeyEvent@@@Z
       3867  F1A 00051AA0 ?keyPressEvent@QGraphicsItem@@MEAAXPEAVQKeyEvent@@@Z
       3868  F1B 003829F0 ?keyPressEvent@QGraphicsProxyWidget@@MEAAXPEAVQKeyEvent@@@Z
       3869  F1C 0039A0A0 ?keyPressEvent@QGraphicsScene@@MEAAXPEAVQKeyEvent@@@Z
       3870  F1D 00366F00 ?keyPressEvent@QGraphicsTextItem@@MEAAXPEAVQKeyEvent@@@Z
       3871  F1E 003B3550 ?keyPressEvent@QGraphicsView@@MEAAXPEAVQKeyEvent@@@Z
       3872  F1F 00170490 ?keyPressEvent@QKeySequenceEdit@@MEAAXPEAVQKeyEvent@@@Z
       3873  F20 00173190 ?keyPressEvent@QLabel@@MEAAXPEAVQKeyEvent@@@Z
       3874  F21 0017DD20 ?keyPressEvent@QLineEdit@@MEAAXPEAVQKeyEvent@@@Z
       3875  F22 001B0AE0 ?keyPressEvent@QMdiSubWindow@@MEAAXPEAVQKeyEvent@@@Z
       3876  F23 001BF9E0 ?keyPressEvent@QMenu@@MEAAXPEAVQKeyEvent@@@Z
       3877  F24 001CB860 ?keyPressEvent@QMenuBar@@MEAAXPEAVQKeyEvent@@@Z
       3878  F25 00276120 ?keyPressEvent@QMessageBox@@MEAAXPEAVQKeyEvent@@@Z
       3879  F26 002009D0 ?keyPressEvent@QPlainTextEdit@@MEAAXPEAVQKeyEvent@@@Z
       3880  F27 001D1BE0 ?keyPressEvent@QPushButton@@MEAAXPEAVQKeyEvent@@@Z
       3881  F28 001F4100 ?keyPressEvent@QTabBar@@MEAAXPEAVQKeyEvent@@@Z
       3882  F29 00211220 ?keyPressEvent@QTabWidget@@MEAAXPEAVQKeyEvent@@@Z
       3883  F2A 0020E530 ?keyPressEvent@QTextBrowser@@MEAAXPEAVQKeyEvent@@@Z
       3884  F2B 00208B60 ?keyPressEvent@QTextEdit@@MEAAXPEAVQKeyEvent@@@Z
       3885  F2C 0032C040 ?keyPressEvent@QTreeView@@MEAAXPEAVQKeyEvent@@@Z
       3886  F2D 0005B650 ?keyPressEvent@QWidget@@MEAAXPEAVQKeyEvent@@@Z
       3887  F2E 0011E600 ?keyReleaseEvent@QAbstractButton@@MEAAXPEAVQKeyEvent@@@Z
       3888  F2F 001E1F40 ?keyReleaseEvent@QAbstractSpinBox@@MEAAXPEAVQKeyEvent@@@Z
       3889  F30 00139A30 ?keyReleaseEvent@QComboBox@@MEAAXPEAVQKeyEvent@@@Z
       3890  F31 00051AA0 ?keyReleaseEvent@QGraphicsItem@@MEAAXPEAVQKeyEvent@@@Z
       3891  F32 003829F0 ?keyReleaseEvent@QGraphicsProxyWidget@@MEAAXPEAVQKeyEvent@@@Z
       3892  F33 0039A0A0 ?keyReleaseEvent@QGraphicsScene@@MEAAXPEAVQKeyEvent@@@Z
       3893  F34 00366F00 ?keyReleaseEvent@QGraphicsTextItem@@MEAAXPEAVQKeyEvent@@@Z
       3894  F35 003B35D0 ?keyReleaseEvent@QGraphicsView@@MEAAXPEAVQKeyEvent@@@Z
       3895  F36 00170890 ?keyReleaseEvent@QKeySequenceEdit@@MEAAXPEAVQKeyEvent@@@Z
       3896  F37 0017DD60 ?keyReleaseEvent@QLineEdit@@MEAAXPEAVQKeyEvent@@@Z
       3897  F38 00200C00 ?keyReleaseEvent@QPlainTextEdit@@MEAAXPEAVQKeyEvent@@@Z
       3898  F39 00208F20 ?keyReleaseEvent@QTextEdit@@MEAAXPEAVQKeyEvent@@@Z
       3899  F3A 00051AA0 ?keyReleaseEvent@QWidget@@MEAAXPEAVQKeyEvent@@@Z
       3900  F3B 00170910 ?keySequence@QKeySequenceEdit@@QEBA?AVQKeySequence@@XZ
       3901  F3C 00170940 ?keySequenceChanged@QKeySequenceEdit@@QEAAXAEBVQKeySequence@@@Z
       3902  F3D 0005B6F0 ?keyboardGrabber@QWidget@@SAPEAV1@XZ
       3903  F3E 000100B0 ?keyboardInputInterval@QApplication@@SAHXZ
       3904  F3F 001B0EB0 ?keyboardPageStep@QMdiSubWindow@@QEBAHXZ
       3905  F40 002B6660 ?keyboardSearch@QAbstractItemView@@UEAAXAEBVQString@@@Z
       3906  F41 0032C0F0 ?keyboardSearch@QTreeView@@UEAAXAEBVQString@@@Z
       3907  F42 001B0EC0 ?keyboardSingleStep@QMdiSubWindow@@QEBAHXZ
       3908  F43 001E2010 ?keyboardTracking@QAbstractSpinBox@@QEBA_NXZ
       3909  F44 000A5C00 ?keys@QStyleFactory@@SA?AV?$QList@VQString@@@@XZ
       3910  F45 001F41C0 ?killSwitchTabTimer@QTabBarPrivate@@QEAAXXZ
       3911  F46 000F9770 ?labelAlignment@QFormLayout@@QEBA?AV?$QFlags@W4AlignmentFlag@Qt@@@@XZ
       3912  F47 000F97F0 ?labelForField@QFormLayout@@QEBAPEAVQWidget@@PEAV2@@Z
       3913  F48 000F9900 ?labelForField@QFormLayout@@QEBAPEAVQWidget@@PEAVQLayout@@@Z
       3914  F49 00254650 ?labelText@QFileDialog@@QEBA?AVQString@@W4DialogLabel@1@@Z
       3915  F4A 00270F10 ?labelText@QInputDialog@@QEBA?AVQString@@XZ
       3916  F4B 0027A670 ?labelText@QProgressDialog@@QEBA?AVQString@@XZ
       3917  F4C 00020D70 ?lastCenterPoint@QPinchGesture@@QEBA?AVQPointF@@XZ
       3918  F4D 00020D90 ?lastOffset@QPanGesture@@QEBA?AVQPointF@@XZ
       3919  F4E 003AA330 ?lastPos@QGraphicsSceneHoverEvent@@QEBA?AVQPointF@@XZ
       3920  F4F 003AA330 ?lastPos@QGraphicsSceneMouseEvent@@QEBA?AVQPointF@@XZ
       3921  F50 00020DB0 ?lastRotationAngle@QPinchGesture@@QEBANXZ
       3922  F51 00020DC0 ?lastScaleFactor@QPinchGesture@@QEBANXZ
       3923  F52 003AA340 ?lastScenePos@QGraphicsSceneHoverEvent@@QEBA?AVQPointF@@XZ
       3924  F53 003AA340 ?lastScenePos@QGraphicsSceneMouseEvent@@QEBA?AVQPointF@@XZ
       3925  F54 003AA350 ?lastScreenPos@QGraphicsSceneHoverEvent@@QEBA?AVQPoint@@XZ
       3926  F55 003AA350 ?lastScreenPos@QGraphicsSceneMouseEvent@@QEBA?AVQPoint@@XZ
       3927  F56 0032CE20 ?lastVisibleItem@QTreeViewPrivate@@QEBAHHH@Z
       3928  F57 003BECA0 ?layout@QGraphicsWidget@@QEBAPEAVQGraphicsLayout@@XZ
       3929  F58 00041820 ?layout@QLayout@@UEAAPEAV1@XZ
       3930  F59 0001C9E0 ?layout@QLayoutItem@@UEAAPEAVQLayout@@XZ
       3931  F5A 0032CF80 ?layout@QTreeViewPrivate@@QEAAXH_N0@Z
       3932  F5B 0005B700 ?layout@QWidget@@QEBAPEAVQLayout@@XZ
       3933  F5C 00200CB0 ?layoutBlock@QPlainTextDocumentLayout@@AEAAXAEBVQTextBlock@@@Z
       3934  F5D 003BECB0 ?layoutChanged@QGraphicsWidget@@QEAAXXZ
       3935  F5E 003BECD0 ?layoutDirection@QGraphicsWidget@@QEBA?AW4LayoutDirection@Qt@@XZ
       3936  F5F 0005B710 ?layoutDirection@QWidget@@QEBA?AW4LayoutDirection@Qt@@XZ
       3937  F60 00139C20 ?layoutDirection@QWidgetLineControl@@QEBA?AW4LayoutDirection@Qt@@XZ
       3938  F61 002F2FB0 ?layoutMode@QListView@@QEBA?AW4LayoutMode@1@XZ
       3939  F62 000414E0 ?layoutSpacing@QCommonStyle@@UEBAHW4ControlType@QSizePolicy@@0W4Orientation@Qt@@PEBVQStyleOption@@PEBVQWidget@@@Z
       3940  F63 000A2560 ?layoutSpacing@QProxyStyle@@UEBAHW4ControlType@QSizePolicy@@0W4Orientation@Qt@@PEBVQStyleOption@@PEBVQWidget@@@Z
       3941  F64 001F4210 ?layoutTab@QTabBarPrivate@@QEAAXH@Z
       3942  F65 001F4400 ?layoutTabs@QTabBarPrivate@@QEAAXXZ
       3943  F66 001F4EC0 ?layoutWidgets@QTabBarPrivate@@QEAAXH@Z
       3944  F67 005E1E00 ?leaveAfterRelease@QApplicationPrivate@@2V?$QPointer@VQWidget@@@@A
       3945  F68 001B0EE0 ?leaveEvent@QMdiSubWindow@@MEAAXPEAVQEvent@@@Z
       3946  F69 001C0BE0 ?leaveEvent@QMenu@@MEAAXPEAVQEvent@@@Z
       3947  F6A 001CBF10 ?leaveEvent@QMenuBar@@MEAAXPEAVQEvent@@@Z
       3948  F6B 00224080 ?leaveEvent@QToolButton@@MEAAXPEAVQEvent@@@Z
       3949  F6C 00009A60 ?leaveEvent@QWidget@@MEAAXPEAVQEvent@@@Z
       3950  F6D 00100A40 ?leaveWhatsThisMode@QWhatsThis@@SAXXZ
       3951  F6E 002C8C00 ?length@QHeaderView@@QEBAHXZ
       3952  F6F 000AAFA0 ?levelOfDetailFromTransform@QStyleOptionGraphicsItem@@SANAEBVQTransform@@@Z
       3953  F70 00364CB0 ?line@QGraphicsLineItem@@QEBA?AVQLineF@@XZ
       3954  F71 001E2020 ?lineEdit@QAbstractSpinBox@@IEBAPEAVQLineEdit@@XZ
       3955  F72 00139C50 ?lineEdit@QComboBox@@QEBAPEAVQLineEdit@@XZ
       3956  F73 00254780 ?lineEdit@QFileDialogPrivate@@QEBAPEAVQLineEdit@@XZ
       3957  F74 0009E840 ?lineEditSizeFromContents@QPixmapStyle@@IEBA?AVQSize@@PEBVQStyleOption@@AEBV2@PEBVQWidget@@@Z
       3958  F75 000ED5C0 ?lineWidth@QFrame@@QEBAHXZ
       3959  F76 00138B30 ?lineWrapColumnOrWidth@QTextEdit@@QEBAHXZ
       3960  F77 00139E20 ?lineWrapMode@QPlainTextEdit@@QEBA?AW4LineWrapMode@1@XZ
       3961  F78 00208FD0 ?lineWrapMode@QTextEdit@@QEBA?AW4LineWrapMode@1@XZ
       3962  F79 0036B290 ?linkActivated@QGraphicsTextItem@@QEAAXAEBVQString@@@Z
       3963  F7A 00173330 ?linkActivated@QLabel@@QEAAXAEBVQString@@@Z
       3964  F7B 002317A0 ?linkActivated@QWidgetTextControl@@QEAAXAEBVQString@@@Z
       3965  F7C 0036B2C0 ?linkHovered@QGraphicsTextItem@@QEAAXAEBVQString@@@Z
       3966  F7D 00173360 ?linkHovered@QLabel@@QEAAXAEBVQString@@@Z
       3967  F7E 002317D0 ?linkHovered@QWidgetTextControl@@QEAAXAEBVQString@@@Z
       3968  F7F 00301070 ?listModel@QListWidgetItem@@AEBAPEAVQListModel@@XZ
       3969  F80 0002B7D0 ?listWidget@QListWidgetItem@@QEBAPEAVQListWidget@@XZ
       3970  F81 001E4980 ?loadResource@QPlainTextEdit@@UEAA?AVQVariant@@HAEBVQUrl@@@Z
       3971  F82 0020E5F0 ?loadResource@QTextBrowser@@UEAA?AVQVariant@@HAEBVQUrl@@@Z
       3972  F83 001E4980 ?loadResource@QTextEdit@@UEAA?AVQVariant@@HAEBVQUrl@@@Z
       3973  F84 001E4980 ?loadResource@QWidgetTextControl@@UEAA?AVQVariant@@HAEBVQUrl@@@Z
       3974  F85 0005B960 ?localFont@QWidgetPrivate@@QEBA?AVQFont@@XZ
       3975  F86 0005B9A0 ?locale@QWidget@@QEBA?AVQLocale@@XZ
       3976  F87 002C8C90 ?logicalIndex@QHeaderView@@QEBAHH@Z
       3977  F88 000C6D90 ?logicalIndexAt@QHeaderView@@QEBAHAEBVQPoint@@@Z
       3978  F89 002C8CC0 ?logicalIndexAt@QHeaderView@@QEBAHH@Z
       3979  F8A 000C6DD0 ?logicalIndexAt@QHeaderView@@QEBAHHH@Z
       3980  F8B 0032DDA0 ?logicalIndexForTree@QTreeViewPrivate@@QEBAHXZ
       3981  F8C 0005B9D0 ?lower@QWidget@@QEAAXXZ
       3982  F8D 0005BB10 ?lower_sys@QWidgetPrivate@@QEAAXXZ
       3983  F8E 005E1D80 ?main_widget@QApplicationPrivate@@2PEAVQWidget@@EA
       3984  F8F 001F5130 ?makeVisible@QTabBarPrivate@@QEAAXH@Z
       3985  F90 0005BC50 ?mapFrom@QWidget@@QEBA?AVQPoint@@PEBV1@AEBV2@@Z
       3986  F91 0005BD50 ?mapFrom@QWidget@@QEBA?AVQPointF@@PEBV1@AEBV2@@Z
       3987  F92 0005BE20 ?mapFromGlobal@QWidget@@QEBA?AVQPoint@@AEBV2@@Z
       3988  F93 0005BF60 ?mapFromGlobal@QWidget@@QEBA?AVQPointF@@AEBV2@@Z
       3989  F94 0036B2F0 ?mapFromItem@QGraphicsItem@@QEBA?AVQPainterPath@@PEBV1@AEBV2@@Z
       3990  F95 0036B360 ?mapFromItem@QGraphicsItem@@QEBA?AVQPointF@@PEBV1@AEBV2@@Z
       3991  F96 000100D0 ?mapFromItem@QGraphicsItem@@QEBA?AVQPointF@@PEBV1@NN@Z
       3992  F97 0036B3D0 ?mapFromItem@QGraphicsItem@@QEBA?AVQPolygonF@@PEBV1@AEBV2@@Z
       3993  F98 0036B440 ?mapFromItem@QGraphicsItem@@QEBA?AVQPolygonF@@PEBV1@AEBVQRectF@@@Z
       3994  F99 00010100 ?mapFromItem@QGraphicsItem@@QEBA?AVQPolygonF@@PEBV1@NNNN@Z
       3995  F9A 0036B500 ?mapFromParent@QGraphicsItem@@QEBA?AVQPainterPath@@AEBV2@@Z
       3996  F9B 0036B610 ?mapFromParent@QGraphicsItem@@QEBA?AVQPointF@@AEBV2@@Z
       3997  F9C 00010150 ?mapFromParent@QGraphicsItem@@QEBA?AVQPointF@@NN@Z
       3998  F9D 0036B720 ?mapFromParent@QGraphicsItem@@QEBA?AVQPolygonF@@AEBV2@@Z
       3999  F9E 0036B830 ?mapFromParent@QGraphicsItem@@QEBA?AVQPolygonF@@AEBVQRectF@@@Z
       4000  F9F 00010180 ?mapFromParent@QGraphicsItem@@QEBA?AVQPolygonF@@NNNN@Z
       4001  FA0 0005C050 ?mapFromParent@QWidget@@QEBA?AVQPoint@@AEBV2@@Z
       4002  FA1 0005C0A0 ?mapFromParent@QWidget@@QEBA?AVQPointF@@AEBV2@@Z
       4003  FA2 0036B990 ?mapFromScene@QGraphicsItem@@QEBA?AVQPainterPath@@AEBV2@@Z
       4004  FA3 0036BAF0 ?mapFromScene@QGraphicsItem@@QEBA?AVQPointF@@AEBV2@@Z
       4005  FA4 000101C0 ?mapFromScene@QGraphicsItem@@QEBA?AVQPointF@@NN@Z
       4006  FA5 0036BC40 ?mapFromScene@QGraphicsItem@@QEBA?AVQPolygonF@@AEBV2@@Z
       4007  FA6 0036BD90 ?mapFromScene@QGraphicsItem@@QEBA?AVQPolygonF@@AEBVQRectF@@@Z
       4008  FA7 000101F0 ?mapFromScene@QGraphicsItem@@QEBA?AVQPolygonF@@NNNN@Z
       4009  FA8 003B3650 ?mapFromScene@QGraphicsView@@QEBA?AVQPainterPath@@AEBV2@@Z
       4010  FA9 003B3760 ?mapFromScene@QGraphicsView@@QEBA?AVQPoint@@AEBVQPointF@@@Z
       4011  FAA 00010230 ?mapFromScene@QGraphicsView@@QEBA?AVQPoint@@NN@Z
       4012  FAB 003B3850 ?mapFromScene@QGraphicsView@@QEBA?AVQPolygon@@AEBVQPolygonF@@@Z
       4013  FAC 003B3CE0 ?mapFromScene@QGraphicsView@@QEBA?AVQPolygon@@AEBVQRectF@@@Z
       4014  FAD 00010260 ?mapFromScene@QGraphicsView@@QEBA?AVQPolygon@@NNNN@Z
       4015  FAE 00254790 ?mapFromSource@QFileDialogPrivate@@QEBA?AVQModelIndex@@AEBV2@@Z
       4016  FAF 000102A0 ?mapFromWS@QWidgetPrivate@@QEBA?AVQPoint@@AEBV2@@Z
       4017  FB0 000102E0 ?mapFromWS@QWidgetPrivate@@QEBA?AVQRect@@AEBV2@@Z
       4018  FB1 0036BF40 ?mapRectFromItem@QGraphicsItem@@QEBA?AVQRectF@@PEBV1@AEBV2@@Z
       4019  FB2 00010320 ?mapRectFromItem@QGraphicsItem@@QEBA?AVQRectF@@PEBV1@NNNN@Z
       4020  FB3 0036BFB0 ?mapRectFromParent@QGraphicsItem@@QEBA?AVQRectF@@AEBV2@@Z
       4021  FB4 00010370 ?mapRectFromParent@QGraphicsItem@@QEBA?AVQRectF@@NNNN@Z
       4022  FB5 0036C0C0 ?mapRectFromScene@QGraphicsItem@@QEBA?AVQRectF@@AEBV2@@Z
       4023  FB6 000103B0 ?mapRectFromScene@QGraphicsItem@@QEBA?AVQRectF@@NNNN@Z
       4024  FB7 003B4100 ?mapRectFromScene@QGraphicsViewPrivate@@QEBA?AVQRectF@@AEBV2@@Z
       4025  FB8 0036C230 ?mapRectToItem@QGraphicsItem@@QEBA?AVQRectF@@PEBV1@AEBV2@@Z
       4026  FB9 000103F0 ?mapRectToItem@QGraphicsItem@@QEBA?AVQRectF@@PEBV1@NNNN@Z
       4027  FBA 0036C2A0 ?mapRectToParent@QGraphicsItem@@QEBA?AVQRectF@@AEBV2@@Z
       4028  FBB 00010440 ?mapRectToParent@QGraphicsItem@@QEBA?AVQRectF@@NNNN@Z
       4029  FBC 0036C380 ?mapRectToScene@QGraphicsItem@@QEBA?AVQRectF@@AEBV2@@Z
       4030  FBD 00010480 ?mapRectToScene@QGraphicsItem@@QEBA?AVQRectF@@NNNN@Z
       4031  FBE 003B41C0 ?mapRectToScene@QGraphicsViewPrivate@@QEBA?AVQRectF@@AEBVQRect@@@Z
       4032  FBF 0005C0E0 ?mapTo@QWidget@@QEBA?AVQPoint@@PEBV1@AEBV2@@Z
       4033  FC0 0005C220 ?mapTo@QWidget@@QEBA?AVQPointF@@PEBV1@AEBV2@@Z
       4034  FC1 0005C2F0 ?mapToGlobal@QWidget@@QEBA?AVQPoint@@AEBV2@@Z
       4035  FC2 0005C420 ?mapToGlobal@QWidget@@QEBA?AVQPointF@@AEBV2@@Z
       4036  FC3 00020DD0 ?mapToGraphicsScene@QGestureEvent@@QEBA?AVQPointF@@AEBV2@@Z
       4037  FC4 0036C4B0 ?mapToItem@QGraphicsItem@@QEBA?AVQPainterPath@@PEBV1@AEBV2@@Z
       4038  FC5 0036C520 ?mapToItem@QGraphicsItem@@QEBA?AVQPointF@@PEBV1@AEBV2@@Z
       4039  FC6 000104C0 ?mapToItem@QGraphicsItem@@QEBA?AVQPointF@@PEBV1@NN@Z
       4040  FC7 0036C590 ?mapToItem@QGraphicsItem@@QEBA?AVQPolygonF@@PEBV1@AEBV2@@Z
       4041  FC8 0036C600 ?mapToItem@QGraphicsItem@@QEBA?AVQPolygonF@@PEBV1@AEBVQRectF@@@Z
       4042  FC9 000104F0 ?mapToItem@QGraphicsItem@@QEBA?AVQPolygonF@@PEBV1@NNNN@Z
       4043  FCA 0036C6B0 ?mapToParent@QGraphicsItem@@QEBA?AVQPainterPath@@AEBV2@@Z
       4044  FCB 0036C790 ?mapToParent@QGraphicsItem@@QEBA?AVQPointF@@AEBV2@@Z
       4045  FCC 00010540 ?mapToParent@QGraphicsItem@@QEBA?AVQPointF@@NN@Z
       4046  FCD 0036C880 ?mapToParent@QGraphicsItem@@QEBA?AVQPolygonF@@AEBV2@@Z
       4047  FCE 0036C960 ?mapToParent@QGraphicsItem@@QEBA?AVQPolygonF@@AEBVQRectF@@@Z
       4048  FCF 00010570 ?mapToParent@QGraphicsItem@@QEBA?AVQPolygonF@@NNNN@Z
       4049  FD0 0005C6C0 ?mapToParent@QWidget@@QEBA?AVQPoint@@AEBV2@@Z
       4050  FD1 0005C700 ?mapToParent@QWidget@@QEBA?AVQPointF@@AEBV2@@Z
       4051  FD2 0036CA90 ?mapToScene@QGraphicsItem@@QEBA?AVQPainterPath@@AEBV2@@Z
       4052  FD3 0036CBC0 ?mapToScene@QGraphicsItem@@QEBA?AVQPointF@@AEBV2@@Z
       4053  FD4 000105B0 ?mapToScene@QGraphicsItem@@QEBA?AVQPointF@@NN@Z
       4054  FD5 0036CCE0 ?mapToScene@QGraphicsItem@@QEBA?AVQPolygonF@@AEBV2@@Z
       4055  FD6 0036CE10 ?mapToScene@QGraphicsItem@@QEBA?AVQPolygonF@@AEBVQRectF@@@Z
       4056  FD7 000105E0 ?mapToScene@QGraphicsItem@@QEBA?AVQPolygonF@@NNNN@Z
       4057  FD8 003B42A0 ?mapToScene@QGraphicsView@@QEBA?AVQPainterPath@@AEBV2@@Z
       4058  FD9 003B4380 ?mapToScene@QGraphicsView@@QEBA?AVQPointF@@AEBVQPoint@@@Z
       4059  FDA 00010620 ?mapToScene@QGraphicsView@@QEBA?AVQPointF@@HH@Z
       4060  FDB 003B4480 ?mapToScene@QGraphicsView@@QEBA?AVQPolygonF@@AEBVQPolygon@@@Z
       4061  FDC 003B4910 ?mapToScene@QGraphicsView@@QEBA?AVQPolygonF@@AEBVQRect@@@Z
       4062  FDD 00010650 ?mapToScene@QGraphicsView@@QEBA?AVQPolygonF@@HHHH@Z
       4063  FDE 003B4D90 ?mapToScene@QGraphicsViewPrivate@@QEBA?AVQPointF@@AEBV2@@Z
       4064  FDF 003B4E90 ?mapToScene@QGraphicsViewPrivate@@QEBA?AVQRectF@@AEBV2@@Z
       4065  FE0 00048A10 ?mapToScreen@QTouchEventWidgetSequence@QTest@@AEAA?AVQPoint@@PEAVQWidget@@AEBV3@@Z
       4066  FE1 002547F0 ?mapToSource@QFileDialogPrivate@@QEBA?AVQModelIndex@@AEBV2@@Z
       4067  FE2 003B52A0 ?mapToViewRect@QGraphicsViewPrivate@@QEBA?AVQRect@@PEBVQGraphicsItem@@AEBVQRectF@@@Z
       4068  FE3 003B5310 ?mapToViewRegion@QGraphicsViewPrivate@@QEBA?AVQRegion@@PEBVQGraphicsItem@@AEBVQRectF@@@Z
       4069  FE4 003B53E0 ?mapToViewTransform@QGraphicsViewPrivate@@QEBA?AVQTransform@@PEBVQGraphicsItem@@@Z
       4070  FE5 000106A0 ?mapToWS@QWidgetPrivate@@QEBA?AVQPoint@@AEBV2@@Z
       4071  FE6 000106F0 ?mapToWS@QWidgetPrivate@@QEBA?AVQRect@@AEBV2@@Z
       4072  FE7 002E6850 ?mappedPropertyName@QDataWidgetMapper@@QEBA?AVQByteArray@@PEAVQWidget@@@Z
       4073  FE8 002E6960 ?mappedSection@QDataWidgetMapper@@QEBAHPEAVQWidget@@@Z
       4074  FE9 002E69E0 ?mappedWidgetAt@QDataWidgetMapper@@QEBAPEAVQWidget@@H@Z
       4075  FEA 005E1EF0 ?mapper@QWidgetPrivate@@2PEAV?$QHash@_KPEAVQWidget@@@@EA
       4076  FEB 001734B0 ?margin@QLabel@@QEBAHXZ
       4077  FEC 00074190 ?markNeedsFlush@QWidgetRepaintManager@@AEAAXPEAVQWidget@@AEBVQRegion@@@Z
       4078  FED 00074280 ?markNeedsFlush@QWidgetRepaintManager@@QEAAXPEAVQWidget@@AEBVQRegion@@AEBVQPoint@@@Z
       4079  FEE 00033E20 ?markParentDirty@QGraphicsItemPrivate@@QEAAX_N@Z
       4080  FEF 0005C740 ?mask@QWidget@@QEBA?AVQRegion@@XZ
       4081  FF0 00186B50 ?maskString@QWidgetLineControl@@AEBA?AVQString@@HAEBV2@_N@Z
       4082  FF1 00348FB0 ?matchesFlags@QTreeWidgetItemIterator@@AEBA_NPEBVQTreeWidgetItem@@@Z
       4083  FF2 00139C60 ?maxCount@QComboBox@@QEBAHXZ
       4084  FF3 005E1F04 ?maxInstances@QWidgetPrivate@@2HA
       4085  FF4 0017DE20 ?maxLength@QLineEdit@@QEBAHXZ
       4086  FF5 00139C70 ?maxLength@QWidgetLineControl@@QEBAHXZ
       4087  FF6 00254850 ?maxNameLength@QFileDialogPrivate@@SAJAEBVQString@@@Z
       4088  FF7 00139C80 ?maxVisibleItems@QComboBox@@QEBAHXZ
       4089  FF8 003D1D80 ?maxVisibleItems@QCompleter@@QEBAHXZ
       4090  FF9 001B1170 ?maximizedButtonsWidget@QMdiSubWindow@@QEBAPEAVQWidget@@XZ
       4091  FFA 001B1220 ?maximizedSystemMenuIconWidget@QMdiSubWindow@@QEBAPEAVQWidget@@XZ
       4092  FFB 00120C50 ?maximum@QAbstractSlider@@QEBAHXZ
       4093  FFC 001E5F90 ?maximum@QDoubleSpinBox@@QEBANXZ
       4094  FFD 00120C50 ?maximum@QProgressBar@@QEBAHXZ
       4095  FFE 0027AA10 ?maximum@QProgressDialog@@QEBAHXZ
       4096  FFF 001E5FB0 ?maximum@QSpinBox@@QEBAHXZ
       4097 1000 000C6E10 ?maximumBlockCount@QPlainTextEdit@@QEBAHXZ
       4098 1001 00129990 ?maximumDate@QCalendarWidget@@QEBA?AVQDate@@XZ
       4099 1002 00148110 ?maximumDate@QDateTimeEdit@@QEBA?AVQDate@@XZ
       4100 1003 00148140 ?maximumDateTime@QDateTimeEdit@@QEBA?AVQDateTime@@XZ
       4101 1004 00010750 ?maximumHeight@QGraphicsLayoutItem@@QEBANXZ
       4102 1005 000018C0 ?maximumHeight@QWidget@@QEBAHXZ
       4103 1006 002C8D10 ?maximumSectionSize@QHeaderView@@QEBAHXZ
       4104 1007 00170970 ?maximumSequenceLength@QKeySequenceEdit@@QEBA_JXZ
       4105 1008 0001C510 ?maximumSize@QBoxLayout@@UEBA?AVQSize@@XZ
       4106 1009 001635E0 ?maximumSize@QDockWidgetLayout@@UEBA?AVQSize@@XZ
       4107 100A 0037D810 ?maximumSize@QGraphicsLayoutItem@@QEBA?AVQSizeF@@XZ
       4108 100B 00039710 ?maximumSize@QGridLayout@@UEBA?AVQSize@@XZ
       4109 100C 0003E630 ?maximumSize@QLayout@@UEBA?AVQSize@@XZ
       4110 100D 00041830 ?maximumSize@QSpacerItem@@UEBA?AVQSize@@XZ
       4111 100E 0005C7B0 ?maximumSize@QWidget@@QEBA?AVQSize@@XZ
       4112 100F 00041860 ?maximumSize@QWidgetItem@@UEBA?AVQSize@@XZ
       4113 1010 00041960 ?maximumSize@QWidgetItemV2@@UEBA?AVQSize@@XZ
       4114 1011 00148170 ?maximumTime@QDateTimeEdit@@QEBA?AVQTime@@XZ
       4115 1012 000EA040 ?maximumViewportSize@QAbstractScrollArea@@QEBA?AVQSize@@XZ
       4116 1013 00010780 ?maximumWidth@QGraphicsLayoutItem@@QEBANXZ
       4117 1014 000018E0 ?maximumWidth@QWidget@@QEBAHXZ
       4118 1015 0036CF80 ?maybeExtraItemCache@QGraphicsItemPrivate@@QEBAPEAVQGraphicsItemCache@@XZ
       4119 1016 000107B0 ?maybeRepaintManager@QWidgetPrivate@@QEBAPEAVQWidgetRepaintManager@@XZ
       4120 1017 000107F0 ?maybeTopData@QWidgetPrivate@@QEBAPEAUQTLWExtra@@XZ
       4121 1018 001B12D0 ?mdiArea@QMdiSubWindow@@QEBAPEAVQMdiArea@@XZ
       4122 1019 001D1CB0 ?menu@QPushButton@@QEBAPEAVQMenu@@XZ
       4123 101A 002240C0 ?menu@QToolButton@@QEBAPEAVQMenu@@XZ
       4124 101B 000F5AE0 ?menu@QtWidgetsActionPrivate@@UEBAPEAVQObject@@XZ
       4125 101C 001C0C40 ?menuAction@QMenu@@QEBAPEAVQAction@@XZ
       4126 101D 0003E650 ?menuBar@QLayout@@QEBAPEAVQWidget@@XZ
       4127 101E 0018E580 ?menuBar@QMainWindow@@QEBAPEAVQMenuBar@@XZ
       4128 101F 00002AF0 ?menuInAction@QMenu@@SAPEAV1@PEBVQAction@@@Z
       4129 1020 0018E5F0 ?menuWidget@QMainWindow@@QEBAPEAVQWidget@@XZ
       4130 1021 00201110 ?mergeCurrentCharFormat@QPlainTextEdit@@QEAAXAEBVQTextCharFormat@@@Z
       4131 1022 002090A0 ?mergeCurrentCharFormat@QTextEdit@@QEAAXAEBVQTextCharFormat@@@Z
       4132 1023 00231800 ?mergeCurrentCharFormat@QWidgetTextControl@@QEAAXAEBVQTextCharFormat@@@Z
       4133 1024 001E6B30 ?message@QSplashScreen@@QEBA?AVQString@@XZ
       4134 1025 001E8BE0 ?messageChanged@QSplashScreen@@QEAAXAEBVQString@@@Z
       4135 1026 001EFD00 ?messageChanged@QStatusBar@@QEAAXAEBVQString@@@Z
       4136 1027 000E7200 ?messageClicked@QSystemTrayIcon@@QEAAXXZ
       4137 1028 0011E760 ?metaObject@QAbstractButton@@UEBAPEBUQMetaObject@@XZ
       4138 1029 002A9200 ?metaObject@QAbstractItemDelegate@@UEBAPEBUQMetaObject@@XZ
       4139 102A 002B71C0 ?metaObject@QAbstractItemView@@UEBAPEBUQMetaObject@@XZ
       4140 102B 000EA110 ?metaObject@QAbstractScrollArea@@UEBAPEBUQMetaObject@@XZ
       4141 102C 00120C60 ?metaObject@QAbstractSlider@@UEBAPEBUQMetaObject@@XZ
       4142 102D 001E2030 ?metaObject@QAbstractSpinBox@@UEBAPEBUQMetaObject@@XZ
       4143 102E 00010800 ?metaObject@QApplication@@UEBAPEBUQMetaObject@@XZ
       4144 102F 001029C0 ?metaObject@QBlendStyleAnimation@@UEBAPEBUQMetaObject@@XZ
       4145 1030 0001C590 ?metaObject@QBoxLayout@@UEBAPEBUQMetaObject@@XZ
       4146 1031 00123150 ?metaObject@QButtonGroup@@UEBAPEBUQMetaObject@@XZ
       4147 1032 00129A30 ?metaObject@QCalendarWidget@@UEBAPEBUQMetaObject@@XZ
       4148 1033 0012F3F0 ?metaObject@QCheckBox@@UEBAPEBUQMetaObject@@XZ
       4149 1034 0023D2A0 ?metaObject@QColorDialog@@UEBAPEBUQMetaObject@@XZ
       4150 1035 002E2000 ?metaObject@QColumnView@@UEBAPEBUQMetaObject@@XZ
       4151 1036 00139C90 ?metaObject@QComboBox@@UEBAPEBUQMetaObject@@XZ
       4152 1037 00139CF0 ?metaObject@QComboBoxPrivateContainer@@UEBAPEBUQMetaObject@@XZ
       4153 1038 00142A70 ?metaObject@QCommandLinkButton@@UEBAPEBUQMetaObject@@XZ
       4154 1039 0008E820 ?metaObject@QCommonStyle@@UEBAPEBUQMetaObject@@XZ
       4155 103A 003D1D90 ?metaObject@QCompleter@@UEBAPEBUQMetaObject@@XZ
       4156 103B 002E6A20 ?metaObject@QDataWidgetMapper@@UEBAPEBUQMetaObject@@XZ
       4157 103C 001481C0 ?metaObject@QDateEdit@@UEBAPEBUQMetaObject@@XZ
       4158 103D 001481E0 ?metaObject@QDateTimeEdit@@UEBAPEBUQMetaObject@@XZ
       4159 103E 0014D650 ?metaObject@QDial@@UEBAPEBUQMetaObject@@XZ
       4160 103F 00243320 ?metaObject@QDialog@@UEBAPEBUQMetaObject@@XZ
       4161 1040 001D72F0 ?metaObject@QDialogButtonBox@@UEBAPEBUQMetaObject@@XZ
       4162 1041 00163670 ?metaObject@QDockWidget@@UEBAPEBUQMetaObject@@XZ
       4163 1042 00163690 ?metaObject@QDockWidgetLayout@@UEBAPEBUQMetaObject@@XZ
       4164 1043 001E5FD0 ?metaObject@QDoubleSpinBox@@UEBAPEBUQMetaObject@@XZ
       4165 1044 00246510 ?metaObject@QErrorMessage@@UEBAPEBUQMetaObject@@XZ
       4166 1045 002548C0 ?metaObject@QFileDialog@@UEBAPEBUQMetaObject@@XZ
       4167 1046 003D49B0 ?metaObject@QFlickGesture@@UEBAPEBUQMetaObject@@XZ
       4168 1047 000EC410 ?metaObject@QFocusFrame@@UEBAPEBUQMetaObject@@XZ
       4169 1048 0016A5D0 ?metaObject@QFontComboBox@@UEBAPEBUQMetaObject@@XZ
       4170 1049 0026B3C0 ?metaObject@QFontDialog@@UEBAPEBUQMetaObject@@XZ
       4171 104A 000F9A70 ?metaObject@QFormLayout@@UEBAPEBUQMetaObject@@XZ
       4172 104B 000ED5D0 ?metaObject@QFrame@@UEBAPEBUQMetaObject@@XZ
       4173 104C 00118EA0 ?metaObject@QFusionStyle@@UEBAPEBUQMetaObject@@XZ
       4174 104D 00020EA0 ?metaObject@QGesture@@UEBAPEBUQMetaObject@@XZ
       4175 104E 00349C60 ?metaObject@QGraphicsAnchor@@UEBAPEBUQMetaObject@@XZ
       4176 104F 000F1890 ?metaObject@QGraphicsBlurEffect@@UEBAPEBUQMetaObject@@XZ
       4177 1050 000F18B0 ?metaObject@QGraphicsColorizeEffect@@UEBAPEBUQMetaObject@@XZ
       4178 1051 000F18D0 ?metaObject@QGraphicsDropShadowEffect@@UEBAPEBUQMetaObject@@XZ
       4179 1052 000F18F0 ?metaObject@QGraphicsEffect@@UEBAPEBUQMetaObject@@XZ
       4180 1053 000F1910 ?metaObject@QGraphicsEffectSource@@UEBAPEBUQMetaObject@@XZ
       4181 1054 003C7F90 ?metaObject@QGraphicsItemAnimation@@UEBAPEBUQMetaObject@@XZ
       4182 1055 0036D010 ?metaObject@QGraphicsObject@@UEBAPEBUQMetaObject@@XZ
       4183 1056 000F1930 ?metaObject@QGraphicsOpacityEffect@@UEBAPEBUQMetaObject@@XZ
       4184 1057 00382A00 ?metaObject@QGraphicsProxyWidget@@UEBAPEBUQMetaObject@@XZ
       4185 1058 003AD440 ?metaObject@QGraphicsRotation@@UEBAPEBUQMetaObject@@XZ
       4186 1059 003AD460 ?metaObject@QGraphicsScale@@UEBAPEBUQMetaObject@@XZ
       4187 105A 0039AD50 ?metaObject@QGraphicsScene@@UEBAPEBUQMetaObject@@XZ
       4188 105B 0036D030 ?metaObject@QGraphicsTextItem@@UEBAPEBUQMetaObject@@XZ
       4189 105C 003AD480 ?metaObject@QGraphicsTransform@@UEBAPEBUQMetaObject@@XZ
       4190 105D 003B5620 ?metaObject@QGraphicsView@@UEBAPEBUQMetaObject@@XZ
       4191 105E 003BECE0 ?metaObject@QGraphicsWidget@@UEBAPEBUQMetaObject@@XZ
       4192 105F 00039800 ?metaObject@QGridLayout@@UEBAPEBUQMetaObject@@XZ
       4193 1060 0016DE30 ?metaObject@QGroupBox@@UEBAPEBUQMetaObject@@XZ
       4194 1061 0001C5B0 ?metaObject@QHBoxLayout@@UEBAPEBUQMetaObject@@XZ
       4195 1062 002C8E90 ?metaObject@QHeaderView@@UEBAPEBUQMetaObject@@XZ
       4196 1063 00270F50 ?metaObject@QInputDialog@@UEBAPEBUQMetaObject@@XZ
       4197 1064 002D7630 ?metaObject@QItemDelegate@@UEBAPEBUQMetaObject@@XZ
       4198 1065 00170980 ?metaObject@QKeySequenceEdit@@UEBAPEBUQMetaObject@@XZ
       4199 1066 00179010 ?metaObject@QLCDNumber@@UEBAPEBUQMetaObject@@XZ
       4200 1067 001734C0 ?metaObject@QLabel@@UEBAPEBUQMetaObject@@XZ
       4201 1068 0003E660 ?metaObject@QLayout@@UEBAPEBUQMetaObject@@XZ
       4202 1069 0017DE30 ?metaObject@QLineEdit@@UEBAPEBUQMetaObject@@XZ
       4203 106A 002F30A0 ?metaObject@QListView@@UEBAPEBUQMetaObject@@XZ
       4204 106B 003010C0 ?metaObject@QListWidget@@UEBAPEBUQMetaObject@@XZ
       4205 106C 0018E620 ?metaObject@QMainWindow@@UEBAPEBUQMetaObject@@XZ
       4206 106D 001A5640 ?metaObject@QMdiArea@@UEBAPEBUQMetaObject@@XZ
       4207 106E 001B1420 ?metaObject@QMdiSubWindow@@UEBAPEBUQMetaObject@@XZ
       4208 106F 001C0C50 ?metaObject@QMenu@@UEBAPEBUQMetaObject@@XZ
       4209 1070 001CC1B0 ?metaObject@QMenuBar@@UEBAPEBUQMetaObject@@XZ
       4210 1071 00276910 ?metaObject@QMessageBox@@UEBAPEBUQMetaObject@@XZ
       4211 1072 001029E0 ?metaObject@QNumberStyleAnimation@@UEBAPEBUQMetaObject@@XZ
       4212 1073 00020EC0 ?metaObject@QPanGesture@@UEBAPEBUQMetaObject@@XZ
       4213 1074 00020EE0 ?metaObject@QPinchGesture@@UEBAPEBUQMetaObject@@XZ
       4214 1075 000F5370 ?metaObject@QPixmapBlurFilter@@UEBAPEBUQMetaObject@@XZ
       4215 1076 000F5390 ?metaObject@QPixmapColorizeFilter@@UEBAPEBUQMetaObject@@XZ
       4216 1077 000F53B0 ?metaObject@QPixmapConvolutionFilter@@UEBAPEBUQMetaObject@@XZ
       4217 1078 000F53D0 ?metaObject@QPixmapDropShadowFilter@@UEBAPEBUQMetaObject@@XZ
       4218 1079 000F53F0 ?metaObject@QPixmapFilter@@UEBAPEBUQMetaObject@@XZ
       4219 107A 0009EA80 ?metaObject@QPixmapStyle@@UEBAPEBUQMetaObject@@XZ
       4220 107B 00201120 ?metaObject@QPlainTextDocumentLayout@@UEBAPEBUQMetaObject@@XZ
       4221 107C 00201140 ?metaObject@QPlainTextEdit@@UEBAPEBUQMetaObject@@XZ
       4222 107D 001CFBA0 ?metaObject@QProgressBar@@UEBAPEBUQMetaObject@@XZ
       4223 107E 0027AA20 ?metaObject@QProgressDialog@@UEBAPEBUQMetaObject@@XZ
       4224 107F 00102A00 ?metaObject@QProgressStyleAnimation@@UEBAPEBUQMetaObject@@XZ
       4225 1080 000A25F0 ?metaObject@QProxyStyle@@UEBAPEBUQMetaObject@@XZ
       4226 1081 001D1CE0 ?metaObject@QPushButton@@UEBAPEBUQMetaObject@@XZ
       4227 1082 001D2FC0 ?metaObject@QRadioButton@@UEBAPEBUQMetaObject@@XZ
       4228 1083 00002750 ?metaObject@QRhiWidget@@UEBAPEBUQMetaObject@@XZ
       4229 1084 001D8310 ?metaObject@QRubberBand@@UEBAPEBUQMetaObject@@XZ
       4230 1085 001D8FE0 ?metaObject@QScrollArea@@UEBAPEBUQMetaObject@@XZ
       4231 1086 001DADC0 ?metaObject@QScrollBar@@UEBAPEBUQMetaObject@@XZ
       4232 1087 00102A20 ?metaObject@QScrollbarStyleAnimation@@UEBAPEBUQMetaObject@@XZ
       4233 1088 003DAB20 ?metaObject@QScroller@@UEBAPEBUQMetaObject@@XZ
       4234 1089 001DC4B0 ?metaObject@QSizeGrip@@UEBAPEBUQMetaObject@@XZ
       4235 108A 001DDA30 ?metaObject@QSlider@@UEBAPEBUQMetaObject@@XZ
       4236 108B 001E5FF0 ?metaObject@QSpinBox@@UEBAPEBUQMetaObject@@XZ
       4237 108C 001E8C10 ?metaObject@QSplashScreen@@UEBAPEBUQMetaObject@@XZ
       4238 108D 001EB910 ?metaObject@QSplitter@@UEBAPEBUQMetaObject@@XZ
       4239 108E 001EB930 ?metaObject@QSplitterHandle@@UEBAPEBUQMetaObject@@XZ
       4240 108F 00045A80 ?metaObject@QStackedLayout@@UEBAPEBUQMetaObject@@XZ
       4241 1090 001EED10 ?metaObject@QStackedWidget@@UEBAPEBUQMetaObject@@XZ
       4242 1091 001EFD30 ?metaObject@QStatusBar@@UEBAPEBUQMetaObject@@XZ
       4243 1092 000A4980 ?metaObject@QStyle@@UEBAPEBUQMetaObject@@XZ
       4244 1093 00102A40 ?metaObject@QStyleAnimation@@UEBAPEBUQMetaObject@@XZ
       4245 1094 000AB1C0 ?metaObject@QStylePlugin@@UEBAPEBUQMetaObject@@XZ
       4246 1095 002DD5F0 ?metaObject@QStyledItemDelegate@@UEBAPEBUQMetaObject@@XZ
       4247 1096 00020F00 ?metaObject@QSwipeGesture@@UEBAPEBUQMetaObject@@XZ
       4248 1097 000E7220 ?metaObject@QSystemTrayIcon@@UEBAPEBUQMetaObject@@XZ
       4249 1098 001F5320 ?metaObject@QTabBar@@UEBAPEBUQMetaObject@@XZ
       4250 1099 00211390 ?metaObject@QTabWidget@@UEBAPEBUQMetaObject@@XZ
       4251 109A 0030B190 ?metaObject@QTableView@@UEBAPEBUQMetaObject@@XZ
       4252 109B 0031C980 ?metaObject@QTableWidget@@UEBAPEBUQMetaObject@@XZ
       4253 109C 00020F20 ?metaObject@QTapAndHoldGesture@@UEBAPEBUQMetaObject@@XZ
       4254 109D 00020F40 ?metaObject@QTapGesture@@UEBAPEBUQMetaObject@@XZ
       4255 109E 0020E710 ?metaObject@QTextBrowser@@UEBAPEBUQMetaObject@@XZ
       4256 109F 002090B0 ?metaObject@QTextEdit@@UEBAPEBUQMetaObject@@XZ
       4257 10A0 00148200 ?metaObject@QTimeEdit@@UEBAPEBUQMetaObject@@XZ
       4258 10A1 00214600 ?metaObject@QToolBar@@UEBAPEBUQMetaObject@@XZ
       4259 10A2 00221D90 ?metaObject@QToolBox@@UEBAPEBUQMetaObject@@XZ
       4260 10A3 00224130 ?metaObject@QToolButton@@UEBAPEBUQMetaObject@@XZ
       4261 10A4 0032DDC0 ?metaObject@QTreeView@@UEBAPEBUQMetaObject@@XZ
       4262 10A5 00341E90 ?metaObject@QTreeWidget@@UEBAPEBUQMetaObject@@XZ
       4263 10A6 003E2470 ?metaObject@QUndoView@@UEBAPEBUQMetaObject@@XZ
       4264 10A7 0001C5D0 ?metaObject@QVBoxLayout@@UEBAPEBUQMetaObject@@XZ
       4265 10A8 0005C7E0 ?metaObject@QWidget@@UEBAPEBUQMetaObject@@XZ
       4266 10A9 000F6210 ?metaObject@QWidgetAction@@UEBAPEBUQMetaObject@@XZ
       4267 10AA 00187090 ?metaObject@QWidgetLineControl@@UEBAPEBUQMetaObject@@XZ
       4268 10AB 002318E0 ?metaObject@QWidgetTextControl@@UEBAPEBUQMetaObject@@XZ
       4269 10AC 0007D550 ?metaObject@QWindowContainer@@UEBAPEBUQMetaObject@@XZ
       4270 10AD 0010A120 ?metaObject@QWindowsStyle@@UEBAPEBUQMetaObject@@XZ
       4271 10AE 00283010 ?metaObject@QWizard@@UEBAPEBUQMetaObject@@XZ
       4272 10AF 00283030 ?metaObject@QWizardPage@@UEBAPEBUQMetaObject@@XZ
       4273 10B0 0005C800 ?metric@QWidget@@MEBAHW4PaintDeviceMetric@QPaintDevice@@@Z
       4274 10B1 00231900 ?microFocusChanged@QWidgetTextControl@@QEAAXXZ
       4275 10B2 000ED5F0 ?midLineWidth@QFrame@@QEBAHXZ
       4276 10B3 003AA360 ?mimeData@QGraphicsSceneDragDropEvent@@QEBAPEBVQMimeData@@XZ
       4277 10B4 003014B0 ?mimeData@QListWidget@@MEBAPEAVQMimeData@@AEBV?$QList@PEAVQListWidgetItem@@@@@Z
       4278 10B5 0031CDA0 ?mimeData@QTableWidget@@MEBAPEAVQMimeData@@AEBV?$QList@PEAVQTableWidgetItem@@@@@Z
       4279 10B6 00342260 ?mimeData@QTreeWidget@@MEBAPEAVQMimeData@@AEBV?$QList@PEAVQTreeWidgetItem@@@@@Z
       4280 10B7 002548E0 ?mimeTypeFilters@QFileDialog@@QEBA?AV?$QList@VQString@@@@XZ
       4281 10B8 003017A0 ?mimeTypes@QListWidget@@MEBA?AV?$QList@VQString@@@@XZ
       4282 10B9 0031D110 ?mimeTypes@QTableWidget@@MEBA?AV?$QList@VQString@@@@XZ
       4283 10BA 00342510 ?mimeTypes@QTreeWidget@@MEBA?AV?$QList@VQString@@@@XZ
       4284 10BB 00120C80 ?minimum@QAbstractSlider@@QEBAHXZ
       4285 10BC 001E6010 ?minimum@QDoubleSpinBox@@QEBANXZ
       4286 10BD 00120C80 ?minimum@QProgressBar@@QEBAHXZ
       4287 10BE 0027AA40 ?minimum@QProgressDialog@@QEBAHXZ
       4288 10BF 001E6030 ?minimum@QSpinBox@@QEBAHXZ
       4289 10C0 00139D50 ?minimumContentsLength@QComboBox@@QEBAHXZ
       4290 10C1 00129A70 ?minimumDate@QCalendarWidget@@QEBA?AVQDate@@XZ
       4291 10C2 00148220 ?minimumDate@QDateTimeEdit@@QEBA?AVQDate@@XZ
       4292 10C3 00148250 ?minimumDateTime@QDateTimeEdit@@QEBA?AVQDateTime@@XZ
       4293 10C4 00139E20 ?minimumDuration@QProgressDialog@@QEBAHXZ
       4294 10C5 00010820 ?minimumHeight@QGraphicsLayoutItem@@QEBANXZ
       4295 10C6 00001900 ?minimumHeight@QWidget@@QEBAHXZ
       4296 10C7 0001C5F0 ?minimumHeightForWidth@QBoxLayout@@UEBAHH@Z
       4297 10C8 00039820 ?minimumHeightForWidth@QGridLayout@@UEBAHH@Z
       4298 10C9 000419E0 ?minimumHeightForWidth@QLayoutItem@@UEBAHH@Z
       4299 10CA 000419F0 ?minimumHeightForWidth@QWidgetItem@@UEBAHH@Z
       4300 10CB 0039AD70 ?minimumRenderSize@QGraphicsScene@@QEBANXZ
       4301 10CC 002C8EB0 ?minimumSectionSize@QHeaderView@@QEBAHXZ
       4302 10CD 0001C640 ?minimumSize@QBoxLayout@@UEBA?AVQSize@@XZ
       4303 10CE 00163920 ?minimumSize@QDockWidgetLayout@@UEBA?AVQSize@@XZ
       4304 10CF 000F9A90 ?minimumSize@QFormLayout@@UEBA?AVQSize@@XZ
       4305 10D0 0037D850 ?minimumSize@QGraphicsLayoutItem@@QEBA?AVQSizeF@@XZ
       4306 10D1 00039910 ?minimumSize@QGridLayout@@UEBA?AVQSize@@XZ
       4307 10D2 0003E680 ?minimumSize@QLayout@@UEBA?AVQSize@@XZ
       4308 10D3 00041BB0 ?minimumSize@QSpacerItem@@UEBA?AVQSize@@XZ
       4309 10D4 00045AA0 ?minimumSize@QStackedLayout@@UEBA?AVQSize@@XZ
       4310 10D5 0005CA90 ?minimumSize@QWidget@@QEBA?AVQSize@@XZ
       4311 10D6 00041BE0 ?minimumSize@QWidgetItem@@UEBA?AVQSize@@XZ
       4312 10D7 00041CE0 ?minimumSize@QWidgetItemV2@@UEBA?AVQSize@@XZ
       4313 10D8 000EA150 ?minimumSizeHint@QAbstractScrollArea@@UEBA?AVQSize@@XZ
       4314 10D9 001E2050 ?minimumSizeHint@QAbstractSpinBox@@UEBA?AVQSize@@XZ
       4315 10DA 00129A90 ?minimumSizeHint@QCalendarWidget@@UEBA?AVQSize@@XZ
       4316 10DB 0012F410 ?minimumSizeHint@QCheckBox@@UEBA?AVQSize@@XZ
       4317 10DC 00139D60 ?minimumSizeHint@QComboBox@@UEBA?AVQSize@@XZ
       4318 10DD 00142A90 ?minimumSizeHint@QCommandLinkButton@@UEBA?AVQSize@@XZ
       4319 10DE 0014D670 ?minimumSizeHint@QDial@@UEBA?AVQSize@@XZ
       4320 10DF 00243340 ?minimumSizeHint@QDialog@@UEBA?AVQSize@@XZ
       4321 10E0 0016DE50 ?minimumSizeHint@QGroupBox@@UEBA?AVQSize@@XZ
       4322 10E1 00270FB0 ?minimumSizeHint@QInputDialog@@UEBA?AVQSize@@XZ
       4323 10E2 001734E0 ?minimumSizeHint@QLabel@@UEBA?AVQSize@@XZ
       4324 10E3 0017DE50 ?minimumSizeHint@QLineEdit@@UEBA?AVQSize@@XZ
       4325 10E4 001A5660 ?minimumSizeHint@QMdiArea@@UEBA?AVQSize@@XZ
       4326 10E5 001B1440 ?minimumSizeHint@QMdiSubWindow@@UEBA?AVQSize@@XZ
       4327 10E6 001CC1D0 ?minimumSizeHint@QMenuBar@@UEBA?AVQSize@@XZ
       4328 10E7 001CFBC0 ?minimumSizeHint@QProgressBar@@UEBA?AVQSize@@XZ
       4329 10E8 0012F410 ?minimumSizeHint@QPushButton@@UEBA?AVQSize@@XZ
       4330 10E9 0012F410 ?minimumSizeHint@QRadioButton@@UEBA?AVQSize@@XZ
       4331 10EA 001DDA50 ?minimumSizeHint@QSlider@@UEBA?AVQSize@@XZ
       4332 10EB 001EB950 ?minimumSizeHint@QSplitter@@UEBA?AVQSize@@XZ
       4333 10EC 001F5360 ?minimumSizeHint@QTabBar@@UEBA?AVQSize@@XZ
       4334 10ED 002113B0 ?minimumSizeHint@QTabWidget@@UEBA?AVQSize@@XZ
       4335 10EE 0012F410 ?minimumSizeHint@QToolButton@@UEBA?AVQSize@@XZ
       4336 10EF 0005CAC0 ?minimumSizeHint@QWidget@@UEBA?AVQSize@@XZ
       4337 10F0 0007D570 ?minimumSizeHint@QWindowContainer@@UEBA?AVQSize@@XZ
       4338 10F1 001F54C0 ?minimumTabSizeHint@QTabBar@@MEBA?AVQSize@@H@Z
       4339 10F2 00148280 ?minimumTime@QDateTimeEdit@@QEBA?AVQTime@@XZ
       4340 10F3 001639C0 ?minimumTitleWidth@QDockWidgetLayout@@QEBAHXZ
       4341 10F4 00010850 ?minimumWidth@QGraphicsLayoutItem@@QEBANXZ
       4342 10F5 00001920 ?minimumWidth@QWidget@@QEBAHXZ
       4343 10F6 00002770 ?mirrorVerticallyChanged@QRhiWidget@@QEAAX_N@Z
       4344 10F7 00010880 ?modalState@QApplicationPrivate@@SA_NXZ
       4345 10F8 000E63F0 ?mode@QColormap@@QEBA?AW4Mode@1@XZ
       4346 10F9 00179030 ?mode@QLCDNumber@@QEBA?AW4Mode@1@XZ
       4347 10FA 00102A60 ?mode@QScrollbarStyleAnimation@@QEBA?AW4Mode@1@XZ
       4348 10FB 002B71F0 ?model@QAbstractItemView@@QEBAPEAVQAbstractItemModel@@XZ
       4349 10FC 00139D90 ?model@QComboBox@@QEBAPEAVQAbstractItemModel@@XZ
       4350 10FD 003D1DD0 ?model@QCompleter@@QEBAPEAVQAbstractItemModel@@XZ
       4351 10FE 002E6A40 ?model@QDataWidgetMapper@@QEBAPEAVQAbstractItemModel@@XZ
       4352 10FF 0032DDE0 ?modelAboutToBeReset@QTreeViewPrivate@@QEAAXXZ
       4353 1100 00139E20 ?modelColumn@QComboBox@@QEBAHXZ
       4354 1101 002F30C0 ?modelColumn@QListView@@QEBAHXZ
       4355 1102 0032DEA0 ?modelDestroyed@QTreeViewPrivate@@UEAAXXZ
       4356 1103 0032DF60 ?modelIndex@QTreeViewPrivate@@QEBA?AVQModelIndex@@HH@Z
       4357 1104 000457D0 ?modelSorting@QCompleter@@QEBA?AW4ModelSorting@1@XZ
       4358 1105 00201180 ?modificationChanged@QPlainTextEdit@@QEAAX_N@Z
       4359 1106 00231920 ?modificationChanged@QWidgetTextControl@@QEAAX_N@Z
       4360 1107 003A9FF0 ?modifiers@QGraphicsSceneContextMenuEvent@@QEBA?AV?$QFlags@W4KeyboardModifier@Qt@@@@XZ
       4361 1108 003AA370 ?modifiers@QGraphicsSceneDragDropEvent@@QEBA?AV?$QFlags@W4KeyboardModifier@Qt@@@@XZ
       4362 1109 003AA380 ?modifiers@QGraphicsSceneHoverEvent@@QEBA?AV?$QFlags@W4KeyboardModifier@Qt@@@@XZ
       4363 110A 003AA390 ?modifiers@QGraphicsSceneMouseEvent@@QEBA?AV?$QFlags@W4KeyboardModifier@Qt@@@@XZ
       4364 110B 003AA3A0 ?modifiers@QGraphicsSceneWheelEvent@@QEBA?AV?$QFlags@W4KeyboardModifier@Qt@@@@XZ
       4365 110C 0012A0F0 ?monthShown@QCalendarWidget@@QEBAHXZ
       4366 110D 002B7260 ?mouseDoubleClickEvent@QAbstractItemView@@MEAAXPEAVQMouseEvent@@@Z
       4367 110E 00051AA0 ?mouseDoubleClickEvent@QAbstractScrollArea@@MEAAXPEAVQMouseEvent@@@Z
       4368 110F 0036D050 ?mouseDoubleClickEvent@QGraphicsItem@@MEAAXPEAVQGraphicsSceneMouseEvent@@@Z
       4369 1110 00382A20 ?mouseDoubleClickEvent@QGraphicsProxyWidget@@MEAAXPEAVQGraphicsSceneMouseEvent@@@Z
       4370 1111 0039AD80 ?mouseDoubleClickEvent@QGraphicsScene@@MEAAXPEAVQGraphicsSceneMouseEvent@@@Z
       4371 1112 0036D070 ?mouseDoubleClickEvent@QGraphicsTextItem@@MEAAXPEAVQGraphicsSceneMouseEvent@@@Z
       4372 1113 003B5640 ?mouseDoubleClickEvent@QGraphicsView@@MEAAXPEAVQMouseEvent@@@Z
       4373 1114 002C8F60 ?mouseDoubleClickEvent@QHeaderView@@MEAAXPEAVQMouseEvent@@@Z
       4374 1115 0017DFD0 ?mouseDoubleClickEvent@QLineEdit@@MEAAXPEAVQMouseEvent@@@Z
       4375 1116 001B17F0 ?mouseDoubleClickEvent@QMdiSubWindow@@MEAAXPEAVQMouseEvent@@@Z
       4376 1117 001FDDA0 ?mouseDoubleClickEvent@QPlainTextEdit@@MEAAXPEAVQMouseEvent@@@Z
       4377 1118 001F5580 ?mouseDoubleClickEvent@QTabBar@@MEAAXPEAVQMouseEvent@@@Z
       4378 1119 00206820 ?mouseDoubleClickEvent@QTextEdit@@MEAAXPEAVQMouseEvent@@@Z
       4379 111A 0032E080 ?mouseDoubleClickEvent@QTreeView@@MEAAXPEAVQMouseEvent@@@Z
       4380 111B 0005CB00 ?mouseDoubleClickEvent@QWidget@@MEAAXPEAVQMouseEvent@@@Z
       4381 111C 0005CB20 ?mouseGrabber@QWidget@@SAPEAV1@XZ
       4382 111D 0039AD90 ?mouseGrabberItem@QGraphicsScene@@QEBAPEAVQGraphicsItem@@XZ
       4383 111E 0011E780 ?mouseMoveEvent@QAbstractButton@@MEAAXPEAVQMouseEvent@@@Z
       4384 111F 002B7550 ?mouseMoveEvent@QAbstractItemView@@MEAAXPEAVQMouseEvent@@@Z
       4385 1120 00051AA0 ?mouseMoveEvent@QAbstractScrollArea@@MEAAXPEAVQMouseEvent@@@Z
       4386 1121 001E2350 ?mouseMoveEvent@QAbstractSpinBox@@MEAAXPEAVQMouseEvent@@@Z
       4387 1122 0012F430 ?mouseMoveEvent@QCheckBox@@MEAAXPEAVQMouseEvent@@@Z
       4388 1123 0014D690 ?mouseMoveEvent@QDial@@MEAAXPEAVQMouseEvent@@@Z
       4389 1124 0036D140 ?mouseMoveEvent@QGraphicsItem@@MEAAXPEAVQGraphicsSceneMouseEvent@@@Z
       4390 1125 00382A20 ?mouseMoveEvent@QGraphicsProxyWidget@@MEAAXPEAVQGraphicsSceneMouseEvent@@@Z
       4391 1126 0039ADB0 ?mouseMoveEvent@QGraphicsScene@@MEAAXPEAVQGraphicsSceneMouseEvent@@@Z
       4392 1127 0036DD80 ?mouseMoveEvent@QGraphicsTextItem@@MEAAXPEAVQGraphicsSceneMouseEvent@@@Z
       4393 1128 003B59B0 ?mouseMoveEvent@QGraphicsView@@MEAAXPEAVQMouseEvent@@@Z
       4394 1129 0016E040 ?mouseMoveEvent@QGroupBox@@MEAAXPEAVQMouseEvent@@@Z
       4395 112A 002C9240 ?mouseMoveEvent@QHeaderView@@MEAAXPEAVQMouseEvent@@@Z
       4396 112B 00173190 ?mouseMoveEvent@QLabel@@MEAAXPEAVQMouseEvent@@@Z
       4397 112C 0017E1E0 ?mouseMoveEvent@QLineEdit@@MEAAXPEAVQMouseEvent@@@Z
       4398 112D 002F30D0 ?mouseMoveEvent@QListView@@MEAAXPEAVQMouseEvent@@@Z
       4399 112E 001B1A00 ?mouseMoveEvent@QMdiSubWindow@@MEAAXPEAVQMouseEvent@@@Z
       4400 112F 001C15E0 ?mouseMoveEvent@QMenu@@MEAAXPEAVQMouseEvent@@@Z
       4401 1130 001CC590 ?mouseMoveEvent@QMenuBar@@MEAAXPEAVQMouseEvent@@@Z
       4402 1131 002011C0 ?mouseMoveEvent@QPlainTextEdit@@MEAAXPEAVQMouseEvent@@@Z
       4403 1132 001D1D00 ?mouseMoveEvent@QPushButton@@MEAAXPEAVQMouseEvent@@@Z
       4404 1133 001D2FE0 ?mouseMoveEvent@QRadioButton@@MEAAXPEAVQMouseEvent@@@Z
       4405 1134 001DADE0 ?mouseMoveEvent@QScrollBar@@MEAAXPEAVQMouseEvent@@@Z
       4406 1135 001DC4D0 ?mouseMoveEvent@QSizeGrip@@MEAAXPEAVQMouseEvent@@@Z
       4407 1136 001DDB00 ?mouseMoveEvent@QSlider@@MEAAXPEAVQMouseEvent@@@Z
       4408 1137 001EBAA0 ?mouseMoveEvent@QSplitterHandle@@MEAAXPEAVQMouseEvent@@@Z
       4409 1138 001F56B0 ?mouseMoveEvent@QTabBar@@MEAAXPEAVQMouseEvent@@@Z
       4410 1139 0020E730 ?mouseMoveEvent@QTextBrowser@@MEAAXPEAVQMouseEvent@@@Z
       4411 113A 002090D0 ?mouseMoveEvent@QTextEdit@@MEAAXPEAVQMouseEvent@@@Z
       4412 113B 0032E4E0 ?mouseMoveEvent@QTreeView@@MEAAXPEAVQMouseEvent@@@Z
       4413 113C 00051AA0 ?mouseMoveEvent@QWidget@@MEAAXPEAVQMouseEvent@@@Z
       4414 113D 003B5B40 ?mouseMoveEventHandler@QGraphicsViewPrivate@@QEAAXPEAVQMouseEvent@@@Z
       4415 113E 0011E910 ?mousePressEvent@QAbstractButton@@MEAAXPEAVQMouseEvent@@@Z
       4416 113F 002B7A10 ?mousePressEvent@QAbstractItemView@@MEAAXPEAVQMouseEvent@@@Z
       4417 1140 000EA2B0 ?mousePressEvent@QAbstractScrollArea@@MEAAXPEAVQMouseEvent@@@Z
       4418 1141 001E2520 ?mousePressEvent@QAbstractSpinBox@@MEAAXPEAVQMouseEvent@@@Z
       4419 1142 0012A510 ?mousePressEvent@QCalendarWidget@@MEAAXPEAVQMouseEvent@@@Z
       4420 1143 0013A020 ?mousePressEvent@QComboBox@@MEAAXPEAVQMouseEvent@@@Z
       4421 1144 0013A060 ?mousePressEvent@QComboBoxPrivateContainer@@MEAAXPEAVQMouseEvent@@@Z
       4422 1145 001484C0 ?mousePressEvent@QDateTimeEdit@@MEAAXPEAVQMouseEvent@@@Z
       4423 1146 0014D740 ?mousePressEvent@QDial@@MEAAXPEAVQMouseEvent@@@Z
       4424 1147 0036DE10 ?mousePressEvent@QGraphicsItem@@MEAAXPEAVQGraphicsSceneMouseEvent@@@Z
       4425 1148 00382A20 ?mousePressEvent@QGraphicsProxyWidget@@MEAAXPEAVQGraphicsSceneMouseEvent@@@Z
       4426 1149 0039AE50 ?mousePressEvent@QGraphicsScene@@MEAAXPEAVQGraphicsSceneMouseEvent@@@Z
       4427 114A 0036DF80 ?mousePressEvent@QGraphicsTextItem@@MEAAXPEAVQGraphicsSceneMouseEvent@@@Z
       4428 114B 003B6200 ?mousePressEvent@QGraphicsView@@MEAAXPEAVQMouseEvent@@@Z
       4429 114C 0016E1E0 ?mousePressEvent@QGroupBox@@MEAAXPEAVQMouseEvent@@@Z
       4430 114D 002C9940 ?mousePressEvent@QHeaderView@@MEAAXPEAVQMouseEvent@@@Z
       4431 114E 00173190 ?mousePressEvent@QLabel@@MEAAXPEAVQMouseEvent@@@Z
       4432 114F 0017E470 ?mousePressEvent@QLineEdit@@MEAAXPEAVQMouseEvent@@@Z
       4433 1150 001B2090 ?mousePressEvent@QMdiSubWindow@@MEAAXPEAVQMouseEvent@@@Z
       4434 1151 001C19D0 ?mousePressEvent@QMenu@@MEAAXPEAVQMouseEvent@@@Z
       4435 1152 001CC6B0 ?mousePressEvent@QMenuBar@@MEAAXPEAVQMouseEvent@@@Z
       4436 1153 001FDDA0 ?mousePressEvent@QPlainTextEdit@@MEAAXPEAVQMouseEvent@@@Z
       4437 1154 001DB2F0 ?mousePressEvent@QScrollBar@@MEAAXPEAVQMouseEvent@@@Z
       4438 1155 001DC750 ?mousePressEvent@QSizeGrip@@MEAAXPEAVQMouseEvent@@@Z
       4439 1156 001DDBB0 ?mousePressEvent@QSlider@@MEAAXPEAVQMouseEvent@@@Z
       4440 1157 001E8C30 ?mousePressEvent@QSplashScreen@@MEAAXPEAVQMouseEvent@@@Z
       4441 1158 001EBBE0 ?mousePressEvent@QSplitterHandle@@MEAAXPEAVQMouseEvent@@@Z
       4442 1159 001F5A10 ?mousePressEvent@QTabBar@@MEAAXPEAVQMouseEvent@@@Z
       4443 115A 0020E740 ?mousePressEvent@QTextBrowser@@MEAAXPEAVQMouseEvent@@@Z
       4444 115B 00206820 ?mousePressEvent@QTextEdit@@MEAAXPEAVQMouseEvent@@@Z
       4445 115C 00224150 ?mousePressEvent@QToolButton@@MEAAXPEAVQMouseEvent@@@Z
       4446 115D 0032E580 ?mousePressEvent@QTreeView@@MEAAXPEAVQMouseEvent@@@Z
       4447 115E 0005CB40 ?mousePressEvent@QWidget@@MEAAXPEAVQMouseEvent@@@Z
       4448 115F 0011EA30 ?mouseReleaseEvent@QAbstractButton@@MEAAXPEAVQMouseEvent@@@Z
       4449 1160 002B7FF0 ?mouseReleaseEvent@QAbstractItemView@@MEAAXPEAVQMouseEvent@@@Z
       4450 1161 00051AA0 ?mouseReleaseEvent@QAbstractScrollArea@@MEAAXPEAVQMouseEvent@@@Z
       4451 1162 001E26B0 ?mouseReleaseEvent@QAbstractSpinBox@@MEAAXPEAVQMouseEvent@@@Z
       4452 1163 0013A1F0 ?mouseReleaseEvent@QComboBox@@MEAAXPEAVQMouseEvent@@@Z
       4453 1164 0013A2F0 ?mouseReleaseEvent@QComboBoxPrivateContainer@@MEAAXPEAVQMouseEvent@@@Z
       4454 1165 0014D810 ?mouseReleaseEvent@QDial@@MEAAXPEAVQMouseEvent@@@Z
       4455 1166 0036E220 ?mouseReleaseEvent@QGraphicsItem@@MEAAXPEAVQGraphicsSceneMouseEvent@@@Z
       4456 1167 00382A20 ?mouseReleaseEvent@QGraphicsProxyWidget@@MEAAXPEAVQGraphicsSceneMouseEvent@@@Z
       4457 1168 0039B650 ?mouseReleaseEvent@QGraphicsScene@@MEAAXPEAVQGraphicsSceneMouseEvent@@@Z
       4458 1169 0036ECD0 ?mouseReleaseEvent@QGraphicsTextItem@@MEAAXPEAVQGraphicsSceneMouseEvent@@@Z
       4459 116A 003B6730 ?mouseReleaseEvent@QGraphicsView@@MEAAXPEAVQMouseEvent@@@Z
       4460 116B 0016E390 ?mouseReleaseEvent@QGroupBox@@MEAAXPEAVQMouseEvent@@@Z
       4461 116C 002C9B80 ?mouseReleaseEvent@QHeaderView@@MEAAXPEAVQMouseEvent@@@Z
       4462 116D 00173190 ?mouseReleaseEvent@QLabel@@MEAAXPEAVQMouseEvent@@@Z
       4463 116E 0017E6B0 ?mouseReleaseEvent@QLineEdit@@MEAAXPEAVQMouseEvent@@@Z
       4464 116F 002F3330 ?mouseReleaseEvent@QListView@@MEAAXPEAVQMouseEvent@@@Z
       4465 1170 001B2500 ?mouseReleaseEvent@QMdiSubWindow@@MEAAXPEAVQMouseEvent@@@Z
       4466 1171 001C1DE0 ?mouseReleaseEvent@QMenu@@MEAAXPEAVQMouseEvent@@@Z
       4467 1172 001CC900 ?mouseReleaseEvent@QMenuBar@@MEAAXPEAVQMouseEvent@@@Z
       4468 1173 002012E0 ?mouseReleaseEvent@QPlainTextEdit@@MEAAXPEAVQMouseEvent@@@Z
       4469 1174 001DB880 ?mouseReleaseEvent@QScrollBar@@MEAAXPEAVQMouseEvent@@@Z
       4470 1175 001DCC00 ?mouseReleaseEvent@QSizeGrip@@MEAAXPEAVQMouseEvent@@@Z
       4471 1176 001DE0B0 ?mouseReleaseEvent@QSlider@@MEAAXPEAVQMouseEvent@@@Z
       4472 1177 001EBC70 ?mouseReleaseEvent@QSplitterHandle@@MEAAXPEAVQMouseEvent@@@Z
       4473 1178 001F5D00 ?mouseReleaseEvent@QTabBar@@MEAAXPEAVQMouseEvent@@@Z
       4474 1179 0020E750 ?mouseReleaseEvent@QTextBrowser@@MEAAXPEAVQMouseEvent@@@Z
       4475 117A 00209280 ?mouseReleaseEvent@QTextEdit@@MEAAXPEAVQMouseEvent@@@Z
       4476 117B 002242F0 ?mouseReleaseEvent@QToolButton@@MEAAXPEAVQMouseEvent@@@Z
       4477 117C 0032E700 ?mouseReleaseEvent@QTreeView@@MEAAXPEAVQMouseEvent@@@Z
       4478 117D 00051AA0 ?mouseReleaseEvent@QWidget@@MEAAXPEAVQMouseEvent@@@Z
       4479 117E 00364130 ?movableAncestorIsSelected@QGraphicsItemPrivate@@SA_NPEBVQGraphicsItem@@@Z
       4480 117F 00214F60 ?movableChanged@QToolBar@@QEAAX_N@Z
       4481 1180 000108A0 ?move@QRubberBand@@QEAAXAEBVQPoint@@@Z
       4482 1181 000108F0 ?move@QRubberBand@@QEAAXHH@Z
       4483 1182 00048A60 ?move@QTouchEventWidgetSequence@QTest@@QEAAAEAV12@HAEBVQPoint@@PEAVQWidget@@@Z
       4484 1183 0005CDC0 ?move@QWidget@@QEAAXAEBVQPoint@@@Z
       4485 1184 00001940 ?move@QWidget@@QEAAXHH@Z
       4486 1185 00010930 ?moveBy@QGraphicsItem@@QEAAXNN@Z
       4487 1186 002E2020 ?moveCursor@QColumnView@@MEAA?AVQModelIndex@@W4CursorAction@QAbstractItemView@@V?$QFlags@W4KeyboardModifier@Qt@@@@@Z
       4488 1187 002C6B90 ?moveCursor@QHeaderView@@MEAA?AVQModelIndex@@W4CursorAction@QAbstractItemView@@V?$QFlags@W4KeyboardModifier@Qt@@@@@Z
       4489 1188 002F34B0 ?moveCursor@QListView@@MEAA?AVQModelIndex@@W4CursorAction@QAbstractItemView@@V?$QFlags@W4KeyboardModifier@Qt@@@@@Z
       4490 1189 00201470 ?moveCursor@QPlainTextEdit@@QEAAXW4MoveOperation@QTextCursor@@W4MoveMode@3@@Z
       4491 118A 0030B1B0 ?moveCursor@QTableView@@MEAA?AVQModelIndex@@W4CursorAction@QAbstractItemView@@V?$QFlags@W4KeyboardModifier@Qt@@@@@Z
       4492 118B 002094B0 ?moveCursor@QTextEdit@@QEAAXW4MoveOperation@QTextCursor@@W4MoveMode@3@@Z
       4493 118C 0032E860 ?moveCursor@QTreeView@@MEAA?AVQModelIndex@@W4CursorAction@QAbstractItemView@@V?$QFlags@W4KeyboardModifier@Qt@@@@@Z
       4494 118D 001870C0 ?moveCursor@QWidgetLineControl@@QEAAXH_N@Z
       4495 118E 00232E50 ?moveCursor@QWidgetTextControl@@QEAAXW4MoveOperation@QTextCursor@@W4MoveMode@3@@Z
       4496 118F 00009A60 ?moveEvent@QGraphicsWidget@@MEAAXPEAVQGraphicsSceneMoveEvent@@@Z
       4497 1190 001B2A20 ?moveEvent@QMdiSubWindow@@MEAAXPEAVQMoveEvent@@@Z
       4498 1191 001D8330 ?moveEvent@QRubberBand@@MEAAXPEAVQMoveEvent@@@Z
       4499 1192 001DCC30 ?moveEvent@QSizeGrip@@MEAAXPEAVQMoveEvent@@@Z
       4500 1193 00009A60 ?moveEvent@QWidget@@MEAAXPEAVQMoveEvent@@@Z
       4501 1194 000746A0 ?moveRect@QWidgetPrivate@@QEAAXAEBVQRect@@HH@Z
       4502 1195 002CA070 ?moveSection@QHeaderView@@QEAAXHH@Z
       4503 1196 001EBDF0 ?moveSplitter@QSplitter@@IEAAXHH@Z
       4504 1197 001EC5A0 ?moveSplitter@QSplitterHandle@@IEAAXH@Z
       4505 1198 00074D60 ?moveStaticWidgets@QWidgetRepaintManager@@QEAAXPEAVQWidget@@@Z
       4506 1199 001F5F80 ?moveTab@QTabBar@@QEAAXHH@Z
       4507 119A 001F64F0 ?moveTab@QTabBarPrivate@@QEAAXHH@Z
       4508 119B 001F6530 ?moveTabFinished@QTabBarPrivate@@QEAAXH@Z
       4509 119C 002F45F0 ?movement@QListView@@QEBA?AW4Movement@1@XZ
       4510 119D 001735E0 ?movie@QLabel@@QEBAPEAVQMovie@@XZ
       4511 119E 00043EF0 ?msaaColorBuffer@QRhiWidget@@IEBAPEAVQRhiRenderBuffer@@XZ
       4512 119F 000A49A0 ?name@QStyle@@QEBA?AVQString@@XZ
       4513 11A0 00254C20 ?nameFilters@QFileDialog@@QEBA?AV?$QList@VQString@@@@XZ
       4514 11A1 000109A0 ?nativeChildrenForced@QWidgetPrivate@@QEBA_NXZ
       4515 11A2 00254C50 ?nativeCurrentChanged@QFileDialogPrivate@@QEAAXAEBVQUrl@@@Z
       4516 11A3 00254CF0 ?nativeEnterDirectory@QFileDialogPrivate@@QEAAXAEBVQUrl@@@Z
       4517 11A4 0000FF60 ?nativeEvent@QWidget@@MEAA_NAEBVQByteArray@@PEAXPEA_J@Z
       4518 11A5 002830F0 ?nativeEvent@QWizard@@MEAA_NAEBVQByteArray@@PEAXPEA_J@Z
       4519 11A6 0010A140 ?nativeMetricScaleFactor@QWindowsStylePrivate@@SANPEBVQWidget@@@Z
       4520 11A7 0005CF50 ?nativeParentWidget@QWidget@@QEBAPEAV1@XZ
       4521 11A8 001645C0 ?nativeWindowDeco@QDockWidgetLayout@@QEBA_NXZ
       4522 11A9 00164650 ?nativeWindowDeco@QDockWidgetLayout@@QEBA_N_N@Z
       4523 11AA 0013A340 ?naturalTextWidth@QWidgetLineControl@@QEBANXZ
       4524 11AB 0005CF80 ?naturalWidgetFont@QWidgetPrivate@@QEBA?AVQFont@@I@Z
       4525 11AC 0005D100 ?naturalWidgetPalette@QWidgetPrivate@@QEBA?AVQPalette@@_K@Z
       4526 11AD 00254E30 ?navigate@QFileDialogPrivate@@QEAAXAEAUHistoryItem@1@@Z
       4527 11AE 00254FE0 ?navigateBackward@QFileDialogPrivate@@QEAAXXZ
       4528 11AF 00255070 ?navigateForward@QFileDialogPrivate@@QEAAXXZ
       4529 11B0 00255110 ?navigateToParent@QFileDialogPrivate@@QEAAXXZ
       4530 11B1 0005D280 ?nearestGraphicsProxyWidget@QWidgetPrivate@@SAPEAVQGraphicsProxyWidget@@PEBVQWidget@@@Z
       4531 11B2 003AA3B0 ?newPos@QGraphicsSceneMoveEvent@@QEBA?AVQPointF@@XZ
       4532 11B3 00382A30 ?newProxyWidget@QGraphicsProxyWidget@@IEAAPEAV1@PEBVQWidget@@@Z
       4533 11B4 003AA3B0 ?newSize@QGraphicsSceneResizeEvent@@QEBA?AVQSizeF@@XZ
       4534 11B5 00283230 ?next@QWizard@@QEAAXXZ
       4535 11B6 0011F050 ?nextCheckState@QAbstractButton@@MEAAXXZ
       4536 11B7 0012F560 ?nextCheckState@QCheckBox@@MEAAXXZ
       4537 11B8 00224370 ?nextCheckState@QToolButton@@MEAAXXZ
       4538 11B9 00283370 ?nextId@QWizard@@UEBAHXZ
       4539 11BA 002833E0 ?nextId@QWizardPage@@UEBAHXZ
       4540 11BB 0005D2C0 ?nextInFocusChain@QWidget@@QEBAPEAV1@XZ
       4541 11BC 0013A370 ?nextMaskBlank@QWidgetLineControl@@QEAAHH@Z
       4542 11BD 0005D2E0 ?nextPrevElementInFocusChain@QWidgetPrivate@@QEBAPEAVQWidget@@W4FocusDirection@1@@Z
       4543 11BE 0005D300 ?normalGeometry@QWidget@@QEBA?AVQRect@@XZ
       4544 11BF 001F66C0 ?normalizedScrollRect@QTabBarPrivate@@QEAA?AVQRect@@H@Z
       4545 11C0 0014D8D0 ?notchSize@QDial@@QEBAHXZ
       4546 11C1 0014DA10 ?notchTarget@QDial@@QEBANXZ
       4547 11C2 0014DA20 ?notchesVisible@QDial@@QEBA_NXZ
       4548 11C3 000109C0 ?notify@QApplication@@UEAA_NPEAVQObject@@PEAVQEvent@@@Z
       4549 11C4 000127D0 ?notifyActiveWindowChange@QApplicationPrivate@@UEAAXPEAVQWindow@@@Z
       4550 11C5 00012A20 ?notifyDragStarted@QApplicationPrivate@@MEAAXPEBVQDrag@@@Z
       4551 11C6 00012A60 ?notifyLayoutDirectionChange@QApplicationPrivate@@UEAAXXZ
       4552 11C7 00012BB0 ?notifyWindowIconChanged@QApplicationPrivate@@UEAAXXZ
       4553 11C8 00012D90 ?notify_helper@QApplicationPrivate@@QEAA_NPEAVQObject@@PEAVQEvent@@@Z
       4554 11C9 000F0880 ?offset@QGraphicsDropShadowEffect@@QEBA?AVQPointF@@XZ
       4555 11CA 0036EE40 ?offset@QGraphicsPixmapItem@@QEBA?AVQPointF@@XZ
       4556 11CB 002CA280 ?offset@QHeaderView@@QEBAHXZ
       4557 11CC 00020F60 ?offset@QPanGesture@@QEBA?AVQPointF@@XZ
       4558 11CD 00020C20 ?offset@QPixmapDropShadowFilter@@QEBA?AVQPointF@@XZ
       4559 11CE 000F1950 ?offsetChanged@QGraphicsDropShadowEffect@@QEAAXAEBVQPointF@@@Z
       4560 11CF 00271130 ?okButtonText@QInputDialog@@QEBA?AVQString@@XZ
       4561 11D0 003AA3C0 ?oldPos@QGraphicsSceneMoveEvent@@QEBA?AVQPointF@@XZ
       4562 11D1 003AA3C0 ?oldSize@QGraphicsSceneResizeEvent@@QEBA?AVQSizeF@@XZ
       4563 11D2 000F5630 ?opacity@QGraphicsItem@@QEBANXZ
       4564 11D3 000F1980 ?opacity@QGraphicsOpacityEffect@@QEBANXZ
       4565 11D4 0036EE60 ?opacityChanged@QGraphicsObject@@QEAAXXZ
       4566 11D5 000F1990 ?opacityChanged@QGraphicsOpacityEffect@@QEAAXN@Z
       4567 11D6 000F19D0 ?opacityMask@QGraphicsOpacityEffect@@QEBA?AVQBrush@@XZ
       4568 11D7 000F1A00 ?opacityMaskChanged@QGraphicsOpacityEffect@@QEAAXAEBVQBrush@@@Z
       4569 11D8 0036EE80 ?opaqueArea@QAbstractGraphicsShapeItem@@UEBA?AVQPainterPath@@XZ
       4570 11D9 0036EF50 ?opaqueArea@QGraphicsEllipseItem@@UEBA?AVQPainterPath@@XZ
       4571 11DA 0036F020 ?opaqueArea@QGraphicsItem@@UEBA?AVQPainterPath@@XZ
       4572 11DB 0036F020 ?opaqueArea@QGraphicsItemGroup@@UEBA?AVQPainterPath@@XZ
       4573 11DC 0036F020 ?opaqueArea@QGraphicsLineItem@@UEBA?AVQPainterPath@@XZ
       4574 11DD 0036EF50 ?opaqueArea@QGraphicsPathItem@@UEBA?AVQPainterPath@@XZ
       4575 11DE 0036F040 ?opaqueArea@QGraphicsPixmapItem@@UEBA?AVQPainterPath@@XZ
       4576 11DF 0036EF50 ?opaqueArea@QGraphicsPolygonItem@@UEBA?AVQPainterPath@@XZ
       4577 11E0 0036EF50 ?opaqueArea@QGraphicsRectItem@@UEBA?AVQPainterPath@@XZ
       4578 11E1 0036EF50 ?opaqueArea@QGraphicsSimpleTextItem@@UEBA?AVQPainterPath@@XZ
       4579 11E2 0036F020 ?opaqueArea@QGraphicsTextItem@@UEBA?AVQPainterPath@@XZ
       4580 11E3 001EC650 ?opaqueResize@QSplitter@@QEBA_NXZ
       4581 11E4 001EC6B0 ?opaqueResize@QSplitterHandle@@QEBA_NXZ
       4582 11E5 0023E2E0 ?open@QColorDialog@@QEAAXPEAVQObject@@PEBD@Z
       4583 11E6 00243420 ?open@QDialog@@UEAAXXZ
       4584 11E7 00255250 ?open@QFileDialog@@QEAAXPEAVQObject@@PEBD@Z
       4585 11E8 0026B400 ?open@QFontDialog@@QEAAXPEAVQObject@@PEBD@Z
       4586 11E9 00271180 ?open@QInputDialog@@QEAAXPEAVQObject@@PEBD@Z
       4587 11EA 00276950 ?open@QMessageBox@@QEAAXPEAVQObject@@PEBD@Z
       4588 11EB 0027AA50 ?open@QProgressDialog@@QEAAXPEAVQObject@@PEBD@Z
       4589 11EC 0036F060 ?openExternalLinks@QGraphicsTextItem@@QEBA_NXZ
       4590 11ED 00173930 ?openExternalLinks@QLabel@@QEBA_NXZ
       4591 11EE 0020E760 ?openExternalLinks@QTextBrowser@@QEBA_NXZ
       4592 11EF 00232FA0 ?openExternalLinks@QWidgetTextControl@@QEBA_NXZ
       4593 11F0 0020E770 ?openLinks@QTextBrowser@@QEBA_NXZ
       4594 11F1 002B87F0 ?openPersistentEditor@QAbstractItemView@@QEAAXAEBVQModelIndex@@@Z
       4595 11F2 00301A00 ?openPersistentEditor@QListWidget@@QEAAXPEAVQListWidgetItem@@@Z
       4596 11F3 0031D490 ?openPersistentEditor@QTableWidget@@QEAAXPEAVQTableWidgetItem@@@Z
       4597 11F4 00342540 ?openPersistentEditor@QTreeWidget@@QEAAXPEAVQTreeWidgetItem@@H@Z
       4598 11F5 00012F00 ?openPopup@QApplicationPrivate@@QEAAXPEAVQWidget@@@Z
       4599 11F6 003B6BF0 ?optimizationFlags@QGraphicsView@@QEBA?AV?$QFlags@W4OptimizationFlag@QGraphicsView@@@@XZ
       4600 11F7 0023E3A0 ?options@QColorDialog@@QEBA?AV?$QFlags@W4ColorDialogOption@QColorDialog@@@@XZ
       4601 11F8 00255340 ?options@QFileDialog@@QEBA?AV?$QFlags@W4Option@QFileDialog@@@@XZ
       4602 11F9 0026B4C0 ?options@QFontDialog@@QEBA?AV?$QFlags@W4FontDialogOption@QFontDialog@@@@XZ
       4603 11FA 002712E0 ?options@QInputDialog@@QEBA?AV?$QFlags@W4InputDialogOption@QInputDialog@@@@XZ
       4604 11FB 00276A50 ?options@QMessageBox@@QEBA?AV?$QFlags@W4Option@QMessageBox@@@@XZ
       4605 11FC 00283670 ?options@QWizard@@QEBA?AV?$QFlags@W4WizardOption@QWizard@@@@XZ
       4606 11FD 00120C90 ?orientation@QAbstractSlider@@QEBA?AW4Orientation@Qt@@XZ
       4607 11FE 000F37A0 ?orientation@QDataWidgetMapper@@QEBA?AW4Orientation@Qt@@XZ
       4608 11FF 001D7310 ?orientation@QDialogButtonBox@@QEBA?AW4Orientation@Qt@@XZ
       4609 1200 0037EE70 ?orientation@QGraphicsLinearLayout@@QEBA?AW4Orientation@Qt@@XZ
       4610 1201 003AA3D0 ?orientation@QGraphicsSceneWheelEvent@@QEBA?AW4Orientation@Qt@@XZ
       4611 1202 002CA290 ?orientation@QHeaderView@@QEBA?AW4Orientation@Qt@@XZ
       4612 1203 00042E20 ?orientation@QProgressBar@@QEBA?AW4Orientation@Qt@@XZ
       4613 1204 001EC720 ?orientation@QSplitter@@QEBA?AW4Orientation@Qt@@XZ
       4614 1205 00120CA0 ?orientation@QSplitterHandle@@QEBA?AW4Orientation@Qt@@XZ
       4615 1206 00120CA0 ?orientation@QToolBar@@QEBA?AW4Orientation@Qt@@XZ
       4616 1207 00214FA0 ?orientationChanged@QToolBar@@QEAAXW4Orientation@Qt@@@Z
       4617 1208 003AD4A0 ?origin@QGraphicsRotation@@QEBA?AVQVector3D@@XZ
       4618 1209 003AD4A0 ?origin@QGraphicsScale@@QEBA?AVQVector3D@@XZ
       4619 120A 003AD4C0 ?originChanged@QGraphicsRotation@@QEAAXXZ
       4620 120B 003AD4E0 ?originChanged@QGraphicsScale@@QEAAXXZ
       4621 120C 000399B0 ?originCorner@QGridLayout@@QEBA?AW4Corner@Qt@@XZ
       4622 120D 00179040 ?overflow@QLCDNumber@@QEAAXXZ
       4623 120E 0005D5A0 ?overlappedRegion@QWidgetPrivate@@QEBA?AVQRegion@@AEBVQRect@@_N@Z
       4624 120F 0005D900 ?overrideWindowFlags@QWidget@@QEAAXV?$QFlags@W4WindowType@Qt@@@@@Z
       4625 1210 0005D910 ?overrideWindowState@QWidget@@QEAAXV?$QFlags@W4WindowState@Qt@@@@@Z
       4626 1211 00201480 ?overwriteMode@QPlainTextEdit@@QEBA_NXZ
       4627 1212 002094C0 ?overwriteMode@QTextEdit@@QEBA_NXZ
       4628 1213 00232FB0 ?overwriteMode@QWidgetTextControl@@QEBA_NXZ
       4629 1214 0037D890 ?ownedByLayout@QGraphicsLayoutItem@@QEBA_NXZ
       4630 1215 00283680 ?page@QWizard@@QEBAPEAVQWizardPage@@H@Z
       4631 1216 002836D0 ?pageAdded@QWizard@@QEAAXH@Z
       4632 1217 00053930 ?pageCount@QPlainTextDocumentLayout@@UEBAHXZ
       4633 1218 0032F090 ?pageDown@QTreeViewPrivate@@QEBAHH@Z
       4634 1219 00283710 ?pageIds@QWizard@@QEBA?AV?$QList@H@@XZ
       4635 121A 00283750 ?pageRemoved@QWizard@@QEAAXH@Z
       4636 121B 00120CA0 ?pageStep@QAbstractSlider@@QEBAHXZ
       4637 121C 0032F210 ?pageUp@QTreeViewPrivate@@QEBAHH@Z
       4638 121D 0036F290 ?paint@QGraphicsEllipseItem@@UEAAXPEAVQPainter@@PEBVQStyleOptionGraphicsItem@@PEAVQWidget@@@Z
       4639 121E 0036F360 ?paint@QGraphicsItemGroup@@UEAAXPEAVQPainter@@PEBVQStyleOptionGraphicsItem@@PEAVQWidget@@@Z
       4640 121F 0036F3B0 ?paint@QGraphicsLineItem@@UEAAXPEAVQPainter@@PEBVQStyleOptionGraphicsItem@@PEAVQWidget@@@Z
       4641 1220 0036F430 ?paint@QGraphicsPathItem@@UEAAXPEAVQPainter@@PEBVQStyleOptionGraphicsItem@@PEAVQWidget@@@Z
       4642 1221 0036F4B0 ?paint@QGraphicsPixmapItem@@UEAAXPEAVQPainter@@PEBVQStyleOptionGraphicsItem@@PEAVQWidget@@@Z
       4643 1222 0036F530 ?paint@QGraphicsPolygonItem@@UEAAXPEAVQPainter@@PEBVQStyleOptionGraphicsItem@@PEAVQWidget@@@Z
       4644 1223 00382B10 ?paint@QGraphicsProxyWidget@@UEAAXPEAVQPainter@@PEBVQStyleOptionGraphicsItem@@PEAVQWidget@@@Z
       4645 1224 0036F5C0 ?paint@QGraphicsRectItem@@UEAAXPEAVQPainter@@PEBVQStyleOptionGraphicsItem@@PEAVQWidget@@@Z
       4646 1225 0036F650 ?paint@QGraphicsSimpleTextItem@@UEAAXPEAVQPainter@@PEBVQStyleOptionGraphicsItem@@PEAVQWidget@@@Z
       4647 1226 0036FA80 ?paint@QGraphicsTextItem@@UEAAXPEAVQPainter@@PEBVQStyleOptionGraphicsItem@@PEAVQWidget@@@Z
       4648 1227 00009A60 ?paint@QGraphicsWidget@@UEAAXPEAVQPainter@@PEBVQStyleOptionGraphicsItem@@PEAVQWidget@@@Z
       4649 1228 002D7660 ?paint@QItemDelegate@@UEBAXPEAVQPainter@@AEBVQStyleOptionViewItem@@AEBVQModelIndex@@@Z
       4650 1229 002DD610 ?paint@QStyledItemDelegate@@UEBAXPEAVQPainter@@AEBVQStyleOptionViewItem@@AEBVQModelIndex@@@Z
       4651 122A 0032F390 ?paintAlternatingRowColors@QTreeViewPrivate@@QEBAXPEAVQPainter@@PEAVQStyleOptionViewItem@@HH@Z
       4652 122B 00074F10 ?paintAndFlush@QWidgetRepaintManager@@AEAAXXZ
       4653 122C 0005D970 ?paintBackground@QWidgetPrivate@@QEBAXPEAVQPainter@@AEBVQRegion@@V?$QFlags@W4DrawWidgetFlag@QWidgetPrivate@@@@@Z
       4654 122D 0012AD80 ?paintCell@QCalendarWidget@@MEBAXPEAVQPainter@@AEBVQRect@@VQDate@@@Z
       4655 122E 0005DD50 ?paintEngine@QWidget@@UEBAPEAVQPaintEngine@@XZ
       4656 122F 00009A60 ?paintEvent@QAbstractScrollArea@@MEAAXPEAVQPaintEvent@@@Z
       4657 1230 001E2870 ?paintEvent@QAbstractSpinBox@@MEAAXPEAVQPaintEvent@@@Z
       4658 1231 0012F680 ?paintEvent@QCheckBox@@MEAAXPEAVQPaintEvent@@@Z
       4659 1232 0013A5A0 ?paintEvent@QComboBox@@MEAAXPEAVQPaintEvent@@@Z
       4660 1233 0013A950 ?paintEvent@QComboBoxPrivateContainer@@MEAAXPEAVQPaintEvent@@@Z
       4661 1234 00142B60 ?paintEvent@QCommandLinkButton@@MEAAXPEAVQPaintEvent@@@Z
       4662 1235 00148730 ?paintEvent@QDateTimeEdit@@MEAAXPEAVQPaintEvent@@@Z
       4663 1236 0014DA30 ?paintEvent@QDial@@MEAAXPEAVQPaintEvent@@@Z
       4664 1237 00164920 ?paintEvent@QDockWidget@@MEAAXPEAVQPaintEvent@@@Z
       4665 1238 000EC430 ?paintEvent@QFocusFrame@@MEAAXPEAVQPaintEvent@@@Z
       4666 1239 000ED600 ?paintEvent@QFrame@@MEAAXPEAVQPaintEvent@@@Z
       4667 123A 003B6C00 ?paintEvent@QGraphicsView@@MEAAXPEAVQPaintEvent@@@Z
       4668 123B 0016E560 ?paintEvent@QGroupBox@@MEAAXPEAVQPaintEvent@@@Z
       4669 123C 002CA2A0 ?paintEvent@QHeaderView@@MEAAXPEAVQPaintEvent@@@Z
       4670 123D 00179060 ?paintEvent@QLCDNumber@@MEAAXPEAVQPaintEvent@@@Z
       4671 123E 00173940 ?paintEvent@QLabel@@MEAAXPEAVQPaintEvent@@@Z
       4672 123F 0017E880 ?paintEvent@QLineEdit@@MEAAXPEAVQPaintEvent@@@Z
       4673 1240 002F4720 ?paintEvent@QListView@@MEAAXPEAVQPaintEvent@@@Z
       4674 1241 001A5B90 ?paintEvent@QMdiArea@@MEAAXPEAVQPaintEvent@@@Z
       4675 1242 001B2E30 ?paintEvent@QMdiSubWindow@@MEAAXPEAVQPaintEvent@@@Z
       4676 1243 001C2000 ?paintEvent@QMenu@@MEAAXPEAVQPaintEvent@@@Z
       4677 1244 001CCA70 ?paintEvent@QMenuBar@@MEAAXPEAVQPaintEvent@@@Z
       4678 1245 00201CF0 ?paintEvent@QPlainTextEdit@@MEAAXPEAVQPaintEvent@@@Z
       4679 1246 001CFC80 ?paintEvent@QProgressBar@@MEAAXPEAVQPaintEvent@@@Z
       4680 1247 001D1E20 ?paintEvent@QPushButton@@MEAAXPEAVQPaintEvent@@@Z
       4681 1248 001D30E0 ?paintEvent@QRadioButton@@MEAAXPEAVQPaintEvent@@@Z
       4682 1249 00043F00 ?paintEvent@QRhiWidget@@MEAAXPEAVQPaintEvent@@@Z
       4683 124A 001D83E0 ?paintEvent@QRubberBand@@MEAAXPEAVQPaintEvent@@@Z
       4684 124B 001DB8A0 ?paintEvent@QScrollBar@@MEAAXPEAVQPaintEvent@@@Z
       4685 124C 001DCD60 ?paintEvent@QSizeGrip@@MEAAXPEAVQPaintEvent@@@Z
       4686 124D 001DE1B0 ?paintEvent@QSlider@@MEAAXPEAVQPaintEvent@@@Z
       4687 124E 001EC730 ?paintEvent@QSplitterHandle@@MEAAXPEAVQPaintEvent@@@Z
       4688 124F 001EFD50 ?paintEvent@QStatusBar@@MEAAXPEAVQPaintEvent@@@Z
       4689 1250 001F6DF0 ?paintEvent@QTabBar@@MEAAXPEAVQPaintEvent@@@Z
       4690 1251 00211630 ?paintEvent@QTabWidget@@MEAAXPEAVQPaintEvent@@@Z
       4691 1252 0030C680 ?paintEvent@QTableView@@MEAAXPEAVQPaintEvent@@@Z
       4692 1253 002098D0 ?paintEvent@QTextBrowser@@MEAAXPEAVQPaintEvent@@@Z
       4693 1254 002098D0 ?paintEvent@QTextEdit@@MEAAXPEAVQPaintEvent@@@Z
       4694 1255 00214FE0 ?paintEvent@QToolBar@@MEAAXPEAVQPaintEvent@@@Z
       4695 1256 002245A0 ?paintEvent@QToolButton@@MEAAXPEAVQPaintEvent@@@Z
       4696 1257 0032F520 ?paintEvent@QTreeView@@MEAAXPEAVQPaintEvent@@@Z
       4697 1258 00009A60 ?paintEvent@QWidget@@MEAAXPEAVQPaintEvent@@@Z
       4698 1259 00283790 ?paintEvent@QWizard@@MEAAXPEAVQPaintEvent@@@Z
       4699 125A 0005DD90 ?paintOnScreen@QWidgetPrivate@@QEAAXAEBVQRegion@@@Z
       4700 125B 002CA8F0 ?paintSection@QHeaderView@@MEBAXPEAVQPainter@@AEBVQRect@@H@Z
       4701 125C 0005DFD0 ?paintSiblingsRecursive@QWidgetPrivate@@QEAAXPEAVQPaintDevice@@AEBV?$QList@PEAVQObject@@@@HAEBVQRegion@@AEBVQPoint@@V?$QFlags@W4DrawWidgetFlag@QWidgetPrivate@@@@PEAVQPainter@@PEAVQWidgetRepaintManager@@@Z
       4702 125D 003BED00 ?paintWindowFrame@QGraphicsWidget@@UEAAXPEAVQPainter@@PEBVQStyleOptionGraphicsItem@@PEAVQWidget@@@Z
       4703 125E 000E6310 ?paintingRoles@QAbstractItemDelegate@@UEBA?AV?$QList@H@@XZ
       4704 125F 00012FB0 ?palette@QApplication@@SA?AVQPalette@@PEBD@Z
       4705 1260 000130F0 ?palette@QApplication@@SA?AVQPalette@@PEBVQWidget@@@Z
       4706 1261 0039B720 ?palette@QGraphicsScene@@QEBA?AVQPalette@@XZ
       4707 1262 003BF3C0 ?palette@QGraphicsWidget@@QEBA?AVQPalette@@XZ
       4708 1263 000FEE80 ?palette@QToolTip@@SA?AVQPalette@@XZ
       4709 1264 0005E420 ?palette@QWidget@@QEBAAEBVQPalette@@XZ
       4710 1265 0013AC30 ?palette@QWidgetLineControl@@QEBAAEBVQPalette@@XZ
       4711 1266 00232FC0 ?palette@QWidgetTextControl@@QEBA?AVQPalette@@XZ
       4712 1267 0036FC30 ?panel@QGraphicsItem@@QEBAPEAV1@XZ
       4713 1268 0036FC60 ?panelModality@QGraphicsItem@@QEBA?AW4PanelModality@1@XZ
       4714 1269 002923C0 ?parent@QAccessibleWidget@@UEBAPEAVQAccessibleInterface@@XZ
       4715 126A 00342630 ?parent@QTreeWidgetItem@@QEBAPEAV1@XZ
       4716 126B 0036FC70 ?parentChanged@QGraphicsObject@@QEAAXXZ
       4717 126C 000133B0 ?parentGraphicsView@QWidgetPrivate@@SAPEAVQWidget@@PEBV2@@Z
       4718 126D 00056D40 ?parentItem@QGraphicsItem@@QEBAPEAV1@XZ
       4719 126E 0037D8E0 ?parentLayoutItem@QGraphicsLayoutItem@@QEBAPEAV1@XZ
       4720 126F 00292430 ?parentObject@QAccessibleWidget@@IEBAPEAVQObject@@XZ
       4721 1270 0036FC90 ?parentObject@QGraphicsItem@@QEBAPEAVQGraphicsObject@@XZ
       4722 1271 0007D610 ?parentWasChanged@QWindowContainer@@SAXPEAVQWidget@@@Z
       4723 1272 0007D800 ?parentWasLowered@QWindowContainer@@SAXPEAVQWidget@@@Z
       4724 1273 0007D930 ?parentWasMoved@QWindowContainer@@SAXPEAVQWidget@@@Z
       4725 1274 0007DA40 ?parentWasRaised@QWindowContainer@@SAXPEAVQWidget@@@Z
       4726 1275 0036FCC0 ?parentWidget@QGraphicsItem@@QEBAPEAVQGraphicsWidget@@XZ
       4727 1276 0003E690 ?parentWidget@QLayout@@QEBAPEAVQWidget@@XZ
       4728 1277 00001960 ?parentWidget@QWidget@@QEBAPEAV1@XZ
       4729 1278 00187360 ?parseInputMask@QWidgetLineControl@@AEAAXAEBVQString@@@Z
       4730 1279 0013AC40 ?passwordCharacter@QWidgetLineControl@@QEBA?AVQChar@@XZ
       4731 127A 0013AC50 ?passwordEchoEditing@QWidgetLineControl@@QEBA_NXZ
       4732 127B 0013AC70 ?passwordMaskDelay@QWidgetLineControl@@QEBAHXZ
       4733 127C 0017F230 ?paste@QLineEdit@@QEAAXXZ
       4734 127D 00202E60 ?paste@QPlainTextEdit@@QEAAXXZ
       4735 127E 00209930 ?paste@QTextEdit@@QEAAXXZ
       4736 127F 00187700 ?paste@QWidgetLineControl@@QEAAXW4Mode@QClipboard@@@Z
       4737 1280 00232FF0 ?paste@QWidgetTextControl@@QEAAXW4Mode@QClipboard@@@Z
       4738 1281 0036FD00 ?path@QGraphicsPathItem@@QEBA?AVQPainterPath@@XZ
       4739 1282 00255530 ?pathChanged@QFileDialogPrivate@@QEAAXAEBVQString@@@Z
       4740 1283 003D2000 ?pathFromIndex@QCompleter@@UEBA?AVQString@@AEBVQModelIndex@@@Z
       4741 1284 00255A10 ?pathFromIndex@QFSCompleter@@UEBA?AVQString@@AEBVQModelIndex@@@Z
       4742 1285 0036FD30 ?pen@QAbstractGraphicsShapeItem@@QEBA?AVQPen@@XZ
       4743 1286 0036FD60 ?pen@QGraphicsLineItem@@QEBA?AVQPen@@XZ
       4744 1287 003AA3E0 ?phase@QGraphicsSceneWheelEvent@@QEBA?AW4ScrollPhase@Qt@@XZ
       4745 1288 000134B0 ?pickMouseReceiver@QApplicationPrivate@@SAPEAVQWidget@@PEAV2@AEBVQPointF@@PEAV3@W4Type@QEvent@@V?$QFlags@W4MouseButton@Qt@@@@00@Z
       4746 1289 000C8180 ?picture@QLabel@@QEBA?AVQPicture@@W4ReturnByValueConstant@Qt@@@Z
       4747 128A 001743B0 ?picture@QLabel@@QEBA?AVQPicture@@XZ
       4748 128B 000E6400 ?pixel@QColormap@@QEBAIAEBVQColor@@@Z
       4749 128C 003AA3F0 ?pixelDelta@QGraphicsSceneWheelEvent@@QEBA?AVQPoint@@XZ
       4750 128D 0008E840 ?pixelMetric@QCommonStyle@@UEBAHW4PixelMetric@QStyle@@PEBVQStyleOption@@PEBVQWidget@@@Z
       4751 128E 00118F40 ?pixelMetric@QFusionStyle@@UEBAHW4PixelMetric@QStyle@@PEBVQStyleOption@@PEBVQWidget@@@Z
       4752 128F 0009EAA0 ?pixelMetric@QPixmapStyle@@UEBAHW4PixelMetric@QStyle@@PEBVQStyleOption@@PEBVQWidget@@@Z
       4753 1290 000A2610 ?pixelMetric@QProxyStyle@@UEBAHW4PixelMetric@QStyle@@PEBVQStyleOption@@PEBVQWidget@@@Z
       4754 1291 0010A190 ?pixelMetric@QWindowsStyle@@UEBAHW4PixelMetric@QStyle@@PEBVQStyleOption@@PEBVQWidget@@@Z
       4755 1292 0010A360 ?pixelMetricFromSystemDp@QWindowsStylePrivate@@SAHW4PixelMetric@QStyle@@PEBVQStyleOption@@PEBVQWidget@@@Z
       4756 1293 003DB230 ?pixelPerMeter@QScroller@@QEBA?AVQPointF@@XZ
       4757 1294 000F1A30 ?pixmap@QGraphicsEffectSource@@QEBA?AVQPixmap@@W4CoordinateSystem@Qt@@PEAVQPoint@@W4PixmapPadMode@QGraphicsEffect@@@Z
       4758 1295 00370260 ?pixmap@QGraphicsPixmapItem@@QEBA?AVQPixmap@@XZ
       4759 1296 000C9BF0 ?pixmap@QLabel@@QEBA?AVQPixmap@@W4ReturnByValueConstant@Qt@@@Z
       4760 1297 001743F0 ?pixmap@QLabel@@QEBA?AVQPixmap@@XZ
       4761 1298 001E8C40 ?pixmap@QSplashScreen@@QEBA?BVQPixmap@@XZ
       4762 1299 00283D20 ?pixmap@QWizard@@QEBA?AVQPixmap@@W4WizardPixmap@1@@Z
       4763 129A 00283D50 ?pixmap@QWizardPage@@QEBA?AVQPixmap@@W4WizardPixmap@QWizard@@@Z
       4764 129B 0013AC80 ?placeholderText@QComboBox@@QEBA?AVQString@@XZ
       4765 129C 0017F250 ?placeholderText@QLineEdit@@QEBA?AVQString@@XZ
       4766 129D 00202E80 ?placeholderText@QPlainTextEdit@@QEBA?AVQString@@XZ
       4767 129E 00209950 ?placeholderText@QTextEdit@@QEBA?AVQString@@XZ
       4768 129F 00255BE0 ?platformFileDialogHelper@QFileDialogPrivate@@QEBAPEAVQPlatformFileDialogHelper@@XZ
       4769 12A0 002434A0 ?platformHelper@QDialogPrivate@@QEBAPEAVQPlatformDialogHelper@@XZ
       4770 12A1 001C2FD0 ?platformMenu@QMenu@@QEAAPEAVQPlatformMenu@@XZ
       4771 12A2 001CD180 ?platformMenuBar@QMenuBar@@QEAAPEAVQPlatformMenuBar@@XZ
       4772 12A3 000135C0 ?pointInsideRectAndMask@QWidgetPrivate@@QEBA_NAEBVQPointF@@@Z
       4773 12A4 0008F0D0 ?polish@QCommonStyle@@UEAAXAEAVQPalette@@@Z
       4774 12A5 0008F0D0 ?polish@QCommonStyle@@UEAAXPEAVQApplication@@@Z
       4775 12A6 0008F0D0 ?polish@QCommonStyle@@UEAAXPEAVQWidget@@@Z
       4776 12A7 0009F740 ?polish@QFusionStyle@@UEAAXAEAVQPalette@@@Z
       4777 12A8 0009F740 ?polish@QFusionStyle@@UEAAXPEAVQApplication@@@Z
       4778 12A9 00119160 ?polish@QFusionStyle@@UEAAXPEAVQWidget@@@Z
       4779 12AA 0009F6F0 ?polish@QPixmapStyle@@UEAAXAEAVQPalette@@@Z
       4780 12AB 0009F740 ?polish@QPixmapStyle@@UEAAXPEAVQApplication@@@Z
       4781 12AC 0009F750 ?polish@QPixmapStyle@@UEAAXPEAVQWidget@@@Z
       4782 12AD 000A2690 ?polish@QProxyStyle@@UEAAXAEAVQPalette@@@Z
       4783 12AE 000A26F0 ?polish@QProxyStyle@@UEAAXPEAVQApplication@@@Z
       4784 12AF 000A2750 ?polish@QProxyStyle@@UEAAXPEAVQWidget@@@Z
       4785 12B0 00009A60 ?polish@QStyle@@UEAAXAEAVQPalette@@@Z
       4786 12B1 00009A60 ?polish@QStyle@@UEAAXPEAVQApplication@@@Z
       4787 12B2 00009A60 ?polish@QStyle@@UEAAXPEAVQWidget@@@Z
       4788 12B3 0009F740 ?polish@QWindowsStyle@@UEAAXAEAVQPalette@@@Z
       4789 12B4 0010A480 ?polish@QWindowsStyle@@UEAAXPEAVQApplication@@@Z
       4790 12B5 0009F740 ?polish@QWindowsStyle@@UEAAXPEAVQWidget@@@Z
       4791 12B6 00009A60 ?polishEvent@QGraphicsWidget@@MEAAXXZ
       4792 12B7 00370290 ?polygon@QGraphicsPolygonItem@@QEBA?AVQPolygonF@@XZ
       4793 12B8 003B6F40 ?populateSceneDragDropEvent@QGraphicsViewPrivate@@QEAAXPEAVQGraphicsSceneDragDropEvent@@PEAVQDropEvent@@@Z
       4794 12B9 003D2310 ?popup@QCompleter@@QEBAPEAVQAbstractItemView@@XZ
       4795 12BA 001C3000 ?popup@QMenu@@QEAAXAEBVQPoint@@PEAVQAction@@@Z
       4796 12BB 00224690 ?popupMode@QToolButton@@QEBA?AW4ToolButtonPopupMode@1@XZ
       4797 12BC 003702C0 ?pos@QGraphicsItem@@QEBA?AVQPointF@@XZ
       4798 12BD 003AA3C0 ?pos@QGraphicsSceneContextMenuEvent@@QEBA?AVQPointF@@XZ
       4799 12BE 003AA3C0 ?pos@QGraphicsSceneDragDropEvent@@QEBA?AVQPointF@@XZ
       4800 12BF 003AA3C0 ?pos@QGraphicsSceneHoverEvent@@QEBA?AVQPointF@@XZ
       4801 12C0 003AA3C0 ?pos@QGraphicsSceneMouseEvent@@QEBA?AVQPointF@@XZ
       4802 12C1 003AA3C0 ?pos@QGraphicsSceneWheelEvent@@QEBA?AVQPointF@@XZ
       4803 12C2 0005E830 ?pos@QWidget@@QEBA?AVQPoint@@XZ
       4804 12C3 003C7FB0 ?posAt@QGraphicsItemAnimation@@QEBA?AVQPointF@@N@Z
       4805 12C4 003C8070 ?posList@QGraphicsItemAnimation@@QEBA?AV?$QList@U?$pair@NVQPointF@@@std@@@@XZ
       4806 12C5 00020D90 ?position@QTapAndHoldGesture@@QEBA?AVQPointF@@XZ
       4807 12C6 00020D90 ?position@QTapGesture@@QEBA?AVQPointF@@XZ
       4808 12C7 003AA010 ?possibleActions@QGraphicsSceneDragDropEvent@@QEBA?AV?$QFlags@W4DropAction@Qt@@@@XZ
       4809 12C8 0013AF40 ?preeditAreaText@QWidgetLineControl@@QEBA?AVQString@@XZ
       4810 12C9 0013AF60 ?preeditCursor@QWidgetLineControl@@QEBAHXZ
       4811 12CA 000136E0 ?preferredHeight@QGraphicsLayoutItem@@QEBANXZ
       4812 12CB 0037D8F0 ?preferredSize@QGraphicsLayoutItem@@QEBA?AVQSizeF@@XZ
       4813 12CC 00013710 ?preferredWidth@QGraphicsLayoutItem@@QEBANXZ
       4814 12CD 0011FDF0 ?prefix@QDoubleSpinBox@@QEBA?AVQString@@XZ
       4815 12CE 0011FDF0 ?prefix@QSpinBox@@QEBA?AVQString@@XZ
       4816 12CF 0032F780 ?prepareAnimatedOperation@QTreeViewPrivate@@QEAAXHW4Direction@QAbstractAnimation@@@Z
       4817 12D0 003702D0 ?prepareGeometryChange@QGraphicsItem@@IEAAXXZ
       4818 12D1 0005E940 ?prepareToRender@QWidgetPrivate@@QEAA?AVQRegion@@AEBV2@V?$QFlags@W4RenderFlag@QWidget@@@@@Z
       4819 12D2 00370560 ?prependGraphicsTransform@QGraphicsItemPrivate@@QEAAXPEAVQGraphicsTransform@@@Z
       4820 12D3 00048B00 ?press@QTouchEventWidgetSequence@QTest@@QEAAAEAV12@HAEBVQPoint@@PEAVQWidget@@@Z
       4821 12D4 0011F180 ?pressed@QAbstractButton@@QEAAXXZ
       4822 12D5 002B8B10 ?pressed@QAbstractItemView@@QEAAXAEBVQModelIndex@@@Z
       4823 12D6 0013AF70 ?prevMaskBlank@QWidgetLineControl@@QEAAHH@Z
       4824 12D7 002E25B0 ?previewWidget@QColumnView@@QEBAPEAVQWidget@@XZ
       4825 12D8 0005EE10 ?previousInFocusChain@QWidget@@QEBAPEAV1@XZ
       4826 12D9 00202EB0 ?print@QPlainTextEdit@@QEBAXPEAVQPagedPaintDevice@@@Z
       4827 12DA 00209980 ?print@QTextEdit@@QEBAXPEAVQPagedPaintDevice@@@Z
       4828 12DB 00233040 ?print@QWidgetTextControl@@QEBAXPEAVQPagedPaintDevice@@@Z
       4829 12DC 000016B0 ?priv@QPlainTextDocumentLayout@@AEBAPEAVQPlainTextDocumentLayoutPrivate@@XZ
       4830 12DD 002332B0 ?processEvent@QWidgetTextControl@@QEAAXPEAVQEvent@@AEBVQPointF@@PEAVQWidget@@@Z
       4831 12DE 00233340 ?processEvent@QWidgetTextControl@@UEAAXPEAVQEvent@@AEBVQTransform@@PEAVQWidget@@@Z
       4832 12DF 00187790 ?processInputMethodEvent@QWidgetLineControl@@QEAAXPEAVQInputMethodEvent@@@Z
       4833 12E0 00188B70 ?processKeyEvent@QWidgetLineControl@@QEAAXPEAVQKeyEvent@@@Z
       4834 12E1 003B71B0 ?processPendingUpdates@QGraphicsViewPrivate@@QEAAXXZ
       4835 12E2 00189F00 ?processShortcutOverrideEvent@QWidgetLineControl@@QEAAXPEAVQKeyEvent@@@Z
       4836 12E3 00013740 ?process_cmdline@QApplicationPrivate@@QEAAXXZ
       4837 12E4 0009FFC0 ?progressBarSizeFromContents@QPixmapStyle@@IEBA?AVQSize@@PEBVQStyleOption@@AEBV2@PEBVQWidget@@@Z
       4838 12E5 00102A70 ?progressStep@QProgressStyleAnimation@@QEBAHH@Z
       4839 12E6 0005EE30 ?propagatePaletteChange@QWidgetPrivate@@QEAAXXZ
       4840 12E7 0036ACE0 ?propertyChange@QGraphicsWidget@@MEAA?AVQVariant@@AEBVQString@@AEBV2@@Z
       4841 12E8 003AA400 ?proposedAction@QGraphicsSceneDragDropEvent@@QEBA?AW4DropAction@Qt@@XZ
       4842 12E9 000A49D0 ?proxy@QStyle@@QEBAPEBV1@XZ
       4843 12EA 00042E40 ?proxyModel@QFileDialog@@QEBAPEAVQAbstractProxyModel@@XZ
       4844 12EB 000A0330 ?pushButtonSizeFromContents@QPixmapStyle@@IEBA?AVQSize@@PEBVQStyleOption@@AEBV2@PEBVQWidget@@@Z
       4845 12EC 00095AF0 ?qDrawBorderPixmap@@YAXPEAVQPainter@@AEBVQRect@@AEBVQMargins@@AEBVQPixmap@@12AEBUQTileRules@@V?$QFlags@W4DrawingHint@QDrawBorderPixmap@@@@@Z
       4846 12ED 00097870 ?qDrawPlainRect@@YAXPEAVQPainter@@AEBVQRect@@AEBVQColor@@HPEBVQBrush@@@Z
       4847 12EE 000978D0 ?qDrawPlainRect@@YAXPEAVQPainter@@HHHHAEBVQColor@@HPEBVQBrush@@@Z
       4848 12EF 00097BB0 ?qDrawPlainRoundedRect@@YAXPEAVQPainter@@HHHHNNAEBVQColor@@HPEBVQBrush@@@Z
       4849 12F0 00097F60 ?qDrawShadeLine@@YAXPEAVQPainter@@AEBVQPoint@@1AEBVQPalette@@_NHH@Z
       4850 12F1 00097FB0 ?qDrawShadeLine@@YAXPEAVQPainter@@HHHHAEBVQPalette@@_NHH@Z
       4851 12F2 00098630 ?qDrawShadePanel@@YAXPEAVQPainter@@AEBVQRect@@AEBVQPalette@@_NHPEBVQBrush@@@Z
       4852 12F3 000986A0 ?qDrawShadePanel@@YAXPEAVQPainter@@HHHHAEBVQPalette@@_NHPEBVQBrush@@@Z
       4853 12F4 00098E20 ?qDrawShadeRect@@YAXPEAVQPainter@@AEBVQRect@@AEBVQPalette@@_NHHPEBVQBrush@@@Z
       4854 12F5 00098E90 ?qDrawShadeRect@@YAXPEAVQPainter@@HHHHAEBVQPalette@@_NHHPEBVQBrush@@@Z
       4855 12F6 00099700 ?qDrawWinButton@@YAXPEAVQPainter@@AEBVQRect@@AEBVQPalette@@_NPEBVQBrush@@@Z
       4856 12F7 00099760 ?qDrawWinButton@@YAXPEAVQPainter@@HHHHAEBVQPalette@@_NPEBVQBrush@@@Z
       4857 12F8 00099890 ?qDrawWinPanel@@YAXPEAVQPainter@@AEBVQRect@@AEBVQPalette@@_NPEBVQBrush@@@Z
       4858 12F9 000998F0 ?qDrawWinPanel@@YAXPEAVQPainter@@HHHHAEBVQPalette@@_NPEBVQBrush@@@Z
       4859 12FA 001678B0 ?qFadeEffect@@YAXPEAVQWidget@@H@Z
       4860 12FB 0003FF40 ?qGeomCalc@@YAXAEAV?$QList@UQLayoutStruct@@@@HHHHH@Z
       4861 12FC 00021070 ?qRegisterNormalizedMetaType_QGesture__GestureCancelPolicy@@YAHAEBVQByteArray@@@Z
       4862 12FD 003708C0 ?qRegisterNormalizedMetaType_QGraphicsItem_ptr@@YAHAEBVQByteArray@@@Z
       4863 12FE 00021120 ?qRegisterNormalizedMetaType_QPinchGesture__ChangeFlags@@YAHAEBVQByteArray@@@Z
       4864 12FF 003E0970 ?qRegisterNormalizedMetaType_QScrollerProperties__FrameRates@@YAHAEBVQByteArray@@@Z
       4865 1300 003E0A20 ?qRegisterNormalizedMetaType_QScrollerProperties__OvershootPolicy@@YAHAEBVQByteArray@@@Z
       4866 1301 000211D0 ?qRegisterNormalizedMetaType_Qt__GestureState@@YAHAEBVQByteArray@@@Z
       4867 1302 00021280 ?qRegisterNormalizedMetaType_Qt__GestureType@@YAHAEBVQByteArray@@@Z
       4868 1303 00276A80 ?qRequireVersion@@YAXHQEAPEADVQAnyStringView@@@Z
       4869 1304 00167A30 ?qScrollEffect@@YAXPEAVQWidget@@IH@Z
       4870 1305 000409C0 ?qSmartMaxSize@@YA?AVQSize@@AEBV1@00AEBVQSizePolicy@@V?$QFlags@W4AlignmentFlag@Qt@@@@@Z
       4871 1306 00040AA0 ?qSmartMaxSize@@YA?AVQSize@@PEBVQWidget@@V?$QFlags@W4AlignmentFlag@Qt@@@@@Z
       4872 1307 00040BF0 ?qSmartMaxSize@@YA?AVQSize@@PEBVQWidgetItem@@V?$QFlags@W4AlignmentFlag@Qt@@@@@Z
       4873 1308 00040D50 ?qSmartMinSize@@YA?AVQSize@@AEBV1@000AEBVQSizePolicy@@@Z
       4874 1309 00040E40 ?qSmartMinSize@@YA?AVQSize@@PEBVQWidget@@@Z
       4875 130A 00040EF0 ?qSmartMinSize@@YA?AVQSize@@PEBVQWidgetItem@@@Z
       4876 130B 00040FB0 ?qSmartSpacing@@YAHPEBVQLayout@@W4PixelMetric@QStyle@@@Z
       4877 130C 00048BA0 ?qWaitForWindowActive@QTest@@YA_NPEAVQWidget@@H@Z
       4878 130D 00048DE0 ?qWaitForWindowExposed@QTest@@YA_NPEAVQWidget@@H@Z
       4879 130E 00048F50 ?qWaitForWindowFocused@QTest@@YA_NPEAVQWidget@@VQDeadlineTimer@@@Z
       4880 130F 000016B0 ?q_func@QApplicationPrivate@@AEAAPEAVQApplication@@XZ
       4881 1310 000016B0 ?q_func@QApplicationPrivate@@AEBAPEBVQApplication@@XZ
       4882 1311 000016B0 ?q_func@QCommonStylePrivate@@AEAAPEAVQCommonStyle@@XZ
       4883 1312 000016B0 ?q_func@QCommonStylePrivate@@AEBAPEBVQCommonStyle@@XZ
       4884 1313 000016B0 ?q_func@QDialogPrivate@@AEAAPEAVQDialog@@XZ
       4885 1314 000016B0 ?q_func@QDialogPrivate@@AEBAPEBVQDialog@@XZ
       4886 1315 000016B0 ?q_func@QFileDialogPrivate@@AEAAPEAVQFileDialog@@XZ
       4887 1316 000016B0 ?q_func@QFileDialogPrivate@@AEBAPEBVQFileDialog@@XZ
       4888 1317 000016B0 ?q_func@QGraphicsEffectPrivate@@AEAAPEAVQGraphicsEffect@@XZ
       4889 1318 000016B0 ?q_func@QGraphicsEffectPrivate@@AEBAPEBVQGraphicsEffect@@XZ
       4890 1319 00033F40 ?q_func@QGraphicsItemPrivate@@AEAAPEAVQGraphicsItem@@XZ
       4891 131A 00033F40 ?q_func@QGraphicsItemPrivate@@AEBAPEBVQGraphicsItem@@XZ
       4892 131B 000016B0 ?q_func@QGraphicsViewPrivate@@AEAAPEAVQGraphicsView@@XZ
       4893 131C 000016B0 ?q_func@QGraphicsViewPrivate@@AEBAPEBVQGraphicsView@@XZ
       4894 131D 000016B0 ?q_func@QLayoutPrivate@@AEAAPEAVQLayout@@XZ
       4895 131E 000016B0 ?q_func@QLayoutPrivate@@AEBAPEBVQLayout@@XZ
       4896 131F 000016B0 ?q_func@QTabBarPrivate@@AEAAPEAVQTabBar@@XZ
       4897 1320 000016B0 ?q_func@QTabBarPrivate@@AEBAPEBVQTabBar@@XZ
       4898 1321 000016B0 ?q_func@QTreeViewPrivate@@AEAAPEAVQTreeView@@XZ
       4899 1322 000016B0 ?q_func@QTreeViewPrivate@@AEBAPEBVQTreeView@@XZ
       4900 1323 000016B0 ?q_func@QWidgetPrivate@@AEAAPEAVQWidget@@XZ
       4901 1324 000016B0 ?q_func@QWidgetPrivate@@AEBAPEBVQWidget@@XZ
       4902 1325 000016B0 ?q_func@QWindowsStylePrivate@@AEAAPEAVQWindowsStyle@@XZ
       4903 1326 000016B0 ?q_func@QWindowsStylePrivate@@AEBAPEBVQWindowsStyle@@XZ
       4904 1327 000016B0 ?q_func@QtWidgetsActionPrivate@@AEAAPEAVQAction@@XZ
       4905 1328 000016B0 ?q_func@QtWidgetsActionPrivate@@AEBAPEBVQAction@@XZ
       4906 1329 00246740 ?qtHandler@QErrorMessage@@SAPEAV1@XZ
       4907 132A 00013A60 ?qt_app_fonts_hash@@YAPEAV?$QHash@VQByteArray@@VQFont@@@@XZ
       4908 132B 005E1FF8 ?qt_button_down@@3PEAVQWidget@@EA
       4909 132C 00370C90 ?qt_graphicsItem_highlightSelected@@YAXPEAVQGraphicsItem@@PEAVQPainter@@PEBVQStyleOptionGraphicsItem@@@Z
       4910 132D 0011F1A0 ?qt_metacall@QAbstractButton@@UEAAHW4Call@QMetaObject@@HPEAPEAX@Z
       4911 132E 002A9220 ?qt_metacall@QAbstractItemDelegate@@UEAAHW4Call@QMetaObject@@HPEAPEAX@Z
       4912 132F 002B8B40 ?qt_metacall@QAbstractItemView@@UEAAHW4Call@QMetaObject@@HPEAPEAX@Z
       4913 1330 000EA2C0 ?qt_metacall@QAbstractScrollArea@@UEAAHW4Call@QMetaObject@@HPEAPEAX@Z
       4914 1331 00120CB0 ?qt_metacall@QAbstractSlider@@UEAAHW4Call@QMetaObject@@HPEAPEAX@Z
       4915 1332 001E2930 ?qt_metacall@QAbstractSpinBox@@UEAAHW4Call@QMetaObject@@HPEAPEAX@Z
       4916 1333 00013AF0 ?qt_metacall@QApplication@@UEAAHW4Call@QMetaObject@@HPEAPEAX@Z
       4917 1334 00102AE0 ?qt_metacall@QBlendStyleAnimation@@UEAAHW4Call@QMetaObject@@HPEAPEAX@Z
       4918 1335 0001C680 ?qt_metacall@QBoxLayout@@UEAAHW4Call@QMetaObject@@HPEAPEAX@Z
       4919 1336 00123170 ?qt_metacall@QButtonGroup@@UEAAHW4Call@QMetaObject@@HPEAPEAX@Z
       4920 1337 0012B170 ?qt_metacall@QCalendarWidget@@UEAAHW4Call@QMetaObject@@HPEAPEAX@Z
       4921 1338 0012F760 ?qt_metacall@QCheckBox@@UEAAHW4Call@QMetaObject@@HPEAPEAX@Z
       4922 1339 0023F1F0 ?qt_metacall@QColorDialog@@UEAAHW4Call@QMetaObject@@HPEAPEAX@Z
       4923 133A 002E25C0 ?qt_metacall@QColumnView@@UEAAHW4Call@QMetaObject@@HPEAPEAX@Z
       4924 133B 0013AFD0 ?qt_metacall@QComboBox@@UEAAHW4Call@QMetaObject@@HPEAPEAX@Z
       4925 133C 0013B080 ?qt_metacall@QComboBoxPrivateContainer@@UEAAHW4Call@QMetaObject@@HPEAPEAX@Z
       4926 133D 00143440 ?qt_metacall@QCommandLinkButton@@UEAAHW4Call@QMetaObject@@HPEAPEAX@Z
       4927 133E 0008F130 ?qt_metacall@QCommonStyle@@UEAAHW4Call@QMetaObject@@HPEAPEAX@Z
       4928 133F 003D23C0 ?qt_metacall@QCompleter@@UEAAHW4Call@QMetaObject@@HPEAPEAX@Z
       4929 1340 002E6D40 ?qt_metacall@QDataWidgetMapper@@UEAAHW4Call@QMetaObject@@HPEAPEAX@Z
       4930 1341 00148B20 ?qt_metacall@QDateEdit@@UEAAHW4Call@QMetaObject@@HPEAPEAX@Z
       4931 1342 00148C10 ?qt_metacall@QDateTimeEdit@@UEAAHW4Call@QMetaObject@@HPEAPEAX@Z
       4932 1343 0014DB00 ?qt_metacall@QDial@@UEAAHW4Call@QMetaObject@@HPEAPEAX@Z
       4933 1344 002435E0 ?qt_metacall@QDialog@@UEAAHW4Call@QMetaObject@@HPEAPEAX@Z
       4934 1345 001D7320 ?qt_metacall@QDialogButtonBox@@UEAAHW4Call@QMetaObject@@HPEAPEAX@Z
       4935 1346 00164E60 ?qt_metacall@QDockWidget@@UEAAHW4Call@QMetaObject@@HPEAPEAX@Z
       4936 1347 0001C680 ?qt_metacall@QDockWidgetLayout@@UEAAHW4Call@QMetaObject@@HPEAPEAX@Z
       4937 1348 001E6050 ?qt_metacall@QDoubleSpinBox@@UEAAHW4Call@QMetaObject@@HPEAPEAX@Z
       4938 1349 002467C0 ?qt_metacall@QErrorMessage@@UEAAHW4Call@QMetaObject@@HPEAPEAX@Z
       4939 134A 00255CF0 ?qt_metacall@QFileDialog@@UEAAHW4Call@QMetaObject@@HPEAPEAX@Z
       4940 134B 003D49D0 ?qt_metacall@QFlickGesture@@UEAAHW4Call@QMetaObject@@HPEAPEAX@Z
       4941 134C 0007DB70 ?qt_metacall@QFocusFrame@@UEAAHW4Call@QMetaObject@@HPEAPEAX@Z
       4942 134D 0016AE50 ?qt_metacall@QFontComboBox@@UEAAHW4Call@QMetaObject@@HPEAPEAX@Z
       4943 134E 0026B4F0 ?qt_metacall@QFontDialog@@UEAAHW4Call@QMetaObject@@HPEAPEAX@Z
       4944 134F 000F9AE0 ?qt_metacall@QFormLayout@@UEAAHW4Call@QMetaObject@@HPEAPEAX@Z
       4945 1350 000ED6D0 ?qt_metacall@QFrame@@UEAAHW4Call@QMetaObject@@HPEAPEAX@Z
       4946 1351 000A0570 ?qt_metacall@QFusionStyle@@UEAAHW4Call@QMetaObject@@HPEAPEAX@Z
       4947 1352 00021330 ?qt_metacall@QGesture@@UEAAHW4Call@QMetaObject@@HPEAPEAX@Z
       4948 1353 00349C80 ?qt_metacall@QGraphicsAnchor@@UEAAHW4Call@QMetaObject@@HPEAPEAX@Z
       4949 1354 000F1C70 ?qt_metacall@QGraphicsBlurEffect@@UEAAHW4Call@QMetaObject@@HPEAPEAX@Z
       4950 1355 000F1D70 ?qt_metacall@QGraphicsColorizeEffect@@UEAAHW4Call@QMetaObject@@HPEAPEAX@Z
       4951 1356 000F1E70 ?qt_metacall@QGraphicsDropShadowEffect@@UEAAHW4Call@QMetaObject@@HPEAPEAX@Z
       4952 1357 000F1F70 ?qt_metacall@QGraphicsEffect@@UEAAHW4Call@QMetaObject@@HPEAPEAX@Z
       4953 1358 00033F50 ?qt_metacall@QGraphicsEffectSource@@UEAAHW4Call@QMetaObject@@HPEAPEAX@Z
       4954 1359 003C8510 ?qt_metacall@QGraphicsItemAnimation@@UEAAHW4Call@QMetaObject@@HPEAPEAX@Z
       4955 135A 003711E0 ?qt_metacall@QGraphicsObject@@UEAAHW4Call@QMetaObject@@HPEAPEAX@Z
       4956 135B 000F2010 ?qt_metacall@QGraphicsOpacityEffect@@UEAAHW4Call@QMetaObject@@HPEAPEAX@Z
       4957 135C 00382CF0 ?qt_metacall@QGraphicsProxyWidget@@UEAAHW4Call@QMetaObject@@HPEAPEAX@Z
       4958 135D 003AD500 ?qt_metacall@QGraphicsRotation@@UEAAHW4Call@QMetaObject@@HPEAPEAX@Z
       4959 135E 003AD5E0 ?qt_metacall@QGraphicsScale@@UEAAHW4Call@QMetaObject@@HPEAPEAX@Z
       4960 135F 0039C0F0 ?qt_metacall@QGraphicsScene@@UEAAHW4Call@QMetaObject@@HPEAPEAX@Z
       4961 1360 00371280 ?qt_metacall@QGraphicsTextItem@@UEAAHW4Call@QMetaObject@@HPEAPEAX@Z
       4962 1361 003AD6D0 ?qt_metacall@QGraphicsTransform@@UEAAHW4Call@QMetaObject@@HPEAPEAX@Z
       4963 1362 003B7260 ?qt_metacall@QGraphicsView@@UEAAHW4Call@QMetaObject@@HPEAPEAX@Z
       4964 1363 003BF5D0 ?qt_metacall@QGraphicsWidget@@UEAAHW4Call@QMetaObject@@HPEAPEAX@Z
       4965 1364 0001C680 ?qt_metacall@QGridLayout@@UEAAHW4Call@QMetaObject@@HPEAPEAX@Z
       4966 1365 0016E660 ?qt_metacall@QGroupBox@@UEAAHW4Call@QMetaObject@@HPEAPEAX@Z
       4967 1366 0001C680 ?qt_metacall@QHBoxLayout@@UEAAHW4Call@QMetaObject@@HPEAPEAX@Z
       4968 1367 002CAAF0 ?qt_metacall@QHeaderView@@UEAAHW4Call@QMetaObject@@HPEAPEAX@Z
       4969 1368 002713E0 ?qt_metacall@QInputDialog@@UEAAHW4Call@QMetaObject@@HPEAPEAX@Z
       4970 1369 002D7F20 ?qt_metacall@QItemDelegate@@UEAAHW4Call@QMetaObject@@HPEAPEAX@Z
       4971 136A 001709A0 ?qt_metacall@QKeySequenceEdit@@UEAAHW4Call@QMetaObject@@HPEAPEAX@Z
       4972 136B 00179120 ?qt_metacall@QLCDNumber@@UEAAHW4Call@QMetaObject@@HPEAPEAX@Z
       4973 136C 00174430 ?qt_metacall@QLabel@@UEAAHW4Call@QMetaObject@@HPEAPEAX@Z
       4974 136D 0003E720 ?qt_metacall@QLayout@@UEAAHW4Call@QMetaObject@@HPEAPEAX@Z
       4975 136E 0017F280 ?qt_metacall@QLineEdit@@UEAAHW4Call@QMetaObject@@HPEAPEAX@Z
       4976 136F 002F5A10 ?qt_metacall@QListView@@UEAAHW4Call@QMetaObject@@HPEAPEAX@Z
       4977 1370 00301B20 ?qt_metacall@QListWidget@@UEAAHW4Call@QMetaObject@@HPEAPEAX@Z
       4978 1371 0018E670 ?qt_metacall@QMainWindow@@UEAAHW4Call@QMetaObject@@HPEAPEAX@Z
       4979 1372 001A62C0 ?qt_metacall@QMdiArea@@UEAAHW4Call@QMetaObject@@HPEAPEAX@Z
       4980 1373 001B3490 ?qt_metacall@QMdiSubWindow@@UEAAHW4Call@QMetaObject@@HPEAPEAX@Z
       4981 1374 001C47C0 ?qt_metacall@QMenu@@UEAAHW4Call@QMetaObject@@HPEAPEAX@Z
       4982 1375 001CD730 ?qt_metacall@QMenuBar@@UEAAHW4Call@QMetaObject@@HPEAPEAX@Z
       4983 1376 00276E90 ?qt_metacall@QMessageBox@@UEAAHW4Call@QMetaObject@@HPEAPEAX@Z
       4984 1377 00102AE0 ?qt_metacall@QNumberStyleAnimation@@UEAAHW4Call@QMetaObject@@HPEAPEAX@Z
       4985 1378 000213A0 ?qt_metacall@QPanGesture@@UEAAHW4Call@QMetaObject@@HPEAPEAX@Z
       4986 1379 00021440 ?qt_metacall@QPinchGesture@@UEAAHW4Call@QMetaObject@@HPEAPEAX@Z
       4987 137A 00033F50 ?qt_metacall@QPixmapBlurFilter@@UEAAHW4Call@QMetaObject@@HPEAPEAX@Z
       4988 137B 00033F50 ?qt_metacall@QPixmapColorizeFilter@@UEAAHW4Call@QMetaObject@@HPEAPEAX@Z
       4989 137C 00033F50 ?qt_metacall@QPixmapConvolutionFilter@@UEAAHW4Call@QMetaObject@@HPEAPEAX@Z
       4990 137D 00033F50 ?qt_metacall@QPixmapDropShadowFilter@@UEAAHW4Call@QMetaObject@@HPEAPEAX@Z
       4991 137E 00033F50 ?qt_metacall@QPixmapFilter@@UEAAHW4Call@QMetaObject@@HPEAPEAX@Z
       4992 137F 000A0570 ?qt_metacall@QPixmapStyle@@UEAAHW4Call@QMetaObject@@HPEAPEAX@Z
       4993 1380 00202EC0 ?qt_metacall@QPlainTextDocumentLayout@@UEAAHW4Call@QMetaObject@@HPEAPEAX@Z
       4994 1381 00202F40 ?qt_metacall@QPlainTextEdit@@UEAAHW4Call@QMetaObject@@HPEAPEAX@Z
       4995 1382 001CFD60 ?qt_metacall@QProgressBar@@UEAAHW4Call@QMetaObject@@HPEAPEAX@Z
       4996 1383 0027AB10 ?qt_metacall@QProgressDialog@@UEAAHW4Call@QMetaObject@@HPEAPEAX@Z
       4997 1384 00102AE0 ?qt_metacall@QProgressStyleAnimation@@UEAAHW4Call@QMetaObject@@HPEAPEAX@Z
       4998 1385 000A0570 ?qt_metacall@QProxyStyle@@UEAAHW4Call@QMetaObject@@HPEAPEAX@Z
       4999 1386 001D20F0 ?qt_metacall@QPushButton@@UEAAHW4Call@QMetaObject@@HPEAPEAX@Z
       5000 1387 00164F00 ?qt_metacall@QRadioButton@@UEAAHW4Call@QMetaObject@@HPEAPEAX@Z
       5001 1388 000027B0 ?qt_metacall@QRhiWidget@@UEAAHW4Call@QMetaObject@@HPEAPEAX@Z
       5002 1389 0007DB70 ?qt_metacall@QRubberBand@@UEAAHW4Call@QMetaObject@@HPEAPEAX@Z
       5003 138A 001D9000 ?qt_metacall@QScrollArea@@UEAAHW4Call@QMetaObject@@HPEAPEAX@Z
       5004 138B 001DBB10 ?qt_metacall@QScrollBar@@UEAAHW4Call@QMetaObject@@HPEAPEAX@Z
       5005 138C 00102B60 ?qt_metacall@QScrollbarStyleAnimation@@UEAAHW4Call@QMetaObject@@HPEAPEAX@Z
       5006 138D 003DBFA0 ?qt_metacall@QScroller@@UEAAHW4Call@QMetaObject@@HPEAPEAX@Z
       5007 138E 001DCE40 ?qt_metacall@QSizeGrip@@UEAAHW4Call@QMetaObject@@HPEAPEAX@Z
       5008 138F 001DE3E0 ?qt_metacall@QSlider@@UEAAHW4Call@QMetaObject@@HPEAPEAX@Z
       5009 1390 001E60F0 ?qt_metacall@QSpinBox@@UEAAHW4Call@QMetaObject@@HPEAPEAX@Z
       5010 1391 001E8C70 ?qt_metacall@QSplashScreen@@UEAAHW4Call@QMetaObject@@HPEAPEAX@Z
       5011 1392 001EC860 ?qt_metacall@QSplitter@@UEAAHW4Call@QMetaObject@@HPEAPEAX@Z
       5012 1393 0007DB70 ?qt_metacall@QSplitterHandle@@UEAAHW4Call@QMetaObject@@HPEAPEAX@Z
       5013 1394 00045B30 ?qt_metacall@QStackedLayout@@UEAAHW4Call@QMetaObject@@HPEAPEAX@Z
       5014 1395 001EED30 ?qt_metacall@QStackedWidget@@UEAAHW4Call@QMetaObject@@HPEAPEAX@Z
       5015 1396 001F0060 ?qt_metacall@QStatusBar@@UEAAHW4Call@QMetaObject@@HPEAPEAX@Z
       5016 1397 00033F50 ?qt_metacall@QStyle@@UEAAHW4Call@QMetaObject@@HPEAPEAX@Z
       5017 1398 00102C10 ?qt_metacall@QStyleAnimation@@UEAAHW4Call@QMetaObject@@HPEAPEAX@Z
       5018 1399 00033F50 ?qt_metacall@QStylePlugin@@UEAAHW4Call@QMetaObject@@HPEAPEAX@Z
       5019 139A 0013B190 ?qt_metacall@QStyledItemDelegate@@UEAAHW4Call@QMetaObject@@HPEAPEAX@Z
       5020 139B 000214E0 ?qt_metacall@QSwipeGesture@@UEAAHW4Call@QMetaObject@@HPEAPEAX@Z
       5021 139C 000E7240 ?qt_metacall@QSystemTrayIcon@@UEAAHW4Call@QMetaObject@@HPEAPEAX@Z
       5022 139D 001F7A10 ?qt_metacall@QTabBar@@UEAAHW4Call@QMetaObject@@HPEAPEAX@Z
       5023 139E 00211930 ?qt_metacall@QTabWidget@@UEAAHW4Call@QMetaObject@@HPEAPEAX@Z
       5024 139F 0030D400 ?qt_metacall@QTableView@@UEAAHW4Call@QMetaObject@@HPEAPEAX@Z
       5025 13A0 0031D4F0 ?qt_metacall@QTableWidget@@UEAAHW4Call@QMetaObject@@HPEAPEAX@Z
       5026 13A1 00021580 ?qt_metacall@QTapAndHoldGesture@@UEAAHW4Call@QMetaObject@@HPEAPEAX@Z
       5027 13A2 00021580 ?qt_metacall@QTapGesture@@UEAAHW4Call@QMetaObject@@HPEAPEAX@Z
       5028 13A3 0020E780 ?qt_metacall@QTextBrowser@@UEAAHW4Call@QMetaObject@@HPEAPEAX@Z
       5029 13A4 00209990 ?qt_metacall@QTextEdit@@UEAAHW4Call@QMetaObject@@HPEAPEAX@Z
       5030 13A5 00148CB0 ?qt_metacall@QTimeEdit@@UEAAHW4Call@QMetaObject@@HPEAPEAX@Z
       5031 13A6 00215260 ?qt_metacall@QToolBar@@UEAAHW4Call@QMetaObject@@HPEAPEAX@Z
       5032 13A7 00221F50 ?qt_metacall@QToolBox@@UEAAHW4Call@QMetaObject@@HPEAPEAX@Z
       5033 13A8 00225180 ?qt_metacall@QToolButton@@UEAAHW4Call@QMetaObject@@HPEAPEAX@Z
       5034 13A9 0032FA80 ?qt_metacall@QTreeView@@UEAAHW4Call@QMetaObject@@HPEAPEAX@Z
       5035 13AA 003429C0 ?qt_metacall@QTreeWidget@@UEAAHW4Call@QMetaObject@@HPEAPEAX@Z
       5036 13AB 003E2500 ?qt_metacall@QUndoView@@UEAAHW4Call@QMetaObject@@HPEAPEAX@Z
       5037 13AC 0001C680 ?qt_metacall@QVBoxLayout@@UEAAHW4Call@QMetaObject@@HPEAPEAX@Z
       5038 13AD 0005F6F0 ?qt_metacall@QWidget@@UEAAHW4Call@QMetaObject@@HPEAPEAX@Z
       5039 13AE 000F6230 ?qt_metacall@QWidgetAction@@UEAAHW4Call@QMetaObject@@HPEAPEAX@Z
       5040 13AF 0018A1B0 ?qt_metacall@QWidgetLineControl@@UEAAHW4Call@QMetaObject@@HPEAPEAX@Z
       5041 13B0 00234160 ?qt_metacall@QWidgetTextControl@@UEAAHW4Call@QMetaObject@@HPEAPEAX@Z
       5042 13B1 0007DB70 ?qt_metacall@QWindowContainer@@UEAAHW4Call@QMetaObject@@HPEAPEAX@Z
       5043 13B2 000A0570 ?qt_metacall@QWindowsStyle@@UEAAHW4Call@QMetaObject@@HPEAPEAX@Z
       5044 13B3 00283DE0 ?qt_metacall@QWizard@@UEAAHW4Call@QMetaObject@@HPEAPEAX@Z
       5045 13B4 00283E80 ?qt_metacall@QWizardPage@@UEAAHW4Call@QMetaObject@@HPEAPEAX@Z
       5046 13B5 0011F240 ?qt_metacast@QAbstractButton@@UEAAPEAXPEBD@Z
       5047 13B6 002A9290 ?qt_metacast@QAbstractItemDelegate@@UEAAPEAXPEBD@Z
       5048 13B7 002B8BE0 ?qt_metacast@QAbstractItemView@@UEAAPEAXPEBD@Z
       5049 13B8 000EA350 ?qt_metacast@QAbstractScrollArea@@UEAAPEAXPEBD@Z
       5050 13B9 00120D50 ?qt_metacast@QAbstractSlider@@UEAAPEAXPEBD@Z
       5051 13BA 001E29D0 ?qt_metacast@QAbstractSpinBox@@UEAAPEAXPEBD@Z
       5052 13BB 00013B90 ?qt_metacast@QApplication@@UEAAPEAXPEBD@Z
       5053 13BC 00102C90 ?qt_metacast@QBlendStyleAnimation@@UEAAPEAXPEBD@Z
       5054 13BD 0001C690 ?qt_metacast@QBoxLayout@@UEAAPEAXPEBD@Z
       5055 13BE 00123210 ?qt_metacast@QButtonGroup@@UEAAPEAXPEBD@Z
       5056 13BF 0012B3A0 ?qt_metacast@QCalendarWidget@@UEAAPEAXPEBD@Z
       5057 13C0 0012F800 ?qt_metacast@QCheckBox@@UEAAPEAXPEBD@Z
       5058 13C1 0023F700 ?qt_metacast@QColorDialog@@UEAAPEAXPEBD@Z
       5059 13C2 002E2680 ?qt_metacast@QColumnView@@UEAAPEAXPEBD@Z
       5060 13C3 0013B1A0 ?qt_metacast@QComboBox@@UEAAPEAXPEBD@Z
       5061 13C4 0013B2C0 ?qt_metacast@QComboBoxPrivateContainer@@UEAAPEAXPEBD@Z
       5062 13C5 00143530 ?qt_metacast@QCommandLinkButton@@UEAAPEAXPEBD@Z
       5063 13C6 0008F140 ?qt_metacast@QCommonStyle@@UEAAPEAXPEBD@Z
       5064 13C7 003D2510 ?qt_metacast@QCompleter@@UEAAPEAXPEBD@Z
       5065 13C8 002E6DE0 ?qt_metacast@QDataWidgetMapper@@UEAAPEAXPEBD@Z
       5066 13C9 00148E00 ?qt_metacast@QDateEdit@@UEAAPEAXPEBD@Z
       5067 13CA 00148E70 ?qt_metacast@QDateTimeEdit@@UEAAPEAXPEBD@Z
       5068 13CB 0014DBA0 ?qt_metacast@QDial@@UEAAPEAXPEBD@Z
       5069 13CC 00243680 ?qt_metacast@QDialog@@UEAAPEAXPEBD@Z
       5070 13CD 001D73C0 ?qt_metacast@QDialogButtonBox@@UEAAPEAXPEBD@Z
       5071 13CE 00164F10 ?qt_metacast@QDockWidget@@UEAAPEAXPEBD@Z
       5072 13CF 00164F70 ?qt_metacast@QDockWidgetLayout@@UEAAPEAXPEBD@Z
       5073 13D0 001E6190 ?qt_metacast@QDoubleSpinBox@@UEAAPEAXPEBD@Z
       5074 13D1 00246870 ?qt_metacast@QErrorMessage@@UEAAPEAXPEBD@Z
       5075 13D2 00255D90 ?qt_metacast@QFileDialog@@UEAAPEAXPEBD@Z
       5076 13D3 003D49E0 ?qt_metacast@QFlickGesture@@UEAAPEAXPEBD@Z
       5077 13D4 000EC5E0 ?qt_metacast@QFocusFrame@@UEAAPEAXPEBD@Z
       5078 13D5 0016AEF0 ?qt_metacast@QFontComboBox@@UEAAPEAXPEBD@Z
       5079 13D6 0026B620 ?qt_metacast@QFontDialog@@UEAAPEAXPEBD@Z
       5080 13D7 000F9B40 ?qt_metacast@QFormLayout@@UEAAPEAXPEBD@Z
       5081 13D8 000ED730 ?qt_metacast@QFrame@@UEAAPEAXPEBD@Z
       5082 13D9 00119ED0 ?qt_metacast@QFusionStyle@@UEAAPEAXPEBD@Z
       5083 13DA 00021630 ?qt_metacast@QGesture@@UEAAPEAXPEBD@Z
       5084 13DB 00349D40 ?qt_metacast@QGraphicsAnchor@@UEAAPEAXPEBD@Z
       5085 13DC 000F2110 ?qt_metacast@QGraphicsBlurEffect@@UEAAPEAXPEBD@Z
       5086 13DD 000F2180 ?qt_metacast@QGraphicsColorizeEffect@@UEAAPEAXPEBD@Z
       5087 13DE 000F21F0 ?qt_metacast@QGraphicsDropShadowEffect@@UEAAPEAXPEBD@Z
       5088 13DF 000F2260 ?qt_metacast@QGraphicsEffect@@UEAAPEAXPEBD@Z
       5089 13E0 000F22C0 ?qt_metacast@QGraphicsEffectSource@@UEAAPEAXPEBD@Z
       5090 13E1 003C8580 ?qt_metacast@QGraphicsItemAnimation@@UEAAPEAXPEBD@Z
       5091 13E2 00371350 ?qt_metacast@QGraphicsObject@@UEAAPEAXPEBD@Z
       5092 13E3 000F2320 ?qt_metacast@QGraphicsOpacityEffect@@UEAAPEAXPEBD@Z
       5093 13E4 00382D60 ?qt_metacast@QGraphicsProxyWidget@@UEAAPEAXPEBD@Z
       5094 13E5 003AD760 ?qt_metacast@QGraphicsRotation@@UEAAPEAXPEBD@Z
       5095 13E6 003AD7D0 ?qt_metacast@QGraphicsScale@@UEAAPEAXPEBD@Z
       5096 13E7 0039C190 ?qt_metacast@QGraphicsScene@@UEAAPEAXPEBD@Z
       5097 13E8 003713F0 ?qt_metacast@QGraphicsTextItem@@UEAAPEAXPEBD@Z
       5098 13E9 003AD840 ?qt_metacast@QGraphicsTransform@@UEAAPEAXPEBD@Z
       5099 13EA 003B7300 ?qt_metacast@QGraphicsView@@UEAAPEAXPEBD@Z
       5100 13EB 003BF670 ?qt_metacast@QGraphicsWidget@@UEAAPEAXPEBD@Z
       5101 13EC 000399D0 ?qt_metacast@QGridLayout@@UEAAPEAXPEBD@Z
       5102 13ED 0016E6F0 ?qt_metacast@QGroupBox@@UEAAPEAXPEBD@Z
       5103 13EE 0001C6F0 ?qt_metacast@QHBoxLayout@@UEAAPEAXPEBD@Z
       5104 13EF 002CAB90 ?qt_metacast@QHeaderView@@UEAAPEAXPEBD@Z
       5105 13F0 002715B0 ?qt_metacast@QInputDialog@@UEAAPEAXPEBD@Z
       5106 13F1 002D7FA0 ?qt_metacast@QItemDelegate@@UEAAPEAXPEBD@Z
       5107 13F2 00170A40 ?qt_metacast@QKeySequenceEdit@@UEAAPEAXPEBD@Z
       5108 13F3 001791C0 ?qt_metacast@QLCDNumber@@UEAAPEAXPEBD@Z
       5109 13F4 001744D0 ?qt_metacast@QLabel@@UEAAPEAXPEBD@Z
       5110 13F5 0003E790 ?qt_metacast@QLayout@@UEAAPEAXPEBD@Z
       5111 13F6 0017F320 ?qt_metacast@QLineEdit@@UEAAPEAXPEBD@Z
       5112 13F7 002F5AB0 ?qt_metacast@QListView@@UEAAPEAXPEBD@Z
       5113 13F8 00301C20 ?qt_metacast@QListWidget@@UEAAPEAXPEBD@Z
       5114 13F9 0018E710 ?qt_metacast@QMainWindow@@UEAAPEAXPEBD@Z
       5115 13FA 001A6360 ?qt_metacast@QMdiArea@@UEAAPEAXPEBD@Z
       5116 13FB 001B3630 ?qt_metacast@QMdiSubWindow@@UEAAPEAXPEBD@Z
       5117 13FC 001C4990 ?qt_metacast@QMenu@@UEAAPEAXPEBD@Z
       5118 13FD 001CD7D0 ?qt_metacast@QMenuBar@@UEAAPEAXPEBD@Z
       5119 13FE 00276FA0 ?qt_metacast@QMessageBox@@UEAAPEAXPEBD@Z
       5120 13FF 00102D00 ?qt_metacast@QNumberStyleAnimation@@UEAAPEAXPEBD@Z
       5121 1400 00021690 ?qt_metacast@QPanGesture@@UEAAPEAXPEBD@Z
       5122 1401 00021700 ?qt_metacast@QPinchGesture@@UEAAPEAXPEBD@Z
       5123 1402 000F5410 ?qt_metacast@QPixmapBlurFilter@@UEAAPEAXPEBD@Z
       5124 1403 000F5480 ?qt_metacast@QPixmapColorizeFilter@@UEAAPEAXPEBD@Z
       5125 1404 000F54F0 ?qt_metacast@QPixmapConvolutionFilter@@UEAAPEAXPEBD@Z
       5126 1405 000F5560 ?qt_metacast@QPixmapDropShadowFilter@@UEAAPEAXPEBD@Z
       5127 1406 000F55D0 ?qt_metacast@QPixmapFilter@@UEAAPEAXPEBD@Z
       5128 1407 000A0580 ?qt_metacast@QPixmapStyle@@UEAAPEAXPEBD@Z
       5129 1408 00202FF0 ?qt_metacast@QPlainTextDocumentLayout@@UEAAPEAXPEBD@Z
       5130 1409 00203050 ?qt_metacast@QPlainTextEdit@@UEAAPEAXPEBD@Z
       5131 140A 001CFE00 ?qt_metacast@QProgressBar@@UEAAPEAXPEBD@Z
       5132 140B 0027ABB0 ?qt_metacast@QProgressDialog@@UEAAPEAXPEBD@Z
       5133 140C 00102D70 ?qt_metacast@QProgressStyleAnimation@@UEAAPEAXPEBD@Z
       5134 140D 000A27B0 ?qt_metacast@QProxyStyle@@UEAAPEAXPEBD@Z
       5135 140E 001D2190 ?qt_metacast@QPushButton@@UEAAPEAXPEBD@Z
       5136 140F 001D31C0 ?qt_metacast@QRadioButton@@UEAAPEAXPEBD@Z
       5137 1410 00002850 ?qt_metacast@QRhiWidget@@UEAAPEAXPEBD@Z
       5138 1411 001D84B0 ?qt_metacast@QRubberBand@@UEAAPEAXPEBD@Z
       5139 1412 001D90F0 ?qt_metacast@QScrollArea@@UEAAPEAXPEBD@Z
       5140 1413 001DBB20 ?qt_metacast@QScrollBar@@UEAAPEAXPEBD@Z
       5141 1414 00102DE0 ?qt_metacast@QScrollbarStyleAnimation@@UEAAPEAXPEBD@Z
       5142 1415 003DC0D0 ?qt_metacast@QScroller@@UEAAPEAXPEBD@Z
       5143 1416 001DCEB0 ?qt_metacast@QSizeGrip@@UEAAPEAXPEBD@Z
       5144 1417 001DE440 ?qt_metacast@QSlider@@UEAAPEAXPEBD@Z
       5145 1418 001E61F0 ?qt_metacast@QSpinBox@@UEAAPEAXPEBD@Z
       5146 1419 001E8CE0 ?qt_metacast@QSplashScreen@@UEAAPEAXPEBD@Z
       5147 141A 001EC900 ?qt_metacast@QSplitter@@UEAAPEAXPEBD@Z
       5148 141B 001EC960 ?qt_metacast@QSplitterHandle@@UEAAPEAXPEBD@Z
       5149 141C 00045BD0 ?qt_metacast@QStackedLayout@@UEAAPEAXPEBD@Z
       5150 141D 001EEDD0 ?qt_metacast@QStackedWidget@@UEAAPEAXPEBD@Z
       5151 141E 001F0100 ?qt_metacast@QStatusBar@@UEAAPEAXPEBD@Z
       5152 141F 000A49F0 ?qt_metacast@QStyle@@UEAAPEAXPEBD@Z
       5153 1420 00102E60 ?qt_metacast@QStyleAnimation@@UEAAPEAXPEBD@Z
       5154 1421 000AB1E0 ?qt_metacast@QStylePlugin@@UEAAPEAXPEBD@Z
       5155 1422 002DD820 ?qt_metacast@QStyledItemDelegate@@UEAAPEAXPEBD@Z
       5156 1423 00021770 ?qt_metacast@QSwipeGesture@@UEAAPEAXPEBD@Z
       5157 1424 000E72E0 ?qt_metacast@QSystemTrayIcon@@UEAAPEAXPEBD@Z
       5158 1425 001F7B10 ?qt_metacast@QTabBar@@UEAAPEAXPEBD@Z
       5159 1426 002119D0 ?qt_metacast@QTabWidget@@UEAAPEAXPEBD@Z
       5160 1427 0030D500 ?qt_metacast@QTableView@@UEAAPEAXPEBD@Z
       5161 1428 0031D5F0 ?qt_metacast@QTableWidget@@UEAAPEAXPEBD@Z
       5162 1429 000217E0 ?qt_metacast@QTapAndHoldGesture@@UEAAPEAXPEBD@Z
       5163 142A 00021850 ?qt_metacast@QTapGesture@@UEAAPEAXPEBD@Z
       5164 142B 0020E820 ?qt_metacast@QTextBrowser@@UEAAPEAXPEBD@Z
       5165 142C 00209A30 ?qt_metacast@QTextEdit@@UEAAPEAXPEBD@Z
       5166 142D 00148ED0 ?qt_metacast@QTimeEdit@@UEAAPEAXPEBD@Z
       5167 142E 00215300 ?qt_metacast@QToolBar@@UEAAPEAXPEBD@Z
       5168 142F 00221FF0 ?qt_metacast@QToolBox@@UEAAPEAXPEBD@Z
       5169 1430 00225200 ?qt_metacast@QToolButton@@UEAAPEAXPEBD@Z
       5170 1431 0032FB20 ?qt_metacast@QTreeView@@UEAAPEAXPEBD@Z
       5171 1432 00342AC0 ?qt_metacast@QTreeWidget@@UEAAPEAXPEBD@Z
       5172 1433 003E25F0 ?qt_metacast@QUndoView@@UEAAPEAXPEBD@Z
       5173 1434 0001C760 ?qt_metacast@QVBoxLayout@@UEAAPEAXPEBD@Z
       5174 1435 0005F790 ?qt_metacast@QWidget@@UEAAPEAXPEBD@Z
       5175 1436 000F6240 ?qt_metacast@QWidgetAction@@UEAAPEAXPEBD@Z
       5176 1437 0018A230 ?qt_metacast@QWidgetLineControl@@UEAAPEAXPEBD@Z
       5177 1438 00234260 ?qt_metacast@QWidgetTextControl@@UEAAPEAXPEBD@Z
       5178 1439 0007DB80 ?qt_metacast@QWindowContainer@@UEAAPEAXPEBD@Z
       5179 143A 0010A720 ?qt_metacast@QWindowsStyle@@UEAAPEAXPEBD@Z
       5180 143B 00283F20 ?qt_metacast@QWizard@@UEAAPEAXPEBD@Z
       5181 143C 00283F80 ?qt_metacast@QWizardPage@@UEAAPEAXPEBD@Z
       5182 143D 001DBB80 ?qt_qscrollbarStyleOption@@YA?AVQStyleOptionSlider@@PEAVQScrollBar@@@Z
       5183 143E 001DBB80 ?qt_qsliderStyleOption@@YA?AVQStyleOptionSlider@@PEAVQSlider@@@Z
       5184 143F 0005FB30 ?qt_qwidget_data@@YAPEAVQWidgetData@@PEAVQWidget@@@Z
       5185 1440 0011B850 ?qt_static_metacall@QAbstractButton@@CAXPEAVQObject@@W4Call@QMetaObject@@HPEAPEAX@Z
       5186 1441 002A8630 ?qt_static_metacall@QAbstractItemDelegate@@CAXPEAVQObject@@W4Call@QMetaObject@@HPEAPEAX@Z
       5187 1442 002A9E00 ?qt_static_metacall@QAbstractItemView@@CAXPEAVQObject@@W4Call@QMetaObject@@HPEAPEAX@Z
       5188 1443 000E7A20 ?qt_static_metacall@QAbstractScrollArea@@CAXPEAVQObject@@W4Call@QMetaObject@@HPEAPEAX@Z
       5189 1444 00120000 ?qt_static_metacall@QAbstractSlider@@CAXPEAVQObject@@W4Call@QMetaObject@@HPEAPEAX@Z
       5190 1445 001DEBA0 ?qt_static_metacall@QAbstractSpinBox@@CAXPEAVQObject@@W4Call@QMetaObject@@HPEAPEAX@Z
       5191 1446 000034A0 ?qt_static_metacall@QApplication@@CAXPEAVQObject@@W4Call@QMetaObject@@HPEAPEAX@Z
       5192 1447 00009A60 ?qt_static_metacall@QBlendStyleAnimation@@CAXPEAVQObject@@W4Call@QMetaObject@@HPEAPEAX@Z
       5193 1448 00009A60 ?qt_static_metacall@QBoxLayout@@CAXPEAVQObject@@W4Call@QMetaObject@@HPEAPEAX@Z
       5194 1449 00121CB0 ?qt_static_metacall@QButtonGroup@@CAXPEAVQObject@@W4Call@QMetaObject@@HPEAPEAX@Z
       5195 144A 001236A0 ?qt_static_metacall@QCalendarWidget@@CAXPEAVQObject@@W4Call@QMetaObject@@HPEAPEAX@Z
       5196 144B 0012EA30 ?qt_static_metacall@QCheckBox@@CAXPEAVQObject@@W4Call@QMetaObject@@HPEAPEAX@Z
       5197 144C 00238370 ?qt_static_metacall@QColorDialog@@CAXPEAVQObject@@W4Call@QMetaObject@@HPEAPEAX@Z
       5198 144D 002DDE50 ?qt_static_metacall@QColumnView@@CAXPEAVQObject@@W4Call@QMetaObject@@HPEAPEAX@Z
       5199 144E 0012FCB0 ?qt_static_metacall@QComboBox@@CAXPEAVQObject@@W4Call@QMetaObject@@HPEAPEAX@Z
       5200 144F 00130840 ?qt_static_metacall@QComboBoxPrivateContainer@@CAXPEAVQObject@@W4Call@QMetaObject@@HPEAPEAX@Z
       5201 1450 00141EF0 ?qt_static_metacall@QCommandLinkButton@@CAXPEAVQObject@@W4Call@QMetaObject@@HPEAPEAX@Z
       5202 1451 00009A60 ?qt_static_metacall@QCommonStyle@@CAXPEAVQObject@@W4Call@QMetaObject@@HPEAPEAX@Z
       5203 1452 003CA3A0 ?qt_static_metacall@QCompleter@@CAXPEAVQObject@@W4Call@QMetaObject@@HPEAPEAX@Z
       5204 1453 002E50F0 ?qt_static_metacall@QDataWidgetMapper@@CAXPEAVQObject@@W4Call@QMetaObject@@HPEAPEAX@Z
       5205 1454 001448B0 ?qt_static_metacall@QDateEdit@@CAXPEAVQObject@@W4Call@QMetaObject@@HPEAPEAX@Z
       5206 1455 00144220 ?qt_static_metacall@QDateTimeEdit@@CAXPEAVQObject@@W4Call@QMetaObject@@HPEAPEAX@Z
       5207 1456 0014D000 ?qt_static_metacall@QDial@@CAXPEAVQObject@@W4Call@QMetaObject@@HPEAPEAX@Z
       5208 1457 00241AA0 ?qt_static_metacall@QDialog@@CAXPEAVQObject@@W4Call@QMetaObject@@HPEAPEAX@Z
       5209 1458 001D4910 ?qt_static_metacall@QDialogButtonBox@@CAXPEAVQObject@@W4Call@QMetaObject@@HPEAPEAX@Z
       5210 1459 00160F00 ?qt_static_metacall@QDockWidget@@CAXPEAVQObject@@W4Call@QMetaObject@@HPEAPEAX@Z
       5211 145A 00009A60 ?qt_static_metacall@QDockWidgetLayout@@CAXPEAVQObject@@W4Call@QMetaObject@@HPEAPEAX@Z
       5212 145B 001E50E0 ?qt_static_metacall@QDoubleSpinBox@@CAXPEAVQObject@@W4Call@QMetaObject@@HPEAPEAX@Z
       5213 145C 002446A0 ?qt_static_metacall@QErrorMessage@@CAXPEAVQObject@@W4Call@QMetaObject@@HPEAPEAX@Z
       5214 145D 00247640 ?qt_static_metacall@QFileDialog@@CAXPEAVQObject@@W4Call@QMetaObject@@HPEAPEAX@Z
       5215 145E 00009A60 ?qt_static_metacall@QFlickGesture@@CAXPEAVQObject@@W4Call@QMetaObject@@HPEAPEAX@Z
       5216 145F 00009A60 ?qt_static_metacall@QFocusFrame@@CAXPEAVQObject@@W4Call@QMetaObject@@HPEAPEAX@Z
       5217 1460 001684E0 ?qt_static_metacall@QFontComboBox@@CAXPEAVQObject@@W4Call@QMetaObject@@HPEAPEAX@Z
       5218 1461 00268F70 ?qt_static_metacall@QFontDialog@@CAXPEAVQObject@@W4Call@QMetaObject@@HPEAPEAX@Z
       5219 1462 000F67B0 ?qt_static_metacall@QFormLayout@@CAXPEAVQObject@@W4Call@QMetaObject@@HPEAPEAX@Z
       5220 1463 000ECB40 ?qt_static_metacall@QFrame@@CAXPEAVQObject@@W4Call@QMetaObject@@HPEAPEAX@Z
       5221 1464 00009A60 ?qt_static_metacall@QFusionStyle@@CAXPEAVQObject@@W4Call@QMetaObject@@HPEAPEAX@Z
       5222 1465 0001E260 ?qt_static_metacall@QGesture@@CAXPEAVQObject@@W4Call@QMetaObject@@HPEAPEAX@Z
       5223 1466 00349480 ?qt_static_metacall@QGraphicsAnchor@@CAXPEAVQObject@@W4Call@QMetaObject@@HPEAPEAX@Z
       5224 1467 000EF530 ?qt_static_metacall@QGraphicsBlurEffect@@CAXPEAVQObject@@W4Call@QMetaObject@@HPEAPEAX@Z
       5225 1468 000EF340 ?qt_static_metacall@QGraphicsColorizeEffect@@CAXPEAVQObject@@W4Call@QMetaObject@@HPEAPEAX@Z
       5226 1469 000EF6C0 ?qt_static_metacall@QGraphicsDropShadowEffect@@CAXPEAVQObject@@W4Call@QMetaObject@@HPEAPEAX@Z
       5227 146A 000EF100 ?qt_static_metacall@QGraphicsEffect@@CAXPEAVQObject@@W4Call@QMetaObject@@HPEAPEAX@Z
       5228 146B 00009A60 ?qt_static_metacall@QGraphicsEffectSource@@CAXPEAVQObject@@W4Call@QMetaObject@@HPEAPEAX@Z
       5229 146C 003C6FD0 ?qt_static_metacall@QGraphicsItemAnimation@@CAXPEAVQObject@@W4Call@QMetaObject@@HPEAPEAX@Z
       5230 146D 0035F450 ?qt_static_metacall@QGraphicsObject@@CAXPEAVQObject@@W4Call@QMetaObject@@HPEAPEAX@Z
       5231 146E 000EFA80 ?qt_static_metacall@QGraphicsOpacityEffect@@CAXPEAVQObject@@W4Call@QMetaObject@@HPEAPEAX@Z
       5232 146F 0037F8C0 ?qt_static_metacall@QGraphicsProxyWidget@@CAXPEAVQObject@@W4Call@QMetaObject@@HPEAPEAX@Z
       5233 1470 003ACBE0 ?qt_static_metacall@QGraphicsRotation@@CAXPEAVQObject@@W4Call@QMetaObject@@HPEAPEAX@Z
       5234 1471 003ACA20 ?qt_static_metacall@QGraphicsScale@@CAXPEAVQObject@@W4Call@QMetaObject@@HPEAPEAX@Z
       5235 1472 00385210 ?qt_static_metacall@QGraphicsScene@@CAXPEAVQObject@@W4Call@QMetaObject@@HPEAPEAX@Z
       5236 1473 0035FC10 ?qt_static_metacall@QGraphicsTextItem@@CAXPEAVQObject@@W4Call@QMetaObject@@HPEAPEAX@Z
       5237 1474 003AC9E0 ?qt_static_metacall@QGraphicsTransform@@CAXPEAVQObject@@W4Call@QMetaObject@@HPEAPEAX@Z
       5238 1475 003ADEB0 ?qt_static_metacall@QGraphicsView@@CAXPEAVQObject@@W4Call@QMetaObject@@HPEAPEAX@Z
       5239 1476 003BC7F0 ?qt_static_metacall@QGraphicsWidget@@CAXPEAVQObject@@W4Call@QMetaObject@@HPEAPEAX@Z
       5240 1477 00009A60 ?qt_static_metacall@QGridLayout@@CAXPEAVQObject@@W4Call@QMetaObject@@HPEAPEAX@Z
       5241 1478 0016CA50 ?qt_static_metacall@QGroupBox@@CAXPEAVQObject@@W4Call@QMetaObject@@HPEAPEAX@Z
       5242 1479 00009A60 ?qt_static_metacall@QHBoxLayout@@CAXPEAVQObject@@W4Call@QMetaObject@@HPEAPEAX@Z
       5243 147A 002C1670 ?qt_static_metacall@QHeaderView@@CAXPEAVQObject@@W4Call@QMetaObject@@HPEAPEAX@Z
       5244 147B 0026E040 ?qt_static_metacall@QInputDialog@@CAXPEAVQObject@@W4Call@QMetaObject@@HPEAPEAX@Z
       5245 147C 002D4BC0 ?qt_static_metacall@QItemDelegate@@CAXPEAVQObject@@W4Call@QMetaObject@@HPEAPEAX@Z
       5246 147D 0016ECB0 ?qt_static_metacall@QKeySequenceEdit@@CAXPEAVQObject@@W4Call@QMetaObject@@HPEAPEAX@Z
       5247 147E 001761F0 ?qt_static_metacall@QLCDNumber@@CAXPEAVQObject@@W4Call@QMetaObject@@HPEAPEAX@Z
       5248 147F 001715D0 ?qt_static_metacall@QLabel@@CAXPEAVQObject@@W4Call@QMetaObject@@HPEAPEAX@Z
       5249 1480 0003C220 ?qt_static_metacall@QLayout@@CAXPEAVQObject@@W4Call@QMetaObject@@HPEAPEAX@Z
       5250 1481 00179A80 ?qt_static_metacall@QLineEdit@@CAXPEAVQObject@@W4Call@QMetaObject@@HPEAPEAX@Z
       5251 1482 002E81E0 ?qt_static_metacall@QListView@@CAXPEAVQObject@@W4Call@QMetaObject@@HPEAPEAX@Z
       5252 1483 002FB930 ?qt_static_metacall@QListWidget@@CAXPEAVQObject@@W4Call@QMetaObject@@HPEAPEAX@Z
       5253 1484 0018BA90 ?qt_static_metacall@QMainWindow@@CAXPEAVQObject@@W4Call@QMetaObject@@HPEAPEAX@Z
       5254 1485 0019F0E0 ?qt_static_metacall@QMdiArea@@CAXPEAVQObject@@W4Call@QMetaObject@@HPEAPEAX@Z
       5255 1486 001AB980 ?qt_static_metacall@QMdiSubWindow@@CAXPEAVQObject@@W4Call@QMetaObject@@HPEAPEAX@Z
       5256 1487 001B9150 ?qt_static_metacall@QMenu@@CAXPEAVQObject@@W4Call@QMetaObject@@HPEAPEAX@Z
       5257 1488 001C8420 ?qt_static_metacall@QMenuBar@@CAXPEAVQObject@@W4Call@QMetaObject@@HPEAPEAX@Z
       5258 1489 00272500 ?qt_static_metacall@QMessageBox@@CAXPEAVQObject@@W4Call@QMetaObject@@HPEAPEAX@Z
       5259 148A 00009A60 ?qt_static_metacall@QNumberStyleAnimation@@CAXPEAVQObject@@W4Call@QMetaObject@@HPEAPEAX@Z
       5260 148B 0001E3C0 ?qt_static_metacall@QPanGesture@@CAXPEAVQObject@@W4Call@QMetaObject@@HPEAPEAX@Z
       5261 148C 0001E540 ?qt_static_metacall@QPinchGesture@@CAXPEAVQObject@@W4Call@QMetaObject@@HPEAPEAX@Z
       5262 148D 00009A60 ?qt_static_metacall@QPixmapBlurFilter@@CAXPEAVQObject@@W4Call@QMetaObject@@HPEAPEAX@Z
       5263 148E 00009A60 ?qt_static_metacall@QPixmapColorizeFilter@@CAXPEAVQObject@@W4Call@QMetaObject@@HPEAPEAX@Z
       5264 148F 00009A60 ?qt_static_metacall@QPixmapConvolutionFilter@@CAXPEAVQObject@@W4Call@QMetaObject@@HPEAPEAX@Z
       5265 1490 00009A60 ?qt_static_metacall@QPixmapDropShadowFilter@@CAXPEAVQObject@@W4Call@QMetaObject@@HPEAPEAX@Z
       5266 1491 00009A60 ?qt_static_metacall@QPixmapFilter@@CAXPEAVQObject@@W4Call@QMetaObject@@HPEAPEAX@Z
       5267 1492 00009A60 ?qt_static_metacall@QPixmapStyle@@CAXPEAVQObject@@W4Call@QMetaObject@@HPEAPEAX@Z
       5268 1493 001FBD80 ?qt_static_metacall@QPlainTextDocumentLayout@@CAXPEAVQObject@@W4Call@QMetaObject@@HPEAPEAX@Z
       5269 1494 001FB4E0 ?qt_static_metacall@QPlainTextEdit@@CAXPEAVQObject@@W4Call@QMetaObject@@HPEAPEAX@Z
       5270 1495 001CEFA0 ?qt_static_metacall@QProgressBar@@CAXPEAVQObject@@W4Call@QMetaObject@@HPEAPEAX@Z
       5271 1496 002798F0 ?qt_static_metacall@QProgressDialog@@CAXPEAVQObject@@W4Call@QMetaObject@@HPEAPEAX@Z
       5272 1497 00009A60 ?qt_static_metacall@QProgressStyleAnimation@@CAXPEAVQObject@@W4Call@QMetaObject@@HPEAPEAX@Z
       5273 1498 00009A60 ?qt_static_metacall@QProxyStyle@@CAXPEAVQObject@@W4Call@QMetaObject@@HPEAPEAX@Z
       5274 1499 001D09A0 ?qt_static_metacall@QPushButton@@CAXPEAVQObject@@W4Call@QMetaObject@@HPEAPEAX@Z
       5275 149A 00009A60 ?qt_static_metacall@QRadioButton@@CAXPEAVQObject@@W4Call@QMetaObject@@HPEAPEAX@Z
       5276 149B 00001FA0 ?qt_static_metacall@QRhiWidget@@CAXPEAVQObject@@W4Call@QMetaObject@@HPEAPEAX@Z
       5277 149C 00009A60 ?qt_static_metacall@QRubberBand@@CAXPEAVQObject@@W4Call@QMetaObject@@HPEAPEAX@Z
       5278 149D 001D8540 ?qt_static_metacall@QScrollArea@@CAXPEAVQObject@@W4Call@QMetaObject@@HPEAPEAX@Z
       5279 149E 00009A60 ?qt_static_metacall@QScrollBar@@CAXPEAVQObject@@W4Call@QMetaObject@@HPEAPEAX@Z
       5280 149F 00101AC0 ?qt_static_metacall@QScrollbarStyleAnimation@@CAXPEAVQObject@@W4Call@QMetaObject@@HPEAPEAX@Z
       5281 14A0 003D6390 ?qt_static_metacall@QScroller@@CAXPEAVQObject@@W4Call@QMetaObject@@HPEAPEAX@Z
       5282 14A1 001DC010 ?qt_static_metacall@QSizeGrip@@CAXPEAVQObject@@W4Call@QMetaObject@@HPEAPEAX@Z
       5283 14A2 001DD120 ?qt_static_metacall@QSlider@@CAXPEAVQObject@@W4Call@QMetaObject@@HPEAPEAX@Z
       5284 14A3 001E4D40 ?qt_static_metacall@QSpinBox@@CAXPEAVQObject@@W4Call@QMetaObject@@HPEAPEAX@Z
       5285 14A4 001E8100 ?qt_static_metacall@QSplashScreen@@CAXPEAVQObject@@W4Call@QMetaObject@@HPEAPEAX@Z
       5286 14A5 001E9000 ?qt_static_metacall@QSplitter@@CAXPEAVQObject@@W4Call@QMetaObject@@HPEAPEAX@Z
       5287 14A6 00009A60 ?qt_static_metacall@QSplitterHandle@@CAXPEAVQObject@@W4Call@QMetaObject@@HPEAPEAX@Z
       5288 14A7 00044E10 ?qt_static_metacall@QStackedLayout@@CAXPEAVQObject@@W4Call@QMetaObject@@HPEAPEAX@Z
       5289 14A8 001EE6C0 ?qt_static_metacall@QStackedWidget@@CAXPEAVQObject@@W4Call@QMetaObject@@HPEAPEAX@Z
       5290 14A9 001EEF60 ?qt_static_metacall@QStatusBar@@CAXPEAVQObject@@W4Call@QMetaObject@@HPEAPEAX@Z
       5291 14AA 00009A60 ?qt_static_metacall@QStyle@@CAXPEAVQObject@@W4Call@QMetaObject@@HPEAPEAX@Z
       5292 14AB 00101AA0 ?qt_static_metacall@QStyleAnimation@@CAXPEAVQObject@@W4Call@QMetaObject@@HPEAPEAX@Z
       5293 14AC 00009A60 ?qt_static_metacall@QStylePlugin@@CAXPEAVQObject@@W4Call@QMetaObject@@HPEAPEAX@Z
       5294 14AD 00009A60 ?qt_static_metacall@QStyledItemDelegate@@CAXPEAVQObject@@W4Call@QMetaObject@@HPEAPEAX@Z
       5295 14AE 0001E840 ?qt_static_metacall@QSwipeGesture@@CAXPEAVQObject@@W4Call@QMetaObject@@HPEAPEAX@Z
       5296 14AF 000E64A0 ?qt_static_metacall@QSystemTrayIcon@@CAXPEAVQObject@@W4Call@QMetaObject@@HPEAPEAX@Z
       5297 14B0 001F0A70 ?qt_static_metacall@QTabBar@@CAXPEAVQObject@@W4Call@QMetaObject@@HPEAPEAX@Z
       5298 14B1 0020FBF0 ?qt_static_metacall@QTabWidget@@CAXPEAVQObject@@W4Call@QMetaObject@@HPEAPEAX@Z
       5299 14B2 00305420 ?qt_static_metacall@QTableView@@CAXPEAVQObject@@W4Call@QMetaObject@@HPEAPEAX@Z
       5300 14B3 00316890 ?qt_static_metacall@QTableWidget@@CAXPEAVQObject@@W4Call@QMetaObject@@HPEAPEAX@Z
       5301 14B4 0001E950 ?qt_static_metacall@QTapAndHoldGesture@@CAXPEAVQObject@@W4Call@QMetaObject@@HPEAPEAX@Z
       5302 14B5 0001E950 ?qt_static_metacall@QTapGesture@@CAXPEAVQObject@@W4Call@QMetaObject@@HPEAPEAX@Z
       5303 14B6 0020B8C0 ?qt_static_metacall@QTextBrowser@@CAXPEAVQObject@@W4Call@QMetaObject@@HPEAPEAX@Z
       5304 14B7 00204FE0 ?qt_static_metacall@QTextEdit@@CAXPEAVQObject@@W4Call@QMetaObject@@HPEAPEAX@Z
       5305 14B8 001447E0 ?qt_static_metacall@QTimeEdit@@CAXPEAVQObject@@W4Call@QMetaObject@@HPEAPEAX@Z
       5306 14B9 00212C60 ?qt_static_metacall@QToolBar@@CAXPEAVQObject@@W4Call@QMetaObject@@HPEAPEAX@Z
       5307 14BA 00220810 ?qt_static_metacall@QToolBox@@CAXPEAVQObject@@W4Call@QMetaObject@@HPEAPEAX@Z
       5308 14BB 00222C40 ?qt_static_metacall@QToolButton@@CAXPEAVQObject@@W4Call@QMetaObject@@HPEAPEAX@Z
       5309 14BC 00321CB0 ?qt_static_metacall@QTreeView@@CAXPEAVQObject@@W4Call@QMetaObject@@HPEAPEAX@Z
       5310 14BD 00337C30 ?qt_static_metacall@QTreeWidget@@CAXPEAVQObject@@W4Call@QMetaObject@@HPEAPEAX@Z
       5311 14BE 003E1970 ?qt_static_metacall@QUndoView@@CAXPEAVQObject@@W4Call@QMetaObject@@HPEAPEAX@Z
       5312 14BF 00009A60 ?qt_static_metacall@QVBoxLayout@@CAXPEAVQObject@@W4Call@QMetaObject@@HPEAPEAX@Z
       5313 14C0 00049710 ?qt_static_metacall@QWidget@@CAXPEAVQObject@@W4Call@QMetaObject@@HPEAPEAX@Z
       5314 14C1 00009A60 ?qt_static_metacall@QWidgetAction@@CAXPEAVQObject@@W4Call@QMetaObject@@HPEAPEAX@Z
       5315 14C2 001838B0 ?qt_static_metacall@QWidgetLineControl@@CAXPEAVQObject@@W4Call@QMetaObject@@HPEAPEAX@Z
       5316 14C3 00225E10 ?qt_static_metacall@QWidgetTextControl@@CAXPEAVQObject@@W4Call@QMetaObject@@HPEAPEAX@Z
       5317 14C4 00009A60 ?qt_static_metacall@QWindowContainer@@CAXPEAVQObject@@W4Call@QMetaObject@@HPEAPEAX@Z
       5318 14C5 00009A60 ?qt_static_metacall@QWindowsStyle@@CAXPEAVQObject@@W4Call@QMetaObject@@HPEAPEAX@Z
       5319 14C6 0027B8B0 ?qt_static_metacall@QWizard@@CAXPEAVQObject@@W4Call@QMetaObject@@HPEAPEAX@Z
       5320 14C7 0027BC70 ?qt_static_metacall@QWizardPage@@CAXPEAVQObject@@W4Call@QMetaObject@@HPEAPEAX@Z
       5321 14C8 00013C00 ?qt_tab_all_widgets@@YA_NXZ
       5322 14C9 00013C20 ?qt_tryModalHelper@@YA_NPEAVQWidget@@PEAPEAV1@@Z
       5323 14CA 000016B0 ?qt_widget_private@@YAPEAVQWidgetPrivate@@PEAVQWidget@@@Z
       5324 14CB 00277060 ?question@QMessageBox@@SA?AW4StandardButton@1@PEAVQWidget@@AEBVQString@@1V?$QFlags@W4StandardButton@QMessageBox@@@@W421@@Z
       5325 14CC 00277090 ?question@QMessageBox@@SAHPEAVQWidget@@AEBVQString@@1111HH@Z
       5326 14CD 002770E0 ?question@QMessageBox@@SAHPEAVQWidget@@AEBVQString@@1HHH@Z
       5327 14CE 00013E10 ?question@QMessageBox@@SAHPEAVQWidget@@AEBVQString@@1W4StandardButton@1@2@Z
       5328 14CF 000F5630 ?radius@QPixmapBlurFilter@@QEBANXZ
       5329 14D0 0005FDB0 ?raise@QWidget@@QEAAXXZ
       5330 14D1 0005FF50 ?raise_sys@QWidgetPrivate@@QEAAXXZ
       5331 14D2 00120DB0 ?rangeChanged@QAbstractSlider@@QEAAXHH@Z
       5332 14D3 00301C80 ?read@QListWidgetItem@@UEAAXAEAVQDataStream@@@Z
       5333 14D4 0031D650 ?read@QTableWidgetItem@@UEAAXAEAVQDataStream@@@Z
       5334 14D5 00342B20 ?read@QTreeWidgetItem@@UEAAXAEAVQDataStream@@@Z
       5335 14D6 003AA410 ?reason@QGraphicsSceneContextMenuEvent@@QEBA?AW4Reason@1@XZ
       5336 14D7 003B7600 ?recalculateContentSize@QGraphicsViewPrivate@@QEAAXXZ
       5337 14D8 002927A0 ?rect@QAccessibleWidget@@UEBA?AVQRect@@XZ
       5338 14D9 00371650 ?rect@QGraphicsEllipseItem@@QEBA?AVQRectF@@XZ
       5339 14DA 00371650 ?rect@QGraphicsRectItem@@QEBA?AVQRectF@@XZ
       5340 14DB 00014210 ?rect@QGraphicsWidget@@QEBA?AVQRectF@@XZ
       5341 14DC 002D8000 ?rect@QItemDelegate@@IEBA?AVQRect@@AEBVQStyleOptionViewItem@@AEBVQModelIndex@@H@Z
       5342 14DD 00001970 ?rect@QWidget@@QEBA?AVQRect@@XZ
       5343 14DE 002F5D00 ?rectForIndex@QListView@@IEBA?AVQRect@@AEBVQModelIndex@@@Z
       5344 14DF 0018A550 ?rectForPos@QWidgetLineControl@@QEBA?AVQRect@@H@Z
       5345 14E0 000600A0 ?redirected@QWidget@@MEBAPEAVQPaintDevice@@PEAVQPoint@@@Z
       5346 14E1 00014250 ?redirected@QWidgetPrivate@@QEBAPEAVQPaintDevice@@PEAVQPoint@@@Z
       5347 14E2 0017F380 ?redo@QLineEdit@@QEAAXXZ
       5348 14E3 00203110 ?redo@QPlainTextEdit@@QEAAXXZ
       5349 14E4 00209A90 ?redo@QTextEdit@@QEAAXXZ
       5350 14E5 0013BC20 ?redo@QWidgetLineControl@@QEAAXXZ
       5351 14E6 00234A70 ?redo@QWidgetTextControl@@QEAAXXZ
       5352 14E7 00203120 ?redoAvailable@QPlainTextEdit@@QEAAX_N@Z
       5353 14E8 00209AA0 ?redoAvailable@QTextEdit@@QEAAX_N@Z
       5354 14E9 00234B40 ?redoAvailable@QWidgetTextControl@@QEAAX_N@Z
       5355 14EA 0018A620 ?redoTextLayout@QWidgetLineControl@@AEBAHXZ
       5356 14EB 00009A60 ?reexpand@QTreeView@@IEAAXXZ
       5357 14EC 001F0160 ?reformat@QStatusBar@@IEAAXXZ
       5358 14ED 001ECD00 ?refresh@QSplitter@@QEAAXXZ
       5359 14EE 001F7B70 ?refresh@QTabBarPrivate@@QEAAXXZ
       5360 14EF 002DBA00 ?registerEditor@QItemEditorFactory@@QEAAXHPEAVQItemEditorCreatorBase@@@Z
       5361 14F0 00285510 ?registerField@QWizardPage@@IEAAXAEBVQString@@PEAVQWidget@@PEBD2@Z
       5362 14F1 00037910 ?registerRecognizer@QGestureRecognizer@@SA?AW4GestureType@Qt@@PEAV1@@Z
       5363 14F2 002436E0 ?reject@QDialog@@UEAAXXZ
       5364 14F3 00243700 ?rejected@QDialog@@QEAAXXZ
       5365 14F4 001D7420 ?rejected@QDialogButtonBox@@QEAAXXZ
       5366 14F5 00292860 ?relations@QAccessibleWidget@@UEBA?AV?$QList@U?$pair@PEAVQAccessibleInterface@@V?$QFlags@W4RelationFlag@QAccessible@@@@@std@@@@V?$QFlags@W4RelationFlag@QAccessible@@@@@Z
       5367 14F6 000490D0 ?release@QTouchEventWidgetSequence@QTest@@QEAAAEAV12@HAEBVQPoint@@PEAVQWidget@@@Z
       5368 14F7 00060400 ?releaseKeyboard@QWidget@@QEAAXXZ
       5369 14F8 000604A0 ?releaseMouse@QWidget@@QEAAXXZ
       5370 14F9 00009A60 ?releaseResources@QRhiWidget@@MEAAXXZ
       5371 14FA 00060570 ?releaseShortcut@QGraphicsWidget@@QEAAXH@Z
       5372 14FB 00060570 ?releaseShortcut@QWidget@@QEAAXH@Z
       5373 14FC 000F62A0 ?releaseWidget@QWidgetAction@@QEAAXPEAVQWidget@@@Z
       5374 14FD 0011F620 ?released@QAbstractButton@@QEAAXXZ
       5375 14FE 0020EBA0 ?reload@QTextBrowser@@UEAAXXZ
       5376 14FF 00371E80 ?remapItemPos@QGraphicsItemPrivate@@QEAAXPEAVQEvent@@PEAVQGraphicsItem@@@Z
       5377 1500 003BF720 ?removeAction@QGraphicsWidget@@QEAAXPEAVQAction@@@Z
       5378 1501 000607C0 ?removeAction@QWidget@@QEAAXPEAVQAction@@@Z
       5379 1502 0008F360 ?removeAnimation@QCommonStylePrivate@@QEBAXPEBVQObject@@@Z
       5380 1503 00349DA0 ?removeAt@QGraphicsAnchorLayout@@UEAAXH@Z
       5381 1504 0035E590 ?removeAt@QGraphicsGridLayout@@UEAAXH@Z
       5382 1505 0037EE80 ?removeAt@QGraphicsLinearLayout@@UEAAXH@Z
       5383 1506 00123270 ?removeButton@QButtonGroup@@QEAAXPEAVQAbstractButton@@@Z
       5384 1507 001D7580 ?removeButton@QDialogButtonBox@@QEAAXPEAVQAbstractButton@@@Z
       5385 1508 002771C0 ?removeButton@QMessageBox@@QEAAXPEAVQAbstractButton@@@Z
       5386 1509 0031D860 ?removeCellWidget@QTableWidget@@QEAAXHH@Z
       5387 150A 00372180 ?removeChild@QGraphicsItemPrivate@@QEAAXPEAVQGraphicsItem@@@Z
       5388 150B 003431D0 ?removeChild@QTreeWidgetItem@@QEAAXPEAV1@@Z
       5389 150C 0031D8E0 ?removeColumn@QTableWidget@@QEAAXH@Z
       5390 150D 00256940 ?removeDirectory@QFileDialogPrivate@@QEAA_NAEBVQString@@@Z
       5391 150E 000763F0 ?removeDirtyWidget@QWidgetRepaintManager@@QEAAXPEAVQWidget@@@Z
       5392 150F 0018E770 ?removeDockWidget@QMainWindow@@QEAAXPEAVQDockWidget@@@Z
       5393 1510 00372390 ?removeExtraItemCache@QGraphicsItemPrivate@@QEAAXXZ
       5394 1511 00060870 ?removeFromFocusChain@QWidgetPrivate@@QEAA_NV?$QFlags@W4FocusChainRemovalRule@QWidgetPrivate@@@@W4FocusDirection@1@@Z
       5395 1512 003724B0 ?removeFromGroup@QGraphicsItemGroup@@QEAAXPEAVQGraphicsItem@@@Z
       5396 1513 00372960 ?removeFromIndex@QGraphicsItem@@IEAAXXZ
       5397 1514 0013BC50 ?removeItem@QComboBox@@QEAAXH@Z
       5398 1515 0035E6E0 ?removeItem@QGraphicsGridLayout@@QEAAXPEAVQGraphicsLayoutItem@@@Z
       5399 1516 0037EF90 ?removeItem@QGraphicsLinearLayout@@QEAAXPEAVQGraphicsLayoutItem@@@Z
       5400 1517 0039CE00 ?removeItem@QGraphicsScene@@QEAAXPEAVQGraphicsItem@@@Z
       5401 1518 0003E820 ?removeItem@QLayout@@QEAAXPEAVQLayoutItem@@@Z
       5402 1519 002220B0 ?removeItem@QToolBox@@QEAAXH@Z
       5403 151A 00301F30 ?removeItemWidget@QListWidget@@QEAAXPEAVQListWidgetItem@@@Z
       5404 151B 00343220 ?removeItemWidget@QTreeWidget@@QEAAXPEAVQTreeWidgetItem@@H@Z
       5405 151C 002E6E40 ?removeMapping@QDataWidgetMapper@@QEAAXPEAVQWidget@@@Z
       5406 151D 00285D00 ?removePage@QWizard@@QEAAXH@Z
       5407 151E 000F9C50 ?removeRow@QFormLayout@@QEAAXH@Z
       5408 151F 000F9DB0 ?removeRow@QFormLayout@@QEAAXPEAVQLayout@@@Z
       5409 1520 000F9F10 ?removeRow@QFormLayout@@QEAAXPEAVQWidget@@@Z
       5410 1521 0031DEC0 ?removeRow@QTableWidget@@QEAAXH@Z
       5411 1522 003729A0 ?removeSceneEventFilter@QGraphicsItem@@QEAAXPEAV1@@Z
       5412 1523 0018A690 ?removeSelectedText@QWidgetLineControl@@AEAAXXZ
       5413 1524 0013BD10 ?removeSelection@QWidgetLineControl@@QEAAXXZ
       5414 1525 00076520 ?removeStaticWidget@QWidgetRepaintManager@@QEAAXPEAVQWidget@@@Z
       5415 1526 001A7A30 ?removeSubWindow@QMdiArea@@QEAAXPEAVQWidget@@@Z
       5416 1527 001F8050 ?removeTab@QTabBar@@QEAAXH@Z
       5417 1528 00211A30 ?removeTab@QTabWidget@@QEAAXH@Z
       5418 1529 0018E7D0 ?removeToolBar@QMainWindow@@QEAAXPEAVQToolBar@@@Z
       5419 152A 0018E830 ?removeToolBarBreak@QMainWindow@@QEAAXPEAVQToolBar@@@Z
       5420 152B 0032FE80 ?removeViewItems@QTreeViewPrivate@@QEAAXHH@Z
       5421 152C 0003E8B0 ?removeWidget@QLayout@@QEAAXPEAVQWidget@@@Z
       5422 152D 001EEE30 ?removeWidget@QStackedWidget@@QEAAXPEAVQWidget@@@Z
       5423 152E 001F0450 ?removeWidget@QStatusBar@@QEAAXPEAVQWidget@@@Z
       5424 152F 00256980 ?renameCurrent@QFileDialogPrivate@@QEAAXXZ
       5425 1530 0039E480 ?render@QGraphicsScene@@QEAAXPEAVQPainter@@AEBVQRectF@@1W4AspectRatioMode@Qt@@@Z
       5426 1531 003B7CF0 ?render@QGraphicsView@@QEAAXPEAVQPainter@@AEBVQRectF@@AEBVQRect@@W4AspectRatioMode@Qt@@@Z
       5427 1532 00009A60 ?render@QRhiWidget@@MEAAXPEAVQRhiCommandBuffer@@@Z
       5428 1533 00060BD0 ?render@QWidget@@QEAAXPEAVQPaintDevice@@AEBVQPoint@@AEBVQRegion@@V?$QFlags@W4RenderFlag@QWidget@@@@@Z
       5429 1534 00060C30 ?render@QWidget@@QEAAXPEAVQPainter@@AEBVQPoint@@AEBVQRegion@@V?$QFlags@W4RenderFlag@QWidget@@@@@Z
       5430 1535 00061070 ?render@QWidgetPrivate@@QEAAXPEAVQPaintDevice@@AEBVQPoint@@AEBVQRegion@@V?$QFlags@W4RenderFlag@QWidget@@@@@Z
       5431 1536 000028B0 ?renderFailed@QRhiWidget@@QEAAXXZ
       5432 1537 003B83F0 ?renderHints@QGraphicsView@@QEBA?AV?$QFlags@W4RenderHint@QPainter@@@@XZ
       5433 1538 00044160 ?renderTarget@QRhiWidget@@IEBAPEAVQRhiRenderTarget@@XZ
       5434 1539 0032FFD0 ?renderTreeToPixmapForAnimation@QTreeViewPrivate@@QEBA?AVQPixmap@@AEBVQRect@@@Z
       5435 153A 00061400 ?render_helper@QWidgetPrivate@@QEAAXPEAVQPainter@@AEBVQPoint@@AEBVQRegion@@V?$QFlags@W4RenderFlag@QWidget@@@@@Z
       5436 153B 001E8D40 ?repaint@QSplashScreen@@QEAAXXZ
       5437 153C 00061850 ?repaint@QWidget@@QEAAXAEBVQRect@@@Z
       5438 153D 00061930 ?repaint@QWidget@@QEAAXAEBVQRegion@@@Z
       5439 153E 00061A00 ?repaint@QWidget@@QEAAXHHHH@Z
       5440 153F 00061A80 ?repaint@QWidget@@QEAAXXZ
       5441 1540 0003EA90 ?reparentChildWidgets@QLayoutPrivate@@QEAAXPEAVQWidget@@@Z
       5442 1541 00061B70 ?reparentFocusChildren@QWidgetPrivate@@QEAAXW4FocusDirection@1@@Z
       5443 1542 00061D30 ?reparentFocusWidgets@QWidgetPrivate@@QEAAXPEAVQWidget@@@Z
       5444 1543 00061DB0 ?reparentWidgetWindowChildren@QWidgetPrivate@@QEAAXPEAVQWidget@@@Z
       5445 1544 00061E20 ?reparentWidgetWindows@QWidgetPrivate@@QEAAXPEAVQWidget@@V?$QFlags@W4WindowType@Qt@@@@@Z
       5446 1545 00120E10 ?repeatAction@QAbstractSlider@@IEBA?AW4SliderAction@1@XZ
       5447 1546 0001C9E0 ?replaceAt@QLayoutPrivate@@UEAAPEAVQLayoutItem@@HPEAV2@@Z
       5448 1547 0003EC30 ?replaceWidget@QLayout@@UEAAPEAVQLayoutItem@@PEAVQWidget@@0V?$QFlags@W4FindChildOption@Qt@@@@@Z
       5449 1548 001ECD10 ?replaceWidget@QSplitter@@QEAAPEAVQWidget@@HPEAV2@@Z
       5450 1549 003B8400 ?replayLastMouseEvent@QGraphicsViewPrivate@@QEAAXXZ
       5451 154A 005E1D60 ?replayMousePress@QApplicationPrivate@@2_NA
       5452 154B 00203550 ?requestUpdate@QPlainTextDocumentLayout@@QEAAXXZ
       5453 154C 000F6410 ?requestWidget@QWidgetAction@@QEAAPEAVQWidget@@PEAV2@@Z
       5454 154D 003DC870 ?resendPrepareEvent@QScroller@@QEAAXXZ
       5455 154E 002BA0A0 ?reset@QAbstractItemView@@UEAAXXZ
       5456 154F 00037930 ?reset@QGestureRecognizer@@UEAAXPEAVQGesture@@@Z
       5457 1550 002CC2A0 ?reset@QHeaderView@@UEAAXXZ
       5458 1551 002F6450 ?reset@QListView@@UEAAXXZ
       5459 1552 001D00A0 ?reset@QProgressBar@@QEAAXXZ
       5460 1553 0027AC10 ?reset@QProgressDialog@@QEAAXXZ
       5461 1554 00330490 ?reset@QTreeView@@UEAAXXZ
       5462 1555 0013BFF0 ?resetButton@QComboBoxPrivateContainer@@QEAAXXZ
       5463 1556 003B8630 ?resetCachedContent@QGraphicsView@@QEAAXXZ
       5464 1557 0018ABA0 ?resetCursorBlinkTimer@QWidgetLineControl@@QEAAXXZ
       5465 1558 002CC2E0 ?resetDefaultSectionSize@QHeaderView@@QEAAXXZ
       5466 1559 000FA2A0 ?resetFieldGrowthPolicy@QFormLayout@@AEAAXXZ
       5467 155A 003729D0 ?resetFocusProxy@QGraphicsItemPrivate@@QEAAXXZ
       5468 155B 000FA2B0 ?resetFormAlignment@QFormLayout@@AEAAXXZ
       5469 155C 001D00D0 ?resetFormat@QProgressBar@@QEAAXXZ
       5470 155D 00009A60 ?resetHeight@QGraphicsItemPrivate@@UEAAXXZ
       5471 155E 002BA790 ?resetHorizontalScrollMode@QAbstractItemView@@QEAAXXZ
       5472 155F 00330610 ?resetIndentation@QTreeView@@QEAAXXZ
       5473 1560 0018AC00 ?resetInputContext@QWidgetLineControl@@QEAAXXZ
       5474 1561 000FA2C0 ?resetLabelAlignment@QFormLayout@@AEAAXXZ
       5475 1562 00243720 ?resetModalitySetByOpen@QDialogPrivate@@QEAAXXZ
       5476 1563 000FA2D0 ?resetRowWrapPolicy@QFormLayout@@AEAAXXZ
       5477 1564 00372AC0 ?resetTransform@QGraphicsItem@@QEAAXXZ
       5478 1565 003B8700 ?resetTransform@QGraphicsView@@QEAAXXZ
       5479 1566 002BA830 ?resetVerticalScrollMode@QAbstractItemView@@QEAAXXZ
       5480 1567 00076550 ?resetWidget@QWidgetRepaintManager@@AEAAXPEAVQWidget@@@Z
       5481 1568 00009A60 ?resetWidth@QGraphicsItemPrivate@@UEAAXXZ
       5482 1569 003BF7D0 ?resize@QGraphicsWidget@@QEAAXAEBVQSizeF@@@Z
       5483 156A 00015620 ?resize@QGraphicsWidget@@QEAAXNN@Z
       5484 156B 00015640 ?resize@QRubberBand@@QEAAXAEBVQSize@@@Z
       5485 156C 00015690 ?resize@QRubberBand@@QEAAXHH@Z
       5486 156D 000622C0 ?resize@QWidget@@QEAAXAEBVQSize@@@Z
       5487 156E 000019A0 ?resize@QWidget@@QEAAXHH@Z
       5488 156F 003B8750 ?resizeAnchor@QGraphicsView@@QEBA?AW4ViewportAnchor@1@XZ
       5489 1570 0030D760 ?resizeColumnToContents@QTableView@@QEAAXH@Z
       5490 1571 00330670 ?resizeColumnToContents@QTreeView@@QEAAXH@Z
       5491 1572 0030D7C0 ?resizeColumnsToContents@QTableView@@QEAAXXZ
       5492 1573 002F64F0 ?resizeContents@QListView@@IEAAXHH@Z
       5493 1574 002CC330 ?resizeContentsPrecision@QHeaderView@@QEBAHXZ
       5494 1575 0018E860 ?resizeDocks@QMainWindow@@QEAAXAEBV?$QList@PEAVQDockWidget@@@@AEBV?$QList@H@@W4Orientation@Qt@@@Z
       5495 1576 002BA930 ?resizeEvent@QAbstractItemView@@MEAAXPEAVQResizeEvent@@@Z
       5496 1577 00009A60 ?resizeEvent@QAbstractScrollArea@@MEAAXPEAVQResizeEvent@@@Z
       5497 1578 001E2A30 ?resizeEvent@QAbstractSpinBox@@MEAAXPEAVQResizeEvent@@@Z
       5498 1579 0012B750 ?resizeEvent@QCalendarWidget@@MEAAXPEAVQResizeEvent@@@Z
       5499 157A 002E2AE0 ?resizeEvent@QColumnView@@MEAAXPEAVQResizeEvent@@@Z
       5500 157B 0013C010 ?resizeEvent@QComboBox@@MEAAXPEAVQResizeEvent@@@Z
       5501 157C 0013C080 ?resizeEvent@QComboBoxPrivateContainer@@MEAAXPEAVQResizeEvent@@@Z
       5502 157D 0008F0D0 ?resizeEvent@QDial@@MEAAXPEAVQResizeEvent@@@Z
       5503 157E 002437A0 ?resizeEvent@QDialog@@MEAAXPEAVQResizeEvent@@@Z
       5504 157F 00382DC0 ?resizeEvent@QGraphicsProxyWidget@@MEAAXPEAVQGraphicsSceneResizeEvent@@@Z
       5505 1580 003B8760 ?resizeEvent@QGraphicsView@@MEAAXPEAVQResizeEvent@@@Z
       5506 1581 00009A60 ?resizeEvent@QGraphicsWidget@@MEAAXPEAVQGraphicsSceneResizeEvent@@@Z
       5507 1582 0008F0D0 ?resizeEvent@QGroupBox@@MEAAXPEAVQResizeEvent@@@Z
       5508 1583 002F6510 ?resizeEvent@QListView@@MEAAXPEAVQResizeEvent@@@Z
       5509 1584 001A7F10 ?resizeEvent@QMdiArea@@MEAAXPEAVQResizeEvent@@@Z
       5510 1585 001B41A0 ?resizeEvent@QMdiSubWindow@@MEAAXPEAVQResizeEvent@@@Z
       5511 1586 001CD830 ?resizeEvent@QMenuBar@@MEAAXPEAVQResizeEvent@@@Z
       5512 1587 00277240 ?resizeEvent@QMessageBox@@MEAAXPEAVQResizeEvent@@@Z
       5513 1588 002035A0 ?resizeEvent@QPlainTextEdit@@MEAAXPEAVQResizeEvent@@@Z
       5514 1589 0027ACE0 ?resizeEvent@QProgressDialog@@MEAAXPEAVQResizeEvent@@@Z
       5515 158A 000442F0 ?resizeEvent@QRhiWidget@@MEAAXPEAVQResizeEvent@@@Z
       5516 158B 001D8330 ?resizeEvent@QRubberBand@@MEAAXPEAVQResizeEvent@@@Z
       5517 158C 001D9150 ?resizeEvent@QScrollArea@@MEAAXPEAVQResizeEvent@@@Z
       5518 158D 001ECEE0 ?resizeEvent@QSplitter@@MEAAXPEAVQResizeEvent@@@Z
       5519 158E 001ECEF0 ?resizeEvent@QSplitterHandle@@MEAAXPEAVQResizeEvent@@@Z
       5520 158F 0008F0D0 ?resizeEvent@QStatusBar@@MEAAXPEAVQResizeEvent@@@Z
       5521 1590 001F8730 ?resizeEvent@QTabBar@@MEAAXPEAVQResizeEvent@@@Z
       5522 1591 00211AC0 ?resizeEvent@QTabWidget@@MEAAXPEAVQResizeEvent@@@Z
       5523 1592 00209EF0 ?resizeEvent@QTextEdit@@MEAAXPEAVQResizeEvent@@@Z
       5524 1593 00009A60 ?resizeEvent@QWidget@@MEAAXPEAVQResizeEvent@@@Z
       5525 1594 00286680 ?resizeEvent@QWizard@@MEAAXPEAVQResizeEvent@@@Z
       5526 1595 002E2CC0 ?resizeGripsVisible@QColumnView@@QEBA_NXZ
       5527 1596 002F65E0 ?resizeMode@QListView@@QEBA?AW4ResizeMode@1@XZ
       5528 1597 0030D7E0 ?resizeRowToContents@QTableView@@QEAAXH@Z
       5529 1598 0030D840 ?resizeRowsToContents@QTableView@@QEAAXXZ
       5530 1599 002CC340 ?resizeSection@QHeaderView@@QEAAXHH@Z
       5531 159A 002CC780 ?resizeSections@QHeaderView@@IEAAXXZ
       5532 159B 002CC7B0 ?resizeSections@QHeaderView@@QEAAXW4ResizeMode@1@@Z
       5533 159C 00009A60 ?resizeViewportFramebuffer@QWidgetPrivate@@UEAAXXZ
       5534 159D 00372B10 ?resolveDepth@QGraphicsItemPrivate@@QEAAXXZ
       5535 159E 00036330 ?resolveFont@QGraphicsItemPrivate@@UEAAXI@Z
       5536 159F 00062510 ?resolveFont@QWidgetPrivate@@QEAAXXZ
       5537 15A0 000156D0 ?resolveInterface@QApplication@@IEBAPEAXPEBDH@Z
       5538 15A1 000625C0 ?resolveLayoutDirection@QWidgetPrivate@@QEAAXXZ
       5539 15A2 00062630 ?resolveLocale@QWidgetPrivate@@QEAAXXZ
       5540 15A3 000363B0 ?resolvePalette@QGraphicsItemPrivate@@UEAAXI@Z
       5541 15A4 000626F0 ?resolvePalette@QWidgetPrivate@@QEAAXXZ
       5542 15A5 00009A60 ?resolveSamples@QWidgetPrivate@@UEAAXXZ
       5543 15A6 00044380 ?resolveTexture@QRhiWidget@@IEBAPEAVQRhiTexture@@XZ
       5544 15A7 00174530 ?resourceProvider@QLabel@@QEBA?AV?$function@$$A6A?AVQVariant@@AEBVQUrl@@@Z@std@@XZ
       5545 15A8 00286800 ?restart@QWizard@@QEAAXXZ
       5546 15A9 0018E8E0 ?restoreDockWidget@QMainWindow@@QEAA_NPEAVQDockWidget@@@Z
       5547 15AA 00256C40 ?restoreFromSettings@QFileDialogPrivate@@QEAA_NXZ
       5548 15AB 000627F0 ?restoreGeometry@QWidget@@QEAA_NAEBVQByteArray@@@Z
       5549 15AC 000156E0 ?restoreRedirected@QWidgetPrivate@@QEAAXXZ
       5550 15AD 00257470 ?restoreState@QFileDialog@@QEAA_NAEBVQByteArray@@@Z
       5551 15AE 002CD060 ?restoreState@QHeaderView@@QEAA_NAEBVQByteArray@@@Z
       5552 15AF 0018E910 ?restoreState@QMainWindow@@QEAA_NAEBVQByteArray@@H@Z
       5553 15B0 001ED010 ?restoreState@QSplitter@@QEAA_NAEBVQByteArray@@@Z
       5554 15B1 00257DC0 ?restoreWidgetState@QFileDialogPrivate@@QEAA_NAEAV?$QList@VQString@@@@H@Z
       5555 15B2 001F2750 ?result@QDialog@@QEBAHXZ
       5556 15B3 000019C0 ?retainSizeWhenHidden@QSizePolicy@@QEBA_NXZ
       5557 15B4 002582D0 ?retranslateStrings@QFileDialogPrivate@@QEAAXXZ
       5558 15B5 00258FB0 ?retranslateWindowTitle@QFileDialogPrivate@@QEAAXXZ
       5559 15B6 0017F3C0 ?returnPressed@QLineEdit@@QEAAXXZ
       5560 15B7 002E6FE0 ?revert@QDataWidgetMapper@@QEAAXXZ
       5561 15B8 00044390 ?rhi@QRhiWidget@@IEBAPEAVQRhi@@XZ
       5562 15B9 00062CB0 ?rhi@QWidgetPrivate@@QEBAPEAVQRhi@@XZ
       5563 15BA 000156F0 ?rhiConfig@QWidgetPrivate@@UEBA?AUQPlatformBackingStoreRhiConfig@@XZ
       5564 15BB 002930C0 ?role@QAccessibleWidget@@UEBA?AW4Role@QAccessible@@XZ
       5565 15BC 002BA960 ?rootIndex@QAbstractItemView@@QEBA?AVQModelIndex@@XZ
       5566 15BD 002E6FF0 ?rootIndex@QDataWidgetMapper@@QEBA?AVQModelIndex@@XZ
       5567 15BE 00259140 ?rootIndex@QFileDialogPrivate@@QEBA?AVQModelIndex@@XZ
       5568 15BF 003308F0 ?rootIsDecorated@QTreeView@@QEBA_NXZ
       5569 15C0 0013C6A0 ?rootModelIndex@QComboBox@@QEBA?AVQModelIndex@@XZ
       5570 15C1 002591D0 ?rootPath@QFileDialogPrivate@@QEBA?AVQString@@XZ
       5571 15C2 003B89E0 ?rotate@QGraphicsView@@QEAAXN@Z
       5572 15C3 00372B70 ?rotation@QGraphicsItem@@QEBANXZ
       5573 15C4 00021F60 ?rotationAngle@QPinchGesture@@QEBANXZ
       5574 15C5 003C85E0 ?rotationAt@QGraphicsItemAnimation@@QEBANN@Z
       5575 15C6 00372B90 ?rotationChanged@QGraphicsObject@@QEAAXXZ
       5576 15C7 003C8670 ?rotationList@QGraphicsItemAnimation@@QEBA?AV?$QList@U?$pair@NN@std@@@@XZ
       5577 15C8 003023D0 ?row@QListWidget@@QEBAHPEBVQListWidgetItem@@@Z
       5578 15C9 0031E2A0 ?row@QTableWidget@@QEBAHPEBVQTableWidgetItem@@@Z
       5579 15CA 0031E2E0 ?row@QTableWidgetItem@@QEBAHXZ
       5580 15CB 0035E730 ?rowAlignment@QGraphicsGridLayout@@QEBA?AV?$QFlags@W4AlignmentFlag@Qt@@@@H@Z
       5581 15CC 0030D860 ?rowAt@QTableView@@QEBAHH@Z
       5582 15CD 000FA2E0 ?rowCount@QFormLayout@@QEBAHXZ
       5583 15CE 0035E760 ?rowCount@QGraphicsGridLayout@@QEBAHXZ
       5584 15CF 0003A030 ?rowCount@QGridLayout@@QEBAHXZ
       5585 15D0 002FE7D0 ?rowCount@QTableWidget@@QEBAHXZ
       5586 15D1 0030D870 ?rowCountChanged@QTableView@@IEAAXHH@Z
       5587 15D2 0030D8A0 ?rowHeight@QTableView@@QEBAHH@Z
       5588 15D3 00330900 ?rowHeight@QTreeView@@IEBAHAEBVQModelIndex@@@Z
       5589 15D4 0035E790 ?rowMaximumHeight@QGraphicsGridLayout@@QEBANH@Z
       5590 15D5 0035E7B0 ?rowMinimumHeight@QGraphicsGridLayout@@QEBANH@Z
       5591 15D6 0003A040 ?rowMinimumHeight@QGridLayout@@QEBAHH@Z
       5592 15D7 0030D8B0 ?rowMoved@QTableView@@IEAAXHHH@Z
       5593 15D8 0035E7D0 ?rowPreferredHeight@QGraphicsGridLayout@@QEBANH@Z
       5594 15D9 0030D9E0 ?rowResized@QTableView@@IEAAXHHH@Z
       5595 15DA 0035E7F0 ?rowSpacing@QGraphicsGridLayout@@QEBANH@Z
       5596 15DB 0030DA70 ?rowSpan@QTableView@@QEBAHHH@Z
       5597 15DC 0003A060 ?rowStretch@QGridLayout@@QEBAHH@Z
       5598 15DD 0035E810 ?rowStretchFactor@QGraphicsGridLayout@@QEBAHH@Z
       5599 15DE 0030DC60 ?rowViewportPosition@QTableView@@QEBAHH@Z
       5600 15DF 000FA300 ?rowWrapPolicy@QFormLayout@@QEBA?AW4RowWrapPolicy@1@XZ
       5601 15E0 000F5640 ?rows@QPixmapConvolutionFilter@@AEBAHXZ
       5602 15E1 002BA990 ?rowsAboutToBeRemoved@QAbstractItemView@@MEAAXAEBVQModelIndex@@HH@Z
       5603 15E2 002F65F0 ?rowsAboutToBeRemoved@QListView@@MEAAXAEBVQModelIndex@@HH@Z
       5604 15E3 00330970 ?rowsAboutToBeRemoved@QTreeView@@MEAAXAEBVQModelIndex@@HH@Z
       5605 15E4 002BB470 ?rowsInserted@QAbstractItemView@@MEAAXAEBVQModelIndex@@HH@Z
       5606 15E5 002E2CD0 ?rowsInserted@QColumnView@@MEAAXAEBVQModelIndex@@HH@Z
       5607 15E6 00259280 ?rowsInserted@QFileDialogPrivate@@QEAAXAEBVQModelIndex@@@Z
       5608 15E7 00009A60 ?rowsInserted@QHeaderView@@MEAAXAEBVQModelIndex@@HH@Z
       5609 15E8 002F6900 ?rowsInserted@QListView@@MEAAXAEBVQModelIndex@@HH@Z
       5610 15E9 00330A30 ?rowsInserted@QTreeView@@MEAAXAEBVQModelIndex@@HH@Z
       5611 15EA 00330B90 ?rowsRemoved@QTreeView@@IEAAXAEBVQModelIndex@@HH@Z
       5612 15EB 0008F440 ?rtl@QCommonStylePrivate@@SA_NPEBVQStyleOption@@@Z
       5613 15EC 003B8A80 ?rubberBandChanged@QGraphicsView@@QEAAXVQRect@@VQPointF@@1@Z
       5614 15ED 003B8AE0 ?rubberBandRect@QGraphicsView@@QEBA?AVQRect@@XZ
       5615 15EE 003B8B20 ?rubberBandRegion@QGraphicsViewPrivate@@QEBA?AVQRegion@@PEBVQWidget@@AEBVQRect@@@Z
       5616 15EF 003B8C30 ?rubberBandSelectionMode@QGraphicsView@@QEBA?AW4ItemSelectionMode@Qt@@XZ
       5617 15F0 00062E20 ?safeAreaMargins@QWidgetPrivate@@QEBA?AVQMargins@@XZ
       5618 15F1 000443C0 ?sampleCount@QRhiWidget@@QEBAHXZ
       5619 15F2 000028D0 ?sampleCountChanged@QRhiWidget@@QEAAXH@Z
       5620 15F3 0016B8D0 ?sampleTextForFont@QFontComboBox@@QEBA?AVQString@@AEBV2@@Z
       5621 15F4 0016B950 ?sampleTextForSystem@QFontComboBox@@QEBA?AVQString@@W4WritingSystem@QFontDatabase@@@Z
       5622 15F5 00002B10 ?saveFileContent@QFileDialog@@SAXAEBVQByteArray@@AEBVQString@@@Z
       5623 15F6 00259340 ?saveFileContent@QFileDialog@@SAXAEBVQByteArray@@AEBVQString@@PEAVQWidget@@@Z
       5624 15F7 00063290 ?saveGeometry@QWidget@@QEBA?AVQByteArray@@XZ
       5625 15F8 002594E0 ?saveHistorySelection@QFileDialogPrivate@@QEAAXXZ
       5626 15F9 00259630 ?saveSettings@QFileDialogPrivate@@QEAAXXZ
       5627 15FA 00259E90 ?saveState@QFileDialog@@QEBA?AVQByteArray@@XZ
       5628 15FB 002CD350 ?saveState@QHeaderView@@QEBA?AVQByteArray@@XZ
       5629 15FC 0018EA00 ?saveState@QMainWindow@@QEBA?AVQByteArray@@H@Z
       5630 15FD 001ED580 ?saveState@QSplitter@@QEBA?AVQByteArray@@XZ
       5631 15FE 00372BB0 ?scale@QGraphicsItem@@QEBANXZ
       5632 15FF 003B8C40 ?scale@QGraphicsView@@QEAAXNN@Z
       5633 1600 00372BD0 ?scaleChanged@QGraphicsObject@@QEAAXXZ
       5634 1601 003AD8A0 ?scaleChanged@QGraphicsScale@@QEAAXXZ
       5635 1602 00021F70 ?scaleFactor@QPinchGesture@@QEBANXZ
       5636 1603 003C8A50 ?scaleList@QGraphicsItemAnimation@@QEBA?AV?$QList@U?$pair@NVQPointF@@@std@@@@XZ
       5637 1604 00372BF0 ?scene@QGraphicsItem@@QEBAPEAVQGraphicsScene@@XZ
       5638 1605 003B8CD0 ?scene@QGraphicsView@@QEBAPEAVQGraphicsScene@@XZ
       5639 1606 00372C00 ?sceneBoundingRect@QGraphicsItem@@QEBA?AVQRectF@@XZ
       5640 1607 00372D20 ?sceneEffectiveBoundingRect@QGraphicsItemPrivate@@QEBA?AVQRectF@@XZ
       5641 1608 00372EF0 ?sceneEvent@QGraphicsItem@@MEAA_NPEAVQEvent@@@Z
       5642 1609 003733D0 ?sceneEvent@QGraphicsTextItem@@MEAA_NPEAVQEvent@@@Z
       5643 160A 003BF830 ?sceneEvent@QGraphicsWidget@@MEAA_NPEAVQEvent@@@Z
       5644 160B 0000FF60 ?sceneEventFilter@QGraphicsItem@@MEAA_NPEAV1@PEAVQEvent@@@Z
       5645 160C 003735D0 ?scenePos@QGraphicsItem@@QEBA?AVQPointF@@XZ
       5646 160D 003AA3B0 ?scenePos@QGraphicsSceneContextMenuEvent@@QEBA?AVQPointF@@XZ
       5647 160E 003AA3B0 ?scenePos@QGraphicsSceneDragDropEvent@@QEBA?AVQPointF@@XZ
       5648 160F 003AA3C0 ?scenePos@QGraphicsSceneHelpEvent@@QEBA?AVQPointF@@XZ
       5649 1610 003AA3B0 ?scenePos@QGraphicsSceneHoverEvent@@QEBA?AVQPointF@@XZ
       5650 1611 003AA3B0 ?scenePos@QGraphicsSceneMouseEvent@@QEBA?AVQPointF@@XZ
       5651 1612 003AA3B0 ?scenePos@QGraphicsSceneWheelEvent@@QEBA?AVQPointF@@XZ
       5652 1613 0039EE00 ?sceneRect@QGraphicsScene@@QEBA?AVQRectF@@XZ
       5653 1614 003B8D00 ?sceneRect@QGraphicsView@@QEBA?AVQRectF@@XZ
       5654 1615 0039F000 ?sceneRectChanged@QGraphicsScene@@QEAAXAEBVQRectF@@@Z
       5655 1616 00373600 ?sceneTransform@QGraphicsItem@@QEBA?AVQTransform@@XZ
       5656 1617 002BB620 ?scheduleDelayedItemsLayout@QAbstractItemView@@IEAAXXZ
       5657 1618 00063490 ?screen@QWidget@@QEBAPEAVQScreen@@XZ
       5658 1619 00015710 ?screen@QWidgetPrivate@@SAPEAVQScreen@@PEBVQWidget@@AEBVQPoint@@_N@Z
       5659 161A 00015860 ?screenGeometry@QWidgetPrivate@@SA?AVQRect@@PEBVQWidget@@@Z
       5660 161B 00015990 ?screenGeometry@QWidgetPrivate@@SA?AVQRect@@PEBVQWidget@@AEBVQPoint@@_N@Z
       5661 161C 003AA420 ?screenPos@QGraphicsSceneContextMenuEvent@@QEBA?AVQPoint@@XZ
       5662 161D 003AA420 ?screenPos@QGraphicsSceneDragDropEvent@@QEBA?AVQPoint@@XZ
       5663 161E 003AA430 ?screenPos@QGraphicsSceneHelpEvent@@QEBA?AVQPoint@@XZ
       5664 161F 003AA420 ?screenPos@QGraphicsSceneHoverEvent@@QEBA?AVQPoint@@XZ
       5665 1620 003AA420 ?screenPos@QGraphicsSceneMouseEvent@@QEBA?AVQPoint@@XZ
       5666 1621 003AA420 ?screenPos@QGraphicsSceneWheelEvent@@QEBA?AVQPoint@@XZ
       5667 1622 00373700 ?scroll@QGraphicsItem@@QEAAXNNAEBVQRectF@@@Z
       5668 1623 00063580 ?scroll@QWidget@@QEAAXHH@Z
       5669 1624 00063740 ?scroll@QWidget@@QEAAXHHAEBVQRect@@@Z
       5670 1625 000A0CF0 ?scrollBarSubControlRect@QPixmapStyle@@IEBA?AVQRect@@PEBVQStyleOptionComplex@@W4SubControl@QStyle@@PEBVQWidget@@@Z
       5671 1626 000EA660 ?scrollBarWidgets@QAbstractScrollArea@@QEAA?AV?$QList@PEAVQWidget@@@@V?$QFlags@W4AlignmentFlag@Qt@@@@@Z
       5672 1627 00063990 ?scrollChildren@QWidgetPrivate@@QEAAXHH@Z
       5673 1628 000EAD30 ?scrollContentsBy@QAbstractScrollArea@@MEAAXHH@Z
       5674 1629 002E2D00 ?scrollContentsBy@QColumnView@@MEAAXHH@Z
       5675 162A 003B8DB0 ?scrollContentsBy@QGraphicsView@@MEAAXHH@Z
       5676 162B 002BB650 ?scrollContentsBy@QHeaderView@@MEAAXHH@Z
       5677 162C 002F6EA0 ?scrollContentsBy@QListView@@MEAAXHH@Z
       5678 162D 001A87B0 ?scrollContentsBy@QMdiArea@@MEAAXHH@Z
       5679 162E 002035D0 ?scrollContentsBy@QPlainTextEdit@@MEAAXHH@Z
       5680 162F 001D9160 ?scrollContentsBy@QScrollArea@@MEAAXHH@Z
       5681 1630 0030DC70 ?scrollContentsBy@QTableView@@MEAAXHH@Z
       5682 1631 0020A010 ?scrollContentsBy@QTextEdit@@MEAAXHH@Z
       5683 1632 00330CA0 ?scrollContentsBy@QTreeView@@MEAAXHH@Z
       5684 1633 002BB650 ?scrollDirtyRegion@QAbstractItemView@@IEAAXHH@Z
       5685 1634 0013CB00 ?scrollItemView@QComboBoxPrivateContainer@@QEAAXH@Z
       5686 1635 003E0E40 ?scrollMetric@QScrollerProperties@@QEBA?AVQVariant@@W4ScrollMetric@1@@Z
       5687 1636 000765C0 ?scrollRect@QWidgetPrivate@@QEAAXAEBVQRect@@HH@Z
       5688 1637 001F8770 ?scrollTabs@QTabBarPrivate@@QEAAXXZ
       5689 1638 002E2E40 ?scrollTo@QColumnView@@UEAAXAEBVQModelIndex@@W4ScrollHint@QAbstractItemView@@@Z
       5690 1639 00009A60 ?scrollTo@QHeaderView@@MEAAXAEBVQModelIndex@@W4ScrollHint@QAbstractItemView@@@Z
       5691 163A 002F6F00 ?scrollTo@QListView@@UEAAXAEBVQModelIndex@@W4ScrollHint@QAbstractItemView@@@Z
       5692 163B 003DC880 ?scrollTo@QScroller@@QEAAXAEBVQPointF@@@Z
       5693 163C 003DC890 ?scrollTo@QScroller@@QEAAXAEBVQPointF@@H@Z
       5694 163D 0030DED0 ?scrollTo@QTableView@@UEAAXAEBVQModelIndex@@W4ScrollHint@QAbstractItemView@@@Z
       5695 163E 00331090 ?scrollTo@QTreeView@@UEAAXAEBVQModelIndex@@W4ScrollHint@QAbstractItemView@@@Z
       5696 163F 0020A070 ?scrollToAnchor@QTextEdit@@QEAAXAEBVQString@@@Z
       5697 1640 002BB6E0 ?scrollToBottom@QAbstractItemView@@QEAAXXZ
       5698 1641 003024E0 ?scrollToItem@QListWidget@@QEAAXPEBVQListWidgetItem@@W4ScrollHint@QAbstractItemView@@@Z
       5699 1642 0031E350 ?scrollToItem@QTableWidget@@QEAAXPEBVQTableWidgetItem@@W4ScrollHint@QAbstractItemView@@@Z
       5700 1643 003439E0 ?scrollToItem@QTreeWidget@@QEAAXPEBVQTreeWidgetItem@@W4ScrollHint@QAbstractItemView@@@Z
       5701 1644 002BB770 ?scrollToTop@QAbstractItemView@@QEAAXXZ
       5702 1645 00063E50 ?scroll_sys@QWidgetPrivate@@QEAAXHH@Z
       5703 1646 00063ED0 ?scroll_sys@QWidgetPrivate@@QEAAXHHAEBVQRect@@@Z
       5704 1647 003DD040 ?scroller@QScroller@@SAPEAV1@PEAVQObject@@@Z
       5705 1648 003DD300 ?scroller@QScroller@@SAPEBV1@PEBVQObject@@@Z
       5706 1649 003DD310 ?scrollerProperties@QScroller@@QEBA?AVQScrollerProperties@@XZ
       5707 164A 003DD340 ?scrollerPropertiesChanged@QScroller@@QEAAXAEBVQScrollerProperties@@@Z
       5708 164B 0020F0A0 ?searchPaths@QTextBrowser@@QEBA?AV?$QList@VQString@@@@XZ
       5709 164C 00149000 ?sectionAt@QDateTimeEdit@@QEBA?AW4Section@1@H@Z
       5710 164D 002CD3D0 ?sectionClicked@QHeaderView@@QEAAXH@Z
       5711 164E 00149180 ?sectionCount@QDateTimeEdit@@QEBAHXZ
       5712 164F 002CD410 ?sectionCountChanged@QHeaderView@@QEAAXHH@Z
       5713 1650 002CD470 ?sectionDoubleClicked@QHeaderView@@QEAAXH@Z
       5714 1651 002CD4B0 ?sectionEntered@QHeaderView@@QEAAXH@Z
       5715 1652 002CD650 ?sectionHandleDoubleClicked@QHeaderView@@QEAAXH@Z
       5716 1653 002CD690 ?sectionMoved@QHeaderView@@QEAAXHHH@Z
       5717 1654 002CD700 ?sectionPosition@QHeaderView@@QEBAHH@Z
       5718 1655 002CD830 ?sectionPressed@QHeaderView@@QEAAXH@Z
       5719 1656 002CD870 ?sectionResizeMode@QHeaderView@@QEBA?AW4ResizeMode@1@H@Z
       5720 1657 002CD930 ?sectionResized@QHeaderView@@QEAAXHHH@Z
       5721 1658 002CD9A0 ?sectionSize@QHeaderView@@QEBAHH@Z
       5722 1659 002CDBB0 ?sectionSizeFromContents@QHeaderView@@MEBA?AVQSize@@H@Z
       5723 165A 002CE1E0 ?sectionSizeHint@QHeaderView@@QEBAHH@Z
       5724 165B 00149190 ?sectionText@QDateTimeEdit@@QEBA?AVQString@@W4Section@1@@Z
       5725 165C 002CE530 ?sectionViewportPosition@QHeaderView@@QEBAHH@Z
       5726 165D 00009A60 ?sectionsAboutToBeRemoved@QHeaderView@@IEAAXAEBVQModelIndex@@HH@Z
       5727 165E 002CEF40 ?sectionsClickable@QHeaderView@@QEBA_NXZ
       5728 165F 002CEF50 ?sectionsHidden@QHeaderView@@QEBA_NXZ
       5729 1660 002CEF70 ?sectionsInserted@QHeaderView@@IEAAXAEBVQModelIndex@@HH@Z
       5730 1661 002CF580 ?sectionsMovable@QHeaderView@@QEBA_NXZ
       5731 1662 002CF590 ?sectionsMoved@QHeaderView@@QEBA_NXZ
       5732 1663 00179220 ?segmentStyle@QLCDNumber@@QEBA?AW4SegmentStyle@1@XZ
       5733 1664 0025A250 ?select@QFileDialogPrivate@@QEBA?AVQModelIndex@@AEBV2@@Z
       5734 1665 00331600 ?select@QTreeViewPrivate@@QEAAXAEBVQModelIndex@@0V?$QFlags@W4SelectionFlag@QItemSelectionModel@@@@@Z
       5735 1666 002BBB00 ?selectAll@QAbstractItemView@@UEAAXXZ
       5736 1667 001E2A70 ?selectAll@QAbstractSpinBox@@QEAAXXZ
       5737 1668 002E3220 ?selectAll@QColumnView@@UEAAXXZ
       5738 1669 0017F3E0 ?selectAll@QLineEdit@@QEAAXXZ
       5739 166A 00203660 ?selectAll@QPlainTextEdit@@QEAAXXZ
       5740 166B 0020A120 ?selectAll@QTextEdit@@QEAAXXZ
       5741 166C 003324E0 ?selectAll@QTreeView@@UEAAXXZ
       5742 166D 0013CB40 ?selectAll@QWidgetLineControl@@QEAAXXZ
       5743 166E 002357A0 ?selectAll@QWidgetTextControl@@QEAAXXZ
       5744 166F 0030E410 ?selectColumn@QTableView@@QEAAXH@Z
       5745 1670 0025A320 ?selectFile@QFileDialog@@QEAAXAEBVQString@@@Z
       5746 1671 0025A900 ?selectFile_sys@QFileDialogPrivate@@QEAAXAEBVQUrl@@@Z
       5747 1672 0025A960 ?selectMimeTypeFilter@QFileDialog@@QEAAXAEBVQString@@@Z
       5748 1673 0025AA70 ?selectMimeTypeFilter_sys@QFileDialogPrivate@@QEAAXAEBVQString@@@Z
       5749 1674 0025AAB0 ?selectNameFilter@QFileDialog@@QEAAXAEBVQString@@@Z
       5750 1675 0025AD00 ?selectNameFilter_sys@QFileDialogPrivate@@QEAAXAEBVQString@@@Z
       5751 1676 001F88D0 ?selectNewCurrentIndexFrom@QTabBarPrivate@@QEAAHH@Z
       5752 1677 0030E890 ?selectRow@QTableView@@QEAAXH@Z
       5753 1678 0025AD40 ?selectUrl@QFileDialog@@QEAAXAEBVQUrl@@@Z
       5754 1679 0018AC20 ?selectWordAtPos@QWidgetLineControl@@QEAAXH@Z
       5755 167A 00240480 ?selectedColor@QColorDialog@@QEBA?AVQColor@@XZ
       5756 167B 0012B7C0 ?selectedDate@QCalendarWidget@@QEBA?AVQDate@@XZ
       5757 167C 0025AE40 ?selectedFiles@QFileDialog@@QEBA?AV?$QList@VQString@@@@XZ
       5758 167D 0025B510 ?selectedFiles_sys@QFileDialogPrivate@@QEBA?AV?$QList@VQUrl@@@@XZ
       5759 167E 0026B910 ?selectedFont@QFontDialog@@QEBA?AVQFont@@XZ
       5760 167F 002BC240 ?selectedIndexes@QAbstractItemView@@MEBA?AV?$QList@VQModelIndex@@@@XZ
       5761 1680 002F7800 ?selectedIndexes@QListView@@MEBA?AV?$QList@VQModelIndex@@@@XZ
       5762 1681 0030ED30 ?selectedIndexes@QTableView@@MEBA?AV?$QList@VQModelIndex@@@@XZ
       5763 1682 003326B0 ?selectedIndexes@QTreeView@@MEBA?AV?$QList@VQModelIndex@@@@XZ
       5764 1683 0039F030 ?selectedItems@QGraphicsScene@@QEBA?AV?$QList@PEAVQGraphicsItem@@@@XZ
       5765 1684 00302600 ?selectedItems@QListWidget@@QEBA?AV?$QList@PEAVQListWidgetItem@@@@XZ
       5766 1685 0031E3C0 ?selectedItems@QTableWidget@@QEBA?AV?$QList@PEAVQTableWidgetItem@@@@XZ
       5767 1686 00343A50 ?selectedItems@QTreeWidget@@QEBA?AV?$QList@PEAVQTreeWidgetItem@@@@XZ
       5768 1687 0025B560 ?selectedMimeTypeFilter@QFileDialog@@QEBA?AVQString@@XZ
       5769 1688 0025B8F0 ?selectedMimeTypeFilter_sys@QFileDialogPrivate@@QEBA?AVQString@@XZ
       5770 1689 0025B940 ?selectedNameFilter@QFileDialog@@QEBA?AVQString@@XZ
       5771 168A 0025BB60 ?selectedNameFilter_sys@QFileDialogPrivate@@QEBA?AVQString@@XZ
       5772 168B 002D84A0 ?selectedPixmap@QItemDelegate@@KA?AVQPixmap@@AEBV2@AEBVQPalette@@_N@Z
       5773 168C 0031E780 ?selectedRanges@QTableWidget@@QEBA?AV?$QList@VQTableWidgetSelectionRange@@@@XZ
       5774 168D 00174670 ?selectedText@QLabel@@QEBA?AVQString@@XZ
       5775 168E 0017F410 ?selectedText@QLineEdit@@QEBA?AVQString@@XZ
       5776 168F 0013CB60 ?selectedText@QWidgetLineControl@@QEBA?AVQString@@XZ
       5777 1690 0025BBB0 ?selectedUrls@QFileDialog@@QEBA?AV?$QList@VQUrl@@@@XZ
       5778 1691 0039F2A0 ?selectionArea@QGraphicsScene@@QEBA?AVQPainterPath@@XZ
       5779 1692 00204AF0 ?selectionBehavior@QAbstractItemView@@QEBA?AW4SelectionBehavior@1@XZ
       5780 1693 001F8A20 ?selectionBehaviorOnRemove@QTabBar@@QEBA?AW4SelectionBehavior@1@XZ
       5781 1694 002BC340 ?selectionChanged@QAbstractItemView@@MEAAXAEBVQItemSelection@@0@Z
       5782 1695 0012B7E0 ?selectionChanged@QCalendarWidget@@QEAAXXZ
       5783 1696 0025BEC0 ?selectionChanged@QFileDialogPrivate@@QEAAXXZ
       5784 1697 0039F2D0 ?selectionChanged@QGraphicsScene@@QEAAXXZ
       5785 1698 0017F4A0 ?selectionChanged@QLineEdit@@QEAAXXZ
       5786 1699 002F7BF0 ?selectionChanged@QListView@@MEAAXAEBVQItemSelection@@0@Z
       5787 169A 00203670 ?selectionChanged@QPlainTextEdit@@QEAAXXZ
       5788 169B 0030EF20 ?selectionChanged@QTableView@@MEAAXAEBVQItemSelection@@0@Z
       5789 169C 0020A130 ?selectionChanged@QTextEdit@@QEAAXXZ
       5790 169D 00332C00 ?selectionChanged@QTreeView@@MEAAXAEBVQItemSelection@@0@Z
       5791 169E 0018ACD0 ?selectionChanged@QWidgetLineControl@@QEAAXXZ
       5792 169F 002358C0 ?selectionChanged@QWidgetTextControl@@QEAAXXZ
       5793 16A0 002BC410 ?selectionCommand@QAbstractItemView@@MEBA?AV?$QFlags@W4SelectionFlag@QItemSelectionModel@@@@AEBVQModelIndex@@PEBVQEvent@@@Z
       5794 16A1 0017F4C0 ?selectionEnd@QLineEdit@@QEBAHXZ
       5795 16A2 0013CBF0 ?selectionEnd@QWidgetLineControl@@QEBAHXZ
       5796 16A3 0017F4F0 ?selectionLength@QLineEdit@@QEBAHXZ
       5797 16A4 00139E20 ?selectionMode@QAbstractItemView@@QEBA?AW4SelectionMode@1@XZ
       5798 16A5 0012B800 ?selectionMode@QCalendarWidget@@QEBA?AW4SelectionMode@1@XZ
       5799 16A6 002BC7B0 ?selectionModel@QAbstractItemView@@QEBAPEAVQItemSelectionModel@@XZ
       5800 16A7 00235B70 ?selectionRect@QWidgetTextControl@@QEBA?AVQRectF@@AEBVQTextCursor@@@Z
       5801 16A8 00235F20 ?selectionRect@QWidgetTextControl@@QEBA?AVQRectF@@XZ
       5802 16A9 001746D0 ?selectionStart@QLabel@@QEBAHXZ
       5803 16AA 0017F540 ?selectionStart@QLineEdit@@QEBAHXZ
       5804 16AB 0013CC10 ?selectionStart@QWidgetLineControl@@QEBAHXZ
       5805 16AC 005E1DA0 ?self@QApplicationPrivate@@0PEAV1@EA
       5806 16AD 000641A0 ?sendComposeStatus@QWidgetPrivate@@SAXPEAVQWidget@@_N@Z
       5807 16AE 0039F2F0 ?sendEvent@QGraphicsScene@@QEAA_NPEAVQGraphicsItem@@PEAVQEvent@@@Z
       5808 16AF 000159D0 ?sendMouseEvent@QApplicationPrivate@@SA_NPEAVQWidget@@PEAVQMouseEvent@@00PEAPEAV2@AEAV?$QPointer@VQWidget@@@@_N4@Z
       5809 16B0 00064280 ?sendPaintEvent@QWidgetPrivate@@QEAAXAEBVQRegion@@@Z
       5810 16B1 000642E0 ?sendPendingMoveAndResizeEvents@QWidgetPrivate@@QEAAX_N0@Z
       5811 16B2 00373B60 ?sendScenePosChange@QGraphicsItemPrivate@@QEAAXXZ
       5812 16B3 00016160 ?sendSyntheticEnterLeave@QApplicationPrivate@@QEAAXPEAVQWidget@@@Z
       5813 16B4 000769A0 ?sendUpdateRequest@QWidgetRepaintManager@@AEAAXPEAVQWidget@@W4UpdateTime@1@@Z
       5814 16B5 0013CC30 ?separate@QWidgetLineControl@@AEAAXXZ
       5815 16B6 001C5870 ?separatorsCollapsible@QMenu@@QEBA_NXZ
       5816 16B7 001E2B00 ?setAccelerated@QAbstractSpinBox@@QEAAX_N@Z
       5817 16B8 00021F80 ?setAcceleration@QPanGesture@@QEAAXN@Z
       5818 16B9 00373E10 ?setAcceptDrops@QGraphicsItem@@QEAAX_N@Z
       5819 16BA 00064590 ?setAcceptDrops@QWidget@@QEAAX_N@Z
       5820 16BB 00373E30 ?setAcceptHoverEvents@QGraphicsItem@@QEAAX_N@Z
       5821 16BC 0025C330 ?setAcceptMode@QFileDialog@@QEAAXW4AcceptMode@1@@Z
       5822 16BD 0020A220 ?setAcceptRichText@QTextEdit@@QEAAX_N@Z
       5823 16BE 002360B0 ?setAcceptRichText@QWidgetTextControl@@QEAAX_N@Z
       5824 16BF 00373EB0 ?setAcceptTouchEvents@QGraphicsItem@@QEAAX_N@Z
       5825 16C0 00021F90 ?setAccepted@QGestureEvent@@QEAAXPEAVQGesture@@_N@Z
       5826 16C1 00021FE0 ?setAccepted@QGestureEvent@@QEAAXW4GestureType@Qt@@_N@Z
       5827 16C2 00373F30 ?setAcceptedMouseButtons@QGraphicsItem@@QEAAXV?$QFlags@W4MouseButton@Qt@@@@@Z
       5828 16C3 00064660 ?setAccessibleDescription@QWidget@@QEAAXAEBVQString@@@Z
       5829 16C4 000646B0 ?setAccessibleName@QWidget@@QEAAXAEBVQString@@@Z
       5830 16C5 0013CC40 ?setAccessibleObject@QWidgetLineControl@@QEAAXPEAVQObject@@@Z
       5831 16C6 001F8A30 ?setAccessibleTabName@QTabBar@@QEAAXHAEBVQString@@@Z
       5832 16C7 001A8870 ?setActivationOrder@QMdiArea@@QEAAXW4WindowOrder@1@@Z
       5833 16C8 00373FF0 ?setActive@QGraphicsItem@@QEAAX_N@Z
       5834 16C9 00102EC0 ?setActive@QScrollbarStyleAnimation@@QEAAX_N@Z
       5835 16CA 001C5890 ?setActiveAction@QMenu@@QEAAXPEAVQAction@@@Z
       5836 16CB 001CD840 ?setActiveAction@QMenuBar@@QEAAXPEAVQAction@@@Z
       5837 16CC 003A0210 ?setActivePanel@QGraphicsScene@@QEAAXPEAVQGraphicsItem@@@Z
       5838 16CD 001A8890 ?setActiveSubWindow@QMdiArea@@QEAAXPEAVQMdiSubWindow@@@Z
       5839 16CE 00016450 ?setActiveWindow@QApplication@@SAXPEAVQWidget@@@Z
       5840 16CF 00016460 ?setActiveWindow@QApplicationPrivate@@SAXPEAVQWidget@@@Z
       5841 16D0 003A08C0 ?setActiveWindow@QGraphicsScene@@QEAAXPEAVQGraphicsWidget@@@Z
       5842 16D1 001E2B20 ?setAlignment@QAbstractSpinBox@@QEAAXV?$QFlags@W4AlignmentFlag@Qt@@@@@Z
       5843 16D2 0035E830 ?setAlignment@QGraphicsGridLayout@@QEAAXPEAVQGraphicsLayoutItem@@V?$QFlags@W4AlignmentFlag@Qt@@@@@Z
       5844 16D3 0037F090 ?setAlignment@QGraphicsLinearLayout@@QEAAXPEAVQGraphicsLayoutItem@@V?$QFlags@W4AlignmentFlag@Qt@@@@@Z
       5845 16D4 003B90D0 ?setAlignment@QGraphicsView@@QEAAXV?$QFlags@W4AlignmentFlag@Qt@@@@@Z
       5846 16D5 0016E750 ?setAlignment@QGroupBox@@QEAAXH@Z
       5847 16D6 00174770 ?setAlignment@QLabel@@QEAAXV?$QFlags@W4AlignmentFlag@Qt@@@@@Z
       5848 16D7 0003EDE0 ?setAlignment@QLayout@@QEAA_NPEAV1@V?$QFlags@W4AlignmentFlag@Qt@@@@@Z
       5849 16D8 0003EE90 ?setAlignment@QLayout@@QEAA_NPEAVQWidget@@V?$QFlags@W4AlignmentFlag@Qt@@@@@Z
       5850 16D9 00041D60 ?setAlignment@QLayoutItem@@QEAAXV?$QFlags@W4AlignmentFlag@Qt@@@@@Z
       5851 16DA 0017F570 ?setAlignment@QLineEdit@@QEAAXV?$QFlags@W4AlignmentFlag@Qt@@@@@Z
       5852 16DB 001D0100 ?setAlignment@QProgressBar@@QEAAXV?$QFlags@W4AlignmentFlag@Qt@@@@@Z
       5853 16DC 001D9190 ?setAlignment@QScrollArea@@QEAAXV?$QFlags@W4AlignmentFlag@Qt@@@@@Z
       5854 16DD 0020A230 ?setAlignment@QTextEdit@@QEAAXV?$QFlags@W4AlignmentFlag@Qt@@@@@Z
       5855 16DE 00332EF0 ?setAllColumnsShowFocus@QTreeView@@QEAAX_N@Z
       5856 16DF 00165030 ?setAllowedAreas@QDockWidget@@QEAAXV?$QFlags@W4DockWidgetArea@Qt@@@@@Z
       5857 16E0 00215360 ?setAllowedAreas@QToolBar@@QEAAXV?$QFlags@W4ToolBarArea@Qt@@@@@Z
       5858 16E1 002BC9F0 ?setAlternatingRowColors@QAbstractItemView@@QEAAX_N@Z
       5859 16E2 003AD8C0 ?setAngle@QGraphicsRotation@@QEAAXN@Z
       5860 16E3 0018EAB0 ?setAnimated@QMainWindow@@QEAAX_N@Z
       5861 16E4 00332F10 ?setAnimated@QTreeView@@QEAAX_N@Z
       5862 16E5 000443D0 ?setApi@QRhiWidget@@QEAAXW4Api@1@@Z
       5863 16E6 00225260 ?setArrowType@QToolButton@@QEAAXW4ArrowType@Qt@@@Z
       5864 16E7 003BF840 ?setAttribute@QGraphicsWidget@@QEAAXW4WidgetAttribute@Qt@@_N@Z
       5865 16E8 00064700 ?setAttribute@QWidget@@QEAAXW4WidgetAttribute@Qt@@_N@Z
       5866 16E9 0027ACF0 ?setAutoClose@QProgressDialog@@QEAAX_N@Z
       5867 16EA 001D21F0 ?setAutoDefault@QPushButton@@QEAAX_N@Z
       5868 16EB 0011F640 ?setAutoExclusive@QAbstractButton@@QEAAX_N@Z
       5869 16EC 00332F20 ?setAutoExpandDelay@QTreeView@@QEAAXH@Z
       5870 16ED 003BF900 ?setAutoFillBackground@QGraphicsWidget@@QEAAX_N@Z
       5871 16EE 00064D10 ?setAutoFillBackground@QWidget@@QEAAX_N@Z
       5872 16EF 0020A2C0 ?setAutoFormatting@QTextEdit@@QEAAXV?$QFlags@W4AutoFormattingFlag@QTextEdit@@@@@Z
       5873 16F0 001F8AB0 ?setAutoHide@QTabBar@@QEAAX_N@Z
       5874 16F1 002252C0 ?setAutoRaise@QToolButton@@QEAAX_N@Z
       5875 16F2 00044450 ?setAutoRenderTarget@QRhiWidget@@IEAAX_N@Z
       5876 16F3 0011F660 ?setAutoRepeat@QAbstractButton@@QEAAX_N@Z
       5877 16F4 0011F6D0 ?setAutoRepeatDelay@QAbstractButton@@QEAAXH@Z
       5878 16F5 0011F6E0 ?setAutoRepeatInterval@QAbstractButton@@QEAAXH@Z
       5879 16F6 0027AD00 ?setAutoReset@QProgressDialog@@QEAAX_N@Z
       5880 16F7 002BCA20 ?setAutoScroll@QAbstractItemView@@QEAAX_N@Z
       5881 16F8 002BCA30 ?setAutoScrollMargin@QAbstractItemView@@QEAAXH@Z
       5882 16F9 00016E70 ?setAutoSipEnabled@QApplication@@QEAAX_N@Z
       5883 16FA 003AD940 ?setAxis@QGraphicsRotation@@QEAAXAEBVQVector3D@@@Z
       5884 16FB 003AD9F0 ?setAxis@QGraphicsRotation@@QEAAXW4Axis@Qt@@@Z
       5885 16FC 00302A10 ?setBackground@QListWidgetItem@@QEAAXAEBVQBrush@@@Z
       5886 16FD 001A89D0 ?setBackground@QMdiArea@@QEAAXAEBVQBrush@@@Z
       5887 16FE 00302A10 ?setBackground@QTableWidgetItem@@QEAAXAEBVQBrush@@@Z
       5888 16FF 00344190 ?setBackground@QTreeWidgetItem@@QEAAXHAEBVQBrush@@@Z
       5889 1700 003A0AD0 ?setBackgroundBrush@QGraphicsScene@@QEAAXAEBVQBrush@@@Z
       5890 1701 003B90F0 ?setBackgroundBrush@QGraphicsView@@QEAAXAEBVQBrush@@@Z
       5891 1702 00064DB0 ?setBackgroundRole@QWidget@@QEAAXW4ColorRole@QPalette@@@Z
       5892 1703 00203770 ?setBackgroundVisible@QPlainTextEdit@@QEAAX_N@Z
       5893 1704 00064DE0 ?setBackingStore@QWidget@@AEAAXPEAVQBackingStore@@@Z
       5894 1705 00044470 ?setBackingStore@QWidgetRepaintManager@@QEAAXPEAVQBackingStore@@@Z
       5895 1706 0027AD10 ?setBar@QProgressDialog@@QEAAXPEAVQProgressBar@@@Z
       5896 1707 000019D0 ?setBaseSize@QWidget@@QEAAXAEBVQSize@@@Z
       5897 1708 00064F00 ?setBaseSize@QWidget@@QEAAXHH@Z
       5898 1709 000A2810 ?setBaseStyle@QProxyStyle@@QEAAXPEAVQStyle@@@Z
       5899 170A 002F7DD0 ?setBatchSize@QListView@@QEAAXH@Z
       5900 170B 00179250 ?setBinMode@QLCDNumber@@QEAAXXZ
       5901 170C 0018ACF0 ?setBlinkingCursorEnabled@QWidgetLineControl@@QEAAX_N@Z
       5902 170D 000F2390 ?setBlurHints@QGraphicsBlurEffect@@QEAAXV?$QFlags@W4BlurHint@QGraphicsBlurEffect@@@@@Z
       5903 170E 000F5650 ?setBlurHints@QPixmapBlurFilter@@QEAAXV?$QFlags@W4BlurHint@QGraphicsBlurEffect@@@@@Z
       5904 170F 000F2410 ?setBlurRadius@QGraphicsBlurEffect@@QEAAXN@Z
       5905 1710 000F2500 ?setBlurRadius@QGraphicsDropShadowEffect@@QEAAXN@Z
       5906 1711 000F5660 ?setBlurRadius@QPixmapDropShadowFilter@@QEAAXN@Z
       5907 1712 00374120 ?setBoundingRegionGranularity@QGraphicsItem@@QEAAXN@Z
       5908 1713 00374230 ?setBrush@QAbstractGraphicsShapeItem@@QEAAXAEBVQBrush@@@Z
       5909 1714 003A0B70 ?setBspTreeDepth@QGraphicsScene@@QEAAXH@Z
       5910 1715 00174840 ?setBuddy@QLabel@@QEAAXPEAVQWidget@@@Z
       5911 1716 003AA440 ?setButton@QGraphicsSceneMouseEvent@@QEAAXW4MouseButton@Qt@@@Z
       5912 1717 002868A0 ?setButton@QWizard@@QEAAXW4WizardButton@1@PEAVQAbstractButton@@@Z
       5913 1718 003AA450 ?setButtonDownPos@QGraphicsSceneMouseEvent@@QEAAXW4MouseButton@Qt@@AEBVQPointF@@@Z
       5914 1719 003AA480 ?setButtonDownScenePos@QGraphicsSceneMouseEvent@@QEAAXW4MouseButton@Qt@@AEBVQPointF@@@Z
       5915 171A 003AA4B0 ?setButtonDownScreenPos@QGraphicsSceneMouseEvent@@QEAAXW4MouseButton@Qt@@AEBVQPoint@@@Z
       5916 171B 002869A0 ?setButtonLayout@QWizard@@QEAAXAEBV?$QList@W4WizardButton@QWizard@@@@@Z
       5917 171C 001E2B30 ?setButtonSymbols@QAbstractSpinBox@@QEAAXW4ButtonSymbols@1@@Z
       5918 171D 00277310 ?setButtonText@QMessageBox@@QEAAXHAEBVQString@@@Z
       5919 171E 00286CF0 ?setButtonText@QWizard@@QEAAXW4WizardButton@1@AEBVQString@@@Z
       5920 171F 00286E50 ?setButtonText@QWizardPage@@QEAAXW4WizardButton@QWizard@@AEBVQString@@@Z
       5921 1720 003AA4E0 ?setButtons@QGraphicsSceneDragDropEvent@@QEAAXV?$QFlags@W4MouseButton@Qt@@@@@Z
       5922 1721 003AA4F0 ?setButtons@QGraphicsSceneMouseEvent@@QEAAXV?$QFlags@W4MouseButton@Qt@@@@@Z
       5923 1722 003AA500 ?setButtons@QGraphicsSceneWheelEvent@@QEAAXV?$QFlags@W4MouseButton@Qt@@@@@Z
       5924 1723 003742A0 ?setCacheMode@QGraphicsItem@@QEAAXW4CacheMode@1@AEBVQSize@@@Z
       5925 1724 003B9170 ?setCacheMode@QGraphicsView@@QEAAXV?$QFlags@W4CacheModeFlag@QGraphicsView@@@@@Z
       5926 1725 0012B820 ?setCalendar@QCalendarWidget@@QEAAXVQCalendar@@@Z
       5927 1726 00149350 ?setCalendar@QDateTimeEdit@@QEAAXVQCalendar@@@Z
       5928 1727 00149520 ?setCalendarPopup@QDateTimeEdit@@QEAAX_N@Z
       5929 1728 00149730 ?setCalendarWidget@QDateTimeEdit@@QEAAXPEAVQCalendarWidget@@@Z
       5930 1729 0027AE50 ?setCancelButton@QProgressDialog@@QEAAXPEAVQPushButton@@@Z
       5931 172A 002716D0 ?setCancelButtonText@QInputDialog@@QEAAXAEBVQString@@@Z
       5932 172B 0027B050 ?setCancelButtonText@QProgressDialog@@QEAAXAEBVQString@@@Z
       5933 172C 0013CC50 ?setCancelText@QWidgetLineControl@@QEAAXAEBVQString@@@Z
       5934 172D 002CFCC0 ?setCascadingSectionResizes@QHeaderView@@QEAAX_N@Z
       5935 172E 003D2C30 ?setCaseSensitivity@QCompleter@@QEAAXW4CaseSensitivity@Qt@@@Z
       5936 172F 0031E9C0 ?setCellWidget@QTableWidget@@QEAAXHHPEAVQWidget@@@Z
       5937 1730 001D78D0 ?setCenterButtons@QDialogButtonBox@@QEAAX_N@Z
       5938 1731 00203850 ?setCenterOnScroll@QPlainTextEdit@@QEAAX_N@Z
       5939 1732 00022020 ?setCenterPoint@QPinchGesture@@QEAAXAEBVQPointF@@@Z
       5940 1733 0018EB10 ?setCentralWidget@QMainWindow@@QEAAXPEAVQWidget@@@Z
       5941 1734 001F8B20 ?setChangeCurrentOnDrag@QTabBar@@QEAAX_N@Z
       5942 1735 00022040 ?setChangeFlags@QPinchGesture@@QEAAXV?$QFlags@W4ChangeFlag@QPinchGesture@@@@@Z
       5943 1736 00277420 ?setCheckBox@QMessageBox@@QEAAXPEAVQCheckBox@@@Z
       5944 1737 0012F860 ?setCheckState@QCheckBox@@QEAAXW4CheckState@Qt@@@Z
       5945 1738 00302AC0 ?setCheckState@QListWidgetItem@@QEAAXW4CheckState@Qt@@@Z
       5946 1739 00302AC0 ?setCheckState@QTableWidgetItem@@QEAAXW4CheckState@Qt@@@Z
       5947 173A 00344250 ?setCheckState@QTreeWidgetItem@@QEAAXHW4CheckState@Qt@@@Z
       5948 173B 0011F6F0 ?setCheckable@QAbstractButton@@QEAAX_N@Z
       5949 173C 0016E780 ?setCheckable@QGroupBox@@QEAAX_N@Z
       5950 173D 0011F720 ?setChecked@QAbstractButton@@QEAAX_N@Z
       5951 173E 0016EA10 ?setChecked@QGroupBox@@QEAAX_N@Z
       5952 173F 003442C0 ?setChildIndicatorPolicy@QTreeWidgetItem@@QEAAXW4ChildIndicatorPolicy@1@@Z
       5953 1740 001ED7B0 ?setChildrenCollapsible@QSplitter@@QEAAX_N@Z
       5954 1741 003E2690 ?setCleanIcon@QUndoView@@QEAAXAEBVQIcon@@@Z
       5955 1742 00170CC0 ?setClearButtonEnabled@QKeySequenceEdit@@QEAAX_N@Z
       5956 1743 0017F580 ?setClearButtonEnabled@QLineEdit@@QEAAX_N@Z
       5957 1744 002D86B0 ?setClipping@QItemDelegate@@QEAAX_N@Z
       5958 1745 001ED7C0 ?setCollapsible@QSplitter@@QEAAXH_N@Z
       5959 1746 000F2610 ?setColor@QGraphicsColorizeEffect@@QEAAXAEBVQColor@@@Z
       5960 1747 000F26D0 ?setColor@QGraphicsDropShadowEffect@@QEAAXAEBVQColor@@@Z
       5961 1748 000F5670 ?setColor@QPixmapColorizeFilter@@QEAAXAEBVQColor@@@Z
       5962 1749 000F5680 ?setColor@QPixmapDropShadowFilter@@QEAAXAEBVQColor@@@Z
       5963 174A 00044480 ?setColorBufferFormat@QRhiWidget@@QEAAXW4TextureFormat@1@@Z
       5964 174B 0035E860 ?setColumnAlignment@QGraphicsGridLayout@@QEAAXHV?$QFlags@W4AlignmentFlag@Qt@@@@@Z
       5965 174C 0031EA50 ?setColumnCount@QTableWidget@@QEAAXH@Z
       5966 174D 00344690 ?setColumnCount@QTreeWidget@@QEAAXH@Z
       5967 174E 0035E8A0 ?setColumnFixedWidth@QGraphicsGridLayout@@QEAAXHN@Z
       5968 174F 0030F1C0 ?setColumnHidden@QTableView@@QEAAXH_N@Z
       5969 1750 00332F30 ?setColumnHidden@QTreeView@@QEAAXH_N@Z
       5970 1751 0035E930 ?setColumnMaximumWidth@QGraphicsGridLayout@@QEAAXHN@Z
       5971 1752 0035E980 ?setColumnMinimumWidth@QGraphicsGridLayout@@QEAAXHN@Z
       5972 1753 0003A080 ?setColumnMinimumWidth@QGridLayout@@QEAAXHH@Z
       5973 1754 0035E9C0 ?setColumnPreferredWidth@QGraphicsGridLayout@@QEAAXHN@Z
       5974 1755 0035EA10 ?setColumnSpacing@QGraphicsGridLayout@@QEAAXHN@Z
       5975 1756 0003A140 ?setColumnStretch@QGridLayout@@QEAAXHH@Z
       5976 1757 0035EA50 ?setColumnStretchFactor@QGraphicsGridLayout@@QEAAXHH@Z
       5977 1758 0030F210 ?setColumnWidth@QTableView@@QEAAXHH@Z
       5978 1759 00332F80 ?setColumnWidth@QTreeView@@QEAAXHH@Z
       5979 175A 002E3A40 ?setColumnWidths@QColumnView@@QEAAXAEBV?$QList@H@@@Z
       5980 175B 00271710 ?setComboBoxEditable@QInputDialog@@QEAAX_N@Z
       5981 175C 00271780 ?setComboBoxItems@QInputDialog@@QEAAXAEBV?$QList@VQString@@@@@Z
       5982 175D 00286F20 ?setCommitPage@QWizardPage@@QEAAX_N@Z
       5983 175E 0013CC60 ?setCompleter@QComboBox@@QEAAXPEAVQCompleter@@@Z
       5984 175F 0017F7A0 ?setCompleter@QLineEdit@@QEAAXPEAVQCompleter@@@Z
       5985 1760 0013CD70 ?setCompleter@QWidgetLineControl@@QEAAXPEBVQCompleter@@@Z
       5986 1761 003D2C70 ?setCompletionColumn@QCompleter@@QEAAXH@Z
       5987 1762 003D2CD0 ?setCompletionMode@QCompleter@@QEAAXW4CompletionMode@1@@Z
       5988 1763 003D2DF0 ?setCompletionPrefix@QCompleter@@QEAAXAEBVQString@@@Z
       5989 1764 003D2EA0 ?setCompletionRole@QCompleter@@QEAAXH@Z
       5990 1765 00064F90 ?setConstraints_sys@QWidgetPrivate@@QEAAXXZ
       5991 1766 0037C390 ?setContentsMargins@QGraphicsLayout@@QEAAXNNNN@Z
       5992 1767 003BF960 ?setContentsMargins@QGraphicsWidget@@QEAAXNNNN@Z
       5993 1768 003BF9A0 ?setContentsMargins@QGraphicsWidget@@QEAAXVQMarginsF@@@Z
       5994 1769 0003EF40 ?setContentsMargins@QLayout@@QEAAXAEBVQMargins@@@Z
       5995 176A 0003EFA0 ?setContentsMargins@QLayout@@QEAAXHHHH@Z
       5996 176B 000650B0 ?setContentsMargins@QWidget@@QEAAXAEBVQMargins@@@Z
       5997 176C 00065120 ?setContentsMargins@QWidget@@QEAAXHHHH@Z
       5998 176D 000E73D0 ?setContextMenu@QSystemTrayIcon@@QEAAXPEAVQMenu@@@Z
       5999 176E 00065180 ?setContextMenuPolicy@QWidget@@QEAAXW4ContextMenuPolicy@Qt@@@Z
       6000 176F 00044DE0 ?setControlType@QSizePolicy@@QEAAXW4ControlType@1@@Z
       6001 1770 000F5690 ?setConvolutionKernel@QPixmapConvolutionFilter@@QEAAXPEBNHH@Z
       6002 1771 0018EC10 ?setCorner@QMainWindow@@QEAAXW4Corner@Qt@@W4DockWidgetArea@3@@Z
       6003 1772 0030F220 ?setCornerButtonEnabled@QTableView@@QEAAX_N@Z
       6004 1773 000EAD40 ?setCornerWidget@QAbstractScrollArea@@QEAAXPEAVQWidget@@@Z
       6005 1774 001CD850 ?setCornerWidget@QMenuBar@@QEAAXPEAVQWidget@@W4Corner@Qt@@@Z
       6006 1775 00211AE0 ?setCornerWidget@QTabWidget@@QEAAXPEAVQWidget@@W4Corner@Qt@@@Z
       6007 1776 001E2B80 ?setCorrectionMode@QAbstractSpinBox@@QEAAXW4CorrectionMode@1@@Z
       6008 1777 0031EAF0 ?setCurrentCell@QTableWidget@@QEAAXHH@Z
       6009 1778 0031EB70 ?setCurrentCell@QTableWidget@@QEAAXHHV?$QFlags@W4SelectionFlag@QItemSelectionModel@@@@@Z
       6010 1779 00203890 ?setCurrentCharFormat@QPlainTextEdit@@QEAAXAEBVQTextCharFormat@@@Z
       6011 177A 0020A2D0 ?setCurrentCharFormat@QTextEdit@@QEAAXAEBVQTextCharFormat@@@Z
       6012 177B 002369E0 ?setCurrentCharFormat@QWidgetTextControl@@QEAAXAEBVQTextCharFormat@@@Z
       6013 177C 002408D0 ?setCurrentColor@QColorDialog@@QEAAXAEBVQColor@@@Z
       6014 177D 0016BAA0 ?setCurrentFont@QFontComboBox@@QEAAXAEBVQFont@@@Z
       6015 177E 0026B940 ?setCurrentFont@QFontDialog@@QEAAXAEBVQFont@@@Z
       6016 177F 0020A2E0 ?setCurrentFont@QTextEdit@@QEAAXAEBVQFont@@@Z
       6017 1780 00286FB0 ?setCurrentId@QWizard@@QEAAXH@Z
       6018 1781 002BCA40 ?setCurrentIndex@QAbstractItemView@@QEAAXAEBVQModelIndex@@@Z
       6019 1782 0013CDD0 ?setCurrentIndex@QComboBox@@QEAAXH@Z
       6020 1783 002E7020 ?setCurrentIndex@QDataWidgetMapper@@UEAAXH@Z
       6021 1784 00045D50 ?setCurrentIndex@QStackedLayout@@QEAAXH@Z
       6022 1785 001EEE40 ?setCurrentIndex@QStackedWidget@@QEAAXH@Z
       6023 1786 001F8B70 ?setCurrentIndex@QTabBar@@QEAAXH@Z
       6024 1787 00211B80 ?setCurrentIndex@QTabWidget@@QEAAXH@Z
       6025 1788 00222160 ?setCurrentIndex@QToolBox@@QEAAXH@Z
       6026 1789 00302B30 ?setCurrentItem@QListWidget@@QEAAXPEAVQListWidgetItem@@@Z
       6027 178A 00302CC0 ?setCurrentItem@QListWidget@@QEAAXPEAVQListWidgetItem@@V?$QFlags@W4SelectionFlag@QItemSelectionModel@@@@@Z
       6028 178B 0031EC40 ?setCurrentItem@QTableWidget@@QEAAXPEAVQTableWidgetItem@@@Z
       6029 178C 0031EC90 ?setCurrentItem@QTableWidget@@QEAAXPEAVQTableWidgetItem@@V?$QFlags@W4SelectionFlag@QItemSelectionModel@@@@@Z
       6030 178D 003446D0 ?setCurrentItem@QTreeWidget@@QEAAXPEAVQTreeWidgetItem@@@Z
       6031 178E 00344730 ?setCurrentItem@QTreeWidget@@QEAAXPEAVQTreeWidgetItem@@H@Z
       6032 178F 00344790 ?setCurrentItem@QTreeWidget@@QEAAXPEAVQTreeWidgetItem@@HV?$QFlags@W4SelectionFlag@QItemSelectionModel@@@@@Z
       6033 1790 002E7170 ?setCurrentModelIndex@QDataWidgetMapper@@QEAAXAEBVQModelIndex@@@Z
       6034 1791 001F8D50 ?setCurrentNextEnabledIndex@QTabBarPrivate@@QEAAXH@Z
       6035 1792 0012B900 ?setCurrentPage@QCalendarWidget@@QEAAXHH@Z
       6036 1793 003D3080 ?setCurrentRow@QCompleter@@QEAA_NH@Z
       6037 1794 00302E60 ?setCurrentRow@QListWidget@@QEAAXH@Z
       6038 1795 00302F30 ?setCurrentRow@QListWidget@@QEAAXHV?$QFlags@W4SelectionFlag@QItemSelectionModel@@@@@Z
       6039 1796 001497E0 ?setCurrentSection@QDateTimeEdit@@QEAAXW4Section@1@@Z
       6040 1797 001499B0 ?setCurrentSectionIndex@QDateTimeEdit@@QEAAXH@Z
       6041 1798 0013D230 ?setCurrentText@QComboBox@@QEAAXAEBVQString@@@Z
       6042 1799 00046070 ?setCurrentWidget@QStackedLayout@@QEAAXPEAVQWidget@@@Z
       6043 179A 001EEE50 ?setCurrentWidget@QStackedWidget@@QEAAXPEAVQWidget@@@Z
       6044 179B 00211B90 ?setCurrentWidget@QTabWidget@@QEAAXPEAVQWidget@@@Z
       6045 179C 00222250 ?setCurrentWidget@QToolBox@@QEAAXPEAVQWidget@@@Z
       6046 179D 003743C0 ?setCursor@QGraphicsItem@@QEAAXAEBVQCursor@@@Z
       6047 179E 000651A0 ?setCursor@QWidget@@QEAAXAEBVQCursor@@@Z
       6048 179F 00016E80 ?setCursorFlashTime@QApplication@@SAXH@Z
       6049 17A0 00236AA0 ?setCursorIsFocusIndicator@QWidgetTextControl@@QEAAX_N@Z
       6050 17A1 0017F960 ?setCursorMoveStyle@QLineEdit@@QEAAXW4CursorMoveStyle@Qt@@@Z
       6051 17A2 0013D2F0 ?setCursorMoveStyle@QWidgetLineControl@@QEAAXW4CursorMoveStyle@Qt@@@Z
       6052 17A3 0017F980 ?setCursorPosition@QLineEdit@@QEAAXH@Z
       6053 17A4 0013D300 ?setCursorPosition@QWidgetLineControl@@QEAAXH@Z
       6054 17A5 002038A0 ?setCursorWidth@QPlainTextDocumentLayout@@QEAAXH@Z
       6055 17A6 002038B0 ?setCursorWidth@QPlainTextEdit@@QEAAXH@Z
       6056 17A7 0020A340 ?setCursorWidth@QTextEdit@@QEAAXH@Z
       6057 17A8 0013D320 ?setCursorWidth@QWidgetLineControl@@QEAAXH@Z
       6058 17A9 00236C20 ?setCursorWidth@QWidgetTextControl@@QEAAXH@Z
       6059 17AA 00065280 ?setCursor_sys@QWidgetPrivate@@QEAAXAEBVQCursor@@@Z
       6060 17AB 002409E0 ?setCustomColor@QColorDialog@@SAXHVQColor@@@Z
       6061 17AC 00374860 ?setData@QGraphicsItem@@QEAAXHAEBVQVariant@@@Z
       6062 17AD 00303050 ?setData@QListWidgetItem@@UEAAXHAEBVQVariant@@@Z
       6063 17AE 0031EE80 ?setData@QTableWidgetItem@@UEAAXHAEBVQVariant@@@Z
       6064 17AF 00344890 ?setData@QTreeWidgetItem@@UEAAXHHAEBVQVariant@@@Z
       6065 17B0 00149A00 ?setDate@QDateTimeEdit@@QEAAXVQDate@@@Z
       6066 17B1 0012BCC0 ?setDateEditAcceptDelay@QCalendarWidget@@QEAAXH@Z
       6067 17B2 0012BCD0 ?setDateEditEnabled@QCalendarWidget@@QEAAX_N@Z
       6068 17B3 0012BD10 ?setDateRange@QCalendarWidget@@QEAAXVQDate@@0@Z
       6069 17B4 00149B00 ?setDateRange@QDateTimeEdit@@QEAAXVQDate@@0@Z
       6070 17B5 0012BEA0 ?setDateTextFormat@QCalendarWidget@@QEAAXVQDate@@AEBVQTextCharFormat@@@Z
       6071 17B6 00149BF0 ?setDateTime@QDateTimeEdit@@QEAAXAEBVQDateTime@@@Z
       6072 17B7 00149CE0 ?setDateTimeRange@QDateTimeEdit@@QEAAXAEBVQDateTime@@0@Z
       6073 17B8 00044540 ?setDebugLayerEnabled@QRhiWidget@@QEAAX_N@Z
       6074 17B9 00179270 ?setDecMode@QLCDNumber@@QEAAXXZ
       6075 17BA 001E6250 ?setDecimals@QDoubleSpinBox@@QEAAXH@Z
       6076 17BB 002438D0 ?setDefault@QDialogPrivate@@QEAAXPEAVQPushButton@@@Z
       6077 17BC 001D2260 ?setDefault@QPushButton@@QEAAX_N@Z
       6078 17BD 001C5ED0 ?setDefaultAction@QMenu@@QEAAXPEAVQAction@@@Z
       6079 17BE 002252E0 ?setDefaultAction@QToolButton@@QEAAXPEAVQAction@@@Z
       6080 17BF 002CFCD0 ?setDefaultAlignment@QHeaderView@@QEAAXV?$QFlags@W4AlignmentFlag@Qt@@@@@Z
       6081 17C0 002774F0 ?setDefaultButton@QMessageBox@@QEAAXPEAVQPushButton@@@Z
       6082 17C1 002775B0 ?setDefaultButton@QMessageBox@@QEAAXW4StandardButton@1@@Z
       6083 17C2 002BCB20 ?setDefaultDropAction@QAbstractItemView@@QEAAXW4DropAction@Qt@@@Z
       6084 17C3 002DBF80 ?setDefaultFactory@QItemEditorFactory@@SAXPEAV1@@Z
       6085 17C4 0003A200 ?setDefaultPositioning@QGridLayout@@QEAAXHW4Orientation@Qt@@@Z
       6086 17C5 002870A0 ?setDefaultProperty@QWizard@@QEAAXPEBD00@Z
       6087 17C6 003E10F0 ?setDefaultScrollerProperties@QScrollerProperties@@SAXAEBV1@@Z
       6088 17C7 002CFCF0 ?setDefaultSectionSize@QHeaderView@@QEAAXH@Z
       6089 17C8 0025C400 ?setDefaultSuffix@QFileDialog@@QEAAXAEBVQString@@@Z
       6090 17C9 00374920 ?setDefaultTextColor@QGraphicsTextItem@@QEAAXAEBVQColor@@@Z
       6091 17CA 001CDDB0 ?setDefaultUp@QMenuBar@@QEAAX_N@Z
       6092 17CB 000F65C0 ?setDefaultWidget@QWidgetAction@@QEAAXPEAVQWidget@@@Z
       6093 17CC 00102ED0 ?setDelay@QStyleAnimation@@QEAAXH@Z
       6094 17CD 003AA510 ?setDelta@QGraphicsSceneWheelEvent@@QEAAXH@Z
       6095 17CE 00143590 ?setDescription@QCommandLinkButton@@QEAAXAEBVQString@@@Z
       6096 17CF 00277680 ?setDetailedText@QMessageBox@@QEAAXAEBVQString@@@Z
       6097 17D0 00179290 ?setDigitCount@QLCDNumber@@QEAAXH@Z
       6098 17D1 0001C9F0 ?setDirection@QBoxLayout@@QEAAXW4Direction@1@@Z
       6099 17D2 00002B20 ?setDirectory@QFileDialog@@QEAAXAEBVQDir@@@Z
       6100 17D3 0025C420 ?setDirectory@QFileDialog@@QEAAXAEBVQString@@@Z
       6101 17D4 0025C8C0 ?setDirectoryUrl@QFileDialog@@QEAAXAEBVQUrl@@@Z
       6102 17D5 0025CA80 ?setDirectory_sys@QFileDialogPrivate@@QEAAXAEBVQUrl@@@Z
       6103 17D6 00065290 ?setDirtyOpaqueRegion@QWidgetPrivate@@QEAAXXZ
       6104 17D7 002BCB30 ?setDirtyRegion@QAbstractItemView@@IEAAXAEBVQRegion@@@Z
       6105 17D8 00345010 ?setDisabled@QTreeWidgetItem@@QEAAX_N@Z
       6106 17D9 00065350 ?setDisabled@QWidget@@QEAAX_N@Z
       6107 17DA 0016BB40 ?setDisplayFont@QFontComboBox@@QEAAXAEBVQString@@AEBVQFont@@@Z
       6108 17DB 00149E20 ?setDisplayFormat@QDateTimeEdit@@QEAAXAEBVQString@@@Z
       6109 17DC 001E6330 ?setDisplayIntegerBase@QSpinBox@@QEAAXH@Z
       6110 17DD 0018ECB0 ?setDockNestingEnabled@QMainWindow@@QEAAX_N@Z
       6111 17DE 0018ED10 ?setDockOptions@QMainWindow@@QEAAXV?$QFlags@W4DockOption@QMainWindow@@@@@Z
       6112 17DF 003749F0 ?setDocument@QGraphicsTextItem@@QEAAXPEAVQTextDocument@@@Z
       6113 17E0 002038C0 ?setDocument@QPlainTextEdit@@QEAAXPEAVQTextDocument@@@Z
       6114 17E1 0020A350 ?setDocument@QTextEdit@@QEAAXPEAVQTextDocument@@@Z
       6115 17E2 00236D00 ?setDocument@QWidgetTextControl@@QEAAXPEAVQTextDocument@@@Z
       6116 17E3 0018ED40 ?setDocumentMode@QMainWindow@@QEAAX_N@Z
       6117 17E4 001A8A50 ?setDocumentMode@QMdiArea@@QEAAX_N@Z
       6118 17E5 001F8DC0 ?setDocumentMode@QTabBar@@QEAAX_N@Z
       6119 17E6 00211BC0 ?setDocumentMode@QTabWidget@@QEAAX_N@Z
       6120 17E7 000D2730 ?setDocumentTitle@QPlainTextEdit@@QEAAXAEBVQString@@@Z
       6121 17E8 000A0E80 ?setDocumentTitle@QTextEdit@@QEAAXAEBVQString@@@Z
       6122 17E9 00016EA0 ?setDoubleClickInterval@QApplication@@SAXH@Z
       6123 17EA 00271910 ?setDoubleDecimals@QInputDialog@@QEAAXH@Z
       6124 17EB 00271940 ?setDoubleMaximum@QInputDialog@@QEAAXN@Z
       6125 17EC 00271980 ?setDoubleMinimum@QInputDialog@@QEAAXN@Z
       6126 17ED 002719C0 ?setDoubleRange@QInputDialog@@QEAAXNN@Z
       6127 17EE 00271A10 ?setDoubleStep@QInputDialog@@QEAAXN@Z
       6128 17EF 00271A50 ?setDoubleValue@QInputDialog@@QEAAXN@Z
       6129 17F0 0011FAC0 ?setDown@QAbstractButton@@QEAAX_N@Z
       6130 17F1 002BCB70 ?setDragDropMode@QAbstractItemView@@QEAAXW4DragDropMode@1@@Z
       6131 17F2 002BCBB0 ?setDragDropOverwriteMode@QAbstractItemView@@QEAAX_N@Z
       6132 17F3 002BCBC0 ?setDragEnabled@QAbstractItemView@@QEAAX_N@Z
       6133 17F4 0017F9B0 ?setDragEnabled@QLineEdit@@QEAAX_N@Z
       6134 17F5 00236DD0 ?setDragEnabled@QWidgetTextControl@@QEAAX_N@Z
       6135 17F6 003B9190 ?setDragMode@QGraphicsView@@QEAAXW4DragMode@1@@Z
       6136 17F7 001F8DE0 ?setDrawBase@QTabBar@@QEAAX_N@Z
       6137 17F8 003AA510 ?setDropAction@QGraphicsSceneDragDropEvent@@QEAAXW4DropAction@Qt@@@Z
       6138 17F9 002BCBD0 ?setDropIndicatorShown@QAbstractItemView@@QEAAX_N@Z
       6139 17FA 0013D330 ?setDuplicatesEnabled@QComboBox@@QEAAX_N@Z
       6140 17FB 00102EE0 ?setDuration@QStyleAnimation@@QEAAXH@Z
       6141 17FC 0017F9D0 ?setEchoMode@QLineEdit@@QEAAXW4EchoMode@1@@Z
       6142 17FD 0013D350 ?setEchoMode@QWidgetLineControl@@QEAAXI@Z
       6143 17FE 0013D3C0 ?setEditText@QComboBox@@QEAAXAEBVQString@@@Z
       6144 17FF 001E2B80 ?setEditTriggers@QAbstractItemView@@QEAAXV?$QFlags@W4EditTrigger@QAbstractItemView@@@@@Z
       6145 1800 0013D460 ?setEditable@QComboBox@@QEAAX_N@Z
       6146 1801 00009A60 ?setEditorData@QAbstractItemDelegate@@UEBAXPEAVQWidget@@AEBVQModelIndex@@@Z
       6147 1802 002D86C0 ?setEditorData@QItemDelegate@@UEBAXPEAVQWidget@@AEBVQModelIndex@@@Z
       6148 1803 002D86C0 ?setEditorData@QStyledItemDelegate@@UEBAXPEAVQWidget@@AEBVQModelIndex@@@Z
       6149 1804 00016EC0 ?setEffectEnabled@QApplication@@SAXW4UIEffect@Qt@@_N@Z
       6150 1805 001F8E10 ?setElideMode@QTabBar@@QEAAXW4TextElideMode@Qt@@@Z
       6151 1806 00211C30 ?setElideMode@QTabWidget@@QEAAXW4TextElideMode@Qt@@@Z
       6152 1807 003E2760 ?setEmptyLabel@QUndoView@@QEAAXAEBVQString@@@Z
       6153 1808 000F2790 ?setEnabled@QGraphicsEffect@@QEAAX_N@Z
       6154 1809 00374A40 ?setEnabled@QGraphicsItem@@QEAAX_N@Z
       6155 180A 0003F000 ?setEnabled@QLayout@@QEAAX_N@Z
       6156 180B 000653A0 ?setEnabled@QWidget@@QEAAX_N@Z
       6157 180C 00374A50 ?setEnabledHelper@QGraphicsItemPrivate@@QEAAX_N00@Z
       6158 180D 000653F0 ?setEnabled_helper@QWidgetPrivate@@QEAAX_N@Z
       6159 180E 00102EF0 ?setEndImage@QBlendStyleAnimation@@QEAAXAEBVQImage@@@Z
       6160 180F 00102F00 ?setEndValue@QNumberStyleAnimation@@QEAAXN@Z
       6161 1810 002779D0 ?setEscapeButton@QMessageBox@@QEAAXPEAVQAbstractButton@@@Z
       6162 1811 00277A70 ?setEscapeButton@QMessageBox@@QEAAXW4StandardButton@1@@Z
       6163 1812 00123580 ?setExclusive@QButtonGroup@@QEAAX_N@Z
       6164 1813 00332F90 ?setExpanded@QTreeView@@QEAAXAEBVQModelIndex@@_N@Z
       6165 1814 00345030 ?setExpanded@QTreeWidgetItem@@QEAAX_N@Z
       6166 1815 001F8F00 ?setExpanding@QTabBar@@QEAAX_N@Z
       6167 1816 00303A90 ?setExpandsOnDoubleClick@QTreeView@@QEAAX_N@Z
       6168 1817 00009A60 ?setExtension@QGraphicsEllipseItem@@MEAAXW4Extension@QGraphicsItem@@AEBVQVariant@@@Z
       6169 1818 00009A60 ?setExtension@QGraphicsItem@@MEAAXW4Extension@1@AEBVQVariant@@@Z
       6170 1819 00009A60 ?setExtension@QGraphicsLineItem@@MEAAXW4Extension@QGraphicsItem@@AEBVQVariant@@@Z
       6171 181A 00009A60 ?setExtension@QGraphicsPathItem@@MEAAXW4Extension@QGraphicsItem@@AEBVQVariant@@@Z
       6172 181B 00009A60 ?setExtension@QGraphicsPixmapItem@@MEAAXW4Extension@QGraphicsItem@@AEBVQVariant@@@Z
       6173 181C 00009A60 ?setExtension@QGraphicsPolygonItem@@MEAAXW4Extension@QGraphicsItem@@AEBVQVariant@@@Z
       6174 181D 00009A60 ?setExtension@QGraphicsRectItem@@MEAAXW4Extension@QGraphicsItem@@AEBVQVariant@@@Z
       6175 181E 00009A60 ?setExtension@QGraphicsSimpleTextItem@@MEAAXW4Extension@QGraphicsItem@@AEBVQVariant@@@Z
       6176 181F 00009A60 ?setExtension@QGraphicsTextItem@@MEAAXW4Extension@QGraphicsItem@@AEBVQVariant@@@Z
       6177 1820 00036430 ?setExtra@QGraphicsItemPrivate@@QEAAXW4Extra@1@AEBVQVariant@@@Z
       6178 1821 00203AE0 ?setExtraSelections@QPlainTextEdit@@QEAAXAEBV?$QList@UExtraSelection@QTextEdit@@@@@Z
       6179 1822 0020A400 ?setExtraSelections@QTextEdit@@QEAAXAEBV?$QList@UExtraSelection@QTextEdit@@@@@Z
       6180 1823 00236DE0 ?setExtraSelections@QWidgetTextControl@@QEAAXAEBV?$QList@UExtraSelection@QTextEdit@@@@@Z
       6181 1824 00165080 ?setFeatures@QDockWidget@@QEAAXV?$QFlags@W4DockWidgetFeature@QDockWidget@@@@@Z
       6182 1825 002872E0 ?setField@QWizard@@QEAAXAEBVQString@@AEBVQVariant@@@Z
       6183 1826 002873E0 ?setField@QWizardPage@@IEAAXAEBVQString@@AEBVQVariant@@@Z
       6184 1827 000FA360 ?setFieldGrowthPolicy@QFormLayout@@QEAAXW4FieldGrowthPolicy@1@@Z
       6185 1828 0025CAE0 ?setFileMode@QFileDialog@@QEAAXW4FileMode@1@@Z
       6186 1829 00374E30 ?setFillRule@QGraphicsPolygonItem@@QEAAXW4FillRule@Qt@@@Z
       6187 182A 0025CD40 ?setFilter@QFileDialog@@QEAAXV?$QFlags@W4Filter@QDir@@@@@Z
       6188 182B 003D31E0 ?setFilterMode@QCompleter@@QEAAXV?$QFlags@W4MatchFlag@Qt@@@@@Z
       6189 182C 0025CDD0 ?setFilter_sys@QFileDialogPrivate@@QEAAXXZ
       6190 182D 00374E70 ?setFiltersChildEvents@QGraphicsItem@@QEAAX_N@Z
       6191 182E 00287400 ?setFinalPage@QWizardPage@@QEAAX_N@Z
       6192 182F 00170CD0 ?setFinishingKeyCombinations@QKeySequenceEdit@@QEAAXAEBV?$QList@VQKeyCombination@@@@@Z
       6193 1830 00332FA0 ?setFirstColumnSpanned@QTreeView@@QEAAXHAEBVQModelIndex@@_N@Z
       6194 1831 003450F0 ?setFirstColumnSpanned@QTreeWidgetItem@@QEAAX_N@Z
       6195 1832 0012C040 ?setFirstDayOfWeek@QCalendarWidget@@QEAAXW4DayOfWeek@Qt@@@Z
       6196 1833 002D0010 ?setFirstSectionMovable@QHeaderView@@QEAAX_N@Z
       6197 1834 00002910 ?setFixedColorBufferSize@QRhiWidget@@QEAAXHH@Z
       6198 1835 00044550 ?setFixedColorBufferSize@QRhiWidget@@QEAAXVQSize@@@Z
       6199 1836 000657C0 ?setFixedHeight@QWidget@@QEAAXH@Z
       6200 1837 00065880 ?setFixedSize@QWidget@@QEAAXAEBVQSize@@@Z
       6201 1838 00065890 ?setFixedSize@QWidget@@QEAAXHH@Z
       6202 1839 000659F0 ?setFixedWidth@QWidget@@QEAAXH@Z
       6203 183A 00374FB0 ?setFlag@QGraphicsItem@@QEAAXW4GraphicsItemFlag@1@_N@Z
       6204 183B 00374FF0 ?setFlags@QGraphicsItem@@QEAAXV?$QFlags@W4GraphicsItemFlag@QGraphicsItem@@@@@Z
       6205 183C 003AA520 ?setFlags@QGraphicsSceneMouseEvent@@QEAAXV?$QFlags@W4MouseEventFlag@Qt@@@@@Z
       6206 183D 00303370 ?setFlags@QListWidgetItem@@QEAAXV?$QFlags@W4ItemFlag@Qt@@@@@Z
       6207 183E 0031F140 ?setFlags@QTableWidgetItem@@QEAAXV?$QFlags@W4ItemFlag@Qt@@@@@Z
       6208 183F 003451C0 ?setFlags@QTreeWidgetItem@@QEAAXV?$QFlags@W4ItemFlag@Qt@@@@@Z
       6209 1840 0016EAD0 ?setFlat@QGroupBox@@QEAAX_N@Z
       6210 1841 001D2330 ?setFlat@QPushButton@@QEAAX_N@Z
       6211 1842 002153B0 ?setFloatable@QToolBar@@QEAAX_N@Z
       6212 1843 00165240 ?setFloating@QDockWidget@@QEAAX_N@Z
       6213 1844 002F7E20 ?setFlow@QListView@@QEAAXW4Flow@1@@Z
       6214 1845 00375990 ?setFocus@QGraphicsItem@@QEAAXW4FocusReason@Qt@@@Z
       6215 1846 003A0CA0 ?setFocus@QGraphicsScene@@QEAAXW4FocusReason@Qt@@@Z
       6216 1847 00065AB0 ?setFocus@QWidget@@QEAAXW4FocusReason@Qt@@@Z
       6217 1848 000019E0 ?setFocus@QWidget@@QEAAXXZ
       6218 1849 00237600 ?setFocus@QWidgetTextControl@@QEAAX_NW4FocusReason@Qt@@@Z
       6219 184A 003759A0 ?setFocusHelper@QGraphicsItemPrivate@@QEAAXW4FocusReason@Qt@@_N1@Z
       6220 184B 003A0D00 ?setFocusItem@QGraphicsScene@@QEAAXPEAVQGraphicsItem@@W4FocusReason@Qt@@@Z
       6221 184C 003A0FD0 ?setFocusOnTouch@QGraphicsScene@@QEAAX_N@Z
       6222 184D 003BFAC0 ?setFocusPolicy@QGraphicsWidget@@QEAAXW4FocusPolicy@Qt@@@Z
       6223 184E 00065FC0 ?setFocusPolicy@QWidget@@QEAAXW4FocusPolicy@Qt@@@Z
       6224 184F 00375C60 ?setFocusProxy@QGraphicsItem@@QEAAXPEAV1@@Z
       6225 1850 00066050 ?setFocusProxy@QWidget@@QEAAXPEAV1@@Z
       6226 1851 002376A0 ?setFocusToAnchor@QWidgetTextControl@@QEAA_NAEBVQTextCursor@@@Z
       6227 1852 00237830 ?setFocusToNextOrPreviousAnchor@QWidgetTextControl@@QEAA_N_N@Z
       6228 1853 00016F60 ?setFocusWidget@QApplicationPrivate@@SAXPEAVQWidget@@W4FocusReason@Qt@@@Z
       6229 1854 000662F0 ?setFocus_sys@QWidgetPrivate@@QEAAXXZ
       6230 1855 000171C0 ?setFont@QApplication@@SAXAEBVQFont@@PEBD@Z
       6231 1856 003A0FF0 ?setFont@QGraphicsScene@@QEAAXAEBVQFont@@@Z
       6232 1857 00375EB0 ?setFont@QGraphicsSimpleTextItem@@QEAAXAEBVQFont@@@Z
       6233 1858 00375EE0 ?setFont@QGraphicsTextItem@@QEAAXAEBVQFont@@@Z
       6234 1859 003BFB20 ?setFont@QGraphicsWidget@@QEAAXAEBVQFont@@@Z
       6235 185A 003033F0 ?setFont@QListWidgetItem@@QEAAXAEBVQFont@@@Z
       6236 185B 003033F0 ?setFont@QTableWidgetItem@@QEAAXAEBVQFont@@@Z
       6237 185C 000FF5F0 ?setFont@QToolTip@@SAXAEBVQFont@@@Z
       6238 185D 00345580 ?setFont@QTreeWidgetItem@@QEAAXHAEBVQFont@@@Z
       6239 185E 00066400 ?setFont@QWidget@@QEAAXAEBVQFont@@@Z
       6240 185F 0013D620 ?setFont@QWidgetLineControl@@QEAAXAEBVQFont@@@Z
       6241 1860 0020A410 ?setFontFamily@QTextEdit@@QEAAXAEBVQString@@@Z
       6242 1861 0016BB70 ?setFontFilters@QFontComboBox@@QEAAXV?$QFlags@W4FontFilter@QFontComboBox@@@@@Z
       6243 1862 0020A580 ?setFontItalic@QTextEdit@@QEAAX_N@Z
       6244 1863 0020A620 ?setFontPointSize@QTextEdit@@QEAAXN@Z
       6245 1864 0020A6C0 ?setFontUnderline@QTextEdit@@QEAAX_N@Z
       6246 1865 0020A760 ?setFontWeight@QTextEdit@@QEAAXH@Z
       6247 1866 000174C0 ?setFont_helper@QWidgetPrivate@@QEAAXAEBVQFont@@@Z
       6248 1867 00303460 ?setForeground@QListWidgetItem@@QEAAXAEBVQBrush@@@Z
       6249 1868 00303460 ?setForeground@QTableWidgetItem@@QEAAXAEBVQBrush@@@Z
       6250 1869 003455F0 ?setForeground@QTreeWidgetItem@@QEAAXHAEBVQBrush@@@Z
       6251 186A 003A1080 ?setForegroundBrush@QGraphicsScene@@QEAAXAEBVQBrush@@@Z
       6252 186B 003B9270 ?setForegroundBrush@QGraphicsView@@QEAAXAEBVQBrush@@@Z
       6253 186C 00066510 ?setForegroundRole@QWidget@@QEAAXW4ColorRole@QPalette@@@Z
       6254 186D 000FA390 ?setFormAlignment@QFormLayout@@QEAAXV?$QFlags@W4AlignmentFlag@Qt@@@@@Z
       6255 186E 001D0120 ?setFormat@QProgressBar@@QEAAXAEBVQString@@@Z
       6256 186F 001E2B90 ?setFrame@QAbstractSpinBox@@QEAAX_N@Z
       6257 1870 0013D650 ?setFrame@QComboBox@@QEAAX_N@Z
       6258 1871 0017FAD0 ?setFrame@QLineEdit@@QEAAX_N@Z
       6259 1872 00102F10 ?setFrameRate@QStyleAnimation@@QEAAXW4FrameRate@1@@Z
       6260 1873 000ED790 ?setFrameRect@QFrame@@QEAAXAEBVQRect@@@Z
       6261 1874 000ED850 ?setFrameShadow@QFrame@@QEAAXW4Shadow@1@@Z
       6262 1875 000ED910 ?setFrameShape@QFrame@@QEAAXW4Shape@1@@Z
       6263 1876 000ED9D0 ?setFrameStyle@QFrame@@QEAAXH@Z
       6264 1877 0001CB80 ?setGeometry@QBoxLayout@@UEAAXAEBVQRect@@@Z
       6265 1878 00165490 ?setGeometry@QDockWidgetLayout@@UEAAXAEBVQRect@@@Z
       6266 1879 000FA3C0 ?setGeometry@QFormLayout@@UEAAXAEBVQRect@@@Z
       6267 187A 00349EC0 ?setGeometry@QGraphicsAnchorLayout@@UEAAXAEBVQRectF@@@Z
       6268 187B 0035EA90 ?setGeometry@QGraphicsGridLayout@@UEAAXAEBVQRectF@@@Z
       6269 187C 0037D930 ?setGeometry@QGraphicsLayoutItem@@UEAAXAEBVQRectF@@@Z
       6270 187D 0037F110 ?setGeometry@QGraphicsLinearLayout@@UEAAXAEBVQRectF@@@Z
       6271 187E 00383AF0 ?setGeometry@QGraphicsProxyWidget@@UEAAXAEBVQRectF@@@Z
       6272 187F 00017510 ?setGeometry@QGraphicsWidget@@QEAAXNNNN@Z
       6273 1880 003BFBC0 ?setGeometry@QGraphicsWidget@@UEAAXAEBVQRectF@@@Z
       6274 1881 0003A270 ?setGeometry@QGridLayout@@UEAAXAEBVQRect@@@Z
       6275 1882 0003F020 ?setGeometry@QLayout@@UEAAXAEBVQRect@@@Z
       6276 1883 001D8510 ?setGeometry@QRubberBand@@QEAAXAEBVQRect@@@Z
       6277 1884 00017550 ?setGeometry@QRubberBand@@QEAAXHHHH@Z
       6278 1885 00041D70 ?setGeometry@QSpacerItem@@UEAAXAEBVQRect@@@Z
       6279 1886 000460E0 ?setGeometry@QStackedLayout@@UEAAXAEBVQRect@@@Z
       6280 1887 00066520 ?setGeometry@QWidget@@QEAAXAEBVQRect@@@Z
       6281 1888 000019F0 ?setGeometry@QWidget@@QEAAXHHHH@Z
       6282 1889 00041D80 ?setGeometry@QWidgetItem@@UEAAXAEBVQRect@@@Z
       6283 188A 00066750 ?setGeometry_sys@QWidgetPrivate@@QEAAXHHHH_N@Z
       6284 188B 00022050 ?setGestureCancelPolicy@QGesture@@QEAAXW4GestureCancelPolicy@1@@Z
       6285 188C 00375F10 ?setGraphicsEffect@QGraphicsItem@@QEAAXPEAVQGraphicsEffect@@@Z
       6286 188D 00066EA0 ?setGraphicsEffect@QWidget@@QEAAXPEAVQGraphicsEffect@@@Z
       6287 188E 00017590 ?setGraphicsEffectSource@QGraphicsEffectPrivate@@QEAAXPEAVQGraphicsEffectSource@@@Z
       6288 188F 0037DA20 ?setGraphicsItem@QGraphicsLayoutItem@@IEAAXPEAVQGraphicsItem@@@Z
       6289 1890 002F7E40 ?setGridSize@QListView@@QEAAXAEBVQSize@@@Z
       6290 1891 0030F230 ?setGridStyle@QTableView@@QEAAXW4PenStyle@Qt@@@Z
       6291 1892 0012C400 ?setGridVisible@QCalendarWidget@@QEAAX_N@Z
       6292 1893 00376060 ?setGroup@QGraphicsItem@@QEAAXPEAVQGraphicsItemGroup@@@Z
       6293 1894 003E2830 ?setGroup@QUndoView@@QEAAXPEAVQUndoGroup@@@Z
       6294 1895 001E2BD0 ?setGroupSeparatorShown@QAbstractSpinBox@@QEAAX_N@Z
       6295 1896 001EDA40 ?setHandleWidth@QSplitter@@QEAAXH@Z
       6296 1897 00376100 ?setHandlesChildEvents@QGraphicsItem@@QEAAX_N@Z
       6297 1898 00333840 ?setHeader@QTreeView@@QEAAXPEAVQHeaderView@@@Z
       6298 1899 00333CF0 ?setHeaderHidden@QTreeView@@QEAAX_N@Z
       6299 189A 00345750 ?setHeaderItem@QTreeWidget@@QEAAXPEAVQTreeWidgetItem@@@Z
       6300 189B 00345900 ?setHeaderLabel@QTreeWidget@@QEAAXAEBVQString@@@Z
       6301 189C 00345980 ?setHeaderLabels@QTreeWidget@@QEAAXAEBV?$QList@VQString@@@@@Z
       6302 189D 0012C450 ?setHeaderTextFormat@QCalendarWidget@@QEAAXAEBVQTextCharFormat@@@Z
       6303 189E 00009A60 ?setHeight@QGraphicsItemPrivate@@UEAAXN@Z
       6304 189F 00001A30 ?setHeightForWidth@QSizePolicy@@QEAAX_N@Z
       6305 18A0 001795C0 ?setHexMode@QLCDNumber@@QEAAXXZ
       6306 18A1 00303510 ?setHidden@QListWidgetItem@@QEAAX_N@Z
       6307 18A2 00345AA0 ?setHidden@QTreeWidgetItem@@QEAAX_N@Z
       6308 18A3 00067000 ?setHidden@QWidget@@QEAAX_N@Z
       6309 18A4 002D0020 ?setHighlightSections@QHeaderView@@QEAAX_N@Z
       6310 18A5 0025CE00 ?setHistory@QFileDialog@@QEAAXAEBV?$QList@VQString@@@@@Z
       6311 18A6 0030F250 ?setHorizontalHeader@QTableView@@QEAAXPEAVQHeaderView@@@Z
       6312 18A7 0012C4B0 ?setHorizontalHeaderFormat@QCalendarWidget@@QEAAXW4HorizontalHeaderFormat@1@@Z
       6313 18A8 0031F230 ?setHorizontalHeaderItem@QTableWidget@@QEAAXHPEAVQTableWidgetItem@@@Z
       6314 18A9 0031F370 ?setHorizontalHeaderLabels@QTableWidget@@QEAAXAEBV?$QList@VQString@@@@@Z
       6315 18AA 00001A40 ?setHorizontalPolicy@QSizePolicy@@QEAAXW4Policy@1@@Z
       6316 18AB 000EAE40 ?setHorizontalScrollBar@QAbstractScrollArea@@QEAAXPEAVQScrollBar@@@Z
       6317 18AC 000EAE90 ?setHorizontalScrollBarPolicy@QAbstractScrollArea@@QEAAXW4ScrollBarPolicy@Qt@@@Z
       6318 18AD 002BCBE0 ?setHorizontalScrollMode@QAbstractItemView@@QEAAXW4ScrollMode@1@@Z
       6319 18AE 000FA540 ?setHorizontalSpacing@QFormLayout@@QEAAXH@Z
       6320 18AF 00349F10 ?setHorizontalSpacing@QGraphicsAnchorLayout@@QEAAXN@Z
       6321 18B0 0035EC30 ?setHorizontalSpacing@QGraphicsGridLayout@@QEAAXN@Z
       6322 18B1 0003A390 ?setHorizontalSpacing@QGridLayout@@QEAAXH@Z
       6323 18B2 00001A50 ?setHorizontalStretch@QSizePolicy@@QEAAXH@Z
       6324 18B3 00022070 ?setHotSpot@QGesture@@QEAAXAEBVQPointF@@@Z
       6325 18B4 00376230 ?setHtml@QGraphicsTextItem@@QEAAXAEBVQString@@@Z
       6326 18B5 0020A800 ?setHtml@QTextEdit@@QEAAXAEBVQString@@@Z
       6327 18B6 002379F0 ?setHtml@QWidgetTextControl@@QEAAXAEBVQString@@@Z
       6328 18B7 0011FB50 ?setIcon@QAbstractButton@@QEAAXAEBVQIcon@@@Z
       6329 18B8 00303550 ?setIcon@QListWidgetItem@@QEAAXAEBVQIcon@@@Z
       6330 18B9 001C60C0 ?setIcon@QMenu@@QEAAXAEBVQIcon@@@Z
       6331 18BA 00277B30 ?setIcon@QMessageBox@@QEAAXW4Icon@1@@Z
       6332 18BB 000E7540 ?setIcon@QSystemTrayIcon@@QEAAXAEBVQIcon@@@Z
       6333 18BC 00303550 ?setIcon@QTableWidgetItem@@QEAAXAEBVQIcon@@@Z
       6334 18BD 00345BD0 ?setIcon@QTreeWidgetItem@@QEAAXHAEBVQIcon@@@Z
       6335 18BE 00277C90 ?setIconPixmap@QMessageBox@@QEAAXAEBVQPixmap@@@Z
       6336 18BF 0025D400 ?setIconProvider@QFileDialog@@QEAAXPEAVQAbstractFileIconProvider@@@Z
       6337 18C0 0011FBA0 ?setIconSize@QAbstractButton@@QEAAXAEBVQSize@@@Z
       6338 18C1 002BCEB0 ?setIconSize@QAbstractItemView@@QEAAXAEBVQSize@@@Z
       6339 18C2 0013D690 ?setIconSize@QComboBox@@QEAAXAEBVQSize@@@Z
       6340 18C3 0018ED70 ?setIconSize@QMainWindow@@QEAAXAEBVQSize@@@Z
       6341 18C4 001F8F30 ?setIconSize@QTabBar@@QEAAXAEBVQSize@@@Z
       6342 18C5 00211C40 ?setIconSize@QTabWidget@@QEAAXAEBVQSize@@@Z
       6343 18C6 002153C0 ?setIconSize@QToolBar@@QEAAXAEBVQSize@@@Z
       6344 18C7 00123590 ?setId@QButtonGroup@@QEAAXPEAVQAbstractButton@@H@Z
       6345 18C8 00237A10 ?setIgnoreUnusedNavigationEvents@QWidgetTextControl@@QEAAX_N@Z
       6346 18C9 00174B00 ?setIndent@QLabel@@QEAAXH@Z
       6347 18CA 00333D00 ?setIndentation@QTreeView@@QEAAXH@Z
       6348 18CB 002BCF40 ?setIndexWidget@QAbstractItemView@@QEAAXAEBVQModelIndex@@PEAVQWidget@@@Z
       6349 18CC 00277CC0 ?setInformativeText@QMessageBox@@QEAAXAEBVQString@@@Z
       6350 18CD 0017FB10 ?setInputMask@QLineEdit@@QEAAXAEBVQString@@@Z
       6351 18CE 0013D710 ?setInputMask@QWidgetLineControl@@QEAAXAEBVQString@@@Z
       6352 18CF 00376260 ?setInputMethodHints@QGraphicsItem@@QEAAXV?$QFlags@W4InputMethodHint@Qt@@@@@Z
       6353 18D0 00067020 ?setInputMethodHints@QWidget@@QEAAXV?$QFlags@W4InputMethodHint@Qt@@@@@Z
       6354 18D1 00271AA0 ?setInputMode@QInputDialog@@QEAAXW4InputMode@1@@Z
       6355 18D2 0013D780 ?setInsertPolicy@QComboBox@@QEAAXW4InsertPolicy@1@@Z
       6356 18D3 0037C410 ?setInstantInvalidatePropagation@QGraphicsLayout@@SAX_N@Z
       6357 18D4 00271D10 ?setIntMaximum@QInputDialog@@QEAAXH@Z
       6358 18D5 00271D40 ?setIntMinimum@QInputDialog@@QEAAXH@Z
       6359 18D6 00271D70 ?setIntRange@QInputDialog@@QEAAXHH@Z
       6360 18D7 00271DB0 ?setIntStep@QInputDialog@@QEAAXH@Z
       6361 18D8 00271DE0 ?setIntValue@QInputDialog@@QEAAXH@Z
       6362 18D9 003B92E0 ?setInteractive@QGraphicsView@@QEAAX_N@Z
       6363 18DA 003AA530 ?setInverted@QGraphicsSceneWheelEvent@@QEAAX_N@Z
       6364 18DB 00121230 ?setInvertedAppearance@QAbstractSlider@@QEAAX_N@Z
       6365 18DC 001D01D0 ?setInvertedAppearance@QProgressBar@@QEAAX_N@Z
       6366 18DD 00121250 ?setInvertedControls@QAbstractSlider@@QEAAX_N@Z
       6367 18DE 00376340 ?setIsMemberOfGroup@QGraphicsItemPrivate@@QEAAX_N@Z
       6368 18DF 000FA570 ?setItem@QFormLayout@@QEAAXHW4ItemRole@1@PEAVQLayoutItem@@@Z
       6369 18E0 003C8EF0 ?setItem@QGraphicsItemAnimation@@QEAAXPEAVQGraphicsItem@@@Z
       6370 18E1 0031F970 ?setItem@QTableWidget@@QEAAXHHPEAVQTableWidgetItem@@@Z
       6371 18E2 002F7E60 ?setItemAlignment@QListView@@QEAAXV?$QFlags@W4AlignmentFlag@Qt@@@@@Z
       6372 18E3 0013D790 ?setItemData@QComboBox@@QEAAXHAEBVQVariant@@H@Z
       6373 18E4 002BD140 ?setItemDelegate@QAbstractItemView@@QEAAXPEAVQAbstractItemDelegate@@@Z
       6374 18E5 0013D850 ?setItemDelegate@QComboBox@@QEAAXPEAVQAbstractItemDelegate@@@Z
       6375 18E6 002E7220 ?setItemDelegate@QDataWidgetMapper@@QEAAXPEAVQAbstractItemDelegate@@@Z
       6376 18E7 0025D4C0 ?setItemDelegate@QFileDialog@@QEAAXPEAVQAbstractItemDelegate@@@Z
       6377 18E8 002BD290 ?setItemDelegateForColumn@QAbstractItemView@@QEAAXHPEAVQAbstractItemDelegate@@@Z
       6378 18E9 002BD410 ?setItemDelegateForRow@QAbstractItemView@@QEAAXHPEAVQAbstractItemDelegate@@@Z
       6379 18EA 000A4A60 ?setItemEditorFactory@QItemDelegate@@QEAAXPEAVQItemEditorFactory@@@Z
       6380 18EB 000A4A60 ?setItemEditorFactory@QStyledItemDelegate@@QEAAXPEAVQItemEditorFactory@@@Z
       6381 18EC 002222F0 ?setItemEnabled@QToolBox@@QEAAXH_N@Z
       6382 18ED 0013D8A0 ?setItemIcon@QComboBox@@QEAAXHAEBVQIcon@@@Z
       6383 18EE 00222440 ?setItemIcon@QToolBox@@QEAAXHAEBVQIcon@@@Z
       6384 18EF 003A1140 ?setItemIndexMethod@QGraphicsScene@@QEAAXW4ItemIndexMethod@1@@Z
       6385 18F0 0031FE20 ?setItemPrototype@QTableWidget@@QEAAXPEBVQTableWidgetItem@@@Z
       6386 18F1 0037F290 ?setItemSpacing@QGraphicsLinearLayout@@QEAAXHN@Z
       6387 18F2 0013D980 ?setItemText@QComboBox@@QEAAXHAEBVQString@@@Z
       6388 18F3 00222480 ?setItemText@QToolBox@@QEAAXHAEBVQString@@@Z
       6389 18F4 002224C0 ?setItemToolTip@QToolBox@@QEAAXHAEBVQString@@@Z
       6390 18F5 0013DA60 ?setItemView@QComboBoxPrivateContainer@@QEAAXPEAVQAbstractItemView@@@Z
       6391 18F6 003035C0 ?setItemWidget@QListWidget@@QEAAXPEAVQListWidgetItem@@PEAVQWidget@@@Z
       6392 18F7 00345C40 ?setItemWidget@QTreeWidget@@QEAAXPEAVQTreeWidgetItem@@HPEAVQWidget@@@Z
       6393 18F8 00333D30 ?setItemsExpandable@QTreeView@@QEAAX_N@Z
       6394 18F9 00170D20 ?setKeySequence@QKeySequenceEdit@@QEAAXAEBVQKeySequence@@@Z
       6395 18FA 00017640 ?setKeyboardInputInterval@QApplication@@SAXH@Z
       6396 18FB 001B4A80 ?setKeyboardPageStep@QMdiSubWindow@@QEAAXH@Z
       6397 18FC 001B4A90 ?setKeyboardSingleStep@QMdiSubWindow@@QEAAXH@Z
       6398 18FD 001E2C30 ?setKeyboardTracking@QAbstractSpinBox@@QEAAX_N@Z
       6399 18FE 0027B1F0 ?setLabel@QProgressDialog@@QEAAXPEAVQLabel@@@Z
       6400 18FF 000FA830 ?setLabelAlignment@QFormLayout@@QEAAXV?$QFlags@W4AlignmentFlag@Qt@@@@@Z
       6401 1900 0025D520 ?setLabelText@QFileDialog@@QEAAXW4DialogLabel@1@AEBVQString@@@Z
       6402 1901 00271E20 ?setLabelText@QInputDialog@@QEAAXAEBVQString@@@Z
       6403 1902 0027B310 ?setLabelText@QProgressDialog@@QEAAXAEBVQString@@@Z
       6404 1903 0025D570 ?setLabelTextControl@QFileDialogPrivate@@QEAAXW4DialogLabel@QFileDialog@@AEBVQString@@@Z
       6405 1904 00022090 ?setLastCenterPoint@QPinchGesture@@QEAAXAEBVQPointF@@@Z
       6406 1905 000220B0 ?setLastOffset@QPanGesture@@QEAAXAEBVQPointF@@@Z
       6407 1906 003AA540 ?setLastPos@QGraphicsSceneHoverEvent@@QEAAXAEBVQPointF@@@Z
       6408 1907 003AA540 ?setLastPos@QGraphicsSceneMouseEvent@@QEAAXAEBVQPointF@@@Z
       6409 1908 000220D0 ?setLastRotationAngle@QPinchGesture@@QEAAXN@Z
       6410 1909 000220E0 ?setLastScaleFactor@QPinchGesture@@QEAAXN@Z
       6411 190A 003AA550 ?setLastScenePos@QGraphicsSceneHoverEvent@@QEAAXAEBVQPointF@@@Z
       6412 190B 003AA550 ?setLastScenePos@QGraphicsSceneMouseEvent@@QEAAXAEBVQPointF@@@Z
       6413 190C 003AA560 ?setLastScreenPos@QGraphicsSceneHoverEvent@@QEAAXAEBVQPoint@@@Z
       6414 190D 003AA560 ?setLastScreenPos@QGraphicsSceneMouseEvent@@QEAAXAEBVQPoint@@@Z
       6415 190E 0025D6A0 ?setLastVisitedDirectory@QFileDialogPrivate@@SAXAEBVQUrl@@@Z
       6416 190F 000FA860 ?setLayout@QFormLayout@@QEAAXHW4ItemRole@1@PEAVQLayout@@@Z
       6417 1910 003C0250 ?setLayout@QGraphicsWidget@@QEAAXPEAVQGraphicsLayout@@@Z
       6418 1911 00067070 ?setLayout@QWidget@@QEAAXPEAVQLayout@@@Z
       6419 1912 003C03A0 ?setLayoutDirection@QGraphicsWidget@@QEAAXW4LayoutDirection@Qt@@@Z
       6420 1913 00067350 ?setLayoutDirection@QWidget@@QEAAXW4LayoutDirection@Qt@@@Z
       6421 1914 0013DF50 ?setLayoutDirection@QWidgetLineControl@@QEAAXW4LayoutDirection@Qt@@@Z
       6422 1915 000673F0 ?setLayoutDirection_helper@QWidgetPrivate@@QEAAXW4LayoutDirection@Qt@@@Z
       6423 1916 00067500 ?setLayoutItemMargins@QWidgetPrivate@@QEAAXHHHH@Z
       6424 1917 00067560 ?setLayoutItemMargins@QWidgetPrivate@@QEAAXW4SubElement@QStyle@@PEBVQStyleOption@@@Z
       6425 1918 002F7EA0 ?setLayoutMode@QListView@@QEAAXW4LayoutMode@1@@Z
       6426 1919 003763D0 ?setLine@QGraphicsLineItem@@QEAAXAEBVQLineF@@@Z
       6427 191A 00017660 ?setLine@QGraphicsLineItem@@QEAAXNNNN@Z
       6428 191B 001E2C50 ?setLineEdit@QAbstractSpinBox@@IEAAXPEAVQLineEdit@@@Z
       6429 191C 0013DF60 ?setLineEdit@QComboBox@@QEAAXPEAVQLineEdit@@@Z
       6430 191D 000EDA90 ?setLineWidth@QFrame@@QEAAXH@Z
       6431 191E 0020A830 ?setLineWrapColumnOrWidth@QTextEdit@@QEAAXH@Z
       6432 191F 00203AF0 ?setLineWrapMode@QPlainTextEdit@@QEAAXW4LineWrapMode@1@@Z
       6433 1920 0020A840 ?setLineWrapMode@QTextEdit@@QEAAXW4LineWrapMode@1@@Z
       6434 1921 000676B0 ?setLocale@QWidget@@QEAAXAEBVQLocale@@@Z
       6435 1922 000676E0 ?setLocale_helper@QWidgetPrivate@@QEAAXAEBVQLocale@@_N@Z
       6436 1923 00243A90 ?setMainDefault@QDialogPrivate@@QEAAXPEAVQPushButton@@@Z
       6437 1924 00174BB0 ?setMargin@QLabel@@QEAAXH@Z
       6438 1925 0020A8F0 ?setMarkdown@QTextEdit@@QEAAXAEBVQString@@@Z
       6439 1926 00237A20 ?setMarkdown@QWidgetTextControl@@QEAAXAEBVQString@@@Z
       6440 1927 000677F0 ?setMask@QWidget@@QEAAXAEBVQBitmap@@@Z
       6441 1928 00067820 ?setMask@QWidget@@QEAAXAEBVQRegion@@@Z
       6442 1929 00067A80 ?setMask_sys@QWidgetPrivate@@QEAAXAEBVQRegion@@@Z
       6443 192A 0013E520 ?setMaxCount@QComboBox@@QEAAXH@Z
       6444 192B 0017FB90 ?setMaxLength@QLineEdit@@QEAAXH@Z
       6445 192C 0013E610 ?setMaxLength@QWidgetLineControl@@QEAAXH@Z
       6446 192D 0013E690 ?setMaxVisibleItems@QComboBox@@QEAAXH@Z
       6447 192E 003D3260 ?setMaxVisibleItems@QCompleter@@QEAAXH@Z
       6448 192F 00121270 ?setMaximum@QAbstractSlider@@QEAAXH@Z
       6449 1930 001E63A0 ?setMaximum@QDoubleSpinBox@@QEAAXN@Z
       6450 1931 001D01E0 ?setMaximum@QProgressBar@@QEAAXH@Z
       6451 1932 0027B390 ?setMaximum@QProgressDialog@@QEAAXH@Z
       6452 1933 001E6480 ?setMaximum@QSpinBox@@QEAAXH@Z
       6453 1934 000D2EF0 ?setMaximumBlockCount@QPlainTextEdit@@QEAAXH@Z
       6454 1935 0012C5A0 ?setMaximumDate@QCalendarWidget@@QEAAXVQDate@@@Z
