Microsoft (R) COFF/PE Dumper Version 14.44.35222.0
Copyright (C) Microsoft Corporation.  All rights reserved.


Dump of file C:\Users\DonKolia\Downloads\obs-studio-windows-x64-407944a27\obs-studio-32.0.4-407944a27-windows-x64\bin\64bit\Qt6Core.dll

File Type: DLL

  Section contains the following exports for Qt6Core.dll

    00000000 characteristics
    FFFFFFFF time date stamp
        0.00 version
           1 ordinal base
        8149 number of functions
        8149 number of names

    ordinal hint RVA      name

          1    0 00025600 ??$qbswap@$01@@YAPEAXPEBX_JPEAX@Z
          2    1 00025680 ??$qbswap@$03@@YAPEAXPEBX_JPEAX@Z
          3    2 000256D0 ??$qbswap@$07@@YAPEAXPEBX_JPEAX@Z
          4    3 00094E60 ??0?$QBaseIterator@VQMetaAssociation@@@@IEAA@$$QEAV0@@Z
          5    4 00094E80 ??0?$QBaseIterator@VQMetaAssociation@@@@IEAA@AEBV0@@Z
          6    5 00094F70 ??0?$QBaseIterator@VQMetaAssociation@@@@IEAA@PEAV?$QIterable@VQMetaAssociation@@@@PEAX@Z
          7    6 000150F0 ??0?$QBaseIterator@VQMetaAssociation@@@@IEAA@PEBV?$QIterable@VQMetaAssociation@@@@PEAX@Z
          8    7 000016A0 ??0?$QBaseIterator@VQMetaAssociation@@@@IEAA@XZ
          9    8 00094E60 ??0?$QBaseIterator@VQMetaSequence@@@@IEAA@$$QEAV0@@Z
         10    9 00094E80 ??0?$QBaseIterator@VQMetaSequence@@@@IEAA@AEBV0@@Z
         11    A 00094F70 ??0?$QBaseIterator@VQMetaSequence@@@@IEAA@PEAV?$QIterable@VQMetaSequence@@@@PEAX@Z
         12    B 000150F0 ??0?$QBaseIterator@VQMetaSequence@@@@IEAA@PEBV?$QIterable@VQMetaSequence@@@@PEAX@Z
         13    C 000016A0 ??0?$QBaseIterator@VQMetaSequence@@@@IEAA@XZ
         14    D 00094F80 ??0?$QConstIterator@VQMetaAssociation@@@@QEAA@AEBU0@@Z
         15    E 000150F0 ??0?$QConstIterator@VQMetaAssociation@@@@QEAA@PEBV?$QIterable@VQMetaAssociation@@@@PEAX@Z
         16    F 00094F80 ??0?$QConstIterator@VQMetaSequence@@@@QEAA@AEBU0@@Z
         17   10 000150F0 ??0?$QConstIterator@VQMetaSequence@@@@QEAA@PEBV?$QIterable@VQMetaSequence@@@@PEAX@Z
         18   11 00094FA0 ??0?$QIterable@VQMetaAssociation@@@@QEAA@AEBVQMetaAssociation@@_JPEAX@Z
         19   12 00094FC0 ??0?$QIterable@VQMetaAssociation@@@@QEAA@AEBVQMetaAssociation@@_JPEBX@Z
         20   13 00094FA0 ??0?$QIterable@VQMetaSequence@@@@QEAA@AEBVQMetaSequence@@_JPEAX@Z
         21   14 00094FC0 ??0?$QIterable@VQMetaSequence@@@@QEAA@AEBVQMetaSequence@@_JPEBX@Z
         22   15 00094F80 ??0?$QIterator@VQMetaAssociation@@@@QEAA@AEBU0@@Z
         23   16 00094FE0 ??0?$QIterator@VQMetaAssociation@@@@QEAA@PEAV?$QIterable@VQMetaAssociation@@@@PEAX@Z
         24   17 00094F80 ??0?$QIterator@VQMetaSequence@@@@QEAA@AEBU0@@Z
         25   18 00094FE0 ??0?$QIterator@VQMetaSequence@@@@QEAA@PEAV?$QIterable@VQMetaSequence@@@@PEAX@Z
         26   19 000EA8F0 ??0CompatPropertySafePoint@QtPrivate@@QEAA@PEAUQBindingStatus@@PEAVQUntypedPropertyData@@@Z
         27   1A 000015B0 ??0Connection@QMetaObject@@AEAA@PEAX@Z
         28   1B 000015C0 ??0Connection@QMetaObject@@QEAA@$$QEAV01@@Z
         29   1C 000DC110 ??0Connection@QMetaObject@@QEAA@AEBV01@@Z
         30   1D 00001B00 ??0Connection@QMetaObject@@QEAA@XZ
         31   1E 0022EE80 ??0ExceptionStore@QtPrivate@@QEAA@$$QEAV01@@Z
         32   1F 0022EE80 ??0ExceptionStore@QtPrivate@@QEAA@AEBV01@@Z
         33   20 0022EEA0 ??0ExceptionStore@QtPrivate@@QEAA@XZ
         34   21 001F9680 ??0QAbstractAnimation@@IEAA@AEAVQAbstractAnimationPrivate@@PEAVQObject@@@Z
         35   22 001F96D0 ??0QAbstractAnimation@@QEAA@PEAVQObject@@@Z
         36   23 001F9770 ??0QAbstractAnimationPrivate@@QEAA@XZ
         37   24 001F97C0 ??0QAbstractAnimationTimer@@QEAA@XZ
         38   25 00016DB0 ??0QAbstractDynamicMetaObject@@QEAA@AEBU0@@Z
         39   26 00016DF0 ??0QAbstractDynamicMetaObject@@QEAA@XZ
         40   27 00092F00 ??0QAbstractEventDispatcher@@IEAA@AEAVQAbstractEventDispatcherPrivate@@PEAVQObject@@@Z
         41   28 00092F30 ??0QAbstractEventDispatcher@@QEAA@PEAVQObject@@@Z
         42   29 00092F90 ??0QAbstractEventDispatcherPrivate@@QEAA@XZ
         43   2A 00093070 ??0QAbstractEventDispatcherV2@@IEAA@AEAVQAbstractEventDispatcherPrivate@@PEAVQObject@@@Z
         44   2B 000930A0 ??0QAbstractEventDispatcherV2@@QEAA@PEAVQObject@@@Z
         45   2C 000384D0 ??0QAbstractFileEngine@@IEAA@AEAVQAbstractFileEnginePrivate@@@Z
         46   2D 000384F0 ??0QAbstractFileEngine@@IEAA@XZ
         47   2E 00038550 ??0QAbstractFileEngineHandler@@QEAA@XZ
         48   2F 000386D0 ??0QAbstractFileEngineIterator@@QEAA@AEBVQString@@V?$QFlags@W4Filter@QDir@@@@AEBV?$QList@VQString@@@@@Z
         49   30 00038760 ??0QAbstractFileEngineIterator@@QEAA@AEBVQString@@V?$QFlags@W4IteratorFlag@QDirListing@@@@AEBV?$QList@VQString@@@@@Z
         50   31 002AB810 ??0QAbstractItemModel@@IEAA@AEAVQAbstractItemModelPrivate@@PEAVQObject@@@Z
         51   32 002AB840 ??0QAbstractItemModel@@QEAA@PEAVQObject@@@Z
         52   33 002AB900 ??0QAbstractItemModelPrivate@@QEAA@XZ
         53   34 002AB980 ??0QAbstractListModel@@IEAA@AEAVQAbstractItemModelPrivate@@PEAVQObject@@@Z
         54   35 002AB9B0 ??0QAbstractListModel@@QEAA@PEAVQObject@@@Z
         55   36 00016E10 ??0QAbstractMetaCallEvent@@QEAA@AEBV0@@Z
         56   37 00016ED0 ??0QAbstractMetaCallEvent@@QEAA@PEBVQObject@@HPEAVQSemaphore@@@Z
         57   38 00094CE0 ??0QAbstractNativeEventFilter@@QEAA@XZ
         58   39 002CE600 ??0QAbstractProxyModel@@IEAA@AEAVQAbstractProxyModelPrivate@@PEAVQObject@@@Z
         59   3A 002CE750 ??0QAbstractProxyModel@@QEAA@PEAVQObject@@@Z
         60   3B 002CE8F0 ??0QAbstractProxyModelPrivate@@QEAA@XZ
         61   3C 002ABA70 ??0QAbstractTableModel@@IEAA@AEAVQAbstractItemModelPrivate@@PEAVQObject@@@Z
         62   3D 002ABAA0 ??0QAbstractTableModel@@QEAA@PEAVQObject@@@Z
         63   3E 001F97F0 ??0QAnimationDriver@@IEAA@AEAVQAnimationDriverPrivate@@PEAVQObject@@@Z
         64   3F 001F9820 ??0QAnimationDriver@@QEAA@PEAVQObject@@@Z
         65   40 001F98B0 ??0QAnimationDriverPrivate@@QEAA@XZ
         66   41 001FEDF0 ??0QAnimationGroup@@IEAA@AEAVQAnimationGroupPrivate@@PEAVQObject@@@Z
         67   42 001FEE20 ??0QAnimationGroup@@QEAA@PEAVQObject@@@Z
         68   43 00094E60 ??0QAssociativeConstIterator@@QEAA@$$QEAU?$QConstIterator@VQMetaAssociation@@@@@Z
         69   44 00094E60 ??0QAssociativeConstIterator@@QEAA@$$QEAV0@@Z
         70   45 00094F80 ??0QAssociativeConstIterator@@QEAA@AEBV0@@Z
         71   46 00018F70 ??0QAssociativeIterable@@QEAA@$$QEAV?$QIterable@VQMetaAssociation@@@@@Z
         72   47 00094FA0 ??0QAssociativeIterable@@QEAA@AEBVQMetaAssociation@@AEBVQMetaType@@PEAX@Z
         73   48 00094FC0 ??0QAssociativeIterable@@QEAA@AEBVQMetaAssociation@@AEBVQMetaType@@PEBX@Z
         74   49 00094FF0 ??0QAssociativeIterable@@QEAA@XZ
         75   4A 00094E60 ??0QAssociativeIterator@@QEAA@$$QEAU?$QIterator@VQMetaAssociation@@@@@Z
         76   4B 00094E60 ??0QAssociativeIterator@@QEAA@$$QEAV0@@Z
         77   4C 00094F80 ??0QAssociativeIterator@@QEAA@AEBV0@@Z
         78   4D 00001B00 ??0QBasicMutex@@QEAA@XZ
         79   4E 000015E0 ??0QBasicTimer@@QEAA@$$QEAV0@@Z
         80   4F 000015F0 ??0QBasicTimer@@QEAA@XZ
         81   50 000EA950 ??0QBindingStorage@@QEAA@XZ
         82   51 00001600 ??0QBitArray@@AEAA@$$QEAU?$QArrayDataPointer@D@@@Z
         83   52 00001600 ??0QBitArray@@QEAA@$$QEAV0@@Z
         84   53 00001630 ??0QBitArray@@QEAA@AEBV0@@Z
         85   54 00001680 ??0QBitArray@@QEAA@XZ
         86   55 0019E7A0 ??0QBitArray@@QEAA@_J_N@Z
         87   56 000150F0 ??0QBitRef@@AEAA@AEAVQBitArray@@_J@Z
         88   57 00002410 ??0QBluetoothPermission@@QEAA@AEBV0@@Z
         89   58 00319180 ??0QBluetoothPermission@@QEAA@XZ
         90   59 0003A290 ??0QBuffer@@QEAA@PEAVQByteArray@@PEAVQObject@@@Z
         91   5A 0003A350 ??0QBuffer@@QEAA@PEAVQObject@@@Z
         92   5B 00001600 ??0QByteArray@@QEAA@$$QEAU?$QArrayDataPointer@D@@@Z
         93   5C 00001600 ??0QByteArray@@QEAA@$$QEAV0@@Z
         94   5D 00001630 ??0QByteArray@@QEAA@AEBU?$QArrayDataPointer@D@@@Z
         95   5E 00001630 ??0QByteArray@@QEAA@AEBV0@@Z
         96   5F 00134C70 ??0QByteArray@@QEAA@PEBD_J@Z
         97   60 00001660 ??0QByteArray@@QEAA@VQByteArrayView@@@Z
         98   61 00001680 ??0QByteArray@@QEAA@XZ
         99   62 00134D40 ??0QByteArray@@QEAA@_JD@Z
        100   63 00134DF0 ??0QByteArray@@QEAA@_JW4Initialization@Qt@@@Z
        101   64 0013E7A0 ??0QByteArrayMatcher@@QEAA@AEBV0@@Z
        102   65 0013E850 ??0QByteArrayMatcher@@QEAA@AEBVQByteArray@@@Z
        103   66 0013E910 ??0QByteArrayMatcher@@QEAA@PEBD_J@Z
        104   67 00016F30 ??0QByteArrayMatcher@@QEAA@VQByteArrayView@@@Z
        105   68 0013E9D0 ??0QByteArrayMatcher@@QEAA@XZ
        106   69 000016A0 ??0QByteArrayView@@QEAA@$$T@Z
        107   6A 000016A0 ??0QByteArrayView@@QEAA@XZ
        108   6B 00186120 ??0QCalendar@@QEAA@VQAnyStringView@@@Z
        109   6C 00016F50 ??0QCalendar@@QEAA@VQLatin1String@@@Z
        110   6D 00016F90 ??0QCalendar@@QEAA@VQStringView@@@Z
        111   6E 001861F0 ??0QCalendar@@QEAA@VSystemId@0@@Z
        112   6F 00186210 ??0QCalendar@@QEAA@W4System@0@@Z
        113   70 00186230 ??0QCalendar@@QEAA@XZ
        114   71 001424C0 ??0QCalendarBackend@@QEAA@XZ
        115   72 00002410 ??0QCalendarPermission@@QEAA@AEBV0@@Z
        116   73 003191B0 ??0QCalendarPermission@@QEAA@XZ
        117   74 00002410 ??0QCameraPermission@@QEAA@AEBV0@@Z
        118   75 00001B00 ??0QCameraPermission@@QEAA@XZ
        119   76 00040450 ??0QCborArray@@AEAA@AEAVQCborContainerPrivate@@@Z
        120   77 00040460 ??0QCborArray@@QEAA@AEBV0@@Z
        121   78 00016FD0 ??0QCborArray@@QEAA@V?$initializer_list@VQCborValue@@@std@@@Z
        122   79 00001B00 ??0QCborArray@@QEAA@XZ
        123   7A 00040450 ??0QCborMap@@AEAA@AEAVQCborContainerPrivate@@@Z
        124   7B 00040460 ??0QCborMap@@QEAA@AEBV0@@Z
        125   7C 00017060 ??0QCborMap@@QEAA@V?$initializer_list@U?$pair@VQCborValue@@V1@@std@@@std@@@Z
        126   7D 00001B00 ??0QCborMap@@QEAA@XZ
        127   7E 00301A40 ??0QCborStreamReader@@QEAA@AEBVQByteArray@@@Z
        128   7F 00301AA0 ??0QCborStreamReader@@QEAA@PEAVQIODevice@@@Z
        129   80 00301B30 ??0QCborStreamReader@@QEAA@PEBD_J@Z
        130   81 00301B30 ??0QCborStreamReader@@QEAA@PEBE_J@Z
        131   82 00301BB0 ??0QCborStreamReader@@QEAA@XZ
        132   83 00304CE0 ??0QCborStreamWriter@@QEAA@PEAVQByteArray@@@Z
        133   84 00304D80 ??0QCborStreamWriter@@QEAA@PEAVQIODevice@@@Z
        134   85 00017110 ??0QCborValue@@QEAA@$$QEAV0@@Z
        135   86 00017140 ??0QCborValue@@QEAA@$$QEAVQCborArray@@@Z
        136   87 00017160 ??0QCborValue@@QEAA@$$QEAVQCborMap@@@Z
        137   88 00017180 ??0QCborValue@@QEAA@$$T@Z
        138   89 0010E5D0 ??0QCborValue@@QEAA@AEBV0@@Z
        139   8A 0010E600 ??0QCborValue@@QEAA@AEBVQByteArray@@@Z
        140   8B 0010E750 ??0QCborValue@@QEAA@AEBVQCborArray@@@Z
        141   8C 0010E780 ??0QCborValue@@QEAA@AEBVQCborMap@@@Z
        142   8D 0010E7B0 ??0QCborValue@@QEAA@AEBVQDateTime@@@Z
        143   8E 0010E950 ??0QCborValue@@QEAA@AEBVQRegularExpression@@@Z
        144   8F 0010EAF0 ??0QCborValue@@QEAA@AEBVQString@@@Z
        145   90 0010EB80 ??0QCborValue@@QEAA@AEBVQUrl@@@Z
        146   91 0010ED20 ??0QCborValue@@QEAA@AEBVQUuid@@@Z
        147   92 000171A0 ??0QCborValue@@QEAA@H@Z
        148   93 000171C0 ??0QCborValue@@QEAA@I@Z
        149   94 000171E0 ??0QCborValue@@QEAA@N@Z
        150   95 00017210 ??0QCborValue@@QEAA@PEBD@Z
        151   96 0010EE50 ??0QCborValue@@QEAA@VQLatin1String@@@Z
        152   97 0010EED0 ??0QCborValue@@QEAA@VQStringView@@@Z
        153   98 00017280 ??0QCborValue@@QEAA@W4QCborKnownTags@@AEBV0@@Z
        154   99 000172A0 ??0QCborValue@@QEAA@W4QCborSimpleType@@@Z
        155   9A 0010EF50 ??0QCborValue@@QEAA@W4QCborTag@@AEBV0@@Z
        156   9B 000172C0 ??0QCborValue@@QEAA@W4Type@0@@Z
        157   9C 000172D0 ??0QCborValue@@QEAA@XZ
        158   9D 000172F0 ??0QCborValue@@QEAA@_J@Z
        159   9E 00017300 ??0QCborValue@@QEAA@_N@Z
        160   9F 000150F0 ??0QCborValueRef@@AEAA@PEAVQCborContainerPrivate@@_J@Z
        161   A0 000016A0 ??0QCborValueRef@@AEAA@XZ
        162   A1 00002110 ??0QCborValueRef@@QEAA@$$QEAV0@@Z
        163   A2 00002110 ??0QCborValueRef@@QEAA@AEBV0@@Z
        164   A3 000016B0 ??0QChar@@QEAA@D@Z
        165   A4 000016B0 ??0QChar@@QEAA@E@Z
        166   A5 000016C0 ??0QChar@@QEAA@EE@Z
        167   A6 000016E0 ??0QChar@@QEAA@F@Z
        168   A7 000016E0 ??0QChar@@QEAA@G@Z
        169   A8 000016E0 ??0QChar@@QEAA@H@Z
        170   A9 000016E0 ??0QChar@@QEAA@I@Z
        171   AA 000016B0 ??0QChar@@QEAA@UQLatin1Char@@@Z
        172   AB 000016E0 ??0QChar@@QEAA@W4SpecialCharacter@0@@Z
        173   AC 000016F0 ??0QChar@@QEAA@XZ
        174   AD 000016E0 ??0QChar@@QEAA@_S@Z
        175   AE 000016E0 ??0QChar@@QEAA@_W@Z
        176   AF 000A2DB0 ??0QChildEvent@@IEAA@AEBV0@@Z
        177   B0 000A2E60 ??0QChildEvent@@QEAA@W4Type@QEvent@@PEAVQObject@@@Z
        178   B1 00097EA0 ??0QChronoTimer@@QEAA@PEAVQObject@@@Z
        179   B2 00097F50 ??0QChronoTimer@@QEAA@V?$duration@_JU?$ratio@$00$0DLJKMKAA@@std@@@chrono@std@@PEAVQObject@@@Z
        180   B3 00017320 ??0QCollator@@QEAA@$$QEAV0@@Z
        181   B4 0013F070 ??0QCollator@@QEAA@AEBV0@@Z
        182   B5 0013F0A0 ??0QCollator@@QEAA@AEBVQLocale@@@Z
        183   B6 0013F110 ??0QCollator@@QEAA@XZ
        184   B7 00040450 ??0QCollatorSortKey@@IEAA@PEAVQCollatorSortKeyPrivate@@@Z
        185   B8 000015C0 ??0QCollatorSortKey@@QEAA@$$QEAV0@@Z
        186   B9 00040460 ??0QCollatorSortKey@@QEAA@AEBV0@@Z
        187   BA 00224B40 ??0QComHelper@@QEAA@W4tagCOINIT@@@Z
        188   BB 00040460 ??0QCommandLineOption@@QEAA@AEBV0@@Z
        189   BC 00237150 ??0QCommandLineOption@@QEAA@AEBV?$QList@VQString@@@@@Z
        190   BD 002371A0 ??0QCommandLineOption@@QEAA@AEBV?$QList@VQString@@@@AEBVQString@@11@Z
        191   BE 00237240 ??0QCommandLineOption@@QEAA@AEBVQString@@000@Z
        192   BF 002372E0 ??0QCommandLineOption@@QEAA@AEBVQString@@@Z
        193   C0 00239F90 ??0QCommandLineParser@@QEAA@XZ
        194   C1 002D2880 ??0QConcatenateTablesProxyModel@@QEAA@PEAVQObject@@@Z
        195   C2 00002410 ??0QContactsPermission@@QEAA@AEBV0@@Z
        196   C3 003191B0 ??0QContactsPermission@@QEAA@XZ
        197   C4 00001700 ??0QContiguousCacheData@@QEAA@XZ
        198   C5 000996C0 ??0QCoreApplication@@IEAA@AEAVQCoreApplicationPrivate@@@Z
        199   C6 000996F0 ??0QCoreApplication@@QEAA@AEAHPEAPEADH@Z
        200   C7 00099780 ??0QCoreApplicationPrivate@@QEAA@AEAHPEAPEAD@Z
        201   C8 000015C0 ??0QCryptographicHash@@QEAA@$$QEAV0@@Z
        202   C9 0019FB60 ??0QCryptographicHash@@QEAA@W4Algorithm@0@@Z
        203   CA 00183F20 ??0QDaemonThread@@QEAA@PEAVQObject@@@Z
        204   CB 00119F90 ??0QDataStream@@QEAA@AEBVQByteArray@@@Z
        205   CC 0011A030 ??0QDataStream@@QEAA@PEAVQByteArray@@V?$QFlags@W4OpenModeFlag@QIODeviceBase@@@@@Z
        206   CD 0011A0C0 ??0QDataStream@@QEAA@PEAVQIODevice@@@Z
        207   CE 0011A0E0 ??0QDataStream@@QEAA@XZ
        208   CF 000015B0 ??0QDate@@AEAA@_J@Z
        209   D0 00189520 ??0QDate@@QEAA@HHH@Z
        210   D1 00189560 ??0QDate@@QEAA@HHHVQCalendar@@@Z
        211   D2 00015100 ??0QDate@@QEAA@XZ
        212   D3 001895A0 ??0QDateTime@@QEAA@$$QEAV0@@Z
        213   D4 001895C0 ??0QDateTime@@QEAA@AEBV0@@Z
        214   D5 00017340 ??0QDateTime@@QEAA@VQDate@@VQTime@@@Z
        215   D6 00017360 ??0QDateTime@@QEAA@VQDate@@VQTime@@AEBVQTimeZone@@@Z
        216   D7 00189610 ??0QDateTime@@QEAA@VQDate@@VQTime@@AEBVQTimeZone@@W4TransitionResolution@0@@Z
        217   D8 00189630 ??0QDateTime@@QEAA@VQDate@@VQTime@@W4TimeSpec@Qt@@H@Z
        218   D9 001896A0 ??0QDateTime@@QEAA@VQDate@@VQTime@@W4TransitionResolution@0@@Z
        219   DA 001896E0 ??0QDateTime@@QEAA@XZ
        220   DB 001424E0 ??0QDateTimeParser@@QEAA@AEBV0@@Z
        221   DC 00142620 ??0QDateTimeParser@@QEAA@W4Type@QMetaType@@W4Context@0@VQCalendar@@@Z
        222   DD 00001710 ??0QDeadlineTimer@@QEAA@W4ForeverConstant@0@W4TimerType@Qt@@@Z
        223   DE 00001730 ??0QDeadlineTimer@@QEAA@W4TimerType@Qt@@@Z
        224   DF 00001740 ??0QDeadlineTimer@@QEAA@XZ
        225   E0 000A3A70 ??0QDeadlineTimer@@QEAA@_JW4TimerType@Qt@@@Z
        226   E1 000015C0 ??0QDebug@@QEAA@$$QEAV0@@Z
        227   E2 00001760 ??0QDebug@@QEAA@AEBV0@@Z
        228   E3 00001770 ??0QDebug@@QEAA@PEAVQIODevice@@@Z
        229   E4 00001800 ??0QDebug@@QEAA@PEAVQString@@@Z
        230   E5 00001890 ??0QDebug@@QEAA@W4QtMsgType@@@Z
        231   E6 0003BD80 ??0QDebugStateSaver@@QEAA@AEAVQDebug@@@Z
        232   E7 00040450 ??0QDir@@IEAA@AEAVQDirPrivate@@@Z
        233   E8 00040460 ??0QDir@@QEAA@AEBV0@@Z
        234   E9 00040480 ??0QDir@@QEAA@AEBVQString@@0V?$QFlags@W4SortFlag@QDir@@@@V?$QFlags@W4Filter@QDir@@@@@Z
        235   EA 00040590 ??0QDir@@QEAA@AEBVQString@@@Z
        236   EB 0004FDD0 ??0QDirIterator@@QEAA@AEBVQDir@@V?$QFlags@W4IteratorFlag@QDirIterator@@@@@Z
        237   EC 0004FF70 ??0QDirIterator@@QEAA@AEBVQString@@AEBV?$QList@VQString@@@@V?$QFlags@W4Filter@QDir@@@@V?$QFlags@W4IteratorFlag@QDirIterator@@@@@Z
        238   ED 00050040 ??0QDirIterator@@QEAA@AEBVQString@@V?$QFlags@W4Filter@QDir@@@@V?$QFlags@W4IteratorFlag@QDirIterator@@@@@Z
        239   EE 00050190 ??0QDirIterator@@QEAA@AEBVQString@@V?$QFlags@W4IteratorFlag@QDirIterator@@@@@Z
        240   EF 0004B3E0 ??0QDirListing@@AEAA@AEBVQString@@AEBV?$QList@VQString@@@@II@Z
        241   F0 0004B5D0 ??0QDirListing@@QEAA@AEBVQString@@AEBV?$QList@VQString@@@@V?$QFlags@W4IteratorFlag@QDirListing@@@@@Z
        242   F1 0004B790 ??0QDirListing@@QEAA@AEBVQString@@V?$QFlags@W4IteratorFlag@QDirListing@@@@@Z
        243   F2 00017380 ??0QDynamicMetaObjectData@@QEAA@AEBU0@@Z
        244   F3 00017380 ??0QDynamicMetaObjectData@@QEAA@XZ
        245   F4 000A2EC0 ??0QDynamicPropertyChangeEvent@@IEAA@AEBV0@@Z
        246   F5 000A2F90 ??0QDynamicPropertyChangeEvent@@QEAA@AEBVQByteArray@@@Z
        247   F6 00017320 ??0QEasingCurve@@QEAA@$$QEAV0@@Z
        248   F7 00246E40 ??0QEasingCurve@@QEAA@AEBV0@@Z
        249   F8 00246EB0 ??0QEasingCurve@@QEAA@W4Type@0@@Z
        250   F9 00001930 ??0QElapsedTimer@@QEAA@XZ
        251   FA 00001950 ??0QEvent@@IEAA@AEBV0@@Z
        252   FB 000019F0 ??0QEvent@@IEAA@W4Type@0@UInputEventTag@0@@Z
        253   FC 00001A20 ??0QEvent@@IEAA@W4Type@0@UPointerEventTag@0@@Z
        254   FD 00001A50 ??0QEvent@@IEAA@W4Type@0@USinglePointEventTag@0@@Z
        255   FE 000A2FD0 ??0QEvent@@QEAA@W4Type@0@@Z
        256   FF 0021FCC0 ??0QEventDispatcherWin32@@IEAA@AEAVQEventDispatcherWin32Private@@PEAVQObject@@@Z
        257  100 0021FE10 ??0QEventDispatcherWin32@@QEAA@PEAVQObject@@@Z
        258  101 0021FEF0 ??0QEventDispatcherWin32Private@@QEAA@XZ
        259  102 000A4BD0 ??0QEventLoop@@QEAA@PEAVQObject@@@Z
        260  103 000A4CD0 ??0QEventLoopLocker@@QEAA@PEAVQEventLoop@@@Z
        261  104 000A4D20 ??0QEventLoopLocker@@QEAA@PEAVQThread@@@Z
        262  105 000A4D70 ??0QEventLoopLocker@@QEAA@XZ
        263  106 0022EEC0 ??0QException@@QEAA@AEBV0@@Z
        264  107 0022EF00 ??0QException@@QEAA@XZ
        265  108 0005E0B0 ??0QFSFileEngine@@IEAA@AEAVQFSFileEnginePrivate@@@Z
        266  109 0005E0E0 ??0QFSFileEngine@@QEAA@AEBVQString@@@Z
        267  10A 0005E290 ??0QFSFileEngine@@QEAA@XZ
        268  10B 00100530 ??0QFactoryInterface@@QEAA@AEBU0@@Z
        269  10C 00100530 ??0QFactoryInterface@@QEAA@XZ
        270  10D 00102400 ??0QFactoryLoader@@QEAA@PEBDAEBVQString@@W4CaseSensitivity@Qt@@@Z
        271  10E 00050590 ??0QFile@@IEAA@AEAVQFilePrivate@@PEAVQObject@@@Z
        272  10F 000505C0 ??0QFile@@QEAA@AEBVQString@@@Z
        273  110 00050660 ??0QFile@@QEAA@AEBVQString@@PEAVQObject@@@Z
        274  111 00050710 ??0QFile@@QEAA@PEAVQObject@@@Z
        275  112 00050790 ??0QFile@@QEAA@XZ
        276  113 000532B0 ??0QFileDevice@@IEAA@AEAVQFileDevicePrivate@@PEAVQObject@@@Z
        277  114 000532E0 ??0QFileDevice@@IEAA@PEAVQObject@@@Z
        278  115 00053370 ??0QFileDevice@@IEAA@XZ
        279  116 00040460 ??0QFileInfo@@QEAA@AEBV0@@Z
        280  117 00054CD0 ??0QFileInfo@@QEAA@AEBVQDir@@AEBVQString@@@Z
        281  118 00054D70 ??0QFileInfo@@QEAA@AEBVQFileDevice@@@Z
        282  119 00054E20 ??0QFileInfo@@QEAA@AEBVQString@@@Z
        283  11A 00040450 ??0QFileInfo@@QEAA@PEAVQFileInfoPrivate@@@Z
        284  11B 00054E70 ??0QFileInfo@@QEAA@XZ
        285  11C 00058290 ??0QFileSelector@@QEAA@PEAVQObject@@@Z
        286  11D 00058320 ??0QFileSelectorPrivate@@QEAA@XZ
        287  11E 002711B0 ??0QFileSystemWatcher@@QEAA@AEBV?$QList@VQString@@@@PEAVQObject@@@Z
        288  11F 002712E0 ??0QFileSystemWatcher@@QEAA@PEAVQObject@@@Z
        289  120 0022F6B0 ??0QFutureCallOutEvent@@IEAA@AEBV0@@Z
        290  121 0022F790 ??0QFutureCallOutEvent@@QEAA@W4CallOutType@0@H@Z
        291  122 0022F7F0 ??0QFutureCallOutEvent@@QEAA@W4CallOutType@0@HAEBVQString@@@Z
        292  123 0022F870 ??0QFutureCallOutEvent@@QEAA@W4CallOutType@0@HH@Z
        293  124 0022F8E0 ??0QFutureCallOutEvent@@QEAA@XZ
        294  125 0022F920 ??0QFutureCallOutInterface@@QEAA@AEBV0@@Z
        295  126 0022F920 ??0QFutureCallOutInterface@@QEAA@XZ
        296  127 00099990 ??0QFutureInterfaceBase@@QEAA@$$QEAV0@@Z
        297  128 0022F930 ??0QFutureInterfaceBase@@QEAA@AEBV0@@Z
        298  129 0022F950 ??0QFutureInterfaceBase@@QEAA@W4State@0@@Z
        299  12A 002344E0 ??0QFutureWatcherBase@@QEAA@PEAVQObject@@@Z
        300  12B 00001A80 ??0QGenericArgument@@QEAA@PEBDPEBX@Z
        301  12C 00001A80 ??0QGenericReturnArgument@@QEAA@PEBDPEAX@Z
        302  12D 00142760 ??0QGregorianCalendar@@QEAA@XZ
        303  12E 001866E0 ??0QHijriCalendar@@QEAA@XZ
        304  12F 000618A0 ??0QIODevice@@IEAA@AEAVQIODevicePrivate@@PEAVQObject@@@Z
        305  130 000618D0 ??0QIODevice@@QEAA@PEAVQObject@@@Z
        306  131 00061930 ??0QIODevice@@QEAA@XZ
        307  132 00061980 ??0QIODevicePrivate@@QEAA@XZ
        308  133 002D6DA0 ??0QIdentityProxyModel@@IEAA@AEAVQIdentityProxyModelPrivate@@PEAVQObject@@@Z
        309  134 002D6DD0 ??0QIdentityProxyModel@@QEAA@PEAVQObject@@@Z
        310  135 002D6EA0 ??0QIdentityProxyModelPrivate@@QEAA@XZ
        311  136 00186700 ??0QIslamicCivilCalendar@@QEAA@XZ
        312  137 002C1CE0 ??0QItemSelection@@QEAA@AEBVQModelIndex@@0@Z
        313  138 002C1D10 ??0QItemSelectionModel@@IEAA@AEAVQItemSelectionModelPrivate@@PEAVQAbstractItemModel@@@Z
        314  139 002C1D60 ??0QItemSelectionModel@@QEAA@PEAVQAbstractItemModel@@@Z
        315  13A 002C1DD0 ??0QItemSelectionModel@@QEAA@PEAVQAbstractItemModel@@PEAVQObject@@@Z
        316  13B 00017390 ??0QItemSelectionRange@@QEAA@$$QEAV0@@Z
        317  13C 000173B0 ??0QItemSelectionRange@@QEAA@AEBV0@@Z
        318  13D 000173F0 ??0QItemSelectionRange@@QEAA@AEBVQModelIndex@@0@Z
        319  13E 00017430 ??0QItemSelectionRange@@QEAA@AEBVQModelIndex@@@Z
        320  13F 00017460 ??0QItemSelectionRange@@QEAA@XZ
        321  140 00186720 ??0QJalaliCalendar@@QEAA@XZ
        322  141 00040450 ??0QJsonArray@@AEAA@PEAVQCborContainerPrivate@@@Z
        323  142 0011B650 ??0QJsonArray@@QEAA@$$QEAV0@@Z
        324  143 00040460 ??0QJsonArray@@QEAA@AEBV0@@Z
        325  144 0011B6B0 ??0QJsonArray@@QEAA@V?$initializer_list@VQJsonValue@@@std@@@Z
        326  145 00001B00 ??0QJsonArray@@QEAA@XZ
        327  146 00120240 ??0QJsonDocument@@AEAA@AEBVQCborValue@@@Z
        328  147 000015C0 ??0QJsonDocument@@QEAA@$$QEAV0@@Z
        329  148 001202D0 ??0QJsonDocument@@QEAA@AEBV0@@Z
        330  149 00120390 ??0QJsonDocument@@QEAA@AEBVQJsonArray@@@Z
        331  14A 001204C0 ??0QJsonDocument@@QEAA@AEBVQJsonObject@@@Z
        332  14B 00001B00 ??0QJsonDocument@@QEAA@XZ
        333  14C 00040450 ??0QJsonObject@@AEAA@PEAVQCborContainerPrivate@@@Z
        334  14D 0011B650 ??0QJsonObject@@QEAA@$$QEAV0@@Z
        335  14E 00040460 ??0QJsonObject@@QEAA@AEBV0@@Z
        336  14F 001234A0 ??0QJsonObject@@QEAA@V?$initializer_list@U?$pair@VQString@@VQJsonValue@@@std@@@std@@@Z
        337  150 00001B00 ??0QJsonObject@@QEAA@XZ
        338  151 00017490 ??0QJsonParseError@@QEAA@XZ
        339  152 001290C0 ??0QJsonValue@@QEAA@$$QEAV0@@Z
        340  153 00129150 ??0QJsonValue@@QEAA@$$QEAVQJsonArray@@@Z
        341  154 001291A0 ??0QJsonValue@@QEAA@$$QEAVQJsonObject@@@Z
        342  155 001291F0 ??0QJsonValue@@QEAA@AEBV0@@Z
        343  156 00129210 ??0QJsonValue@@QEAA@AEBVQJsonArray@@@Z
        344  157 00129260 ??0QJsonValue@@QEAA@AEBVQJsonObject@@@Z
        345  158 001292B0 ??0QJsonValue@@QEAA@AEBVQString@@@Z
        346  159 000171A0 ??0QJsonValue@@QEAA@H@Z
        347  15A 001292D0 ??0QJsonValue@@QEAA@N@Z
        348  15B 000174B0 ??0QJsonValue@@QEAA@PEBD@Z
        349  15C 00129360 ??0QJsonValue@@QEAA@VQLatin1String@@@Z
        350  15D 00129390 ??0QJsonValue@@QEAA@W4Type@0@@Z
        351  15E 000172F0 ??0QJsonValue@@QEAA@_J@Z
        352  15F 00017300 ??0QJsonValue@@QEAA@_N@Z
        353  160 00002110 ??0QJsonValueRef@@QEAA@AEBV0@@Z
        354  161 00017520 ??0QJsonValueRef@@QEAA@PEAVQJsonArray@@_J@Z
        355  162 00017530 ??0QJsonValueRef@@QEAA@PEAVQJsonObject@@_J@Z
        356  163 00186740 ??0QJulianCalendar@@QEAA@XZ
        357  164 0013FEC0 ??0QLatin1StringMatcher@@QEAA@VQLatin1String@@W4CaseSensitivity@Qt@@@Z
        358  165 0013FEF0 ??0QLatin1StringMatcher@@QEAA@XZ
        359  166 002FBE10 ??0QLibrary@@QEAA@AEBVQString@@0PEAVQObject@@@Z
        360  167 002FBE70 ??0QLibrary@@QEAA@AEBVQString@@HPEAVQObject@@@Z
        361  168 002FBF90 ??0QLibrary@@QEAA@AEBVQString@@PEAVQObject@@@Z
        362  169 002FC010 ??0QLibrary@@QEAA@PEAVQObject@@@Z
        363  16A 000020C0 ??0QLibraryInfo@@AEAA@XZ
        364  16B 00017550 ??0QLine@@QEAA@AEBVQPoint@@0@Z
        365  16C 00013DC0 ??0QLine@@QEAA@HHHH@Z
        366  16D 000016A0 ??0QLine@@QEAA@XZ
        367  16E 00017570 ??0QLineF@@QEAA@AEBVQLine@@@Z
        368  16F 000175C0 ??0QLineF@@QEAA@AEBVQPointF@@0@Z
        369  170 000175E0 ??0QLineF@@QEAA@NNNN@Z
        370  171 00017600 ??0QLineF@@QEAA@XZ
        371  172 00142780 ??0QLocale@@AEAA@AEAVQLocalePrivate@@@Z
        372  173 00142790 ??0QLocale@@QEAA@AEBV0@@Z
        373  174 00017620 ??0QLocale@@QEAA@AEBVQString@@@Z
        374  175 001427B0 ??0QLocale@@QEAA@VQStringView@@@Z
        375  176 001428C0 ??0QLocale@@QEAA@W4Language@0@W4Country@0@@Z
        376  177 001428F0 ??0QLocale@@QEAA@W4Language@0@W4Script@0@W4Country@0@@Z
        377  178 00142930 ??0QLocale@@QEAA@XZ
        378  179 00002410 ??0QLocationPermission@@QEAA@AEBV0@@Z
        379  17A 003191E0 ??0QLocationPermission@@QEAA@XZ
        380  17B 00066FC0 ??0QLockFile@@QEAA@AEBVQString@@@Z
        381  17C 00068230 ??0QLoggingCategory@@QEAA@PEBDW4QtMsgType@@@Z
        382  17D 000015C0 ??0QMessageAuthenticationCode@@QEAA@$$QEAV0@@Z
        383  17E 00017650 ??0QMessageAuthenticationCode@@QEAA@W4Algorithm@QCryptographicHash@@AEBVQByteArray@@@Z
        384  17F 0019FBC0 ??0QMessageAuthenticationCode@@QEAA@W4Algorithm@QCryptographicHash@@VQByteArrayView@@@Z
        385  180 00001A90 ??0QMessageLogger@@QEAA@PEBDH00@Z
        386  181 00001AB0 ??0QMessageLogger@@QEAA@PEBDH0@Z
        387  182 00001AE0 ??0QMessageLogger@@QEAA@XZ
        388  183 000015B0 ??0QMetaAssociation@@QEAA@PEBVQMetaAssociationInterface@QtMetaContainerPrivate@@@Z
        389  184 00001B00 ??0QMetaAssociation@@QEAA@XZ
        390  185 000DC130 ??0QMetaCallEvent@@QEAA@GGP6AXPEAVQObject@@W4Call@QMetaObject@@HPEAPEAX@ZPEBV1@H2PEAVQSemaphore@@@Z
        391  186 000DC1D0 ??0QMetaCallEvent@@QEAA@GGP6AXPEAVQObject@@W4Call@QMetaObject@@HPEAPEAX@ZPEBV1@HH@Z
        392  187 000DC2A0 ??0QMetaCallEvent@@QEAA@PEAVQSlotObjectBase@QtPrivate@@PEBVQObject@@HH@Z
        393  188 000DC370 ??0QMetaCallEvent@@QEAA@PEAVQSlotObjectBase@QtPrivate@@PEBVQObject@@HPEAPEAXPEAVQSemaphore@@@Z
        394  189 000DC410 ??0QMetaCallEvent@@QEAA@V?$unique_ptr@VQSlotObjectBase@QtPrivate@@UDeleter@12@@std@@PEBVQObject@@HH@Z
        395  18A 000DC500 ??0QMetaCallEvent@@QEAA@V?$unique_ptr@VQSlotObjectBase@QtPrivate@@UDeleter@12@@std@@PEBVQObject@@HPEAPEAXPEAVQSemaphore@@@Z
        396  18B 000016A0 ??0QMetaClassInfo@@QEAA@XZ
        397  18C 000015B0 ??0QMetaContainer@@QEAA@PEBVQMetaContainerInterface@QtMetaContainerPrivate@@@Z
        398  18D 00001B00 ??0QMetaContainer@@QEAA@XZ
        399  18E 000A6070 ??0QMetaEnum@@AEAA@PEBUQMetaObject@@H@Z
        400  18F 000016A0 ??0QMetaEnum@@QEAA@XZ
        401  190 000B44A0 ??0QMetaEnumBuilder@@AEAA@PEBVQMetaObjectBuilder@@H@Z
        402  191 000B44B0 ??0QMetaEnumBuilder@@QEAA@XZ
        403  192 00017680 ??0QMetaMethod@@AEAA@PEBUQMetaObject@@AEBUData@0@@Z
        404  193 000016A0 ??0QMetaMethod@@QEAA@XZ
        405  194 000B44A0 ??0QMetaMethodBuilder@@AEAA@PEBVQMetaObjectBuilder@@H@Z
        406  195 000B44B0 ??0QMetaMethodBuilder@@QEAA@XZ
        407  196 00001B10 ??0QMetaObject@@QEAA@XZ
        408  197 000B44C0 ??0QMetaObjectBuilder@@QEAA@PEBUQMetaObject@@V?$QFlags@W4AddMember@QMetaObjectBuilder@@@@@Z
        409  198 000B45B0 ??0QMetaObjectBuilder@@QEAA@XZ
        410  199 000A60A0 ??0QMetaProperty@@AEAA@PEBUQMetaObject@@H@Z
        411  19A 00017600 ??0QMetaProperty@@QEAA@XZ
        412  19B 000B44A0 ??0QMetaPropertyBuilder@@AEAA@PEBVQMetaObjectBuilder@@H@Z
        413  19C 000B44B0 ??0QMetaPropertyBuilder@@QEAA@XZ
        414  19D 000015B0 ??0QMetaSequence@@QEAA@PEBVQMetaSequenceInterface@QtMetaContainerPrivate@@@Z
        415  19E 00001B00 ??0QMetaSequence@@QEAA@XZ
        416  19F 000B4680 ??0QMetaStringTable@@QEAA@AEBVQByteArray@@@Z
        417  1A0 000CB000 ??0QMetaType@@QEAA@H@Z
        418  1A1 000015B0 ??0QMetaType@@QEAA@PEBVQMetaTypeInterface@QtPrivate@@@Z
        419  1A2 00001B00 ??0QMetaType@@QEAA@XZ
        420  1A3 000A6350 ??0QMetaTypeModuleHelper@@IEAA@XZ
        421  1A4 00002410 ??0QMicrophonePermission@@QEAA@AEBV0@@Z
        422  1A5 00001B00 ??0QMicrophonePermission@@QEAA@XZ
        423  1A6 00186760 ??0QMilankovicCalendar@@QEAA@XZ
        424  1A7 000D6EB0 ??0QMimeData@@QEAA@XZ
        425  1A8 003061C0 ??0QMimeDatabase@@QEAA@XZ
        426  1A9 00040460 ??0QMimeType@@QEAA@AEBV0@@Z
        427  1AA 003142A0 ??0QMimeType@@QEAA@AEBVQMimeTypePrivate@@@Z
        428  1AB 00314300 ??0QMimeType@@QEAA@XZ
        429  1AC 00001B00 ??0QMutex@@QEAA@XZ
        430  1AD 0006D860 ??0QNonContiguousByteDevice@@IEAA@XZ
        431  1AE 000DC5D0 ??0QObject@@IEAA@AEAVQObjectPrivate@@PEAV0@@Z
        432  1AF 000DC7C0 ??0QObject@@QEAA@PEAV0@@Z
        433  1B0 000E9FA0 ??0QObjectCleanupHandler@@QEAA@XZ
        434  1B1 00001B20 ??0QObjectData@@QEAA@XZ
        435  1B2 000DC890 ??0QObjectPrivate@@QEAA@H@Z
        436  1B3 00013DB0 ??0QOperatingSystemVersion@@AEAA@XZ
        437  1B4 00002110 ??0QOperatingSystemVersion@@QEAA@AEBVQOperatingSystemVersionBase@@@Z
        438  1B5 00013DC0 ??0QOperatingSystemVersion@@QEAA@W4OSType@0@HHH@Z
        439  1B6 001FF820 ??0QParallelAnimationGroup@@IEAA@AEAVQParallelAnimationGroupPrivate@@PEAVQObject@@@Z
        440  1B7 001FF850 ??0QParallelAnimationGroup@@QEAA@PEAVQObject@@@Z
        441  1B8 00200EF0 ??0QPauseAnimation@@QEAA@HPEAVQObject@@@Z
        442  1B9 00201010 ??0QPauseAnimation@@QEAA@PEAVQObject@@@Z
        443  1BA 000999B0 ??0QPermissionPlugin@@QEAA@XZ
        444  1BB 000015C0 ??0QPersistentModelIndex@@QEAA@$$QEAV0@@Z
        445  1BC 002ABB60 ??0QPersistentModelIndex@@QEAA@AEBV0@@Z
        446  1BD 002ABB80 ??0QPersistentModelIndex@@QEAA@AEBVQModelIndex@@@Z
        447  1BE 00001B00 ??0QPersistentModelIndex@@QEAA@XZ
        448  1BF 00107300 ??0QPluginLoader@@QEAA@AEBVQString@@PEAVQObject@@@Z
        449  1C0 001074B0 ??0QPluginLoader@@QEAA@PEAVQObject@@@Z
        450  1C1 00281480 ??0QProcess@@QEAA@PEAVQObject@@@Z
        451  1C2 00040460 ??0QProcessEnvironment@@QEAA@AEBV0@@Z
        452  1C3 00001B00 ??0QProcessEnvironment@@QEAA@W4Initialization@0@@Z
        453  1C4 00281660 ??0QProcessEnvironment@@QEAA@XZ
        454  1C5 002024F0 ??0QPropertyAnimation@@QEAA@PEAVQObject@@@Z
        455  1C6 00202590 ??0QPropertyAnimation@@QEAA@PEAVQObject@@AEBVQByteArray@@0@Z
        456  1C7 000EA980 ??0QPropertyBindingData@QtPrivate@@QEAA@$$QEAV01@@Z
        457  1C8 00001B00 ??0QPropertyBindingData@QtPrivate@@QEAA@XZ
        458  1C9 000015C0 ??0QPropertyBindingError@@QEAA@$$QEAV0@@Z
        459  1CA 00040460 ??0QPropertyBindingError@@QEAA@AEBV0@@Z
        460  1CB 000EA9C0 ??0QPropertyBindingError@@QEAA@W4Type@0@AEBVQString@@@Z
        461  1CC 00001B00 ??0QPropertyBindingError@@QEAA@XZ
        462  1CD 00017690 ??0QPropertyBindingPrivate@@QEAA@VQMetaType@@PEBUBindingFunctionVTable@QtPrivate@@AEBUQPropertyBindingSourceLocation@@_N@Z
        463  1CE 00001680 ??0QPropertyBindingSourceLocation@@QEAA@XZ
        464  1CF 000EABC0 ??0QPropertyObserver@@IEAA@P6AXPEAV0@PEAVQUntypedPropertyData@@@Z@Z
        465  1D0 000EABE0 ??0QPropertyObserver@@IEAA@PEAVQUntypedPropertyData@@@Z
        466  1D1 000EAC00 ??0QPropertyObserver@@QEAA@$$QEAV0@@Z
        467  1D2 00001680 ??0QPropertyObserver@@QEAA@XZ
        468  1D3 00031110 ??0QRandomGenerator@@QEAA@AEAVseed_seq@std@@@Z
        469  1D4 00031140 ??0QRandomGenerator@@QEAA@AEBV0@@Z
        470  1D5 00031210 ??0QRandomGenerator@@QEAA@PEBI0@Z
        471  1D6 00017760 ??0QReadLocker@@QEAA@PEAVQReadWriteLock@@@Z
        472  1D7 000177C0 ??0QReadWriteLock@@QEAA@W4RecursionMode@0@@Z
        473  1D8 000177F0 ??0QRect@@QEAA@AEBVQPoint@@0@Z
        474  1D9 00017810 ??0QRect@@QEAA@AEBVQPoint@@AEBVQSize@@@Z
        475  1DA 00017840 ??0QRect@@QEAA@HHHH@Z
        476  1DB 00017860 ??0QRect@@QEAA@XZ
        477  1DC 00017880 ??0QRectF@@QEAA@AEBVQPointF@@0@Z
        478  1DD 000178B0 ??0QRectF@@QEAA@AEBVQPointF@@AEBVQSizeF@@@Z
        479  1DE 000178E0 ??0QRectF@@QEAA@AEBVQRect@@@Z
        480  1DF 000175E0 ??0QRectF@@QEAA@NNNN@Z
        481  1E0 00017600 ??0QRectF@@QEAA@XZ
        482  1E1 00017930 ??0QRecursiveMutex@@QEAA@XZ
        483  1E2 00040450 ??0QRegularExpression@@AEAA@AEAUQRegularExpressionPrivate@@@Z
        484  1E3 000015C0 ??0QRegularExpression@@QEAA@$$QEAV0@@Z
        485  1E4 00040460 ??0QRegularExpression@@QEAA@AEBV0@@Z
        486  1E5 002563F0 ??0QRegularExpression@@QEAA@AEBVQString@@V?$QFlags@W4PatternOption@QRegularExpression@@@@@Z
        487  1E6 00256480 ??0QRegularExpression@@QEAA@XZ
        488  1E7 00040450 ??0QRegularExpressionMatch@@AEAA@AEAUQRegularExpressionMatchPrivate@@@Z
        489  1E8 000015C0 ??0QRegularExpressionMatch@@QEAA@$$QEAV0@@Z
        490  1E9 00040460 ??0QRegularExpressionMatch@@QEAA@AEBV0@@Z
        491  1EA 002564E0 ??0QRegularExpressionMatch@@QEAA@XZ
        492  1EB 00040450 ??0QRegularExpressionMatchIterator@@AEAA@AEAUQRegularExpressionMatchIteratorPrivate@@@Z
        493  1EC 000015C0 ??0QRegularExpressionMatchIterator@@QEAA@$$QEAV0@@Z
        494  1ED 00040460 ??0QRegularExpressionMatchIterator@@QEAA@AEBV0@@Z
        495  1EE 00256640 ??0QRegularExpressionMatchIterator@@QEAA@XZ
        496  1EF 0006F880 ??0QResource@@QEAA@AEBVQString@@AEBVQLocale@@@Z
        497  1F0 00142A00 ??0QRomanCalendar@@QEAA@XZ
        498  1F1 00017940 ??0QRunnable@@QEAA@XZ
        499  1F2 00074F40 ??0QSaveFile@@QEAA@AEBVQString@@@Z
        500  1F3 00075000 ??0QSaveFile@@QEAA@AEBVQString@@PEAVQObject@@@Z
        501  1F4 000750D0 ??0QSaveFile@@QEAA@PEAVQObject@@@Z
        502  1F5 0022AB20 ??0QSemaphore@@QEAA@H@Z
        503  1F6 00205670 ??0QSequentialAnimationGroup@@IEAA@AEAVQSequentialAnimationGroupPrivate@@PEAVQObject@@@Z
        504  1F7 002056A0 ??0QSequentialAnimationGroup@@QEAA@PEAVQObject@@@Z
        505  1F8 00094E60 ??0QSequentialConstIterator@@QEAA@$$QEAU?$QConstIterator@VQMetaSequence@@@@@Z
        506  1F9 00094E60 ??0QSequentialConstIterator@@QEAA@$$QEAV0@@Z
        507  1FA 00094F80 ??0QSequentialConstIterator@@QEAA@AEBV0@@Z
        508  1FB 00018F70 ??0QSequentialIterable@@QEAA@$$QEAV?$QIterable@VQMetaSequence@@@@@Z
        509  1FC 00094FA0 ??0QSequentialIterable@@QEAA@AEBVQMetaSequence@@AEBVQMetaType@@PEAX@Z
        510  1FD 00094FC0 ??0QSequentialIterable@@QEAA@AEBVQMetaSequence@@AEBVQMetaType@@PEBX@Z
        511  1FE 00094FF0 ??0QSequentialIterable@@QEAA@XZ
        512  1FF 00094E60 ??0QSequentialIterator@@QEAA@$$QEAU?$QIterator@VQMetaSequence@@@@@Z
        513  200 00094E60 ??0QSequentialIterator@@QEAA@$$QEAV0@@Z
        514  201 00094F80 ??0QSequentialIterator@@QEAA@AEBV0@@Z
        515  202 0028FEE0 ??0QSettings@@QEAA@AEBVQString@@0PEAVQObject@@@Z
        516  203 0028FF30 ??0QSettings@@QEAA@AEBVQString@@W4Format@0@PEAVQObject@@@Z
        517  204 0028FF80 ??0QSettings@@QEAA@PEAVQObject@@@Z
        518  205 0028FFB0 ??0QSettings@@QEAA@W4Format@0@W4Scope@0@AEBVQString@@2PEAVQObject@@@Z
        519  206 00290000 ??0QSettings@@QEAA@W4Scope@0@AEBVQString@@1PEAVQObject@@@Z
        520  207 00290040 ??0QSettings@@QEAA@W4Scope@0@PEAVQObject@@@Z
        521  208 00034500 ??0QSharedMemory@@QEAA@AEBVQNativeIpcKey@@PEAVQObject@@@Z
        522  209 00034660 ??0QSharedMemory@@QEAA@AEBVQString@@PEAVQObject@@@Z
        523  20A 000346F0 ??0QSharedMemory@@QEAA@PEAVQObject@@@Z
        524  20B 000F07A0 ??0QSignalMapper@@QEAA@PEAVQObject@@@Z
        525  20C 00017960 ??0QSize@@QEAA@HH@Z
        526  20D 00017970 ??0QSize@@QEAA@XZ
        527  20E 00017980 ??0QSizeF@@QEAA@AEBVQSize@@@Z
        528  20F 000179A0 ??0QSizeF@@QEAA@NN@Z
        529  210 000179B0 ??0QSizeF@@QEAA@XZ
        530  211 000F3040 ??0QSocketNotifier@@QEAA@W4Type@0@PEAVQObject@@@Z
        531  212 000F30F0 ??0QSocketNotifier@@QEAA@_JW4Type@0@PEAVQObject@@@Z
        532  213 002E3C70 ??0QSortFilterProxyModel@@QEAA@PEAVQObject@@@Z
        533  214 000999E0 ??0QStaticPlugin@@QEAA@P6APEAVQObject@@XZP6A?AUQPluginMetaData@@XZ@Z
        534  215 00040450 ??0QStorageInfo@@AEAA@AEAVQStorageInfoPrivate@@@Z
        535  216 00040460 ??0QStorageInfo@@QEAA@AEBV0@@Z
        536  217 000781D0 ??0QStorageInfo@@QEAA@AEBVQDir@@@Z
        537  218 00078340 ??0QStorageInfo@@QEAA@AEBVQString@@@Z
        538  219 00078400 ??0QStorageInfo@@QEAA@XZ
        539  21A 00001600 ??0QString@@QEAA@$$QEAU?$QArrayDataPointer@_S@@@Z
        540  21B 00001600 ??0QString@@QEAA@$$QEAV0@@Z
        541  21C 00001630 ??0QString@@QEAA@AEBV0@@Z
        542  21D 00001B60 ??0QString@@QEAA@AEBVQByteArray@@@Z
        543  21E 00001B90 ??0QString@@QEAA@PEBD@Z
        544  21F 001627B0 ??0QString@@QEAA@PEBVQChar@@_J@Z
        545  220 001628A0 ??0QString@@QEAA@VQChar@@@Z
        546  221 00001BD0 ??0QString@@QEAA@VQLatin1String@@@Z
        547  222 00001C20 ??0QString@@QEAA@VQStringView@@@Z
        548  223 00001680 ??0QString@@QEAA@XZ
        549  224 00162940 ??0QString@@QEAA@_JVQChar@@@Z
        550  225 00162A40 ??0QString@@QEAA@_JW4Initialization@Qt@@@Z
        551  226 000179D0 ??0QStringConverter@@IEAA@PEBDV?$QFlags@W4Flag@QStringConverterBase@@@@@Z
        552  227 00179CE0 ??0QStringConverter@@IEAA@VQAnyStringView@@V?$QFlags@W4Flag@QStringConverterBase@@@@@Z
        553  228 002FA360 ??0QStringListModel@@QEAA@AEBV?$QList@VQString@@@@PEAVQObject@@@Z
        554  229 002FA3B0 ??0QStringListModel@@QEAA@PEAVQObject@@@Z
        555  22A 00162AE0 ??0QStringMatcher@@QEAA@AEBV0@@Z
        556  22B 00162B40 ??0QStringMatcher@@QEAA@AEBVQString@@W4CaseSensitivity@Qt@@@Z
        557  22C 00001C40 ??0QStringMatcher@@QEAA@PEBVQChar@@_JW4CaseSensitivity@Qt@@@Z
        558  22D 00162BD0 ??0QStringMatcher@@QEAA@VQStringView@@W4CaseSensitivity@Qt@@@Z
        559  22E 00001C70 ??0QStringMatcher@@QEAA@XZ
        560  22F 00142A20 ??0QSystemLocale@@QEAA@XZ
        561  230 00036190 ??0QSystemSemaphore@@QEAA@AEBVQNativeIpcKey@@HW4AccessMode@0@@Z
        562  231 00036230 ??0QSystemSemaphore@@QEAA@AEBVQString@@HW4AccessMode@0@@Z
        563  232 000015C0 ??0QTemporaryDir@@QEAA@$$QEAV0@@Z
        564  233 00079860 ??0QTemporaryDir@@QEAA@AEBVQString@@@Z
        565  234 00079910 ??0QTemporaryDir@@QEAA@XZ
        566  235 0007A5D0 ??0QTemporaryFile@@QEAA@AEBVQString@@@Z
        567  236 0007A670 ??0QTemporaryFile@@QEAA@AEBVQString@@PEAVQObject@@@Z
        568  237 0007A720 ??0QTemporaryFile@@QEAA@PEAVQObject@@@Z
        569  238 0007A7A0 ??0QTemporaryFile@@QEAA@XZ
        570  239 00180D40 ??0QTextBoundaryFinder@@QEAA@AEBV0@@Z
        571  23A 00180DE0 ??0QTextBoundaryFinder@@QEAA@W4BoundaryType@0@AEBVQString@@@Z
        572  23B 00180F50 ??0QTextBoundaryFinder@@QEAA@W4BoundaryType@0@PEBVQChar@@_JPEAE2@Z
        573  23C 00180F90 ??0QTextBoundaryFinder@@QEAA@W4BoundaryType@0@VQStringView@@PEAE_J@Z
        574  23D 00181100 ??0QTextBoundaryFinder@@QEAA@XZ
        575  23E 0012D960 ??0QTextStream@@QEAA@AEBVQByteArray@@V?$QFlags@W4OpenModeFlag@QIODeviceBase@@@@@Z
        576  23F 0012DA60 ??0QTextStream@@QEAA@PEAU_iobuf@@V?$QFlags@W4OpenModeFlag@QIODeviceBase@@@@@Z
        577  240 0012DB50 ??0QTextStream@@QEAA@PEAVQByteArray@@V?$QFlags@W4OpenModeFlag@QIODeviceBase@@@@@Z
        578  241 0012DC50 ??0QTextStream@@QEAA@PEAVQIODevice@@@Z
        579  242 0012DD00 ??0QTextStream@@QEAA@PEAVQString@@V?$QFlags@W4OpenModeFlag@QIODeviceBase@@@@@Z
        580  243 0012DD70 ??0QTextStream@@QEAA@XZ
        581  244 00001CC0 ??0QTextStreamManipulator@@QEAA@P8QTextStream@@EAAXH@ZH@Z
        582  245 00001CF0 ??0QTextStreamManipulator@@QEAA@P8QTextStream@@EAAXVQChar@@@Z0@Z
        583  246 00184010 ??0QThread@@IEAA@AEAVQThreadPrivate@@PEAVQObject@@@Z
        584  247 00184040 ??0QThread@@QEAA@PEAVQObject@@@Z
        585  248 0022B780 ??0QThreadPool@@QEAA@PEAVQObject@@@Z
        586  249 0022B850 ??0QThreadPoolPrivate@@QEAA@XZ
        587  24A 0022E510 ??0QThreadStorageData@@QEAA@P6AXPEAX@Z@Z
        588  24B 00015120 ??0QTime@@AEAA@H@Z
        589  24C 001896F0 ??0QTime@@QEAA@HHHH@Z
        590  24D 00015130 ??0QTime@@QEAA@XZ
        591  24E 0024D1C0 ??0QTimeLine@@QEAA@HPEAVQObject@@@Z
        592  24F 00142780 ??0QTimeZone@@AEAA@AEAVQTimeZonePrivate@@@Z
        593  250 000015B0 ??0QTimeZone@@AEAA@UShortData@0@@Z
        594  251 000015C0 ??0QTimeZone@@QEAA@$$QEAV0@@Z
        595  252 00199A00 ??0QTimeZone@@QEAA@AEBV0@@Z
        596  253 00199A30 ??0QTimeZone@@QEAA@AEBVQByteArray@@@Z
        597  254 00199D30 ??0QTimeZone@@QEAA@AEBVQByteArray@@HAEBVQString@@1W4Country@QLocale@@1@Z
        598  255 00199EC0 ??0QTimeZone@@QEAA@H@Z
        599  256 00017A30 ??0QTimeZone@@QEAA@W4Initialization@0@@Z
        600  257 00001B00 ??0QTimeZone@@QEAA@XZ
        601  258 000F5300 ??0QTimer@@QEAA@PEAVQObject@@@Z
        602  259 000A2FF0 ??0QTimerEvent@@IEAA@AEBV0@@Z
        603  25A 000A30A0 ??0QTimerEvent@@QEAA@H@Z
        604  25B 000A30A0 ??0QTimerEvent@@QEAA@W4TimerId@Qt@@@Z
        605  25C 000F6A80 ??0QTranslator@@QEAA@PEAVQObject@@@Z
        606  25D 002F58F0 ??0QTransposeProxyModel@@IEAA@AEAVQTransposeProxyModelPrivate@@PEAVQObject@@@Z
        607  25E 002F5920 ??0QTransposeProxyModel@@QEAA@PEAVQObject@@@Z
        608  25F 0022EF20 ??0QUnhandledException@@QEAA@$$QEAV0@@Z
        609  260 0022EF90 ??0QUnhandledException@@QEAA@AEBV0@@Z
        610  261 0022EFC0 ??0QUnhandledException@@QEAA@Vexception_ptr@std@@@Z
        611  262 001F9900 ??0QUnifiedTimer@@AEAA@XZ
        612  263 000EAC50 ??0QUntypedBindable@@IEAA@PEAVQObject@@AEBVQMetaProperty@@PEBUQBindableInterface@QtPrivate@@@Z
        613  264 000EB5C0 ??0QUntypedBindable@@IEAA@PEAVQObject@@PEBDPEBUQBindableInterface@QtPrivate@@@Z
        614  265 000015C0 ??0QUntypedPropertyBinding@@QEAA@$$QEAV0@@Z
        615  266 000EB620 ??0QUntypedPropertyBinding@@QEAA@AEBV0@@Z
        616  267 000EB640 ??0QUntypedPropertyBinding@@QEAA@PEAVQPropertyBindingPrivate@@@Z
        617  268 000EB650 ??0QUntypedPropertyBinding@@QEAA@VQMetaType@@PEBUBindingFunctionVTable@QtPrivate@@PEAXAEBUQPropertyBindingSourceLocation@@@Z
        618  269 00001B00 ??0QUntypedPropertyBinding@@QEAA@XZ
        619  26A 00017320 ??0QUrl@@QEAA@$$QEAV0@@Z
        620  26B 00040460 ??0QUrl@@QEAA@AEBV0@@Z
        621  26C 0007BFE0 ??0QUrl@@QEAA@AEBVQString@@W4ParsingMode@0@@Z
        622  26D 00001B00 ??0QUrl@@QEAA@XZ
        623  26E 000015C0 ??0QUrlQuery@@QEAA@$$QEAV0@@Z
        624  26F 00040460 ??0QUrlQuery@@QEAA@AEBV0@@Z
        625  270 00089A40 ??0QUrlQuery@@QEAA@AEBVQString@@@Z
        626  271 00089AE0 ??0QUrlQuery@@QEAA@AEBVQUrl@@@Z
        627  272 00017A50 ??0QUrlQuery@@QEAA@V?$initializer_list@U?$pair@VQString@@V1@@std@@@std@@@Z
        628  273 00001B00 ??0QUrlQuery@@QEAA@XZ
        629  274 000020C0 ??0QUuid@@AEAA@W4Initialization@Qt@@@Z
        630  275 00017AB0 ??0QUuid@@QEAA@AEBU_GUID@@@Z
        631  276 00017B00 ??0QUuid@@QEAA@AEBVQByteArray@@@Z
        632  277 00017B30 ??0QUuid@@QEAA@AEBVQString@@@Z
        633  278 00017B70 ??0QUuid@@QEAA@IGGEEEEEEEE@Z
        634  279 00017BC0 ??0QUuid@@QEAA@PEBD@Z
        635  27A 00017C10 ??0QUuid@@QEAA@TId128Bytes@0@W4Endian@QSysInfo@@@Z
        636  27B 00017C70 ??0QUuid@@QEAA@VQAnyStringView@@@Z
        637  27C 000016A0 ??0QUuid@@QEAA@XZ
        638  27D 000FA410 ??0QVariant@@AEAA@Uin_place_t@std@@VQMetaType@@@Z
        639  27E 00001D20 ??0QVariant@@QEAA@$$QEAV0@@Z
        640  27F 000FA4A0 ??0QVariant@@QEAA@AEBV0@@Z
        641  280 000FA4C0 ??0QVariant@@QEAA@AEBV?$QHash@VQString@@VQVariant@@@@@Z
        642  281 000FA500 ??0QVariant@@QEAA@AEBV?$QList@VQString@@@@@Z
        643  282 000FA540 ??0QVariant@@QEAA@AEBV?$QList@VQVariant@@@@@Z
        644  283 000FA580 ??0QVariant@@QEAA@AEBV?$QMap@VQString@@VQVariant@@@@@Z
        645  284 000FA5B0 ??0QVariant@@QEAA@AEBVQBitArray@@@Z
        646  285 000FA5F0 ??0QVariant@@QEAA@AEBVQByteArray@@@Z
        647  286 000FA630 ??0QVariant@@QEAA@AEBVQDateTime@@@Z
        648  287 000FA670 ??0QVariant@@QEAA@AEBVQEasingCurve@@@Z
        649  288 000FA6B0 ??0QVariant@@QEAA@AEBVQJsonArray@@@Z
        650  289 000FA6F0 ??0QVariant@@QEAA@AEBVQJsonDocument@@@Z
        651  28A 000FA730 ??0QVariant@@QEAA@AEBVQJsonObject@@@Z
        652  28B 000FA770 ??0QVariant@@QEAA@AEBVQJsonValue@@@Z
        653  28C 00017CA0 ??0QVariant@@QEAA@AEBVQLine@@@Z
        654  28D 00017CD0 ??0QVariant@@QEAA@AEBVQLineF@@@Z
        655  28E 000FA7B0 ??0QVariant@@QEAA@AEBVQLocale@@@Z
        656  28F 000FA7F0 ??0QVariant@@QEAA@AEBVQModelIndex@@@Z
        657  290 000FA820 ??0QVariant@@QEAA@AEBVQPersistentModelIndex@@@Z
        658  291 00017D00 ??0QVariant@@QEAA@AEBVQPoint@@@Z
        659  292 00017D30 ??0QVariant@@QEAA@AEBVQPointF@@@Z
        660  293 00017D60 ??0QVariant@@QEAA@AEBVQRect@@@Z
        661  294 00017D90 ??0QVariant@@QEAA@AEBVQRectF@@@Z
        662  295 000FA860 ??0QVariant@@QEAA@AEBVQRegularExpression@@@Z
        663  296 00017DC0 ??0QVariant@@QEAA@AEBVQSize@@@Z
        664  297 00017DF0 ??0QVariant@@QEAA@AEBVQSizeF@@@Z
        665  298 000FA8A0 ??0QVariant@@QEAA@AEBVQString@@@Z
        666  299 000FA8E0 ??0QVariant@@QEAA@AEBVQUrl@@@Z
        667  29A 00017E20 ??0QVariant@@QEAA@AEBVQUuid@@@Z
        668  29B 000FA920 ??0QVariant@@QEAA@H@Z
        669  29C 000FA950 ??0QVariant@@QEAA@I@Z
        670  29D 000FA980 ??0QVariant@@QEAA@M@Z
        671  29E 000FA9B0 ??0QVariant@@QEAA@N@Z
        672  29F 00001D60 ??0QVariant@@QEAA@PEBD@Z
        673  2A0 000FA9E0 ??0QVariant@@QEAA@VQChar@@@Z
        674  2A1 000FAA10 ??0QVariant@@QEAA@VQDate@@@Z
        675  2A2 000FAA30 ??0QVariant@@QEAA@VQLatin1String@@@Z
        676  2A3 000FAAE0 ??0QVariant@@QEAA@VQLine@@@Z
        677  2A4 000FAB10 ??0QVariant@@QEAA@VQLineF@@@Z
        678  2A5 000FABA0 ??0QVariant@@QEAA@VQMetaType@@PEBX@Z
        679  2A6 000FAE90 ??0QVariant@@QEAA@VQPoint@@@Z
        680  2A7 000FAEB0 ??0QVariant@@QEAA@VQPointF@@@Z
        681  2A8 000FAEE0 ??0QVariant@@QEAA@VQRect@@@Z
        682  2A9 000FAF10 ??0QVariant@@QEAA@VQRectF@@@Z
        683  2AA 000FAFA0 ??0QVariant@@QEAA@VQSize@@@Z
        684  2AB 000FAFC0 ??0QVariant@@QEAA@VQSizeF@@@Z
        685  2AC 000FAFF0 ??0QVariant@@QEAA@VQTime@@@Z
        686  2AD 000FB020 ??0QVariant@@QEAA@VQUuid@@@Z
        687  2AE 00001DD0 ??0QVariant@@QEAA@W4Type@0@@Z
        688  2AF 00001E00 ??0QVariant@@QEAA@XZ
        689  2B0 000FB050 ??0QVariant@@QEAA@_J@Z
        690  2B1 000FB070 ??0QVariant@@QEAA@_K@Z
        691  2B2 000FB090 ??0QVariant@@QEAA@_N@Z
        692  2B3 00209160 ??0QVariantAnimation@@IEAA@AEAVQVariantAnimationPrivate@@PEAVQObject@@@Z
        693  2B4 00209190 ??0QVariantAnimation@@QEAA@PEAVQObject@@@Z
        694  2B5 00001D20 ??0QVariantConstPointer@@QEAA@$$QEAV0@@Z
        695  2B6 00001E20 ??0QVariantConstPointer@@QEAA@AEBV0@@Z
        696  2B7 000FB0C0 ??0QVariantConstPointer@@QEAA@VQVariant@@@Z
        697  2B8 00001D20 ??0QVariantTypeCoercer@QtPrivate@@QEAA@$$QEAV01@@Z
        698  2B9 00001E20 ??0QVariantTypeCoercer@QtPrivate@@QEAA@AEBV01@@Z
        699  2BA 00001E00 ??0QVariantTypeCoercer@QtPrivate@@QEAA@XZ
        700  2BB 0020BCC0 ??0QWaitCondition@@QEAA@XZ
        701  2BC 00225F40 ??0QWinEventNotifier@@QEAA@PEAVQObject@@@Z
        702  2BD 00226010 ??0QWinEventNotifier@@QEAA@PEAXPEAVQObject@@@Z
        703  2BE 002A6650 ??0QWinRTFactoryCacheRegistration@detail@@QEAA@P6AXXZ@Z
        704  2BF 000015C0 ??0QWinRegistryKey@@QEAA@$$QEAV0@@Z
        705  2C0 00226B30 ??0QWinRegistryKey@@QEAA@PEAUHKEY__@@VQStringView@@KK@Z
        706  2C1 00001B00 ??0QWinRegistryKey@@QEAA@XZ
        707  2C2 00219EC0 ??0QWindowsPipeReader@@QEAA@PEAVQObject@@@Z
        708  2C3 0021B730 ??0QWindowsPipeWriter@@QEAA@PEAXPEAVQObject@@@Z
        709  2C4 00017E50 ??0QWriteLocker@@QEAA@PEAVQReadWriteLock@@@Z
        710  2C5 00017EB0 ??0QXmlStreamAttribute@@QEAA@$$QEAV0@@Z
        711  2C6 00017F60 ??0QXmlStreamAttribute@@QEAA@AEBV0@@Z
        712  2C7 001E1E40 ??0QXmlStreamAttribute@@QEAA@AEBVQString@@00@Z
        713  2C8 001E1FE0 ??0QXmlStreamAttribute@@QEAA@AEBVQString@@0@Z
        714  2C9 001E2140 ??0QXmlStreamAttribute@@QEAA@XZ
        715  2CA 00018000 ??0QXmlStreamEntityDeclaration@@QEAA@$$QEAV0@@Z
        716  2CB 000180C0 ??0QXmlStreamEntityDeclaration@@QEAA@AEBV0@@Z
        717  2CC 001E2180 ??0QXmlStreamEntityDeclaration@@QEAA@XZ
        718  2CD 00018170 ??0QXmlStreamEntityResolver@@QEAA@XZ
        719  2CE 00018180 ??0QXmlStreamNamespaceDeclaration@@QEAA@$$QEAV0@@Z
        720  2CF 000181D0 ??0QXmlStreamNamespaceDeclaration@@QEAA@AEBV0@@Z
        721  2D0 001E21D0 ??0QXmlStreamNamespaceDeclaration@@QEAA@AEBVQString@@0@Z
        722  2D1 001E2290 ??0QXmlStreamNamespaceDeclaration@@QEAA@XZ
        723  2D2 00018220 ??0QXmlStreamNotationDeclaration@@QEAA@$$QEAV0@@Z
        724  2D3 00018290 ??0QXmlStreamNotationDeclaration@@QEAA@AEBV0@@Z
        725  2D4 001E22B0 ??0QXmlStreamNotationDeclaration@@QEAA@XZ
        726  2D5 001E2580 ??0QXmlStreamReader@@AEAA@AEBVQByteArray@@UPrivateConstructorTag@0@@Z
        727  2D6 00018300 ??0QXmlStreamReader@@QEAA@AEBVQByteArray@@@Z
        728  2D7 00018320 ??0QXmlStreamReader@@QEAA@AEBVQString@@@Z
        729  2D8 001E25D0 ??0QXmlStreamReader@@QEAA@PEAVQIODevice@@@Z
        730  2D9 00018360 ??0QXmlStreamReader@@QEAA@PEBD@Z
        731  2DA 001E2660 ??0QXmlStreamReader@@QEAA@VQAnyStringView@@@Z
        732  2DB 001E26C0 ??0QXmlStreamReader@@QEAA@XZ
        733  2DC 001E3070 ??0QXmlStreamWriter@@QEAA@PEAVQByteArray@@@Z
        734  2DD 001E3180 ??0QXmlStreamWriter@@QEAA@PEAVQIODevice@@@Z
        735  2DE 001E3250 ??0QXmlStreamWriter@@QEAA@PEAVQString@@@Z
        736  2DF 001E3320 ??0QXmlStreamWriter@@QEAA@XZ
        737  2E0 0008EA50 ??0QZipReader@@QEAA@AEBVQString@@V?$QFlags@W4OpenModeFlag@QIODeviceBase@@@@@Z
        738  2E1 0008EB30 ??0QZipReader@@QEAA@PEAVQIODevice@@@Z
        739  2E2 0008EB90 ??0QZipWriter@@QEAA@AEBVQString@@V?$QFlags@W4OpenModeFlag@QIODeviceBase@@@@@Z
        740  2E3 0008EC90 ??0QZipWriter@@QEAA@PEAVQIODevice@@@Z
        741  2E4 000B44A0 ??0ResultIteratorBase@QtPrivate@@QEAA@Vconst_iterator@?$QMap@HVResultItem@QtPrivate@@@@H@Z
        742  2E5 000B44B0 ??0ResultIteratorBase@QtPrivate@@QEAA@XZ
        743  2E6 000183B0 ??0ResultStoreBase@QtPrivate@@QEAA@AEBV01@@Z
        744  2E7 00235640 ??0ResultStoreBase@QtPrivate@@QEAA@XZ
        745  2E8 00095000 ??1?$QBaseIterator@VQMetaAssociation@@@@IEAA@XZ
        746  2E9 00095000 ??1?$QBaseIterator@VQMetaSequence@@@@IEAA@XZ
        747  2EA 00095050 ??1?$QConstIterator@VQMetaAssociation@@@@QEAA@XZ
        748  2EB 00095050 ??1?$QConstIterator@VQMetaSequence@@@@QEAA@XZ
        749  2EC 002567A0 ??1?$QExplicitlySharedDataPointer@UQRegularExpressionMatchIteratorPrivate@@@@QEAA@XZ
        750  2ED 002567D0 ??1?$QExplicitlySharedDataPointer@UQRegularExpressionMatchPrivate@@@@QEAA@XZ
        751  2EE 00256800 ??1?$QExplicitlySharedDataPointer@UQRegularExpressionPrivate@@@@QEAA@XZ
        752  2EF 00095050 ??1?$QIterator@VQMetaAssociation@@@@QEAA@XZ
        753  2F0 00095050 ??1?$QIterator@VQMetaSequence@@@@QEAA@XZ
        754  2F1 000DCDF0 ??1Connection@QMetaObject@@QEAA@XZ
        755  2F2 0022F050 ??1ExceptionStore@QtPrivate@@QEAA@XZ
        756  2F3 001F9B60 ??1QAbstractAnimation@@UEAA@XZ
        757  2F4 001F9D10 ??1QAbstractAnimationPrivate@@UEAA@XZ
        758  2F5 001F9D20 ??1QAbstractAnimationTimer@@UEAA@XZ
        759  2F6 000DCFF0 ??1QAbstractDynamicMetaObject@@UEAA@XZ
        760  2F7 00093100 ??1QAbstractEventDispatcher@@UEAA@XZ
        761  2F8 00093110 ??1QAbstractEventDispatcherPrivate@@UEAA@XZ
        762  2F9 00093100 ??1QAbstractEventDispatcherV2@@UEAA@XZ
        763  2FA 00038810 ??1QAbstractFileEngine@@UEAA@XZ
        764  2FB 00038840 ??1QAbstractFileEngineHandler@@UEAA@XZ
        765  2FC 00038A70 ??1QAbstractFileEngineIterator@@UEAA@XZ
        766  2FD 002AC1E0 ??1QAbstractItemModel@@UEAA@XZ
        767  2FE 002AC210 ??1QAbstractItemModelPrivate@@UEAA@XZ
        768  2FF 002AC260 ??1QAbstractListModel@@UEAA@XZ
        769  300 000DD000 ??1QAbstractMetaCallEvent@@UEAA@XZ
        770  301 00094CF0 ??1QAbstractNativeEventFilter@@UEAA@XZ
        771  302 002CE930 ??1QAbstractProxyModel@@UEAA@XZ
        772  303 002CE940 ??1QAbstractProxyModelPrivate@@UEAA@XZ
        773  304 002AC260 ??1QAbstractTableModel@@UEAA@XZ
        774  305 001F9D30 ??1QAnimationDriver@@UEAA@XZ
        775  306 001F9D80 ??1QAnimationDriverPrivate@@UEAA@XZ
        776  307 001FEEB0 ??1QAnimationGroup@@UEAA@XZ
        777  308 00095050 ??1QAssociativeConstIterator@@QEAA@XZ
        778  309 00095050 ??1QAssociativeIterator@@QEAA@XZ
        779  30A 00002060 ??1QBasicTimer@@QEAA@XZ
        780  30B 000EB810 ??1QBindingStorage@@QEAA@XZ
        781  30C 00001F30 ??1QBitArray@@QEAA@XZ
        782  30D 000058E0 ??1QBluetoothPermission@@QEAA@XZ
        783  30E 0003A400 ??1QBuffer@@UEAA@XZ
        784  30F 00001F30 ??1QByteArray@@QEAA@XZ
        785  310 00027FA0 ??1QByteArrayMatcher@@QEAA@XZ
        786  311 00186800 ??1QCalendarBackend@@UEAA@XZ
        787  312 000058E0 ??1QCalendarPermission@@QEAA@XZ
        788  313 000058E0 ??1QCameraPermission@@QEAA@XZ
        789  314 0010F0B0 ??1QCborArray@@QEAA@XZ
        790  315 0010F0B0 ??1QCborMap@@QEAA@XZ
        791  316 003020A0 ??1QCborStreamReader@@QEAA@XZ
        792  317 00304DE0 ??1QCborStreamWriter@@QEAA@XZ
        793  318 00018660 ??1QCborValue@@QEAA@XZ
        794  319 000A30C0 ??1QChildEvent@@UEAA@XZ
        795  31A 000980C0 ??1QChronoTimer@@UEAA@XZ
        796  31B 0013F1B0 ??1QCollator@@QEAA@XZ
        797  31C 000EB7A0 ??1QCollatorSortKey@@QEAA@XZ
        798  31D 00224B90 ??1QComHelper@@QEAA@XZ
        799  31E 00237410 ??1QCommandLineOption@@QEAA@XZ
        800  31F 0023A0E0 ??1QCommandLineParser@@QEAA@XZ
        801  320 002D2A30 ??1QConcatenateTablesProxyModel@@UEAA@XZ
        802  321 000058E0 ??1QContactsPermission@@QEAA@XZ
        803  322 00099D70 ??1QCoreApplication@@UEAA@XZ
        804  323 0009A330 ??1QCoreApplicationPrivate@@UEAA@XZ
        805  324 0019FC60 ??1QCryptographicHash@@QEAA@XZ
        806  325 00184390 ??1QDaemonThread@@UEAA@XZ
        807  326 0011A110 ??1QDataStream@@QEAA@XZ
        808  327 00189750 ??1QDateTime@@QEAA@XZ
        809  328 00267A00 ??1QDateTimeParser@@UEAA@XZ
        810  329 0003BE00 ??1QDebug@@QEAA@XZ
        811  32A 0003BF00 ??1QDebugStateSaver@@QEAA@XZ
        812  32B 00041040 ??1QDir@@QEAA@XZ
        813  32C 000502E0 ??1QDirIterator@@QEAA@XZ
        814  32D 0004C070 ??1QDirListing@@QEAA@XZ
        815  32E 000DCFF0 ??1QDynamicMetaObjectData@@UEAA@XZ
        816  32F 000A30F0 ??1QDynamicPropertyChangeEvent@@UEAA@XZ
        817  330 00246F50 ??1QEasingCurve@@QEAA@XZ
        818  331 000A3150 ??1QEvent@@UEAA@XZ
        819  332 002201F0 ??1QEventDispatcherWin32@@UEAA@XZ
        820  333 00220200 ??1QEventDispatcherWin32Private@@UEAA@XZ
        821  334 000A4E90 ??1QEventLoop@@UEAA@XZ
        822  335 000A4EA0 ??1QEventLoopLocker@@QEAA@XZ
        823  336 00002090 ??1QException@@UEAA@XZ
        824  337 0005E370 ??1QFSFileEngine@@UEAA@XZ
        825  338 00100540 ??1QFactoryInterface@@UEAA@XZ
        826  339 00102E30 ??1QFactoryLoader@@UEAA@XZ
        827  33A 00050850 ??1QFile@@UEAA@XZ
        828  33B 00053450 ??1QFileDevice@@UEAA@XZ
        829  33C 00055090 ??1QFileInfo@@QEAA@XZ
        830  33D 00058360 ??1QFileSelector@@UEAA@XZ
        831  33E 00058370 ??1QFileSelectorPrivate@@UEAA@XZ
        832  33F 002713A0 ??1QFileSystemWatcher@@UEAA@XZ
        833  340 0022FB60 ??1QFutureCallOutEvent@@UEAA@XZ
        834  341 0022FBB0 ??1QFutureCallOutInterface@@UEAA@XZ
        835  342 0022FBC0 ??1QFutureInterfaceBase@@UEAA@XZ
        836  343 00234580 ??1QFutureWatcherBase@@UEAA@XZ
        837  344 00183800 ??1QGenericRunnable@QRunnable@@UEAA@XZ
        838  345 00142C10 ??1QGregorianCalendar@@UEAA@XZ
        839  346 00186800 ??1QHijriCalendar@@UEAA@XZ
        840  347 00061B30 ??1QIODevice@@UEAA@XZ
        841  348 00061B40 ??1QIODevicePrivate@@UEAA@XZ
        842  349 002D6F70 ??1QIdentityProxyModel@@UEAA@XZ
        843  34A 002D6F80 ??1QIdentityProxyModelPrivate@@UEAA@XZ
        844  34B 00186800 ??1QIslamicCivilCalendar@@UEAA@XZ
        845  34C 002C2410 ??1QItemSelectionModel@@UEAA@XZ
        846  34D 00018680 ??1QItemSelectionRange@@QEAA@XZ
        847  34E 00186800 ??1QJalaliCalendar@@UEAA@XZ
        848  34F 0011B8C0 ??1QJsonArray@@QEAA@XZ
        849  350 001205F0 ??1QJsonDocument@@QEAA@XZ
        850  351 0011B8C0 ??1QJsonObject@@QEAA@XZ
        851  352 00103320 ??1QJsonValue@@QEAA@XZ
        852  353 00186800 ??1QJulianCalendar@@UEAA@XZ
        853  354 000058E0 ??1QLatin1StringMatcher@@QEAA@XZ
        854  355 002FC040 ??1QLibrary@@UEAA@XZ
        855  356 00142A50 ??1QLocale@@QEAA@XZ
        856  357 000058E0 ??1QLocationPermission@@QEAA@XZ
        857  358 00067190 ??1QLockFile@@QEAA@XZ
        858  359 00068290 ??1QLoggingCategory@@QEAA@XZ
        859  35A 0019FC80 ??1QMessageAuthenticationCode@@QEAA@XZ
        860  35B 000DD040 ??1QMetaCallEvent@@UEAA@XZ
        861  35C 000B4AB0 ??1QMetaObjectBuilder@@UEAA@XZ
        862  35D 000B4E00 ??1QMetaStringTable@@QEAA@XZ
        863  35E 000058E0 ??1QMicrophonePermission@@QEAA@XZ
        864  35F 00186800 ??1QMilankovicCalendar@@UEAA@XZ
        865  360 000D7010 ??1QMimeData@@UEAA@XZ
        866  361 0001BE30 ??1QMimeDatabase@@QEAA@XZ
        867  362 000EB7A0 ??1QMimeType@@QEAA@XZ
        868  363 000186A0 ??1QMutex@@QEAA@XZ
        869  364 0006DCF0 ??1QNonContiguousByteDevice@@UEAA@XZ
        870  365 000DD140 ??1QObject@@UEAA@XZ
        871  366 000E9FE0 ??1QObjectCleanupHandler@@UEAA@XZ
        872  367 000DD950 ??1QObjectData@@UEAA@XZ
        873  368 000DD9A0 ??1QObjectPrivate@@UEAA@XZ
        874  369 001FF8F0 ??1QParallelAnimationGroup@@UEAA@XZ
        875  36A 00201090 ??1QPauseAnimation@@UEAA@XZ
        876  36B 00319210 ??1QPermissionPlugin@@UEAA@XZ
        877  36C 002AC290 ??1QPersistentModelIndex@@QEAA@XZ
        878  36D 001074E0 ??1QPluginLoader@@UEAA@XZ
        879  36E 002817B0 ??1QProcess@@UEAA@XZ
        880  36F 00281A20 ??1QProcessEnvironment@@QEAA@XZ
        881  370 00202770 ??1QPropertyAnimation@@UEAA@XZ
        882  371 000EB870 ??1QPropertyBindingData@QtPrivate@@QEAA@XZ
        883  372 000EB7A0 ??1QPropertyBindingError@@QEAA@XZ
        884  373 000EB990 ??1QPropertyBindingPrivate@@QEAA@XZ
        885  374 000EBAA0 ??1QPropertyObserver@@QEAA@XZ
        886  375 00018730 ??1QReadLocker@@QEAA@XZ
        887  376 00018760 ??1QReadWriteLock@@QEAA@XZ
        888  377 00229500 ??1QRecursiveMutex@@QEAA@XZ
        889  378 00256800 ??1QRegularExpression@@QEAA@XZ
        890  379 002567D0 ??1QRegularExpressionMatch@@QEAA@XZ
        891  37A 002567A0 ??1QRegularExpressionMatchIterator@@QEAA@XZ
        892  37B 0006FBE0 ??1QResource@@QEAA@XZ
        893  37C 00142C10 ??1QRomanCalendar@@UEAA@XZ
        894  37D 00183840 ??1QRunnable@@UEAA@XZ
        895  37E 00075180 ??1QSaveFile@@UEAA@XZ
        896  37F 000058E0 ??1QSemaphore@@QEAA@XZ
        897  380 00205760 ??1QSequentialAnimationGroup@@UEAA@XZ
        898  381 00095050 ??1QSequentialConstIterator@@QEAA@XZ
        899  382 00095050 ??1QSequentialIterator@@QEAA@XZ
        900  383 00291110 ??1QSettings@@UEAA@XZ
        901  384 00034770 ??1QSharedMemory@@UEAA@XZ
        902  385 000F0950 ??1QSignalMapper@@UEAA@XZ
        903  386 000F3250 ??1QSocketNotifier@@UEAA@XZ
        904  387 002E4040 ??1QSortFilterProxyModel@@UEAA@XZ
        905  388 000784A0 ??1QStorageInfo@@QEAA@XZ
        906  389 00001F30 ??1QString@@QEAA@XZ
        907  38A 002FA3E0 ??1QStringListModel@@UEAA@XZ
        908  38B 00027FD0 ??1QStringMatcher@@QEAA@XZ
        909  38C 00142C20 ??1QSystemLocale@@UEAA@XZ
        910  38D 00036390 ??1QSystemSemaphore@@QEAA@XZ
        911  38E 00079990 ??1QTemporaryDir@@QEAA@XZ
        912  38F 0007AA60 ??1QTemporaryFile@@UEAA@XZ
        913  390 00181130 ??1QTextBoundaryFinder@@QEAA@XZ
        914  391 0012DFF0 ??1QTextStream@@UEAA@XZ
        915  392 001843A0 ??1QThread@@UEAA@XZ
        916  393 0022B920 ??1QThreadPool@@UEAA@XZ
        917  394 00018780 ??1QThreadPoolPrivate@@UEAA@XZ
        918  395 0022E6F0 ??1QThreadStorageData@@QEAA@XZ
        919  396 0024D350 ??1QTimeLine@@UEAA@XZ
        920  397 0019A050 ??1QTimeZone@@QEAA@XZ
        921  398 000F53A0 ??1QTimer@@UEAA@XZ
        922  399 000A30C0 ??1QTimerEvent@@UEAA@XZ
        923  39A 000F6B70 ??1QTranslator@@UEAA@XZ
        924  39B 002F5A50 ??1QTransposeProxyModel@@UEAA@XZ
        925  39C 0022F060 ??1QUnhandledException@@UEAA@XZ
        926  39D 001F9E80 ??1QUnifiedTimer@@UEAA@XZ
        927  39E 000EBAE0 ??1QUntypedPropertyBinding@@QEAA@XZ
        928  39F 0007C470 ??1QUrl@@QEAA@XZ
        929  3A0 00089BC0 ??1QUrlQuery@@QEAA@XZ
        930  3A1 000FB180 ??1QVariant@@QEAA@XZ
        931  3A2 002094C0 ??1QVariantAnimation@@UEAA@XZ
        932  3A3 00002080 ??1QVariantConstPointer@@QEAA@XZ
        933  3A4 00002080 ??1QVariantTypeCoercer@QtPrivate@@QEAA@XZ
        934  3A5 0020BD10 ??1QWaitCondition@@QEAA@XZ
        935  3A6 00226160 ??1QWinEventNotifier@@UEAA@XZ
        936  3A7 002A6700 ??1QWinRTFactoryCacheRegistration@detail@@QEAA@XZ
        937  3A8 00226B80 ??1QWinRegistryKey@@QEAA@XZ
        938  3A9 00219FA0 ??1QWindowsPipeReader@@UEAA@XZ
        939  3AA 0021B810 ??1QWindowsPipeWriter@@UEAA@XZ
        940  3AB 00018730 ??1QWriteLocker@@QEAA@XZ
        941  3AC 000188D0 ??1QXmlStreamAttribute@@QEAA@XZ
        942  3AD 00018970 ??1QXmlStreamEntityDeclaration@@QEAA@XZ
        943  3AE 001E38B0 ??1QXmlStreamEntityResolver@@UEAA@XZ
        944  3AF 00018A20 ??1QXmlStreamNamespaceDeclaration@@QEAA@XZ
        945  3B0 00018A80 ??1QXmlStreamNotationDeclaration@@QEAA@XZ
        946  3B1 001E3920 ??1QXmlStreamReader@@QEAA@XZ
        947  3B2 001E3D20 ??1QXmlStreamWriter@@QEAA@XZ
        948  3B3 0008EF20 ??1QZipReader@@QEAA@XZ
        949  3B4 0008EFB0 ??1QZipWriter@@QEAA@XZ
        950  3B5 00235800 ??1ResultStoreBase@QtPrivate@@UEAA@XZ
        951  3B6 000950A0 ??4?$QBaseIterator@VQMetaAssociation@@@@IEAAAEAV0@$$QEAV0@@Z
        952  3B7 00095120 ??4?$QBaseIterator@VQMetaAssociation@@@@IEAAAEAV0@AEBV0@@Z
        953  3B8 000950A0 ??4?$QBaseIterator@VQMetaSequence@@@@IEAAAEAV0@$$QEAV0@@Z
        954  3B9 00095120 ??4?$QBaseIterator@VQMetaSequence@@@@IEAAAEAV0@AEBV0@@Z
        955  3BA 000950A0 ??4?$QConstIterator@VQMetaAssociation@@@@QEAAAEAU0@$$QEAU0@@Z
        956  3BB 00095260 ??4?$QConstIterator@VQMetaAssociation@@@@QEAAAEAU0@AEBU0@@Z
        957  3BC 000950A0 ??4?$QConstIterator@VQMetaSequence@@@@QEAAAEAU0@$$QEAU0@@Z
        958  3BD 00095260 ??4?$QConstIterator@VQMetaSequence@@@@QEAAAEAU0@AEBU0@@Z
        959  3BE 00095280 ??4?$QIterable@VQMetaAssociation@@@@QEAAAEAV0@$$QEAV0@@Z
        960  3BF 00018F70 ??4?$QIterable@VQMetaAssociation@@@@QEAAAEAV0@AEBV0@@Z
        961  3C0 00095280 ??4?$QIterable@VQMetaSequence@@@@QEAAAEAV0@$$QEAV0@@Z
        962  3C1 00018F70 ??4?$QIterable@VQMetaSequence@@@@QEAAAEAV0@AEBV0@@Z
        963  3C2 000950A0 ??4?$QIterator@VQMetaAssociation@@@@QEAAAEAU0@$$QEAU0@@Z
        964  3C3 00095260 ??4?$QIterator@VQMetaAssociation@@@@QEAAAEAU0@AEBU0@@Z
        965  3C4 000950A0 ??4?$QIterator@VQMetaSequence@@@@QEAAAEAU0@$$QEAU0@@Z
        966  3C5 00095260 ??4?$QIterator@VQMetaSequence@@@@QEAAAEAU0@AEBU0@@Z
        967  3C6 000020B0 ??4Connection@QMetaObject@@QEAAAEAV01@$$QEAV01@@Z
        968  3C7 000DDB50 ??4Connection@QMetaObject@@QEAAAEAV01@AEBV01@@Z
        969  3C8 0022F0D0 ??4ExceptionStore@QtPrivate@@QEAAAEAV01@$$QEAV01@@Z
        970  3C9 0022F0D0 ??4ExceptionStore@QtPrivate@@QEAAAEAV01@AEBV01@@Z
        971  3CA 000020C0 ??4QAbstractConcatenable@@QEAAAEAU0@$$QEAU0@@Z
        972  3CB 000020C0 ??4QAbstractConcatenable@@QEAAAEAU0@AEBU0@@Z
        973  3CC 000020C0 ??4QAbstractDeclarativeData@@QEAAAEAV0@$$QEAV0@@Z
        974  3CD 000020C0 ??4QAbstractDeclarativeData@@QEAAAEAV0@AEBV0@@Z
        975  3CE 00018B60 ??4QAbstractDynamicMetaObject@@QEAAAEAU0@AEBU0@@Z
        976  3CF 00018B90 ??4QAbstractMetaCallEvent@@QEAAAEAV0@AEBV0@@Z
        977  3D0 000950A0 ??4QAssociativeConstIterator@@QEAAAEAV0@$$QEAV0@@Z
        978  3D1 00095260 ??4QAssociativeConstIterator@@QEAAAEAV0@AEBV0@@Z
        979  3D2 00018F70 ??4QAssociativeIterable@@QEAAAEAV0@$$QEAV0@@Z
        980  3D3 00018F70 ??4QAssociativeIterable@@QEAAAEAV0@$$QEAV?$QIterable@VQMetaAssociation@@@@@Z
        981  3D4 00018F70 ??4QAssociativeIterable@@QEAAAEAV0@AEBV0@@Z
        982  3D5 000950A0 ??4QAssociativeIterator@@QEAAAEAV0@$$QEAV0@@Z
        983  3D6 00095260 ??4QAssociativeIterator@@QEAAAEAV0@AEBV0@@Z
        984  3D7 000020D0 ??4QBasicTimer@@QEAAAEAV0@$$QEAV0@@Z
        985  3D8 00002110 ??4QBindingStorage@@QEAAAEAV0@AEBV0@@Z
        986  3D9 00002120 ??4QBitArray@@QEAAAEAV0@$$QEAV0@@Z
        987  3DA 00015140 ??4QBitArray@@QEAAAEAV0@AEBV0@@Z
        988  3DB 00015160 ??4QBitRef@@QEAAAEAV0@AEBV0@@Z
        989  3DC 00015230 ??4QBitRef@@QEAAAEAV0@_N@Z
        990  3DD 00002410 ??4QBluetoothPermission@@QEAAAEAV0@AEBV0@@Z
        991  3DE 00002120 ??4QByteArray@@QEAAAEAV0@$$QEAV0@@Z
        992  3DF 00134EC0 ??4QByteArray@@QEAAAEAV0@AEBV0@@Z
        993  3E0 00134F10 ??4QByteArray@@QEAAAEAV0@PEBD@Z
        994  3E1 0013EA20 ??4QByteArrayMatcher@@QEAAAEAV0@AEBV0@@Z
        995  3E2 00002160 ??4QByteArrayView@@QEAAAEAV0@$$QEAV0@@Z
        996  3E3 00002110 ??4QByteArrayView@@QEAAAEAV0@AEBV0@@Z
        997  3E4 00002410 ??4QCalendar@@QEAAAEAV0@$$QEAV0@@Z
        998  3E5 00002410 ??4QCalendar@@QEAAAEAV0@AEBV0@@Z
        999  3E6 00002410 ??4QCalendarPermission@@QEAAAEAV0@AEBV0@@Z
       1000  3E7 00002410 ??4QCameraPermission@@QEAAAEAV0@AEBV0@@Z
       1001  3E8 0010F1C0 ??4QCborArray@@QEAAAEAV0@AEBV0@@Z
       1002  3E9 000152E0 ??4QCborError@@QEAAAEAU0@$$QEAU0@@Z
       1003  3EA 000152E0 ??4QCborError@@QEAAAEAU0@AEBU0@@Z
       1004  3EB 0010F1C0 ??4QCborMap@@QEAAAEAV0@AEBV0@@Z
       1005  3EC 00018C40 ??4QCborValue@@QEAAAEAV0@$$QEAV0@@Z
       1006  3ED 0010F210 ??4QCborValue@@QEAAAEAV0@AEBV0@@Z
       1007  3EE 00018CA0 ??4QCborValueRef@@QEAAAEAV0@$$QEAVQCborValue@@@Z
       1008  3EF 00018CE0 ??4QCborValueRef@@QEAAAEAV0@AEBV0@@Z
       1009  3F0 00018D20 ??4QCborValueRef@@QEAAAEAV0@AEBVQCborValue@@@Z
       1010  3F1 00002180 ??4QChar@@QEAAAEAV0@$$QEAV0@@Z
       1011  3F2 00002180 ??4QChar@@QEAAAEAV0@AEBV0@@Z
       1012  3F3 00002190 ??4QChildEvent@@IEAAAEAV0@AEBV0@@Z
       1013  3F4 00018D50 ??4QCollator@@QEAAAEAV0@$$QEAV0@@Z
       1014  3F5 0013F200 ??4QCollator@@QEAAAEAV0@AEBV0@@Z
       1015  3F6 000020B0 ??4QCollatorSortKey@@QEAAAEAV0@$$QEAV0@@Z
       1016  3F7 0013F290 ??4QCollatorSortKey@@QEAAAEAV0@AEBV0@@Z
       1017  3F8 000020B0 ??4QCommandLineOption@@QEAAAEAV0@$$QEAV0@@Z
       1018  3F9 00237440 ??4QCommandLineOption@@QEAAAEAV0@AEBV0@@Z
       1019  3FA 00002410 ??4QContactsPermission@@QEAAAEAV0@AEBV0@@Z
       1020  3FB 000020C0 ??4QContainerImplHelper@QtPrivate@@QEAAAEAU01@$$QEAU01@@Z
       1021  3FC 000020C0 ??4QContainerImplHelper@QtPrivate@@QEAAAEAU01@AEBU01@@Z
       1022  3FD 00018D90 ??4QCryptographicHash@@QEAAAEAV0@$$QEAV0@@Z
       1023  3FE 00002410 ??4QDate@@QEAAAEAV0@$$QEAV0@@Z
       1024  3FF 00002410 ??4QDate@@QEAAAEAV0@AEBV0@@Z
       1025  400 000020B0 ??4QDateTime@@QEAAAEAV0@$$QEAV0@@Z
       1026  401 00189820 ??4QDateTime@@QEAAAEAV0@AEBV0@@Z
       1027  402 00142D20 ??4QDateTimeParser@@QEAAAEAV0@AEBV0@@Z
       1028  403 00002230 ??4QDeadlineTimer@@QEAAAEAV0@$$QEAV0@@Z
       1029  404 00002110 ??4QDeadlineTimer@@QEAAAEAV0@AEBV0@@Z
       1030  405 00002250 ??4QDebug@@QEAAAEAV0@$$QEAV0@@Z
       1031  406 00002290 ??4QDebug@@QEAAAEAV0@AEBV0@@Z
       1032  407 000020B0 ??4QDir@@QEAAAEAV0@$$QEAV0@@Z
       1033  408 00041130 ??4QDir@@QEAAAEAV0@AEBV0@@Z
       1034  409 000020C0 ??4QDynamicMetaObjectData@@QEAAAEAU0@AEBU0@@Z
       1035  40A 000022D0 ??4QDynamicPropertyChangeEvent@@IEAAAEAV0@AEBV0@@Z
       1036  40B 000020B0 ??4QEasingCurve@@QEAAAEAV0@$$QEAV0@@Z
       1037  40C 00018DD0 ??4QEasingCurve@@QEAAAEAV0@AEBV0@@Z
       1038  40D 00002160 ??4QElapsedTimer@@QEAAAEAV0@$$QEAV0@@Z
       1039  40E 00002110 ??4QElapsedTimer@@QEAAAEAV0@AEBV0@@Z
       1040  40F 00002380 ??4QEvent@@IEAAAEAV0@AEBV0@@Z
       1041  410 0022F0F0 ??4QException@@QEAAAEAV0@AEBV0@@Z
       1042  411 000020C0 ??4QFactoryInterface@@QEAAAEAU0@AEBU0@@Z
       1043  412 000020B0 ??4QFileInfo@@QEAAAEAV0@$$QEAV0@@Z
       1044  413 000550C0 ??4QFileInfo@@QEAAAEAV0@AEBV0@@Z
       1045  414 0022FD10 ??4QFutureCallOutEvent@@IEAAAEAV0@AEBV0@@Z
       1046  415 000020C0 ??4QFutureCallOutInterface@@QEAAAEAV0@AEBV0@@Z
       1047  416 0009A480 ??4QFutureInterfaceBase@@QEAAAEAV0@$$QEAV0@@Z
       1048  417 0022FDD0 ??4QFutureInterfaceBase@@QEAAAEAV0@AEBV0@@Z
       1049  418 00002160 ??4QGenericArgument@@QEAAAEAV0@$$QEAV0@@Z
       1050  419 00002110 ??4QGenericArgument@@QEAAAEAV0@AEBV0@@Z
       1051  41A 00002110 ??4QGenericReturnArgument@@QEAAAEAV0@$$QEAV0@@Z
       1052  41B 00002110 ??4QGenericReturnArgument@@QEAAAEAV0@AEBV0@@Z
       1053  41C 000020C0 ??4QInternal@@QEAAAEAV0@$$QEAV0@@Z
       1054  41D 000020C0 ??4QInternal@@QEAAAEAV0@AEBV0@@Z
       1055  41E 00018E10 ??4QItemSelectionRange@@QEAAAEAV0@$$QEAV0@@Z
       1056  41F 00018E30 ??4QItemSelectionRange@@QEAAAEAV0@AEBV0@@Z
       1057  420 000020B0 ??4QJsonArray@@QEAAAEAV0@$$QEAV0@@Z
       1058  421 0011B910 ??4QJsonArray@@QEAAAEAV0@AEBV0@@Z
       1059  422 00018E60 ??4QJsonDocument@@QEAAAEAV0@$$QEAV0@@Z
       1060  423 001206A0 ??4QJsonDocument@@QEAAAEAV0@AEBV0@@Z
       1061  424 000020B0 ??4QJsonObject@@QEAAAEAV0@$$QEAV0@@Z
       1062  425 0011B910 ??4QJsonObject@@QEAAAEAV0@AEBV0@@Z
       1063  426 00018E80 ??4QJsonParseError@@QEAAAEAU0@$$QEAU0@@Z
       1064  427 00002410 ??4QJsonParseError@@QEAAAEAU0@AEBU0@@Z
       1065  428 00018E90 ??4QJsonValue@@QEAAAEAV0@$$QEAV0@@Z
       1066  429 001294A0 ??4QJsonValue@@QEAAAEAV0@AEBV0@@Z
       1067  42A 00129500 ??4QJsonValueRef@@QEAAAEAV0@AEBV0@@Z
       1068  42B 001296D0 ??4QJsonValueRef@@QEAAAEAV0@AEBVQJsonValue@@@Z
       1069  42C 000020C0 ??4QLibraryInfo@@QEAAAEAV0@$$QEAV0@@Z
       1070  42D 000020C0 ??4QLibraryInfo@@QEAAAEAV0@AEBV0@@Z
       1071  42E 000020C0 ??4QLibraryInfoPrivate@@QEAAAEAV0@$$QEAV0@@Z
       1072  42F 000020C0 ??4QLibraryInfoPrivate@@QEAAAEAV0@AEBV0@@Z
       1073  430 00002160 ??4QLine@@QEAAAEAV0@$$QEAV0@@Z
       1074  431 00002110 ??4QLine@@QEAAAEAV0@AEBV0@@Z
       1075  432 00018EB0 ??4QLineF@@QEAAAEAV0@$$QEAV0@@Z
       1076  433 00018ED0 ??4QLineF@@QEAAAEAV0@AEBV0@@Z
       1077  434 000020C0 ??4QLocal8Bit@@QEAAAEAU0@$$QEAU0@@Z
       1078  435 000020C0 ??4QLocal8Bit@@QEAAAEAU0@AEBU0@@Z
       1079  436 000020B0 ??4QLocale@@QEAAAEAV0@$$QEAV0@@Z
       1080  437 00142F00 ??4QLocale@@QEAAAEAV0@AEBV0@@Z
       1081  438 00002410 ??4QLocationPermission@@QEAAAEAV0@AEBV0@@Z
       1082  439 00018EF0 ??4QMessageAuthenticationCode@@QEAAAEAV0@$$QEAV0@@Z
       1083  43A 00002410 ??4QMetaAssociation@@QEAAAEAV0@$$QEAV0@@Z
       1084  43B 00002410 ??4QMetaAssociation@@QEAAAEAV0@AEBV0@@Z
       1085  43C 00002160 ??4QMetaClassInfo@@QEAAAEAV0@$$QEAV0@@Z
       1086  43D 00002110 ??4QMetaClassInfo@@QEAAAEAV0@AEBV0@@Z
       1087  43E 00002410 ??4QMetaContainer@@QEAAAEAV0@$$QEAV0@@Z
       1088  43F 00002410 ??4QMetaContainer@@QEAAAEAV0@AEBV0@@Z
       1089  440 00002160 ??4QMetaEnum@@QEAAAEAV0@$$QEAV0@@Z
       1090  441 00002110 ??4QMetaEnum@@QEAAAEAV0@AEBV0@@Z
       1091  442 000198B0 ??4QMetaEnumBuilder@@QEAAAEAV0@$$QEAV0@@Z
       1092  443 00002110 ??4QMetaEnumBuilder@@QEAAAEAV0@AEBV0@@Z
       1093  444 00002160 ??4QMetaMethod@@QEAAAEAV0@$$QEAV0@@Z
       1094  445 00002110 ??4QMetaMethod@@QEAAAEAV0@AEBV0@@Z
       1095  446 000198B0 ??4QMetaMethodBuilder@@QEAAAEAV0@$$QEAV0@@Z
       1096  447 00002110 ??4QMetaMethodBuilder@@QEAAAEAV0@AEBV0@@Z
       1097  448 00002420 ??4QMetaObject@@QEAAAEAU0@$$QEAU0@@Z
       1098  449 00002420 ??4QMetaObject@@QEAAAEAU0@AEBU0@@Z
       1099  44A 00018F30 ??4QMetaProperty@@QEAAAEAV0@$$QEAV0@@Z
       1100  44B 00018ED0 ??4QMetaProperty@@QEAAAEAV0@AEBV0@@Z
       1101  44C 000198B0 ??4QMetaPropertyBuilder@@QEAAAEAV0@$$QEAV0@@Z
       1102  44D 00002110 ??4QMetaPropertyBuilder@@QEAAAEAV0@AEBV0@@Z
       1103  44E 00002410 ??4QMetaSequence@@QEAAAEAV0@$$QEAV0@@Z
       1104  44F 00002410 ??4QMetaSequence@@QEAAAEAV0@AEBV0@@Z
       1105  450 00002410 ??4QMetaType@@QEAAAEAV0@$$QEAV0@@Z
       1106  451 00002410 ??4QMetaType@@QEAAAEAV0@AEBV0@@Z
       1107  452 00002410 ??4QMicrophonePermission@@QEAAAEAV0@AEBV0@@Z
       1108  453 000020B0 ??4QMimeType@@QEAAAEAV0@$$QEAV0@@Z
       1109  454 00314340 ??4QMimeType@@QEAAAEAV0@AEBV0@@Z
       1110  455 000020C0 ??4QNonContiguousByteDeviceFactory@@QEAAAEAV0@$$QEAV0@@Z
       1111  456 000020C0 ??4QNonContiguousByteDeviceFactory@@QEAAAEAV0@AEBV0@@Z
       1112  457 00002110 ??4QOperatingSystemVersion@@QEAAAEAV0@$$QEAV0@@Z
       1113  458 00002110 ??4QOperatingSystemVersion@@QEAAAEAV0@AEBV0@@Z
       1114  459 000020B0 ??4QPersistentModelIndex@@QEAAAEAV0@$$QEAV0@@Z
       1115  45A 002AC2F0 ??4QPersistentModelIndex@@QEAAAEAV0@AEBV0@@Z
       1116  45B 002AC370 ??4QPersistentModelIndex@@QEAAAEAV0@AEBVQModelIndex@@@Z
       1117  45C 000020B0 ??4QProcessEnvironment@@QEAAAEAV0@$$QEAV0@@Z
       1118  45D 00281DE0 ??4QProcessEnvironment@@QEAAAEAV0@AEBV0@@Z
       1119  45E 000EBB30 ??4QPropertyBindingError@@QEAAAEAV0@$$QEAV0@@Z
       1120  45F 000EBBA0 ??4QPropertyBindingError@@QEAAAEAV0@AEBV0@@Z
       1121  460 00018F50 ??4QPropertyBindingSourceLocation@@QEAAAEAU0@$$QEAU0@@Z
       1122  461 00018F70 ??4QPropertyBindingSourceLocation@@QEAAAEAU0@AEBU0@@Z
       1123  462 000EBC20 ??4QPropertyObserver@@QEAAAEAV0@$$QEAV0@@Z
       1124  463 00031450 ??4QRandomGenerator@@QEAAAEAV0@AEBV0@@Z
       1125  464 00018F90 ??4QRect@@QEAAAEAV0@$$QEAV0@@Z
       1126  465 00002110 ??4QRect@@QEAAAEAV0@AEBV0@@Z
       1127  466 00018FB0 ??4QRectF@@QEAAAEAV0@$$QEAV0@@Z
       1128  467 00018ED0 ??4QRectF@@QEAAAEAV0@AEBV0@@Z
       1129  468 000020B0 ??4QRegularExpression@@QEAAAEAV0@$$QEAV0@@Z
       1130  469 00256890 ??4QRegularExpression@@QEAAAEAV0@AEBV0@@Z
       1131  46A 000020B0 ??4QRegularExpressionMatch@@QEAAAEAV0@$$QEAV0@@Z
       1132  46B 00256940 ??4QRegularExpressionMatch@@QEAAAEAV0@AEBV0@@Z
       1133  46C 000020B0 ??4QRegularExpressionMatchIterator@@QEAAAEAV0@$$QEAV0@@Z
       1134  46D 00256990 ??4QRegularExpressionMatchIterator@@QEAAAEAV0@AEBV0@@Z
       1135  46E 000950A0 ??4QSequentialConstIterator@@QEAAAEAV0@$$QEAV0@@Z
       1136  46F 00095260 ??4QSequentialConstIterator@@QEAAAEAV0@AEBV0@@Z
       1137  470 00018F70 ??4QSequentialIterable@@QEAAAEAV0@$$QEAV0@@Z
       1138  471 00018F70 ??4QSequentialIterable@@QEAAAEAV0@$$QEAV?$QIterable@VQMetaSequence@@@@@Z
       1139  472 00018F70 ??4QSequentialIterable@@QEAAAEAV0@AEBV0@@Z
       1140  473 000950A0 ??4QSequentialIterator@@QEAAAEAV0@$$QEAV0@@Z
       1141  474 00095260 ??4QSequentialIterator@@QEAAAEAV0@AEBV0@@Z
       1142  475 00018E80 ??4QSize@@QEAAAEAV0@$$QEAV0@@Z
       1143  476 00002410 ??4QSize@@QEAAAEAV0@AEBV0@@Z
       1144  477 00002160 ??4QSizeF@@QEAAAEAV0@$$QEAV0@@Z
       1145  478 00002110 ??4QSizeF@@QEAAAEAV0@AEBV0@@Z
       1146  479 000020C0 ??4QStandardPaths@@QEAAAEAV0@AEBV0@@Z
       1147  47A 0009A4D0 ??4QStaticPlugin@@QEAAAEAU0@$$QEAU0@@Z
       1148  47B 00018F70 ??4QStaticPlugin@@QEAAAEAU0@AEBU0@@Z
       1149  47C 000020B0 ??4QStorageInfo@@QEAAAEAV0@$$QEAV0@@Z
       1150  47D 000784D0 ??4QStorageInfo@@QEAAAEAV0@AEBV0@@Z
       1151  47E 00002120 ??4QString@@QEAAAEAV0@$$QEAV0@@Z
       1152  47F 00134EC0 ??4QString@@QEAAAEAV0@AEBV0@@Z
       1153  480 00002450 ??4QString@@QEAAAEAV0@AEBVQByteArray@@@Z
       1154  481 000024E0 ??4QString@@QEAAAEAV0@PEBD@Z
       1155  482 00162C50 ??4QString@@QEAAAEAV0@VQChar@@@Z
       1156  483 00162C60 ??4QString@@QEAAAEAV0@VQLatin1String@@@Z
       1157  484 00162E70 ??4QStringMatcher@@QEAAAEAV0@AEBV0@@Z
       1158  485 000020C0 ??4QSysInfo@@QEAAAEAV0@$$QEAV0@@Z
       1159  486 000020C0 ??4QSysInfo@@QEAAAEAV0@AEBV0@@Z
       1160  487 000799F0 ??4QTemporaryDir@@QEAAAEAV0@$$QEAV0@@Z
       1161  488 00181180 ??4QTextBoundaryFinder@@QEAAAEAV0@AEBV0@@Z
       1162  489 00002560 ??4QTextStreamManipulator@@QEAAAEAV0@$$QEAV0@@Z
       1163  48A 00002580 ??4QTextStreamManipulator@@QEAAAEAV0@AEBV0@@Z
       1164  48B 000152E0 ??4QThreadStorageData@@QEAAAEAV0@AEBV0@@Z
       1165  48C 000152E0 ??4QTime@@QEAAAEAV0@$$QEAV0@@Z
       1166  48D 000152E0 ??4QTime@@QEAAAEAV0@AEBV0@@Z
       1167  48E 000020B0 ??4QTimeZone@@QEAAAEAV0@$$QEAV0@@Z
       1168  48F 0019A0A0 ??4QTimeZone@@QEAAAEAV0@AEBV0@@Z
       1169  490 000025A0 ??4QTimerEvent@@IEAAAEAV0@AEBV0@@Z
       1170  491 0022F140 ??4QUnhandledException@@QEAAAEAV0@$$QEAV0@@Z
       1171  492 0022F160 ??4QUnhandledException@@QEAAAEAV0@AEBV0@@Z
       1172  493 000EBCC0 ??4QUntypedPropertyBinding@@QEAAAEAV0@$$QEAV0@@Z
       1173  494 000EBD20 ??4QUntypedPropertyBinding@@QEAAAEAV0@AEBV0@@Z
       1174  495 000020B0 ??4QUrl@@QEAAAEAV0@$$QEAV0@@Z
       1175  496 0007C600 ??4QUrl@@QEAAAEAV0@AEBV0@@Z
       1176  497 0007C6D0 ??4QUrl@@QEAAAEAV0@AEBVQString@@@Z
       1177  498 000020B0 ??4QUrlQuery@@QEAAAEAV0@$$QEAV0@@Z
       1178  499 00089BF0 ??4QUrlQuery@@QEAAAEAV0@AEBV0@@Z
       1179  49A 00017AB0 ??4QUuid@@QEAAAEAV0@$$QEAV0@@Z
       1180  49B 00018FE0 ??4QUuid@@QEAAAEAV0@AEBU_GUID@@@Z
       1181  49C 00002110 ??4QUuid@@QEAAAEAV0@AEBV0@@Z
       1182  49D 00002640 ??4QVariant@@QEAAAEAV0@$$QEAV0@@Z
       1183  49E 000FB200 ??4QVariant@@QEAAAEAV0@AEBV0@@Z
       1184  49F 000026C0 ??4QVariantConstPointer@@QEAAAEAV0@$$QEAV0@@Z
       1185  4A0 00002720 ??4QVariantConstPointer@@QEAAAEAV0@AEBV0@@Z
       1186  4A1 000026C0 ??4QVariantTypeCoercer@QtPrivate@@QEAAAEAV01@$$QEAV01@@Z
       1187  4A2 00002720 ??4QVariantTypeCoercer@QtPrivate@@QEAAAEAV01@AEBV01@@Z
       1188  4A3 00032320 ??4QWinRegistryKey@@QEAAAEAV0@$$QEAV0@@Z
       1189  4A4 00019070 ??4QXmlStreamAttribute@@QEAAAEAV0@$$QEAV0@@Z
       1190  4A5 000191B0 ??4QXmlStreamAttribute@@QEAAAEAV0@AEBV0@@Z
       1191  4A6 000192D0 ??4QXmlStreamEntityDeclaration@@QEAAAEAV0@$$QEAV0@@Z
       1192  4A7 00019440 ??4QXmlStreamEntityDeclaration@@QEAAAEAV0@AEBV0@@Z
       1193  4A8 00019590 ??4QXmlStreamNamespaceDeclaration@@QEAAAEAV0@$$QEAV0@@Z
       1194  4A9 00019640 ??4QXmlStreamNamespaceDeclaration@@QEAAAEAV0@AEBV0@@Z
       1195  4AA 000196E0 ??4QXmlStreamNotationDeclaration@@QEAAAEAV0@$$QEAV0@@Z
       1196  4AB 000197D0 ??4QXmlStreamNotationDeclaration@@QEAAAEAV0@AEBV0@@Z
       1197  4AC 000020C0 ??4QXmlUtils@@QEAAAEAV0@$$QEAV0@@Z
       1198  4AD 000020C0 ??4QXmlUtils@@QEAAAEAV0@AEBV0@@Z
       1199  4AE 000198B0 ??4ResultIteratorBase@QtPrivate@@QEAAAEAV01@$$QEAV01@@Z
       1200  4AF 00002110 ??4ResultIteratorBase@QtPrivate@@QEAAAEAV01@AEBV01@@Z
       1201  4B0 000198C0 ??4ResultStoreBase@QtPrivate@@QEAAAEAV01@AEBV01@@Z
       1202  4B1 00018F90 ??4SectionNode@QDateTimeParser@@QEAAAEAU01@$$QEAU01@@Z
       1203  4B2 00002110 ??4SectionNode@QDateTimeParser@@QEAAAEAU01@AEBU01@@Z
       1204  4B3 0019E850 ??5@YAAEAVQDataStream@@AEAV0@AEAVQBitArray@@@Z
       1205  4B4 00135070 ??5@YAAEAVQDataStream@@AEAV0@AEAVQByteArray@@@Z
       1206  4B5 0010F280 ??5@YAAEAVQDataStream@@AEAV0@AEAVQCborArray@@@Z
       1207  4B6 0010F470 ??5@YAAEAVQDataStream@@AEAV0@AEAVQCborMap@@@Z
       1208  4B7 0010F660 ??5@YAAEAVQDataStream@@AEAV0@AEAVQCborValue@@@Z
       1209  4B8 00162F50 ??5@YAAEAVQDataStream@@AEAV0@AEAVQChar@@@Z
       1210  4B9 001898F0 ??5@YAAEAVQDataStream@@AEAV0@AEAVQDate@@@Z
       1211  4BA 00189950 ??5@YAAEAVQDataStream@@AEAV0@AEAVQDateTime@@@Z
       1212  4BB 00246F90 ??5@YAAEAVQDataStream@@AEAV0@AEAVQEasingCurve@@@Z
       1213  4BC 0011B980 ??5@YAAEAVQDataStream@@AEAV0@AEAVQJsonArray@@@Z
       1214  4BD 001207C0 ??5@YAAEAVQDataStream@@AEAV0@AEAVQJsonDocument@@@Z
       1215  4BE 001238C0 ??5@YAAEAVQDataStream@@AEAV0@AEAVQJsonObject@@@Z
       1216  4BF 001297E0 ??5@YAAEAVQDataStream@@AEAV0@AEAVQJsonValue@@@Z
       1217  4C0 001D7190 ??5@YAAEAVQDataStream@@AEAV0@AEAVQLine@@@Z
       1218  4C1 001D71F0 ??5@YAAEAVQDataStream@@AEAV0@AEAVQLineF@@@Z
       1219  4C2 00142F50 ??5@YAAEAVQDataStream@@AEAV0@AEAVQLocale@@@Z
       1220  4C3 001D7F30 ??5@YAAEAVQDataStream@@AEAV0@AEAVQMargins@@@Z
       1221  4C4 001D7FA0 ??5@YAAEAVQDataStream@@AEAV0@AEAVQMarginsF@@@Z
       1222  4C5 001D8300 ??5@YAAEAVQDataStream@@AEAV0@AEAVQPoint@@@Z
       1223  4C6 001D8380 ??5@YAAEAVQDataStream@@AEAV0@AEAVQPointF@@@Z
       1224  4C7 001D87D0 ??5@YAAEAVQDataStream@@AEAV0@AEAVQRect@@@Z
       1225  4C8 001D88A0 ??5@YAAEAVQDataStream@@AEAV0@AEAVQRectF@@@Z
       1226  4C9 002569E0 ??5@YAAEAVQDataStream@@AEAV0@AEAVQRegularExpression@@@Z
       1227  4CA 001D8300 ??5@YAAEAVQDataStream@@AEAV0@AEAVQSize@@@Z
       1228  4CB 001D8380 ??5@YAAEAVQDataStream@@AEAV0@AEAVQSizeF@@@Z
       1229  4CC 00162F80 ??5@YAAEAVQDataStream@@AEAV0@AEAVQString@@@Z
       1230  4CD 00189C80 ??5@YAAEAVQDataStream@@AEAV0@AEAVQTime@@@Z
       1231  4CE 0019A170 ??5@YAAEAVQDataStream@@AEAV0@AEAVQTimeZone@@@Z
       1232  4CF 001DDA30 ??5@YAAEAVQDataStream@@AEAV0@AEAVQTypeRevision@@@Z
       1233  4D0 0007C850 ??5@YAAEAVQDataStream@@AEAV0@AEAVQUrl@@@Z
       1234  4D1 00109390 ??5@YAAEAVQDataStream@@AEAV0@AEAVQUuid@@@Z
       1235  4D2 000FB2E0 ??5@YAAEAVQDataStream@@AEAV0@AEAVQVariant@@@Z
       1236  4D3 001DE1D0 ??5@YAAEAVQDataStream@@AEAV0@AEAVQVersionNumber@@@Z
       1237  4D4 00002760 ??5@YAAEAVQDataStream@@AEAV0@AEAVqfloat16@@@Z
       1238  4D5 0010A700 ??5@YAAEAVQDataStream@@AEAV0@AEAW4QCborSimpleType@@@Z
       1239  4D6 00025830 ??5@YAAEAVQTextStream@@AEAV0@AEAVqfloat16@@@Z
       1240  4D7 00002740 ??5QDataStream@@QEAAAEAV0@AEA$$T@Z
       1241  4D8 0011A150 ??5QDataStream@@QEAAAEAV0@AEAC@Z
       1242  4D9 00002750 ??5QDataStream@@QEAAAEAV0@AEAD@Z
       1243  4DA 00002750 ??5QDataStream@@QEAAAEAV0@AEAE@Z
       1244  4DB 0011A1D0 ??5QDataStream@@QEAAAEAV0@AEAF@Z
       1245  4DC 00002760 ??5QDataStream@@QEAAAEAV0@AEAG@Z
       1246  4DD 0011A260 ??5QDataStream@@QEAAAEAV0@AEAH@Z
       1247  4DE 00002770 ??5QDataStream@@QEAAAEAV0@AEAI@Z
       1248  4DF 0011A2E0 ??5QDataStream@@QEAAAEAV0@AEAM@Z
       1249  4E0 0011A500 ??5QDataStream@@QEAAAEAV0@AEAN@Z
       1250  4E1 0011A5C0 ??5QDataStream@@QEAAAEAV0@AEAPEAD@Z
       1251  4E2 00002760 ??5QDataStream@@QEAAAEAV0@AEAVqfloat16@@@Z
       1252  4E3 0011A5E0 ??5QDataStream@@QEAAAEAV0@AEA_J@Z
       1253  4E4 00002780 ??5QDataStream@@QEAAAEAV0@AEA_K@Z
       1254  4E5 0011A780 ??5QDataStream@@QEAAAEAV0@AEA_N@Z
       1255  4E6 0011A800 ??5QDataStream@@QEAAAEAV0@AEA_S@Z
       1256  4E7 0011A8D0 ??5QDataStream@@QEAAAEAV0@AEA_U@Z
       1257  4E8 0012E030 ??5QTextStream@@QEAAAEAV0@AEAD@Z
       1258  4E9 0012E090 ??5QTextStream@@QEAAAEAV0@AEAF@Z
       1259  4EA 0012E090 ??5QTextStream@@QEAAAEAV0@AEAG@Z
       1260  4EB 0012E160 ??5QTextStream@@QEAAAEAV0@AEAH@Z
       1261  4EC 0012E160 ??5QTextStream@@QEAAAEAV0@AEAI@Z
       1262  4ED 0012E160 ??5QTextStream@@QEAAAEAV0@AEAJ@Z
       1263  4EE 0012E160 ??5QTextStream@@QEAAAEAV0@AEAK@Z
       1264  4EF 0012E230 ??5QTextStream@@QEAAAEAV0@AEAM@Z
       1265  4F0 0012E2F0 ??5QTextStream@@QEAAAEAV0@AEAN@Z
       1266  4F1 0012E3B0 ??5QTextStream@@QEAAAEAV0@AEAVQByteArray@@@Z
       1267  4F2 0012E720 ??5QTextStream@@QEAAAEAV0@AEAVQChar@@@Z
       1268  4F3 0012E990 ??5QTextStream@@QEAAAEAV0@AEAVQString@@@Z
       1269  4F4 0012ED20 ??5QTextStream@@QEAAAEAV0@AEA_J@Z
       1270  4F5 0012ED20 ??5QTextStream@@QEAAAEAV0@AEA_K@Z
       1271  4F6 00002790 ??5QTextStream@@QEAAAEAV0@AEA_S@Z
       1272  4F7 0012EDF0 ??5QTextStream@@QEAAAEAV0@PEAD@Z
       1273  4F8 0021C9F0 ??6@YA?AVQDebug@@V0@AEBUtagMSG@@@Z
       1274  4F9 0019EAD0 ??6@YA?AVQDebug@@V0@AEBVQBitArray@@@Z
       1275  4FA 0010F7B0 ??6@YA?AVQDebug@@V0@AEBVQCborArray@@@Z
       1276  4FB 0010FA20 ??6@YA?AVQDebug@@V0@AEBVQCborMap@@@Z
       1277  4FC 0010FDF0 ??6@YA?AVQDebug@@V0@AEBVQCborValue@@@Z
       1278  4FD 00189CC0 ??6@YA?AVQDebug@@V0@AEBVQDateTime@@@Z
       1279  4FE 000411D0 ??6@YA?AVQDebug@@V0@AEBVQDir@@@Z
       1280  4FF 002470F0 ??6@YA?AVQDebug@@V0@AEBVQEasingCurve@@@Z
       1281  500 00055110 ??6@YA?AVQDebug@@V0@AEBVQFileInfo@@@Z
       1282  501 002C27B0 ??6@YA?AVQDebug@@V0@AEBVQItemSelectionRange@@@Z
       1283  502 0011BA20 ??6@YA?AVQDebug@@V0@AEBVQJsonArray@@@Z
       1284  503 00120970 ??6@YA?AVQDebug@@V0@AEBVQJsonDocument@@@Z
       1285  504 00123960 ??6@YA?AVQDebug@@V0@AEBVQJsonObject@@@Z
       1286  505 00129C10 ??6@YA?AVQDebug@@V0@AEBVQJsonValue@@@Z
       1287  506 001D7250 ??6@YA?AVQDebug@@V0@AEBVQLine@@@Z
       1288  507 001D73D0 ??6@YA?AVQDebug@@V0@AEBVQLineF@@@Z
       1289  508 00142FF0 ??6@YA?AVQDebug@@V0@AEBVQLocale@@@Z
       1290  509 001D8020 ??6@YA?AVQDebug@@V0@AEBVQMargins@@@Z
       1291  50A 001D8140 ??6@YA?AVQDebug@@V0@AEBVQMarginsF@@@Z
       1292  50B 003143C0 ??6@YA?AVQDebug@@V0@AEBVQMimeType@@@Z
       1293  50C 002AC410 ??6@YA?AVQDebug@@V0@AEBVQModelIndex@@@Z
       1294  50D 00030720 ??6@YA?AVQDebug@@V0@AEBVQOperatingSystemVersion@@@Z
       1295  50E 00319220 ??6@YA?AVQDebug@@V0@AEBVQPermission@@@Z
       1296  50F 002AC5E0 ??6@YA?AVQDebug@@V0@AEBVQPersistentModelIndex@@@Z
       1297  510 001D83D0 ??6@YA?AVQDebug@@V0@AEBVQPoint@@@Z
       1298  511 001D8530 ??6@YA?AVQDebug@@V0@AEBVQPointF@@@Z
       1299  512 001D8920 ??6@YA?AVQDebug@@V0@AEBVQRect@@@Z
       1300  513 001D8B00 ??6@YA?AVQDebug@@V0@AEBVQRectF@@@Z
       1301  514 00256AE0 ??6@YA?AVQDebug@@V0@AEBVQRegularExpression@@@Z
       1302  515 00256CE0 ??6@YA?AVQDebug@@V0@AEBVQRegularExpressionMatch@@@Z
       1303  516 001DD570 ??6@YA?AVQDebug@@V0@AEBVQSize@@@Z
       1304  517 001DD710 ??6@YA?AVQDebug@@V0@AEBVQSizeF@@@Z
       1305  518 00078520 ??6@YA?AVQDebug@@V0@AEBVQStorageInfo@@@Z
       1306  519 0019A930 ??6@YA?AVQDebug@@V0@AEBVQTimeZone@@@Z
       1307  51A 001DDA80 ??6@YA?AVQDebug@@V0@AEBVQTypeRevision@@@Z
       1308  51B 0007C910 ??6@YA?AVQDebug@@V0@AEBVQUrl@@@Z
       1309  51C 00109490 ??6@YA?AVQDebug@@V0@AEBVQUuid@@@Z
       1310  51D 001DE220 ??6@YA?AVQDebug@@V0@AEBVQVersionNumber@@@Z
       1311  51E 000DDC20 ??6@YA?AVQDebug@@V0@PEBVQObject@@@Z
       1312  51F 00041560 ??6@YA?AVQDebug@@V0@V?$QFlags@W4Filter@QDir@@@@@Z
       1313  520 00061BA0 ??6@YA?AVQDebug@@V0@V?$QFlags@W4OpenModeFlag@QIODeviceBase@@@@@Z
       1314  521 002575D0 ??6@YA?AVQDebug@@V0@V?$QFlags@W4PatternOption@QRegularExpression@@@@@Z
       1315  522 00134490 ??6@YA?AVQDebug@@V0@VQAnyStringView@@@Z
       1316  523 0018A0C0 ??6@YA?AVQDebug@@V0@VQDate@@@Z
       1317  524 000CC040 ??6@YA?AVQDebug@@V0@VQMetaType@@@Z
       1318  525 0018A3A0 ??6@YA?AVQDebug@@V0@VQTime@@@Z
       1319  526 0010FF00 ??6@YA?AVQDebug@@V0@W4QCborKnownTags@@@Z
       1320  527 00110100 ??6@YA?AVQDebug@@V0@W4QCborSimpleType@@@Z
       1321  528 00110330 ??6@YA?AVQDebug@@V0@W4QCborTag@@@Z
       1322  529 000FB300 ??6@YA?AVQDebug@@V0@W4Type@QVariant@@@Z
       1323  52A 0019ECA0 ??6@YAAEAVQDataStream@@AEAV0@AEBVQBitArray@@@Z
       1324  52B 00135500 ??6@YAAEAVQDataStream@@AEAV0@AEBVQByteArray@@@Z
       1325  52C 00110530 ??6@YAAEAVQDataStream@@AEAV0@AEBVQCborArray@@@Z
       1326  52D 00110610 ??6@YAAEAVQDataStream@@AEAV0@AEBVQCborMap@@@Z
       1327  52E 001106F0 ??6@YAAEAVQDataStream@@AEAV0@AEBVQCborValue@@@Z
       1328  52F 0018A5B0 ??6@YAAEAVQDataStream@@AEAV0@AEBVQDateTime@@@Z
       1329  530 00247540 ??6@YAAEAVQDataStream@@AEAV0@AEBVQEasingCurve@@@Z
       1330  531 0011BCA0 ??6@YAAEAVQDataStream@@AEAV0@AEBVQJsonArray@@@Z
       1331  532 00120BB0 ??6@YAAEAVQDataStream@@AEAV0@AEBVQJsonDocument@@@Z
       1332  533 00123BE0 ??6@YAAEAVQDataStream@@AEAV0@AEBVQJsonObject@@@Z
       1333  534 0012A2A0 ??6@YAAEAVQDataStream@@AEAV0@AEBVQJsonValue@@@Z
       1334  535 001D7550 ??6@YAAEAVQDataStream@@AEAV0@AEBVQLine@@@Z
       1335  536 001D75A0 ??6@YAAEAVQDataStream@@AEAV0@AEBVQLineF@@@Z
       1336  537 00143420 ??6@YAAEAVQDataStream@@AEAV0@AEBVQLocale@@@Z
       1337  538 001D8260 ??6@YAAEAVQDataStream@@AEAV0@AEBVQMargins@@@Z
       1338  539 001D82B0 ??6@YAAEAVQDataStream@@AEAV0@AEBVQMarginsF@@@Z
       1339  53A 001D8690 ??6@YAAEAVQDataStream@@AEAV0@AEBVQPoint@@@Z
       1340  53B 001D86F0 ??6@YAAEAVQDataStream@@AEAV0@AEBVQPointF@@@Z
       1341  53C 001D8CD0 ??6@YAAEAVQDataStream@@AEAV0@AEBVQRect@@@Z
       1342  53D 001D82B0 ??6@YAAEAVQDataStream@@AEAV0@AEBVQRectF@@@Z
       1343  53E 00257890 ??6@YAAEAVQDataStream@@AEAV0@AEBVQRegularExpression@@@Z
       1344  53F 001D8690 ??6@YAAEAVQDataStream@@AEAV0@AEBVQSize@@@Z
       1345  540 001D86F0 ??6@YAAEAVQDataStream@@AEAV0@AEBVQSizeF@@@Z
       1346  541 00163800 ??6@YAAEAVQDataStream@@AEAV0@AEBVQString@@@Z
       1347  542 0019AA40 ??6@YAAEAVQDataStream@@AEAV0@AEBVQTimeZone@@@Z
       1348  543 001DDC30 ??6@YAAEAVQDataStream@@AEAV0@AEBVQTypeRevision@@@Z
       1349  544 0007CA70 ??6@YAAEAVQDataStream@@AEAV0@AEBVQUrl@@@Z
       1350  545 00109640 ??6@YAAEAVQDataStream@@AEAV0@AEBVQUuid@@@Z
       1351  546 000FB480 ??6@YAAEAVQDataStream@@AEAV0@AEBVQVariant@@@Z
       1352  547 001DE3D0 ??6@YAAEAVQDataStream@@AEAV0@AEBVQVersionNumber@@@Z
       1353  548 00163990 ??6@YAAEAVQDataStream@@AEAV0@VQChar@@@Z
       1354  549 0018AB00 ??6@YAAEAVQDataStream@@AEAV0@VQDate@@@Z
       1355  54A 0018AB10 ??6@YAAEAVQDataStream@@AEAV0@VQTime@@@Z
       1356  54B 000027E0 ??6@YAAEAVQDataStream@@AEAV0@Vqfloat16@@@Z
       1357  54C 000027D0 ??6@YAAEAVQDataStream@@AEAV0@W4QCborSimpleType@@@Z
       1358  54D 000258C0 ??6@YAAEAVQTextStream@@AEAV0@Vqfloat16@@@Z
       1359  54E 00019A20 ??6QCborArray@@QEAAAEAV0@AEBVQCborValue@@@Z
       1360  54F 000020C0 ??6QDataStream@@QEAAAEAV0@$$T@Z
       1361  550 0011A9B0 ??6QDataStream@@QEAAAEAV0@C@Z
       1362  551 000027D0 ??6QDataStream@@QEAAAEAV0@D@Z
       1363  552 000027D0 ??6QDataStream@@QEAAAEAV0@E@Z
       1364  553 0011A9F0 ??6QDataStream@@QEAAAEAV0@F@Z
       1365  554 000027E0 ??6QDataStream@@QEAAAEAV0@G@Z
       1366  555 0011AA60 ??6QDataStream@@QEAAAEAV0@H@Z
       1367  556 000027F0 ??6QDataStream@@QEAAAEAV0@I@Z
       1368  557 0011AAE0 ??6QDataStream@@QEAAAEAV0@M@Z
       1369  558 0011ABB0 ??6QDataStream@@QEAAAEAV0@N@Z
       1370  559 0011ACD0 ??6QDataStream@@QEAAAEAV0@PEBD@Z
       1371  55A 000027E0 ??6QDataStream@@QEAAAEAV0@Vqfloat16@@@Z
       1372  55B 0011AD10 ??6QDataStream@@QEAAAEAV0@_J@Z
       1373  55C 00002800 ??6QDataStream@@QEAAAEAV0@_K@Z
       1374  55D 000027D0 ??6QDataStream@@QEAAAEAV0@_N@Z
       1375  55E 0011AE00 ??6QDataStream@@QEAAAEAV0@_S@Z
       1376  55F 0011AE60 ??6QDataStream@@QEAAAEAV0@_U@Z
       1377  560 00002810 ??6QDebug@@QEAAAEAV0@$$T@Z
       1378  561 00002850 ??6QDebug@@QEAAAEAV0@AEBVQByteArray@@@Z
       1379  562 00002890 ??6QDebug@@QEAAAEAV0@AEBVQString@@@Z
       1380  563 000028D0 ??6QDebug@@QEAAAEAV0@D@Z
       1381  564 00002900 ??6QDebug@@QEAAAEAV0@F@Z
       1382  565 00002930 ??6QDebug@@QEAAAEAV0@G@Z
       1383  566 00002960 ??6QDebug@@QEAAAEAV0@H@Z
       1384  567 00002990 ??6QDebug@@QEAAAEAV0@I@Z
       1385  568 00002960 ??6QDebug@@QEAAAEAV0@J@Z
       1386  569 00002990 ??6QDebug@@QEAAAEAV0@K@Z
       1387  56A 000029C0 ??6QDebug@@QEAAAEAV0@M@Z
       1388  56B 000029F0 ??6QDebug@@QEAAAEAV0@N@Z
       1389  56C 00002A20 ??6QDebug@@QEAAAEAV0@P6AAEAVQTextStream@@AEAV1@@Z@Z
       1390  56D 00002A40 ??6QDebug@@QEAAAEAV0@PEBD@Z
       1391  56E 00002AD0 ??6QDebug@@QEAAAEAV0@PEBX@Z
       1392  56F 00002B00 ??6QDebug@@QEAAAEAV0@PEB_S@Z
       1393  570 00002B70 ??6QDebug@@QEAAAEAV0@Unullopt_t@std@@@Z
       1394  571 00002BB0 ??6QDebug@@QEAAAEAV0@V?$QBasicUtf8StringView@$0A@@@@Z
       1395  572 00002BF0 ??6QDebug@@QEAAAEAV0@VQByteArrayView@@@Z
       1396  573 00002C30 ??6QDebug@@QEAAAEAV0@VQChar@@@Z
       1397  574 00002C60 ??6QDebug@@QEAAAEAV0@VQLatin1String@@@Z
       1398  575 00002CA0 ??6QDebug@@QEAAAEAV0@VQStringView@@@Z
       1399  576 00002CD0 ??6QDebug@@QEAAAEAV0@VQTextStreamManipulator@@@Z
       1400  577 00002D50 ??6QDebug@@QEAAAEAV0@Vqfloat16@@@Z
       1401  578 00002D80 ??6QDebug@@QEAAAEAV0@_J@Z
       1402  579 00002DB0 ??6QDebug@@QEAAAEAV0@_K@Z
       1403  57A 00002DE0 ??6QDebug@@QEAAAEAV0@_N@Z
       1404  57B 00002C30 ??6QDebug@@QEAAAEAV0@_S@Z
       1405  57C 00002E30 ??6QDebug@@QEAAAEAV0@_U@Z
       1406  57D 00019A50 ??6QJsonArray@@QEAAAEAV0@AEBVQJsonValue@@@Z
       1407  57E 0012F130 ??6QTextStream@@QEAAAEAV0@AEBVQByteArray@@@Z
       1408  57F 0012F230 ??6QTextStream@@QEAAAEAV0@AEBVQString@@@Z
       1409  580 0012F2A0 ??6QTextStream@@QEAAAEAV0@D@Z
       1410  581 0012F380 ??6QTextStream@@QEAAAEAV0@F@Z
       1411  582 0012F400 ??6QTextStream@@QEAAAEAV0@G@Z
       1412  583 0012F470 ??6QTextStream@@QEAAAEAV0@H@Z
       1413  584 0012F4E0 ??6QTextStream@@QEAAAEAV0@I@Z
       1414  585 0012F470 ??6QTextStream@@QEAAAEAV0@J@Z
       1415  586 0012F4E0 ??6QTextStream@@QEAAAEAV0@K@Z
       1416  587 0012F550 ??6QTextStream@@QEAAAEAV0@M@Z
       1417  588 0012F560 ??6QTextStream@@QEAAAEAV0@N@Z
       1418  589 0012F7E0 ??6QTextStream@@QEAAAEAV0@PEBD@Z
       1419  58A 0012F8E0 ??6QTextStream@@QEAAAEAV0@PEBX@Z
       1420  58B 0012F9A0 ??6QTextStream@@QEAAAEAV0@VQChar@@@Z
       1421  58C 0012FA80 ??6QTextStream@@QEAAAEAV0@VQLatin1String@@@Z
       1422  58D 0012FAF0 ??6QTextStream@@QEAAAEAV0@VQStringView@@@Z
       1423  58E 0012FB60 ??6QTextStream@@QEAAAEAV0@_J@Z
       1424  58F 0012FBE0 ??6QTextStream@@QEAAAEAV0@_K@Z
       1425  590 00002E60 ??6QTextStream@@QEAAAEAV0@_S@Z
       1426  591 000152F0 ??7QBitRef@@QEBA_NXZ
       1427  592 000952A0 ??8?$QConstIterator@VQMetaAssociation@@@@QEBA_NAEBU0@@Z
       1428  593 000952A0 ??8?$QConstIterator@VQMetaSequence@@@@QEBA_NAEBU0@@Z
       1429  594 000952D0 ??8?$QIterator@VQMetaAssociation@@@@QEBA_NAEBU0@@Z
       1430  595 000952D0 ??8?$QIterator@VQMetaSequence@@@@QEBA_NAEBU0@@Z
       1431  596 00031540 ??8@YA_NAEBVQRandomGenerator@@0@Z
       1432  597 00267B20 ??8@YA_NUSectionNode@QDateTimeParser@@0@Z
       1433  598 00019A70 ??8QBitArray@@QEBA_NAEBV0@@Z
       1434  599 00019AB0 ??8QByteArray@@QEBA_NAEBVQString@@@Z
       1435  59A 00019B00 ??8QCborArray@@QEBA_NAEBV0@@Z
       1436  59B 00019B00 ??8QCborMap@@QEBA_NAEBV0@@Z
       1437  59C 00019B20 ??8QCborValue@@QEBA_NAEBV0@@Z
       1438  59D 00019B40 ??8QCborValueRef@@QEBA_NAEBVQCborValue@@@Z
       1439  59E 00019B90 ??8QDir@@QEBA_NAEBV0@@Z
       1440  59F 00019BA0 ??8QEasingCurve@@QEBA_NAEBV0@@Z
       1441  5A0 00019BB0 ??8QFileInfo@@QEBA_NAEBV0@@Z
       1442  5A1 0009A4F0 ??8QFutureInterfaceBase@@QEBA_NAEBV0@@Z
       1443  5A2 00019BC0 ??8QItemSelectionRange@@QEBA_NAEBV0@@Z
       1444  5A3 00019C10 ??8QJsonArray@@QEBA_NAEBV0@@Z
       1445  5A4 00019C20 ??8QJsonDocument@@QEBA_NAEBV0@@Z
       1446  5A5 00019C30 ??8QJsonObject@@QEBA_NAEBV0@@Z
       1447  5A6 00019C40 ??8QJsonValue@@QEBA_NAEBV0@@Z
       1448  5A7 00019C50 ??8QJsonValueRef@@QEBA_NAEBVQJsonValue@@@Z
       1449  5A8 00019CA0 ??8QLine@@QEBA_NAEBV0@@Z
       1450  5A9 00019CD0 ??8QLineF@@QEBA_NAEBV0@@Z
       1451  5AA 00019D20 ??8QMimeType@@QEBA_NAEBV0@@Z
       1452  5AB 00019D30 ??8QPersistentModelIndex@@QEBA_NAEBV0@@Z
       1453  5AC 00019D40 ??8QPersistentModelIndex@@QEBA_NAEBVQModelIndex@@@Z
       1454  5AD 00019D50 ??8QProcessEnvironment@@QEBA_NAEBV0@@Z
       1455  5AE 00019D60 ??8QRegularExpression@@QEBA_NAEBV0@@Z
       1456  5AF 00019D70 ??8QString@@QEBA_NAEBVQByteArray@@@Z
       1457  5B0 00019DC0 ??8QString@@QEBA_NPEBD@Z
       1458  5B1 00019E00 ??8QTimeZone@@QEBA_NAEBV0@@Z
       1459  5B2 00019E10 ??8QUrl@@QEBA_NAEBV0@@Z
       1460  5B3 00019E20 ??8QUrlQuery@@QEBA_NAEBV0@@Z
       1461  5B4 00019E30 ??8QUuid@@QEBA_NAEBU_GUID@@@Z
       1462  5B5 00019F10 ??8QUuid@@QEBA_NAEBV0@@Z
       1463  5B6 00019F80 ??8QXmlStreamAttribute@@QEBA_NAEBV0@@Z
       1464  5B7 0001A080 ??8QXmlStreamEntityDeclaration@@QEBA_NAEBV0@@Z
       1465  5B8 0001A1E0 ??8QXmlStreamNamespaceDeclaration@@QEBA_NAEBV0@@Z
       1466  5B9 0001A280 ??8QXmlStreamNotationDeclaration@@QEBA_NAEBV0@@Z
       1467  5BA 0001A370 ??8ResultIteratorBase@QtPrivate@@QEBA_NAEBV01@@Z
       1468  5BB 00095300 ??9?$QConstIterator@VQMetaAssociation@@@@QEBA_NAEBU0@@Z
       1469  5BC 00095300 ??9?$QConstIterator@VQMetaSequence@@@@QEBA_NAEBU0@@Z
       1470  5BD 00095330 ??9?$QIterator@VQMetaAssociation@@@@QEBA_NAEBU0@@Z
       1471  5BE 00095330 ??9?$QIterator@VQMetaSequence@@@@QEBA_NAEBU0@@Z
       1472  5BF 0001A390 ??9QBitArray@@QEBA_NAEBV0@@Z
       1473  5C0 0001A3D0 ??9QByteArray@@QEBA_NAEBVQString@@@Z
       1474  5C1 0001A420 ??9QCborArray@@QEBA_NAEBV0@@Z
       1475  5C2 0001A420 ??9QCborMap@@QEBA_NAEBV0@@Z
       1476  5C3 0001A440 ??9QCborValue@@QEBA_NAEBV0@@Z
       1477  5C4 0001A460 ??9QCborValueRef@@QEBA_NAEBVQCborValue@@@Z
       1478  5C5 0001A4B0 ??9QDir@@QEBA_NAEBV0@@Z
       1479  5C6 0001A4C0 ??9QEasingCurve@@QEBA_NAEBV0@@Z
       1480  5C7 0001A4D0 ??9QFileInfo@@QEBA_NAEBV0@@Z
       1481  5C8 0009A500 ??9QFutureInterfaceBase@@QEBA_NAEBV0@@Z
       1482  5C9 0001A4E0 ??9QItemSelectionRange@@QEBA_NAEBV0@@Z
       1483  5CA 0001A530 ??9QJsonArray@@QEBA_NAEBV0@@Z
       1484  5CB 0001A540 ??9QJsonDocument@@QEBA_NAEBV0@@Z
       1485  5CC 0001A550 ??9QJsonObject@@QEBA_NAEBV0@@Z
       1486  5CD 0001A560 ??9QJsonValue@@QEBA_NAEBV0@@Z
       1487  5CE 0001A570 ??9QJsonValueRef@@QEBA_NAEBVQJsonValue@@@Z
       1488  5CF 0001A5C0 ??9QLine@@QEBA_NAEBV0@@Z
       1489  5D0 0001A5F0 ??9QLineF@@QEBA_NAEBV0@@Z
       1490  5D1 0001A640 ??9QMimeType@@QEBA_NAEBV0@@Z
       1491  5D2 0001A650 ??9QPersistentModelIndex@@QEBA_NAEBV0@@Z
       1492  5D3 0001A660 ??9QPersistentModelIndex@@QEBA_NAEBVQModelIndex@@@Z
       1493  5D4 0001A670 ??9QProcessEnvironment@@QEBA_NAEBV0@@Z
       1494  5D5 0001A680 ??9QRegularExpression@@QEBA_NAEBV0@@Z
       1495  5D6 0001A690 ??9QString@@QEBA_NAEBVQByteArray@@@Z
       1496  5D7 0001A6E0 ??9QString@@QEBA_NPEBD@Z
       1497  5D8 0001A720 ??9QTimeZone@@QEBA_NAEBV0@@Z
       1498  5D9 0001A730 ??9QUrl@@QEBA_NAEBV0@@Z
       1499  5DA 0001A740 ??9QUrlQuery@@QEBA_NAEBV0@@Z
       1500  5DB 0001A750 ??9QUuid@@QEBA_NAEBU_GUID@@@Z
       1501  5DC 0001A760 ??9QUuid@@QEBA_NAEBV0@@Z
       1502  5DD 0001A7D0 ??9QXmlStreamAttribute@@QEBA_NAEBV0@@Z
       1503  5DE 0001A7E0 ??9QXmlStreamEntityDeclaration@@QEBA_NAEBV0@@Z
       1504  5DF 0001A7F0 ??9QXmlStreamNamespaceDeclaration@@QEBA_NAEBV0@@Z
       1505  5E0 0001A890 ??9QXmlStreamNotationDeclaration@@QEBA_NAEBV0@@Z
       1506  5E1 0001A8A0 ??9ResultIteratorBase@QtPrivate@@QEBA_NAEBV01@@Z
       1507  5E2 00015320 ??AQBitArray@@QEAA?AVQBitRef@@_J@Z
       1508  5E3 00015330 ??AQBitArray@@QEBA_N_J@Z
       1509  5E4 00002E70 ??AQByteArray@@QEAAAEAD_J@Z
       1510  5E5 00002EB0 ??AQByteArray@@QEBAD_J@Z
       1511  5E6 00002EB0 ??AQByteArrayView@@QEBAD_J@Z
       1512  5E7 0001A8C0 ??AQCborArray@@QEAA?AVQCborValueRef@@_J@Z
       1513  5E8 0001A940 ??AQCborArray@@QEBA?BVQCborValue@@_J@Z
       1514  5E9 001107D0 ??AQCborMap@@QEAA?AVQCborValueRef@@AEBVQCborValue@@@Z
       1515  5EA 00110830 ??AQCborMap@@QEAA?AVQCborValueRef@@AEBVQString@@@Z
       1516  5EB 001108A0 ??AQCborMap@@QEAA?AVQCborValueRef@@VQLatin1String@@@Z
       1517  5EC 00110910 ??AQCborMap@@QEAA?AVQCborValueRef@@_J@Z
       1518  5ED 0001A960 ??AQCborMap@@QEBA?BVQCborValue@@AEBV1@@Z
       1519  5EE 0001AA20 ??AQCborMap@@QEBA?BVQCborValue@@AEBVQString@@@Z
       1520  5EF 0001AAE0 ??AQCborMap@@QEBA?BVQCborValue@@VQLatin1String@@@Z
       1521  5F0 0001ABB0 ??AQCborMap@@QEBA?BVQCborValue@@_J@Z
       1522  5F1 00110970 ??AQCborValue@@QEAA?AVQCborValueRef@@AEBVQString@@@Z
       1523  5F2 00110A60 ??AQCborValue@@QEAA?AVQCborValueRef@@VQLatin1String@@@Z
       1524  5F3 00110B40 ??AQCborValue@@QEAA?AVQCborValueRef@@_J@Z
       1525  5F4 00110CD0 ??AQCborValue@@QEBA?BV0@AEBVQString@@@Z
       1526  5F5 00110DF0 ??AQCborValue@@QEBA?BV0@VQLatin1String@@@Z
       1527  5F6 00110F10 ??AQCborValue@@QEBA?BV0@_J@Z
       1528  5F7 00111080 ??AQCborValueConstRef@@QEBA?BVQCborValue@@AEBVQString@@@Z
       1529  5F8 001111F0 ??AQCborValueConstRef@@QEBA?BVQCborValue@@VQLatin1String@@@Z
       1530  5F9 00111380 ??AQCborValueConstRef@@QEBA?BVQCborValue@@_J@Z
       1531  5FA 00111500 ??AQCborValueRef@@QEAA?AV0@AEBVQString@@@Z
       1532  5FB 00111540 ??AQCborValueRef@@QEAA?AV0@VQLatin1String@@@Z
       1533  5FC 00111580 ??AQCborValueRef@@QEAA?AV0@_J@Z
       1534  5FD 001116D0 ??AQCborValueRef@@QEBA?BVQCborValue@@AEBVQString@@@Z
       1535  5FE 001116F0 ??AQCborValueRef@@QEBA?BVQCborValue@@VQLatin1String@@@Z
       1536  5FF 00111720 ??AQCborValueRef@@QEBA?BVQCborValue@@_J@Z
       1537  600 0001AC70 ??AQDir@@QEBA?AVQString@@H@Z
       1538  601 00042A50 ??AQDir@@QEBA?AVQString@@_J@Z
       1539  602 0011BCE0 ??AQJsonArray@@QEAA?AVQJsonValueRef@@_J@Z
       1540  603 0011BCF0 ??AQJsonArray@@QEBA?AVQJsonValue@@_J@Z
       1541  604 00120C50 ??AQJsonDocument@@QEBA?BVQJsonValue@@AEBVQString@@@Z
       1542  605 00120C80 ??AQJsonDocument@@QEBA?BVQJsonValue@@VQLatin1String@@@Z
       1543  606 00120D30 ??AQJsonDocument@@QEBA?BVQJsonValue@@VQStringView@@@Z
       1544  607 00120E10 ??AQJsonDocument@@QEBA?BVQJsonValue@@_J@Z
       1545  608 00123C50 ??AQJsonObject@@QEAA?AVQJsonValueRef@@AEBVQString@@@Z
       1546  609 00123C80 ??AQJsonObject@@QEAA?AVQJsonValueRef@@VQLatin1String@@@Z
       1547  60A 00123CB0 ??AQJsonObject@@QEAA?AVQJsonValueRef@@VQStringView@@@Z
       1548  60B 00123CE0 ??AQJsonObject@@QEBA?AVQJsonValue@@AEBVQString@@@Z
       1549  60C 0001AC90 ??AQJsonObject@@QEBA?AVQJsonValue@@VQLatin1String@@@Z
       1550  60D 0001ACC0 ??AQJsonObject@@QEBA?AVQJsonValue@@VQStringView@@@Z
       1551  60E 0012A520 ??AQJsonValue@@QEBA?BV0@AEBVQString@@@Z
       1552  60F 0012A650 ??AQJsonValue@@QEBA?BV0@VQLatin1String@@@Z
       1553  610 0012A760 ??AQJsonValue@@QEBA?BV0@VQStringView@@@Z
       1554  611 0012A870 ??AQJsonValue@@QEBA?BV0@_J@Z
       1555  612 0001ACF0 ??AQJsonValueRef@@QEBA?BVQJsonValue@@VQLatin1String@@@Z
       1556  613 0001AD50 ??AQJsonValueRef@@QEBA?BVQJsonValue@@VQStringView@@@Z
       1557  614 0001ADB0 ??AQJsonValueRef@@QEBA?BVQJsonValue@@_J@Z
       1558  615 00002EC0 ??AQString@@QEAAAEAVQChar@@_J@Z
       1559  616 00002F10 ??AQString@@QEBA?BVQChar@@_J@Z
       1560  617 00002F20 ??BConnection@QMetaObject@@QEBAPEQ01@PEAXXZ
       1561  618 00015360 ??BQBitRef@@QEBA_NXZ
       1562  619 00002F50 ??BQByteArray@@QEBAPEBDXZ
       1563  61A 00002F50 ??BQByteArray@@QEBAPEBXXZ
       1564  61B 00002F70 ??BQByteArrayView@@QEBA?AV?$basic_string_view@DU?$char_traits@D@std@@@std@@XZ
       1565  61C 000049E0 ??BQCborError@@QEBA?AW4Code@0@XZ
       1566  61D 0001AE00 ??BQCborValueRef@@QEBA?AVQCborValue@@XZ
       1567  61E 0020D090 ??BQComHelper@@QEBA_NXZ
       1568  61F 0001AE30 ??BQJsonValueRef@@QEBA?AVQJsonValue@@XZ
       1569  620 002AC660 ??BQPersistentModelIndex@@QEBA?AVQModelIndex@@XZ
       1570  621 00002F90 ??BQString@@QEBA?AV?$basic_string_view@_SU?$char_traits@_S@std@@@std@@XZ
       1571  622 0001AE50 ??BQUuid@@QEBA?AU_GUID@@XZ
       1572  623 000041C0 ??BQWinRegistryKey@@QEBAPEAUHKEY__@@XZ
       1573  624 00095360 ??CQAssociativeConstIterator@@QEBA?AVQVariantConstPointer@@XZ
       1574  625 00095390 ??CQAssociativeIterator@@QEBA?AV?$QVariantPointer@VQAssociativeIterator@@@@XZ
       1575  626 000EF330 ??CQSequentialConstIterator@@QEBA?AVQVariantConstPointer@@XZ
       1576  627 00095390 ??CQSequentialIterator@@QEBA?AV?$QVariantPointer@VQSequentialIterator@@@@XZ
       1577  628 000020C0 ??CQVariantConstPointer@@QEBAPEBVQVariant@@XZ
       1578  629 000953A0 ??DQAssociativeConstIterator@@QEBA?AVQVariant@@XZ
       1579  62A 00095390 ??DQAssociativeIterator@@QEBA?AV?$QVariantRef@VQAssociativeIterator@@@@XZ
       1580  62B 000EF360 ??DQSequentialConstIterator@@QEBA?AVQVariant@@XZ
       1581  62C 00095390 ??DQSequentialIterator@@QEBA?AV?$QVariantRef@VQSequentialIterator@@@@XZ
       1582  62D 000FB4A0 ??DQVariantConstPointer@@QEBA?AVQVariant@@XZ
       1583  62E 000955D0 ??E?$QConstIterator@VQMetaAssociation@@@@QEAA?AU0@H@Z
       1584  62F 00095660 ??E?$QConstIterator@VQMetaAssociation@@@@QEAAAEAU0@XZ
       1585  630 000955D0 ??E?$QConstIterator@VQMetaSequence@@@@QEAA?AU0@H@Z
       1586  631 00095660 ??E?$QConstIterator@VQMetaSequence@@@@QEAAAEAU0@XZ
       1587  632 000956A0 ??E?$QIterator@VQMetaAssociation@@@@QEAA?AU0@H@Z
       1588  633 00095750 ??E?$QIterator@VQMetaAssociation@@@@QEAAAEAU0@XZ
       1589  634 000956A0 ??E?$QIterator@VQMetaSequence@@@@QEAA?AU0@H@Z
       1590  635 00095750 ??E?$QIterator@VQMetaSequence@@@@QEAAAEAU0@XZ
       1591  636 00235C50 ??EResultIteratorBase@QtPrivate@@QEAA?AV01@XZ
       1592  637 00095790 ??F?$QConstIterator@VQMetaAssociation@@@@QEAA?AU0@H@Z
       1593  638 00095820 ??F?$QConstIterator@VQMetaAssociation@@@@QEAAAEAU0@XZ
       1594  639 00095790 ??F?$QConstIterator@VQMetaSequence@@@@QEAA?AU0@H@Z
       1595  63A 00095820 ??F?$QConstIterator@VQMetaSequence@@@@QEAAAEAU0@XZ
       1596  63B 00095860 ??F?$QIterator@VQMetaAssociation@@@@QEAA?AU0@H@Z
       1597  63C 00095910 ??F?$QIterator@VQMetaAssociation@@@@QEAAAEAU0@XZ
       1598  63D 00095860 ??F?$QIterator@VQMetaSequence@@@@QEAA?AU0@H@Z
       1599  63E 00095910 ??F?$QIterator@VQMetaSequence@@@@QEAAAEAU0@XZ
       1600  63F 00095950 ??G?$QConstIterator@VQMetaAssociation@@@@QEBA?AU0@_J@Z
       1601  640 000959F0 ??G?$QConstIterator@VQMetaAssociation@@@@QEBA_JAEBU0@@Z
       1602  641 00095950 ??G?$QConstIterator@VQMetaSequence@@@@QEBA?AU0@_J@Z
       1603  642 000959F0 ??G?$QConstIterator@VQMetaSequence@@@@QEBA_JAEBU0@@Z
       1604  643 00095A20 ??G?$QIterator@VQMetaAssociation@@@@QEBA?AU0@_J@Z
       1605  644 000959F0 ??G?$QIterator@VQMetaAssociation@@@@QEBA_JAEBU0@@Z
       1606  645 00095A20 ??G?$QIterator@VQMetaSequence@@@@QEBA?AU0@_J@Z
       1607  646 000959F0 ??G?$QIterator@VQMetaSequence@@@@QEBA_JAEBU0@@Z
       1608  647 00095AD0 ??H?$QConstIterator@VQMetaAssociation@@@@QEBA?AU0@_J@Z
       1609  648 00095AD0 ??H?$QConstIterator@VQMetaSequence@@@@QEBA?AU0@_J@Z
       1610  649 00095B70 ??H?$QIterator@VQMetaAssociation@@@@QEBA?AU0@_J@Z
       1611  64A 00095B70 ??H?$QIterator@VQMetaSequence@@@@QEBA?AU0@_J@Z
       1612  64B 000A3AA0 ??H@YA?AVQDeadlineTimer@@V0@_J@Z
       1613  64C 0001AEA0 ??HQCborArray@@QEBA?AV0@AEBVQCborValue@@@Z
       1614  64D 0001AF00 ??HQJsonArray@@QEBA?AV0@AEBVQJsonValue@@@Z
       1615  64E 0019ED50 ??I@YA?AVQBitArray@@AEBV0@0@Z
       1616  64F 001D8D60 ??IQRect@@QEBA?AV0@AEBV0@@Z
       1617  650 001D8E80 ??IQRectF@@QEBA?AV0@AEBV0@@Z
       1618  651 000A4600 ??M@YA_NAEBVQElapsedTimer@@0@Z
       1619  652 0001AF50 ??MQByteArray@@QEBA_NAEBVQString@@@Z
       1620  653 0001AFA0 ??MQCborArray@@QEBA_NAEBV0@@Z
       1621  654 0001AFA0 ??MQCborMap@@QEBA_NAEBV0@@Z
       1622  655 0001AFC0 ??MQCborValue@@QEBA_NAEBV0@@Z
       1623  656 0001AFE0 ??MQCborValueRef@@QEBA_NAEBVQCborValue@@@Z
       1624  657 0001B030 ??MQPersistentModelIndex@@QEBA_NAEBV0@@Z
       1625  658 0001B050 ??MQString@@QEBA_NAEBVQByteArray@@@Z
       1626  659 0001B0A0 ??MQString@@QEBA_NPEBD@Z
       1627  65A 0001B0E0 ??MQUrl@@QEBA_NAEBV0@@Z
       1628  65B 0001B100 ??MQUuid@@QEBA_NAEBV0@@Z
       1629  65C 0001B1D0 ??NQByteArray@@QEBA_NAEBVQString@@@Z
       1630  65D 0001B220 ??NQString@@QEBA_NAEBVQByteArray@@@Z
       1631  65E 0001B270 ??NQString@@QEBA_NPEBD@Z
       1632  65F 0001B2B0 ??OQByteArray@@QEBA_NAEBVQString@@@Z
       1633  660 0001B300 ??OQString@@QEBA_NAEBVQByteArray@@@Z
       1634  661 0001B350 ??OQString@@QEBA_NPEBD@Z
       1635  662 0001B390 ??OQUuid@@QEBA_NAEBV0@@Z
       1636  663 0001B460 ??PQByteArray@@QEBA_NAEBVQString@@@Z
       1637  664 0001B4B0 ??PQString@@QEBA_NAEBVQByteArray@@@Z
       1638  665 0001B500 ??PQString@@QEBA_NPEBD@Z
       1639  666 0001B540 ??RQCollator@@QEBA_NAEBVQString@@0@Z
       1640  667 0001B580 ??RQCollator@@QEBA_NVQStringView@@0@Z
       1641  668 000020C0 ??RQLoggingCategory@@QEAAAEAV0@XZ
       1642  669 000020C0 ??RQLoggingCategory@@QEBAAEBV0@XZ
       1643  66A 0001B5B0 ??SQBitArray@@QEBA?AV0@XZ
       1644  66B 0019EDA0 ??T@YA?AVQBitArray@@AEBV0@0@Z
       1645  66C 0019EDF0 ??U@YA?AVQBitArray@@AEBV0@0@Z
       1646  66D 001D8FD0 ??UQRect@@QEBA?AV0@AEBV0@@Z
       1647  66E 001D90F0 ??UQRectF@@QEBA?AV0@AEBV0@@Z
       1648  66F 0001B620 ??XQSize@@QEAAAEAV0@N@Z
       1649  670 0001B680 ??XQSizeF@@QEAAAEAV0@N@Z
       1650  671 00095C10 ??Y?$QConstIterator@VQMetaAssociation@@@@QEAAAEAU0@_J@Z
       1651  672 00095C10 ??Y?$QConstIterator@VQMetaSequence@@@@QEAAAEAU0@_J@Z
       1652  673 00095C50 ??Y?$QIterator@VQMetaAssociation@@@@QEAAAEAU0@_J@Z
       1653  674 00095C50 ??Y?$QIterator@VQMetaSequence@@@@QEAAAEAU0@_J@Z
       1654  675 00002FB0 ??YQByteArray@@QEAAAEAV0@AEBV0@@Z
       1655  676 00002FC0 ??YQByteArray@@QEAAAEAV0@D@Z
       1656  677 00002FD0 ??YQByteArray@@QEAAAEAV0@PEBD@Z
       1657  678 00003020 ??YQByteArray@@QEAAAEAV0@VQByteArrayView@@@Z
       1658  679 00019A20 ??YQCborArray@@QEAAAEAV0@AEBVQCborValue@@@Z
       1659  67A 00015390 ??YQDateTime@@QEAAAEAV0@V?$duration@_JU?$ratio@$00$0DOI@@std@@@chrono@std@@@Z
       1660  67B 00003040 ??YQDeadlineTimer@@QEAAAEAV0@_J@Z
       1661  67C 00019A50 ??YQJsonArray@@QEAAAEAV0@AEBVQJsonValue@@@Z
       1662  67D 0001B6A0 ??YQRect@@QEAAAEAV0@AEBVQMargins@@@Z
       1663  67E 0001B6E0 ??YQRectF@@QEAAAEAV0@AEBVQMarginsF@@@Z
       1664  67F 0001B730 ??YQSize@@QEAAAEAV0@AEBV0@@Z
       1665  680 0001B740 ??YQSizeF@@QEAAAEAV0@AEBV0@@Z
       1666  681 00003080 ??YQString@@QEAAAEAV0@AEBV0@@Z
       1667  682 00003090 ??YQString@@QEAAAEAV0@AEBVQByteArray@@@Z
       1668  683 000030C0 ??YQString@@QEAAAEAV0@PEBD@Z
       1669  684 00003100 ??YQString@@QEAAAEAV0@V?$QBasicUtf8StringView@$0A@@@@Z
       1670  685 00003120 ??YQString@@QEAAAEAV0@VQChar@@@Z
       1671  686 00003130 ??YQString@@QEAAAEAV0@VQLatin1String@@@Z
       1672  687 00003150 ??YQString@@QEAAAEAV0@VQStringView@@@Z
       1673  688 00095C90 ??Z?$QConstIterator@VQMetaAssociation@@@@QEAAAEAU0@_J@Z
       1674  689 00095C90 ??Z?$QConstIterator@VQMetaSequence@@@@QEAAAEAU0@_J@Z
       1675  68A 00095CD0 ??Z?$QIterator@VQMetaAssociation@@@@QEAAAEAU0@_J@Z
       1676  68B 00095CD0 ??Z?$QIterator@VQMetaSequence@@@@QEAAAEAU0@_J@Z
       1677  68C 000153D0 ??ZQDateTime@@QEAAAEAV0@V?$duration@_JU?$ratio@$00$0DOI@@std@@@chrono@std@@@Z
       1678  68D 00003160 ??ZQDeadlineTimer@@QEAAAEAV0@_J@Z
       1679  68E 0001B760 ??ZQRect@@QEAAAEAV0@AEBVQMargins@@@Z
       1680  68F 0001B7A0 ??ZQRectF@@QEAAAEAV0@AEBVQMarginsF@@@Z
       1681  690 0001B7F0 ??ZQSize@@QEAAAEAV0@AEBV0@@Z
       1682  691 0001B800 ??ZQSizeF@@QEAAAEAV0@AEBV0@@Z
       1683  692 0001B820 ??_0QSize@@QEAAAEAV0@N@Z
       1684  693 0001B880 ??_0QSizeF@@QEAAAEAV0@N@Z
       1685  694 0019EE40 ??_4QBitArray@@QEAAAEAV0@$$QEAV0@@Z
       1686  695 0019EEF0 ??_4QBitArray@@QEAAAEAV0@AEBV0@@Z
       1687  696 0001B8A0 ??_4QRect@@QEAAAEAV0@AEBV0@@Z
       1688  697 0001B8D0 ??_4QRectF@@QEAAAEAV0@AEBV0@@Z
       1689  698 0019EF20 ??_5QBitArray@@QEAAAEAV0@$$QEAV0@@Z
       1690  699 0019EFD0 ??_5QBitArray@@QEAAAEAV0@AEBV0@@Z
       1691  69A 0001B900 ??_5QRect@@QEAAAEAV0@AEBV0@@Z
       1692  69B 0001B930 ??_5QRectF@@QEAAAEAV0@AEBV0@@Z
       1693  69C 0019F000 ??_6QBitArray@@QEAAAEAV0@$$QEAV0@@Z
       1694  69D 0019F0B0 ??_6QBitArray@@QEAAAEAV0@AEBV0@@Z
       1695  69E 00465930 ??_7QAbstractAnimation@@6B@
       1696  69F 00465A30 ??_7QAbstractAnimationPrivate@@6B@
       1697  6A0 00465AF0 ??_7QAbstractAnimationTimer@@6B@
       1698  6A1 003A9D08 ??_7QAbstractDynamicMetaObject@@6B@
       1699  6A2 003B34D8 ??_7QAbstractEventDispatcher@@6B@
       1700  6A3 003B3680 ??_7QAbstractEventDispatcherPrivate@@6B@
       1701  6A4 003B3598 ??_7QAbstractEventDispatcherV2@@6B@
       1702  6A5 003AE6D8 ??_7QAbstractFileEngine@@6B@
       1703  6A6 003AE818 ??_7QAbstractFileEngineHandler@@6B@
       1704  6A7 003AE830 ??_7QAbstractFileEngineIterator@@6B@
       1705  6A8 0048BDC8 ??_7QAbstractItemModel@@6B@
       1706  6A9 0048C260 ??_7QAbstractItemModelPrivate@@6B@
       1707  6AA 0048C0D8 ??_7QAbstractListModel@@6B@
       1708  6AB 003A9CB8 ??_7QAbstractMetaCallEvent@@6B@
       1709  6AC 003B36A0 ??_7QAbstractNativeEventFilter@@6B@
       1710  6AD 0048DD68 ??_7QAbstractProxyModel@@6B@
       1711  6AE 0048DF18 ??_7QAbstractProxyModelPrivate@@6B@
       1712  6AF 0048BF50 ??_7QAbstractTableModel@@6B@
       1713  6B0 004659B0 ??_7QAnimationDriver@@6B@
       1714  6B1 00465AD0 ??_7QAnimationDriverPrivate@@6B@
       1715  6B2 00466008 ??_7QAnimationGroup@@6B@
       1716  6B3 003AE960 ??_7QBuffer@@6B@
       1717  6B4 003F59B8 ??_7QCalendarBackend@@6B@
       1718  6B5 003B5FE8 ??_7QChildEvent@@6B@
       1719  6B6 003B3B50 ??_7QChronoTimer@@6B@
       1720  6B7 0048E418 ??_7QConcatenateTablesProxyModel@@6B@
       1721  6B8 003B40A0 ??_7QCoreApplication@@6B@
       1722  6B9 003B4110 ??_7QCoreApplicationPrivate@@6B@
       1723  6BA 00441EB8 ??_7QDaemonThread@@6B@
       1724  6BB 003F5980 ??_7QDateTimeParser@@6B@
       1725  6BC 003A9CE0 ??_7QDynamicMetaObjectData@@6B@
       1726  6BD 003B6008 ??_7QDynamicPropertyChangeEvent@@6B@
       1727  6BE 0039E908 ??_7QEvent@@6B@
       1728  6BF 0046B9A8 ??_7QEventDispatcherWin32@@6B@
       1729  6C0 0046BA90 ??_7QEventDispatcherWin32Private@@6B@
       1730  6C1 003B6370 ??_7QEventLoop@@6B@
       1731  6C2 0046C7F0 ??_7QException@@6B@
       1732  6C3 003AFA90 ??_7QFSFileEngine@@6B@
       1733  6C4 003BB268 ??_7QFactoryInterface@@6B@
       1734  6C5 003BB338 ??_7QFactoryLoader@@6B@
       1735  6C6 003AF1C8 ??_7QFile@@6B@
       1736  6C7 003AF678 ??_7QFileDevice@@6B@
       1737  6C8 003AF9D8 ??_7QFileSelector@@6B@
       1738  6C9 003AFA38 ??_7QFileSelectorPrivate@@6B@
       1739  6CA 004870C8 ??_7QFileSystemWatcher@@6B@
       1740  6CB 0046C960 ??_7QFutureCallOutEvent@@6B@
       1741  6CC 0046C980 ??_7QFutureCallOutInterface@@6B@
       1742  6CD 003B4158 ??_7QFutureInterfaceBase@@6B@
       1743  6CE 0046D118 ??_7QFutureWatcherBase@@6B@
       1744  6CF 003A9C40 ??_7QGenericRunnable@QRunnable@@6B@
       1745  6D0 003F5B68 ??_7QGregorianCalendar@@6B@
       1746  6D1 00442650 ??_7QHijriCalendar@@6B@
       1747  6D2 003AFFC0 ??_7QIODevice@@6B@
       1748  6D3 003B00A8 ??_7QIODevicePrivate@@6B@
       1749  6D4 0048E728 ??_7QIdentityProxyModel@@6B@
       1750  6D5 0048E8D8 ??_7QIdentityProxyModelPrivate@@6B@
       1751  6D6 00442728 ??_7QIslamicCivilCalendar@@6B@
       1752  6D7 0048D4B8 ??_7QItemSelectionModel@@6B@
       1753  6D8 00442578 ??_7QJalaliCalendar@@6B@
       1754  6D9 004423C8 ??_7QJulianCalendar@@6B@
       1755  6DA 0048FE90 ??_7QLibrary@@6B@
       1756  6DB 003B8FC8 ??_7QMetaCallEvent@@6B@
       1757  6DC 003B7468 ??_7QMetaObjectBuilder@@6B@
       1758  6DD 003B6DE0 ??_7QMetaTypeModuleHelper@@6B@
       1759  6DE 004424A0 ??_7QMilankovicCalendar@@6B@
       1760  6DF 003B8B48 ??_7QMimeData@@6B@
       1761  6E0 003B0C78 ??_7QNonContiguousByteDevice@@6B@
       1762  6E1 003B8F48 ??_7QObject@@6B@
       1763  6E2 003B9E18 ??_7QObjectCleanupHandler@@6B@
       1764  6E3 0039E928 ??_7QObjectData@@6B@
       1765  6E4 003B8FA8 ??_7QObjectPrivate@@6B@
       1766  6E5 00466308 ??_7QParallelAnimationGroup@@6B@
       1767  6E6 004664F8 ??_7QPauseAnimation@@6B@
       1768  6E7 003B4168 ??_7QPermissionPlugin@@6B@
       1769  6E8 003BB748 ??_7QPluginLoader@@6B@
       1770  6E9 00488608 ??_7QProcess@@6B@
       1771  6EA 00466788 ??_7QPropertyAnimation@@6B@
       1772  6EB 003F5A90 ??_7QRomanCalendar@@6B@
       1773  6EC 003A9C28 ??_7QRunnable@@6B@
       1774  6ED 003B1508 ??_7QSaveFile@@6B@
       1775  6EE 00466D18 ??_7QSequentialAnimationGroup@@6B@
       1776  6EF 00489270 ??_7QSettings@@6B@
       1777  6F0 003AE0B0 ??_7QSharedMemory@@6B@
       1778  6F1 003BA2F8 ??_7QSignalMapper@@6B@
       1779  6F2 003BA780 ??_7QSocketNotifier@@6B@
       1780  6F3 0048F198 ??_7QSortFilterProxyModel@@6B@
       1781  6F4 0048FA68 ??_7QStringListModel@@6B@
       1782  6F5 003F5918 ??_7QSystemLocale@@6B@
       1783  6F6 003B21D8 ??_7QTemporaryFile@@6B@
       1784  6F7 003BCED8 ??_7QTextStream@@6B@
       1785  6F8 00441E50 ??_7QThread@@6B@
       1786  6F9 0046C518 ??_7QThreadPool@@6B@
       1787  6FA 0046C578 ??_7QThreadPoolPrivate@@6B@
       1788  6FB 0046EC20 ??_7QTimeLine@@6B@
       1789  6FC 003BAD38 ??_7QTimer@@6B@
       1790  6FD 003B5FC8 ??_7QTimerEvent@@6B@
       1791  6FE 003BAF78 ??_7QTranslator@@6B@
       1792  6FF 0048F7C8 ??_7QTransposeProxyModel@@6B@
       1793  700 0046C818 ??_7QUnhandledException@@6B@
       1794  701 00465B68 ??_7QUnifiedTimer@@6B@
       1795  702 00467118 ??_7QVariantAnimation@@6B@
       1796  703 0046BF48 ??_7QWinEventNotifier@@6B@
       1797  704 004678E0 ??_7QWindowsPipeReader@@6B@
       1798  705 00467B40 ??_7QWindowsPipeWriter@@6B@
       1799  706 003A9C08 ??_7QXmlStreamEntityResolver@@6B@
       1800  707 003A9DB0 ??_7ResultStoreBase@QtPrivate@@6B@
       1801  708 001FA450 ??_FQAbstractAnimation@@QEAAXXZ
       1802  709 000932D0 ??_FQAbstractEventDispatcher@@QEAAXXZ
       1803  70A 00093310 ??_FQAbstractEventDispatcherV2@@QEAAXXZ
       1804  70B 0001BD50 ??_FQAbstractItemModel@@QEAAXXZ
       1805  70C 0001BD60 ??_FQAbstractListModel@@QEAAXXZ
       1806  70D 002CEB20 ??_FQAbstractProxyModel@@QEAAXXZ
       1807  70E 0001BD70 ??_FQAbstractTableModel@@QEAAXXZ
       1808  70F 001FA4E0 ??_FQAnimationDriver@@QEAAXXZ
       1809  710 001FA560 ??_FQAnimationGroup@@QEAAXXZ
       1810  711 0001BD80 ??_FQBuffer@@QEAAXXZ
       1811  712 00098260 ??_FQChronoTimer@@QEAAXXZ
       1812  713 0020D0A0 ??_FQComHelper@@QEAAXXZ
       1813  714 002D2C20 ??_FQConcatenateTablesProxyModel@@QEAAXXZ
       1814  715 00093360 ??_FQDaemonThread@@QEAAXXZ
       1815  716 0001BD90 ??_FQDir@@QEAAXXZ
       1816  717 0001BDE0 ??_FQEasingCurve@@QEAAXXZ
       1817  718 0009AA10 ??_FQEventDispatcherWin32@@QEAAXXZ
       1818  719 00003230 ??_FQEventLoop@@QEAAXXZ
       1819  71A 000585A0 ??_FQFileSelector@@QEAAXXZ
       1820  71B 002715D0 ??_FQFileSystemWatcher@@QEAAXXZ
       1821  71C 0009AA20 ??_FQFutureInterfaceBase@@QEAAXXZ
       1822  71D 00234630 ??_FQFutureWatcherBase@@QEAAXXZ
       1823  71E 00003240 ??_FQGenericArgument@@QEAAXXZ
       1824  71F 00003240 ??_FQGenericReturnArgument@@QEAAXXZ
       1825  720 002D71B0 ??_FQIdentityProxyModel@@QEAAXXZ
       1826  721 0001BDF0 ??_FQItemSelectionModel@@QEAAXXZ
       1827  722 0001BE00 ??_FQJsonValue@@QEAAXXZ
       1828  723 001036E0 ??_FQLibrary@@QEAAXXZ
       1829  724 00003250 ??_FQObject@@QEAAXXZ
       1830  725 0001BE10 ??_FQObjectPrivate@@QEAAXXZ
       1831  726 001FF9A0 ??_FQParallelAnimationGroup@@QEAAXXZ
       1832  727 00201140 ??_FQPauseAnimation@@QEAAXXZ
       1833  728 001036F0 ??_FQPluginLoader@@QEAAXXZ
       1834  729 0001BE20 ??_FQProcess@@QEAAXXZ
       1835  72A 002028F0 ??_FQPropertyAnimation@@QEAAXXZ
       1836  72B 0001BE30 ??_FQReadWriteLock@@QEAAXXZ
       1837  72C 00028100 ??_FQResource@@QEAAXXZ
       1838  72D 000752A0 ??_FQSaveFile@@QEAAXXZ
       1839  72E 0001BE40 ??_FQSemaphore@@QEAAXXZ
       1840  72F 00205810 ??_FQSequentialAnimationGroup@@QEAAXXZ
       1841  730 0001BE50 ??_FQSettings@@QEAAXXZ
       1842  731 0001BE60 ??_FQSharedMemory@@QEAAXXZ
       1843  732 000F0B80 ??_FQSignalMapper@@QEAAXXZ
       1844  733 002E43C0 ??_FQSortFilterProxyModel@@QEAAXXZ
       1845  734 002FA560 ??_FQStringListModel@@QEAAXXZ
       1846  735 0001BE70 ??_FQThread@@QEAAXXZ
       1847  736 0001BE80 ??_FQThreadPool@@QEAAXXZ
       1848  737 0024D4B0 ??_FQTimeLine@@QEAAXXZ
       1849  738 00003260 ??_FQTimer@@QEAAXXZ
       1850  739 0002BA20 ??_FQTranslator@@QEAAXXZ
       1851  73A 002F5B00 ??_FQTransposeProxyModel@@QEAAXXZ
       1852  73B 0022F350 ??_FQUnhandledException@@QEAAXXZ
       1853  73C 00202980 ??_FQVariantAnimation@@QEAAXXZ
       1854  73D 002262B0 ??_FQWinEventNotifier@@QEAAXXZ
       1855  73E 0021A110 ??_FQWindowsPipeReader@@QEAAXXZ
       1856  73F 003AD9D0 ?Android10@QOperatingSystemVersion@@2V1@B
       1857  740 003AD9E0 ?Android11@QOperatingSystemVersion@@2V1@B
       1858  741 003A97B8 ?Android12@QOperatingSystemVersion@@2VQOperatingSystemVersionBase@@B
       1859  742 003A97C8 ?Android12L@QOperatingSystemVersion@@2VQOperatingSystemVersionBase@@B
       1860  743 003A97D8 ?Android13@QOperatingSystemVersion@@2VQOperatingSystemVersionBase@@B
       1861  744 003AD910 ?AndroidJellyBean@QOperatingSystemVersion@@2V1@B
       1862  745 003AD920 ?AndroidJellyBean_MR1@QOperatingSystemVersion@@2V1@B
       1863  746 003AD930 ?AndroidJellyBean_MR2@QOperatingSystemVersion@@2V1@B
       1864  747 003AD940 ?AndroidKitKat@QOperatingSystemVersion@@2V1@B
       1865  748 003AD950 ?AndroidLollipop@QOperatingSystemVersion@@2V1@B
       1866  749 003AD960 ?AndroidLollipop_MR1@QOperatingSystemVersion@@2V1@B
       1867  74A 003AD970 ?AndroidMarshmallow@QOperatingSystemVersion@@2V1@B
       1868  74B 003AD980 ?AndroidNougat@QOperatingSystemVersion@@2V1@B
       1869  74C 003AD990 ?AndroidNougat_MR1@QOperatingSystemVersion@@2V1@B
       1870  74D 003AD9A0 ?AndroidOreo@QOperatingSystemVersion@@2V1@B
       1871  74E 003AD9B0 ?AndroidOreo_MR1@QOperatingSystemVersion@@2V1@B
       1872  74F 003AD9C0 ?AndroidPie@QOperatingSystemVersion@@2V1@B
       1873  750 003A9B90 ?BinaryFormatTag@QJsonDocument@@2IB
       1874  751 003A9B98 ?BindingBit@QPropertyBindingData@QtPrivate@@2_KB
       1875  752 003A9AC0 ?DefaultTwoDigitBaseYear@QLocale@@2HB
       1876  753 003A9BA0 ?DelayedNotificationBit@QPropertyBindingData@QtPrivate@@2_KB
       1877  754 0039E868 ?ExtendedSize@QDataStream@@0IB
       1878  755 003EFD20 ?FirstSectionIndex@QDateTimeParser@@2HB
       1879  756 0039E860 ?Forever@QDeadlineTimer@@2W4ForeverConstant@1@B
       1880  757 003EFD24 ?LastSectionIndex@QDateTimeParser@@2HB
       1881  758 003AD8F0 ?MacOSBigSur@QOperatingSystemVersion@@2V1@B
       1882  759 003AD8E0 ?MacOSCatalina@QOperatingSystemVersion@@2V1@B
       1883  75A 003AD8C0 ?MacOSHighSierra@QOperatingSystemVersion@@2V1@B
       1884  75B 003AD8D0 ?MacOSMojave@QOperatingSystemVersion@@2V1@B
       1885  75C 003AD900 ?MacOSMonterey@QOperatingSystemVersion@@2V1@B
       1886  75D 003AD8B0 ?MacOSSierra@QOperatingSystemVersion@@2V1@B
       1887  75E 003A97E8 ?MacOSVentura@QOperatingSystemVersion@@2VQOperatingSystemVersionBase@@B
       1888  75F 003A9BAC ?MaxUtcOffsetSecs@QTimeZone@@2HB
       1889  760 003A9BA8 ?MinUtcOffsetSecs@QTimeZone@@2HB
       1890  761 003EFD1C ?NoSectionIndex@QDateTimeParser@@2HB
       1891  762 0039E864 ?NullCode@QDataStream@@0IB
       1892  763 003AD8A0 ?OSXElCapitan@QOperatingSystemVersion@@2V1@B
       1893  764 003AD880 ?OSXMavericks@QOperatingSystemVersion@@2V1@B
       1894  765 003AD890 ?OSXYosemite@QOperatingSystemVersion@@2V1@B
       1895  766 0001BE90 ?QByteArrayList_join@QtPrivate@@YA?AVQByteArray@@PEBV?$QList@VQByteArray@@@@PEBDH@Z
       1896  767 0013E5F0 ?QByteArrayList_join@QtPrivate@@YA?AVQByteArray@@PEBV?$QList@VQByteArray@@@@PEBD_J@Z
       1897  768 0017F650 ?QStringList_contains@QtPrivate@@YA_NPEBV?$QList@VQString@@@@VQLatin1String@@W4CaseSensitivity@Qt@@@Z
       1898  769 0017F6E0 ?QStringList_contains@QtPrivate@@YA_NPEBV?$QList@VQString@@@@VQStringView@@W4CaseSensitivity@Qt@@@Z
       1899  76A 0017F780 ?QStringList_filter@QtPrivate@@YA?AV?$QList@VQString@@@@AEBV2@AEBVQStringMatcher@@@Z
       1900  76B 0017FBA0 ?QStringList_filter@QtPrivate@@YA?AV?$QList@VQString@@@@AEBV2@VQLatin1String@@W4CaseSensitivity@Qt@@@Z
       1901  76C 0017FBC0 ?QStringList_filter@QtPrivate@@YA?AV?$QList@VQString@@@@PEBV2@AEBVQRegularExpression@@@Z
       1902  76D 0017FFD0 ?QStringList_filter@QtPrivate@@YA?AV?$QList@VQString@@@@PEBV2@VQStringView@@W4CaseSensitivity@Qt@@@Z
       1903  76E 0017FFF0 ?QStringList_indexOf@QtPrivate@@YA_JAEBV?$QList@VQString@@@@VQLatin1String@@_JW4CaseSensitivity@Qt@@@Z
       1904  76F 001800B0 ?QStringList_indexOf@QtPrivate@@YA_JAEBV?$QList@VQString@@@@VQStringView@@_JW4CaseSensitivity@Qt@@@Z
       1905  770 00180170 ?QStringList_indexOf@QtPrivate@@YA_JPEBV?$QList@VQString@@@@AEBVQRegularExpression@@_J@Z
       1906  771 001802D0 ?QStringList_join@QtPrivate@@YA?AVQString@@AEBV?$QList@VQString@@@@VQLatin1String@@@Z
       1907  772 001803F0 ?QStringList_join@QtPrivate@@YA?AVQString@@PEBV?$QList@VQString@@@@PEBVQChar@@_J@Z
       1908  773 001804F0 ?QStringList_join@QtPrivate@@YA?AVQString@@PEBV?$QList@VQString@@@@VQStringView@@@Z
       1909  774 00180510 ?QStringList_lastIndexOf@QtPrivate@@YA_JAEBV?$QList@VQString@@@@VQLatin1String@@_JW4CaseSensitivity@Qt@@@Z
       1910  775 001805D0 ?QStringList_lastIndexOf@QtPrivate@@YA_JAEBV?$QList@VQString@@@@VQStringView@@_JW4CaseSensitivity@Qt@@@Z
       1911  776 00180690 ?QStringList_lastIndexOf@QtPrivate@@YA_JPEBV?$QList@VQString@@@@AEBVQRegularExpression@@_J@Z
       1912  777 001807F0 ?QStringList_removeDuplicates@QtPrivate@@YA_JPEAV?$QList@VQString@@@@@Z
       1913  778 00180A20 ?QStringList_replaceInStrings@QtPrivate@@YAXPEAV?$QList@VQString@@@@AEBVQRegularExpression@@AEBVQString@@@Z
       1914  779 00180AF0 ?QStringList_replaceInStrings@QtPrivate@@YAXPEAV?$QList@VQString@@@@VQStringView@@1W4CaseSensitivity@Qt@@@Z
       1915  77A 00180C20 ?QStringList_sort@QtPrivate@@YAXPEAV?$QList@VQString@@@@W4CaseSensitivity@Qt@@@Z
       1916  77B 003AD870 ?Windows10@QOperatingSystemVersion@@2V1@B
       1917  77C 003A9708 ?Windows10_1809@QOperatingSystemVersion@@2VQOperatingSystemVersionBase@@B
       1918  77D 003A9718 ?Windows10_1903@QOperatingSystemVersion@@2VQOperatingSystemVersionBase@@B
       1919  77E 003A9728 ?Windows10_1909@QOperatingSystemVersion@@2VQOperatingSystemVersionBase@@B
       1920  77F 003A9738 ?Windows10_2004@QOperatingSystemVersion@@2VQOperatingSystemVersionBase@@B
       1921  780 003A9748 ?Windows10_20H2@QOperatingSystemVersion@@2VQOperatingSystemVersionBase@@B
       1922  781 003A9758 ?Windows10_21H1@QOperatingSystemVersion@@2VQOperatingSystemVersionBase@@B
       1923  782 003A9768 ?Windows10_21H2@QOperatingSystemVersion@@2VQOperatingSystemVersionBase@@B
       1924  783 003A9778 ?Windows10_22H2@QOperatingSystemVersion@@2VQOperatingSystemVersionBase@@B
       1925  784 003A9788 ?Windows11@QOperatingSystemVersion@@2VQOperatingSystemVersionBase@@B
       1926  785 003A9798 ?Windows11_21H2@QOperatingSystemVersion@@2VQOperatingSystemVersionBase@@B
       1927  786 003A97A8 ?Windows11_22H2@QOperatingSystemVersion@@2VQOperatingSystemVersionBase@@B
       1928  787 003AD840 ?Windows7@QOperatingSystemVersion@@2V1@B
       1929  788 003AD850 ?Windows8@QOperatingSystemVersion@@2V1@B
       1930  789 003AD860 ?Windows8_1@QOperatingSystemVersion@@2V1@B
       1931  78A 00302110 ?_currentStringChunkSize@QCborStreamReader@@AEBA_JXZ
       1932  78B 003BD5C3 ?_empty@QByteArray@@0DB
       1933  78C 003F6A30 ?_empty@QString@@0_SB
       1934  78D 003021A0 ?_enterContainer_helper@QCborStreamReader@@AEAA_NXZ
       1935  78E 00031960 ?_fillRange@QRandomGenerator@@AEAA_KPEAX_J@Z
       1936  78F 002CEB30 ?_q_sourceModelColumnsAboutToBeInserted@QAbstractProxyModelPrivate@@QEAAXAEBVQModelIndex@@HH@Z
       1937  790 002CEBF0 ?_q_sourceModelColumnsInserted@QAbstractProxyModelPrivate@@QEAAXAEBVQModelIndex@@HH@Z
       1938  791 002CECE0 ?_q_sourceModelColumnsRemoved@QAbstractProxyModelPrivate@@QEAAXAEBVQModelIndex@@HH@Z
       1939  792 002CEE50 ?_q_sourceModelDestroyed@QAbstractProxyModelPrivate@@UEAAXXZ
       1940  793 002CEF00 ?_q_sourceModelRowsAboutToBeInserted@QAbstractProxyModelPrivate@@QEAAXAEBVQModelIndex@@HH@Z
       1941  794 002CEFB0 ?_q_sourceModelRowsInserted@QAbstractProxyModelPrivate@@QEAAXAEBVQModelIndex@@HH@Z
       1942  795 002CF0A0 ?_q_sourceModelRowsRemoved@QAbstractProxyModelPrivate@@QEAAXAEBVQModelIndex@@HH@Z
       1943  796 001FA670 ?_qt_property_currentLoop_offset@QAbstractAnimationPrivate@@SA_KXZ
       1944  797 001FA680 ?_qt_property_direction_offset@QAbstractAnimationPrivate@@SA_KXZ
       1945  798 001FA690 ?_qt_property_loopCount_offset@QAbstractAnimationPrivate@@SA_KXZ
       1946  799 002CF210 ?_qt_property_model_offset@QAbstractProxyModelPrivate@@SA_KXZ
       1947  79A 001FA6A0 ?_qt_property_state_offset@QAbstractAnimationPrivate@@SA_KXZ
       1948  79B 001FA6B0 ?_qt_property_totalCurrentTime_offset@QAbstractAnimationPrivate@@SA_KXZ
       1949  79C 00302270 ?_readAndAppendToByteArray_helper@QCborStreamReader@@AEAA_NAEAVQByteArray@@@Z
       1950  79D 00302320 ?_readAndAppendToString_helper@QCborStreamReader@@AEAA_NAEAVQString@@@Z
       1951  79E 003023D0 ?_readAndAppendToUtf8String_helper@QCborStreamReader@@AEAA_NAEAVQByteArray@@@Z
       1952  79F 00302480 ?_readByteArray_helper@QCborStreamReader@@AEAA?AU?$StringResult@VQByteArray@@@1@XZ
       1953  7A0 00302520 ?_readString_helper@QCborStreamReader@@AEAA?AU?$StringResult@VQString@@@1@XZ
       1954  7A1 003025E0 ?_readUtf8String_helper@QCborStreamReader@@AEAA?AU?$StringResult@VQByteArray@@@1@XZ
       1955  7A2 0019AAF0 ?abbreviation@QTimeZone@@QEBA?AVQString@@AEBVQDateTime@@@Z
       1956  7A3 0011AEC0 ?abortTransaction@QDataStream@@QEAAXXZ
       1957  7A4 00093370 ?aboutToBlock@QAbstractEventDispatcher@@QEAAXXZ
       1958  7A5 00062680 ?aboutToClose@QIODevice@@QEAAXXZ
       1959  7A6 0009ADC0 ?aboutToQuit@QCoreApplication@@QEAAXUQPrivateSignal@1@@Z
       1960  7A7 000553C0 ?absoluteDir@QFileInfo@@QEBA?AVQDir@@XZ
       1961  7A8 0004CBE0 ?absoluteFilePath@DirEntry@QDirListing@@QEBA?AVQString@@XZ
       1962  7A9 00043190 ?absoluteFilePath@QDir@@QEBA?AVQString@@AEBV2@@Z
       1963  7AA 00055450 ?absoluteFilePath@QFileInfo@@QEBA?AVQString@@XZ
       1964  7AB 0006FE40 ?absoluteFilePath@QResource@@QEBA?AVQString@@XZ
       1965  7AC 00267D50 ?absoluteMax@QDateTimeParser@@IEBAHHAEBVQDateTime@@@Z
       1966  7AD 00268020 ?absoluteMin@QDateTimeParser@@IEBAHH@Z
       1967  7AE 0004CC10 ?absolutePath@DirEntry@QDirListing@@QEBA?AVQString@@XZ
       1968  7AF 000433F0 ?absolutePath@QDir@@QEBA?AVQString@@XZ
       1969  7B0 000554B0 ?absolutePath@QFileInfo@@QEBA?AVQString@@XZ
       1970  7B1 000A67B0 ?absoluteSignalCount@QMetaObjectPrivate@@SAHPEBUQMetaObject@@@Z
       1971  7B2 00003300 ?accept@QEvent@@QEAAXXZ
       1972  7B3 000A6810 ?access@QMetaMethod@@QEBA?AW4Access@1@XZ
       1973  7B4 000B4F60 ?access@QMetaMethodBuilder@@QEBA?AW4Access@QMetaMethod@@XZ
       1974  7B5 00003880 ?accessMode@QCalendarPermission@@QEBA?AW4AccessMode@1@XZ
       1975  7B6 00003880 ?accessMode@QContactsPermission@@QEBA?AW4AccessMode@1@XZ
       1976  7B7 00003880 ?accuracy@QLocationPermission@@QEBA?AW4Accuracy@1@XZ
       1977  7B8 0022AB30 ?acquire@QSemaphore@@QEAAXH@Z
       1978  7B9 00036420 ?acquire@QSystemSemaphore@@QEAA_NXZ
       1979  7BA 000DDF10 ?activate@QMetaObject@@SAXPEAVQObject@@HHPEAPEAX@Z
       1980  7BB 000DDF30 ?activate@QMetaObject@@SAXPEAVQObject@@HPEAPEAX@Z
       1981  7BC 000DE020 ?activate@QMetaObject@@SAXPEAVQObject@@PEBU1@HPEAPEAX@Z
       1982  7BD 00026510 ?activateCallbacks@QInternal@@SA_NW4Callback@1@PEAPEAX@Z
       1983  7BE 000F33F0 ?activated@QSocketNotifier@@QEAAXHUQPrivateSignal@1@@Z
       1984  7BF 000F3450 ?activated@QSocketNotifier@@QEAAXVQSocketDescriptor@@W4Type@1@UQPrivateSignal@1@@Z
       1985  7C0 002263B0 ?activated@QWinEventNotifier@@QEAAXPEAXUQPrivateSignal@1@@Z
       1986  7C1 0022BBB0 ?activeThreadCount@QThreadPool@@QEBAHXZ
       1987  7C2 0022BC50 ?activeThreadCount@QThreadPoolPrivate@@QEBAHXZ
       1988  7C3 000EA1B0 ?add@QObjectCleanupHandler@@QEAAPEAVQObject@@PEAV2@@Z
       1989  7C4 001FEFE0 ?addAnimation@QAnimationGroup@@QEAAXPEAVQAbstractAnimation@@@Z
       1990  7C5 0001BEB0 ?addCanceledResult@ResultStoreBase@QtPrivate@@QEAAHH@Z
       1991  7C6 000B5010 ?addClassInfo@QMetaObjectBuilder@@QEAAHAEBVQByteArray@@0@Z
       1992  7C7 000DE0C0 ?addConnection@QObjectPrivate@@QEAAXHPEAUConnection@1@@Z
       1993  7C8 000B50C0 ?addConstructor@QMetaObjectBuilder@@QEAA?AVQMetaMethodBuilder@@AEBVQByteArray@@@Z
       1994  7C9 000B5310 ?addConstructor@QMetaObjectBuilder@@QEAA?AVQMetaMethodBuilder@@AEBVQMetaMethod@@@Z
       1995  7CA 00247B50 ?addCubicBezierSegment@QEasingCurve@@QEAAXAEBVQPointF@@00@Z
       1996  7CB 00302680 ?addData@QCborStreamReader@@QEAAXAEBVQByteArray@@@Z
       1997  7CC 00302710 ?addData@QCborStreamReader@@QEAAXPEBD_J@Z
       1998  7CD 0001BEF0 ?addData@QCborStreamReader@@QEAAXPEBE_J@Z
       1999  7CE 0001BF00 ?addData@QCryptographicHash@@QEAAXAEBVQByteArray@@@Z
       2000  7CF 001CE1B0 ?addData@QCryptographicHash@@QEAAXPEBD_J@Z
       2001  7D0 001CE1F0 ?addData@QCryptographicHash@@QEAAXVQByteArrayView@@@Z
       2002  7D1 001CE230 ?addData@QCryptographicHash@@QEAA_NPEAVQIODevice@@@Z
       2003  7D2 0001BF30 ?addData@QMessageAuthenticationCode@@QEAAXAEBVQByteArray@@@Z
       2004  7D3 001CE320 ?addData@QMessageAuthenticationCode@@QEAAXPEBD_J@Z
       2005  7D4 001CE360 ?addData@QMessageAuthenticationCode@@QEAAXVQByteArrayView@@@Z
       2006  7D5 001CE3A0 ?addData@QMessageAuthenticationCode@@QEAA_NPEAVQIODevice@@@Z
       2007  7D6 0001BF60 ?addData@QXmlStreamReader@@QEAAXAEBVQByteArray@@@Z
       2008  7D7 0001BF70 ?addData@QXmlStreamReader@@QEAAXAEBVQString@@@Z
       2009  7D8 0001BFB0 ?addData@QXmlStreamReader@@QEAAXPEBD@Z
       2010  7D9 001E3FB0 ?addData@QXmlStreamReader@@QEAAXVQAnyStringView@@@Z
       2011  7DA 001E3FE0 ?addDataImpl@QXmlStreamReader@@AEAAXAEBVQByteArray@@@Z
       2012  7DB 0018AC50 ?addDays@QDate@@QEBA?AV1@_J@Z
       2013  7DC 0018ACD0 ?addDays@QDateTime@@QEBA?AV1@_J@Z
       2014  7DD 0008F030 ?addDirectory@QZipWriter@@QEAAXAEBVQString@@@Z
       2015  7DE 00015410 ?addDuration@QDateTime@@QEBA?AV1@V?$duration@_JU?$ratio@$00$0DOI@@std@@@chrono@std@@@Z
       2016  7DF 000B5690 ?addEnumerator@QMetaObjectBuilder@@QEAA?AVQMetaEnumBuilder@@AEBVQByteArray@@@Z
       2017  7E0 000B58B0 ?addEnumerator@QMetaObjectBuilder@@QEAA?AVQMetaEnumBuilder@@AEBVQMetaEnum@@@Z
       2018  7E1 001E4400 ?addExtraNamespaceDeclaration@QXmlStreamReader@@QEAAXAEBVQXmlStreamNamespaceDeclaration@@@Z
       2019  7E2 001E45D0 ?addExtraNamespaceDeclarations@QXmlStreamReader@@QEAAXAEBV?$QList@VQXmlStreamNamespaceDeclaration@@@@@Z
       2020  7E3 0008F980 ?addFile@QZipWriter@@QEAAXAEBVQString@@AEBVQByteArray@@@Z
       2021  7E4 0008F9E0 ?addFile@QZipWriter@@QEAAXAEBVQString@@PEAVQIODevice@@@Z
       2022  7E5 0023A5B0 ?addHelpOption@QCommandLineParser@@QEAA?AVQCommandLineOption@@XZ
       2023  7E6 000B5C30 ?addKey@QMetaEnumBuilder@@QEAAHAEBVQByteArray@@H@Z
       2024  7E7 0009AE00 ?addLibraryPath@QCoreApplication@@SAXAEBVQString@@@Z
       2025  7E8 0018AEB0 ?addMSecs@QDateTime@@QEBA?AV1@_J@Z
       2026  7E9 0018B040 ?addMSecs@QTime@@QEBA?AV1@H@Z
       2027  7EA 000B5D40 ?addMetaObject@QMetaObjectBuilder@@QEAAXPEBUQMetaObject@@V?$QFlags@W4AddMember@QMetaObjectBuilder@@@@@Z
       2028  7EB 000B6190 ?addMethod@QMetaObjectBuilder@@QEAA?AVQMetaMethodBuilder@@AEBVQByteArray@@0@Z
       2029  7EC 000B63E0 ?addMethod@QMetaObjectBuilder@@QEAA?AVQMetaMethodBuilder@@AEBVQByteArray@@@Z
       2030  7ED 000B6670 ?addMethod@QMetaObjectBuilder@@QEAA?AVQMetaMethodBuilder@@AEBVQMetaMethod@@@Z
       2031  7EE 0018B0B0 ?addMonths@QDate@@QEBA?AV1@H@Z
       2032  7EF 0018B1F0 ?addMonths@QDate@@QEBA?AV1@HVQCalendar@@@Z
       2033  7F0 0018B3B0 ?addMonths@QDateTime@@QEBA?AV1@H@Z
       2034  7F1 000A3B40 ?addNSecs@QDeadlineTimer@@SA?AV1@V1@_J@Z
       2035  7F2 0023A9D0 ?addOption@QCommandLineParser@@QEAA_NAEBVQCommandLineOption@@@Z
       2036  7F3 0023AC90 ?addOptions@QCommandLineParser@@QEAA_NAEBV?$QList@VQCommandLineOption@@@@@Z
       2037  7F4 002716C0 ?addPath@QFileSystemWatcher@@QEAA_NAEBVQString@@@Z
       2038  7F5 00271820 ?addPaths@QFileSystemWatcher@@QEAA?AV?$QList@VQString@@@@AEBV2@@Z
       2039  7F6 00205DD0 ?addPause@QSequentialAnimationGroup@@QEAAPEAVQPauseAnimation@@H@Z
       2040  7F7 0023B040 ?addPositionalArgument@QCommandLineParser@@QEAAXAEBVQString@@00@Z
       2041  7F8 000B6D30 ?addProperty@QMetaObjectBuilder@@QEAA?AVQMetaPropertyBuilder@@AEBVQByteArray@@0H@Z
       2042  7F9 000B6DB0 ?addProperty@QMetaObjectBuilder@@QEAA?AVQMetaPropertyBuilder@@AEBVQByteArray@@0VQMetaType@@H@Z
       2043  7FA 000B6F40 ?addProperty@QMetaObjectBuilder@@QEAA?AVQMetaPropertyBuilder@@AEBVQMetaProperty@@@Z
       2044  7FB 0009B170 ?addQtOptions@QCoreApplicationPrivate@@UEAAXPEAV?$QList@VQCommandLineOption@@@@@Z
       2045  7FC 00089D10 ?addQueryItem@QUrlQuery@@QEAAXAEBVQString@@0@Z
       2046  7FD 000B7580 ?addRelatedMetaObject@QMetaObjectBuilder@@QEAAHPEBUQMetaObject@@@Z
       2047  7FE 00235CE0 ?addResult@ResultStoreBase@QtPrivate@@QEAAHHPEBX@Z
       2048  7FF 00235E00 ?addResults@ResultStoreBase@QtPrivate@@QEAAHHPEBXHH@Z
       2049  800 00043440 ?addSearchPath@QDir@@SAXAEBVQString@@0@Z
       2050  801 0018B630 ?addSecs@QDateTime@@QEBA?AV1@_J@Z
       2051  802 0018B680 ?addSecs@QTime@@QEBA?AV1@H@Z
       2052  803 000B75E0 ?addSignal@QMetaObjectBuilder@@QEAA?AVQMetaMethodBuilder@@AEBVQByteArray@@@Z
       2053  804 000B7870 ?addSlot@QMetaObjectBuilder@@QEAA?AVQMetaMethodBuilder@@AEBVQByteArray@@@Z
       2054  805 002D2E10 ?addSourceModel@QConcatenateTablesProxyModel@@QEAAXPEAVQAbstractItemModel@@@Z
       2055  806 00058610 ?addStatics@QFileSelectorPrivate@@SAXAEBV?$QList@VQString@@@@@Z
       2056  807 0008FAF0 ?addSymLink@QZipWriter@@QEAAXAEBVQString@@0@Z
       2057  808 00247C40 ?addTCBSegment@QEasingCurve@@QEAAXAEBVQPointF@@NNN@Z
       2058  809 000A5790 ?addValue@QMetaSequence@@QEBAXPEAXPEBX@Z
       2059  80A 000EF440 ?addValue@QSequentialIterable@@QEAAXAEBVQVariant@@W4Position@1@@Z
       2060  80B 000A57C0 ?addValueAtBegin@QMetaSequence@@QEBAXPEAXPEBX@Z
       2061  80C 000A5800 ?addValueAtEnd@QMetaSequence@@QEBAXPEAXPEBX@Z
       2062  80D 0023B170 ?addVersionOption@QCommandLineParser@@QEAA?AVQCommandLineOption@@XZ
       2063  80E 0018B720 ?addYears@QDate@@QEBA?AV1@H@Z
       2064  80F 0018B860 ?addYears@QDate@@QEBA?AV1@HVQCalendar@@@Z
       2065  810 0018B9A0 ?addYears@QDateTime@@QEBA?AV1@H@Z
       2066  811 00003310 ?added@QChildEvent@@QEBA_NXZ
       2067  812 0001C000 ?adjust@QRect@@QEAAXHHHH@Z
       2068  813 0001C020 ?adjust@QRectF@@QEAAXNNNN@Z
       2069  814 0001C060 ?adjusted@QRect@@QEBA?AV1@HHHH@Z
       2070  815 0001C090 ?adjusted@QRectF@@QEBA?AV1@NNNN@Z
       2071  816 0007CE90 ?adjusted@QUrl@@QEBA?AV1@V?$QUrlTwoFlags@W4UrlFormattingOption@QUrl@@W4ComponentFormattingOption@2@@@@Z
       2072  817 001FA6C0 ?advance@QAnimationDriver@@UEAAXXZ
       2073  818 001FA6C0 ?advanceAnimation@QAnimationDriver@@IEAAXXZ
       2074  819 000A5840 ?advanceConstIterator@QMetaContainer@@QEBAXPEAX_J@Z
       2075  81A 000A5870 ?advanceIterator@QMetaContainer@@QEBAXPEAX_J@Z
       2076  81B 001CE960 ?algorithm@QCryptographicHash@@QEBA?AW4Algorithm@1@XZ
       2077  81C 000038C0 ?aliasedProperty@QPropertyObserver@@IEBAPEAVQUntypedPropertyData@@XZ
       2078  81D 003145E0 ?aliases@QMimeType@@QEBA?AV?$QList@VQString@@@@XZ
       2079  81E 00003320 ?alignOf@QMetaType@@QEBA_JXZ
       2080  81F 00314620 ?allAncestors@QMimeType@@QEBA?AV?$QList@VQString@@@@XZ
       2081  820 00292990 ?allKeys@QSettings@@QEBA?AV?$QList@VQString@@@@XZ
       2082  821 00306840 ?allMimeTypes@QMimeDatabase@@QEBA?AV?$QList@VQMimeType@@@@XZ
       2083  822 00089FB0 ?allQueryItemValues@QUrlQuery@@QEBA?AV?$QList@VQString@@@@AEBVQString@@V?$QFlags@W4ComponentFormattingOption@QUrl@@@@@Z
       2084  823 000588B0 ?allSelectors@QFileSelector@@QEBA?AV?$QList@VQString@@@@XZ
       2085  824 000626A0 ?allWriteBuffersEmpty@QIODevicePrivate@@QEBA_NXZ
       2086  825 000DE2A0 ?allocArgs@QMetaCallEvent@@AEAAXXZ
       2087  826 0019D590 ?allocate1@QArrayData@@SAPEAXPEAPEAU1@_JW4AllocationOption@1@@Z
       2088  827 0019D6A0 ?allocate2@QArrayData@@SAPEAXPEAPEAU1@_JW4AllocationOption@1@@Z
       2089  828 0019D7B0 ?allocate@QArrayData@@SAPEAXPEAPEAU1@_J11W4AllocationOption@1@@Z
       2090  829 0019FAA0 ?allocateData@QContiguousCacheData@@SAPEAU1@_J0@Z
       2091  82A 0001C0E0 ?allocateDependencyObserver@QPropertyBindingPrivate@@QEAA?AUQPropertyObserverPointer@@XZ
       2092  82B 000EC100 ?allocateDependencyObserver_slow@QPropertyBindingPrivate@@QEAA?AUQPropertyObserverPointer@@XZ
       2093  82C 000936C0 ?allocateTimerId@QAbstractEventDispatcherPrivate@@SAHXZ
       2094  82D 002AC9E0 ?allowMove@QAbstractItemModelPrivate@@QEAA_NAEBVQModelIndex@@HH0HW4Orientation@Qt@@@Z
       2095  82E 00144100 ?amText@QLocale@@QEBA?AVQString@@XZ
       2096  82F 00247FA0 ?amplitude@QEasingCurve@@QEBANXZ
       2097  830 00003330 ?anchoredPattern@QRegularExpression@@SA?AVQString@@AEBV2@@Z
       2098  831 00257C60 ?anchoredPattern@QRegularExpression@@SA?AVQString@@VQStringView@@@Z
       2099  832 001D75F0 ?angle@QLineF@@QEBANXZ
       2100  833 001D7670 ?angleTo@QLineF@@QEBANAEBV1@@Z
       2101  834 001FF000 ?animationAt@QAnimationGroup@@QEBAPEAVQAbstractAnimation@@H@Z
       2102  835 00063150 ?animationCount@QAnimationGroup@@QEBAHXZ
       2103  836 0021CBA0 ?appName@QCoreApplicationPrivate@@QEBA?AVQString@@XZ
       2104  837 0021CC10 ?appVersion@QCoreApplicationPrivate@@QEBA?AVQString@@XZ
       2105  838 00135780 ?append@QByteArray@@QEAAAEAV1@AEBV1@@Z
       2106  839 00135860 ?append@QByteArray@@QEAAAEAV1@D@Z
       2107  83A 00002FD0 ?append@QByteArray@@QEAAAEAV1@PEBD@Z
       2108  83B 00003360 ?append@QByteArray@@QEAAAEAV1@PEBD_J@Z
       2109  83C 00003020 ?append@QByteArray@@QEAAAEAV1@VQByteArrayView@@@Z
       2110  83D 000033B0 ?append@QByteArray@@QEAAAEAV1@_JD@Z
       2111  83E 0001C130 ?append@QCborArray@@QEAAX$$QEAVQCborValue@@@Z
       2112  83F 0001C140 ?append@QCborArray@@QEAAXAEBVQCborValue@@@Z
       2113  840 00111D50 ?append@QCborStreamWriter@@QEAAX$$T@Z
       2114  841 00111D60 ?append@QCborStreamWriter@@QEAAXAEBVQByteArray@@@Z
       2115  842 00111D80 ?append@QCborStreamWriter@@QEAAXH@Z
       2116  843 00111D90 ?append@QCborStreamWriter@@QEAAXI@Z
       2117  844 00304E50 ?append@QCborStreamWriter@@QEAAXM@Z
       2118  845 00304EC0 ?append@QCborStreamWriter@@QEAAXN@Z
       2119  846 00111DA0 ?append@QCborStreamWriter@@QEAAXPEBD_J@Z
       2120  847 00304F30 ?append@QCborStreamWriter@@QEAAXVQLatin1String@@@Z
       2121  848 00305050 ?append@QCborStreamWriter@@QEAAXVQStringView@@@Z
       2122  849 003050D0 ?append@QCborStreamWriter@@QEAAXVqfloat16@@@Z
       2123  84A 00111DE0 ?append@QCborStreamWriter@@QEAAXW4QCborKnownTags@@@Z
       2124  84B 00305140 ?append@QCborStreamWriter@@QEAAXW4QCborNegativeInteger@@@Z
       2125  84C 003051F0 ?append@QCborStreamWriter@@QEAAXW4QCborSimpleType@@@Z
       2126  84D 00305260 ?append@QCborStreamWriter@@QEAAXW4QCborTag@@@Z
       2127  84E 00305300 ?append@QCborStreamWriter@@QEAAX_J@Z
       2128  84F 003053C0 ?append@QCborStreamWriter@@QEAAX_K@Z
       2129  850 00111DF0 ?append@QCborStreamWriter@@QEAAX_N@Z
       2130  851 0011BD10 ?append@QJsonArray@@QEAAXAEBVQJsonValue@@@Z
       2131  852 001D9DF0 ?append@QRingBuffer@@QEAAX$$QEAVQByteArray@@@Z
       2132  853 001D9EE0 ?append@QRingBuffer@@QEAAXAEBVQByteArray@@@Z
       2133  854 001DA010 ?append@QRingBuffer@@QEAAXPEBD_J@Z
       2134  855 00163AF0 ?append@QString@@QEAAAEAV1@AEBV1@@Z
       2135  856 00003090 ?append@QString@@QEAAAEAV1@AEBVQByteArray@@@Z
       2136  857 000030C0 ?append@QString@@QEAAAEAV1@PEBD@Z
       2137  858 00163BB0 ?append@QString@@QEAAAEAV1@PEBVQChar@@_J@Z
       2138  859 00163BF0 ?append@QString@@QEAAAEAV1@V?$QBasicUtf8StringView@$0A@@@@Z
       2139  85A 00163C20 ?append@QString@@QEAAAEAV1@VQChar@@@Z
       2140  85B 00163D60 ?append@QString@@QEAAAEAV1@VQLatin1String@@@Z
       2141  85C 00003150 ?append@QString@@QEAAAEAV1@VQStringView@@@Z
       2142  85D 001E4CA0 ?append@QXmlStreamAttributes@@QEAAXAEBVQString@@00@Z
       2143  85E 001E4D80 ?append@QXmlStreamAttributes@@QEAAXAEBVQString@@0@Z
       2144  85F 0009B2F0 ?appendApplicationPathToLibraryPaths@QCoreApplicationPrivate@@QEAAXXZ
       2145  860 00305460 ?appendByteString@QCborStreamWriter@@QEAAXPEBD_J@Z
       2146  861 00163D90 ?appendLatin1To@QAbstractConcatenable@@KAXVQLatin1String@@PEAVQChar@@@Z
       2147  862 00111D50 ?appendNull@QCborStreamWriter@@QEAAXXZ
       2148  863 00305480 ?appendTextString@QCborStreamWriter@@QEAAXPEBD_J@Z
       2149  864 00112000 ?appendUndefined@QCborStreamWriter@@QEAAXXZ
       2150  865 0004F570 ?applicationDescription@QCommandLineParser@@QEBA?AVQString@@XZ
       2151  866 0009B620 ?applicationDirPath@QCoreApplication@@SA?AVQString@@XZ
       2152  867 0009B790 ?applicationFilePath@QCoreApplication@@SA?AVQString@@XZ
       2153  868 0009BDA0 ?applicationName@QCoreApplication@@SA?AVQString@@XZ
       2154  869 002929C0 ?applicationName@QSettings@@QEBA?AVQString@@XZ
       2155  86A 0009BFD0 ?applicationNameChanged@QCoreApplication@@QEAAXXZ
       2156  86B 0009BFF0 ?applicationPid@QCoreApplication@@SA_JXZ
       2157  86C 0009C010 ?applicationVersion@QCoreApplication@@SA?AVQString@@XZ
       2158  86D 0009C240 ?applicationVersionChanged@QCoreApplication@@QEAAXXZ
       2159  86E 0022BC80 ?areAllThreadsActive@QThreadPoolPrivate@@QEBA_NXZ
       2160  86F 001643D0 ?arg@QString@@QEBA?AV1@AEBV1@HVQChar@@@Z
       2161  870 00164410 ?arg@QString@@QEBA?AV1@DHVQChar@@@Z
       2162  871 000033C0 ?arg@QString@@QEBA?AV1@FHHVQChar@@@Z
       2163  872 000033F0 ?arg@QString@@QEBA?AV1@GHHVQChar@@@Z
       2164  873 00003420 ?arg@QString@@QEBA?AV1@HHHVQChar@@@Z
       2165  874 00003450 ?arg@QString@@QEBA?AV1@IHHVQChar@@@Z
       2166  875 00003420 ?arg@QString@@QEBA?AV1@JHHVQChar@@@Z
       2167  876 00003450 ?arg@QString@@QEBA?AV1@KHHVQChar@@@Z
       2168  877 00164460 ?arg@QString@@QEBA?AV1@NHDHVQChar@@@Z
       2169  878 001649C0 ?arg@QString@@QEBA?AV1@VQChar@@H0@Z
       2170  879 00164A10 ?arg@QString@@QEBA?AV1@VQLatin1String@@HVQChar@@@Z
       2171  87A 00164AC0 ?arg@QString@@QEBA?AV1@VQStringView@@HVQChar@@@Z
       2172  87B 00164D00 ?arg@QString@@QEBA?AV1@_JHHVQChar@@@Z
       2173  87C 00165170 ?arg@QString@@QEBA?AV1@_KHHVQChar@@@Z
       2174  87D 001655E0 ?argToQString@QtPrivate@@YA?AVQString@@VQLatin1String@@_KPEAPEBUArgBase@1@@Z
       2175  87E 00165610 ?argToQString@QtPrivate@@YA?AVQString@@VQStringView@@_KPEAPEBUArgBase@1@@Z
       2176  87F 0001C150 ?args@QMetaCallEvent@@QEAAPEAPEAXXZ
       2177  880 0001C150 ?args@QMetaCallEvent@@QEBAPEBQEBXXZ
       2178  881 0009C260 ?arguments@QCoreApplication@@SA?AV?$QList@VQString@@@@XZ
       2179  882 00282430 ?arguments@QProcess@@QEBA?AV?$QList@VQString@@@@XZ
       2180  883 00120EB0 ?array@QJsonDocument@@QEBA?AVQJsonArray@@XZ
       2181  884 0019AC30 ?asBackendZone@QTimeZone@@QEBA?AV1@XZ
       2182  885 00165640 ?asprintf@QString@@SA?AV1@PEBDZZ
       2183  886 00135B30 ?assign@QByteArray@@QEAAAEAV1@VQByteArrayView@@@Z
       2184  887 00003480 ?assign@QByteArray@@QEAAAEAV1@_JD@Z
       2185  888 00112010 ?assign@QCborValueRef@@CAXV1@$$QEAVQCborValue@@@Z
       2186  889 00112030 ?assign@QCborValueRef@@CAXV1@AEBVQCborValue@@@Z
       2187  88A 00112050 ?assign@QCborValueRef@@CAXV1@V1@@Z
       2188  88B 00165670 ?assign@QString@@QEAAAEAV1@VQAnyStringView@@@Z
       2189  88C 00003490 ?assign@QString@@QEAAAEAV1@_JVQChar@@@Z
       2190  88D 00165A00 ?assign_helper@QString@@AEAAAEAV1@PEB_U_J@Z
       2191  88E 00036FF0 ?assign_internal@QNativeIpcKey@@AEAAAEAV1@AEBV1@@Z
       2192  88F 00015330 ?at@QBitArray@@QEBA_N_J@Z
       2193  890 00002EB0 ?at@QByteArray@@QEBAD_J@Z
       2194  891 00002EB0 ?at@QByteArrayView@@QEBAD_J@Z
       2195  892 00112110 ?at@QCborArray@@QEBA?AVQCborValue@@_J@Z
       2196  893 0011BD30 ?at@QJsonArray@@QEBA?AVQJsonValue@@_J@Z
       2197  894 000EF5C0 ?at@QSequentialIterable@@QEBA?AVQVariant@@_J@Z
       2198  895 00002F10 ?at@QString@@QEBA?BVQChar@@_J@Z
       2199  896 00038E90 ?atEnd@QAbstractFileEngine@@QEBA_NXZ
       2200  897 0003A510 ?atEnd@QBuffer@@UEBA_NXZ
       2201  898 0011AF30 ?atEnd@QDataStream@@QEBA_NXZ
       2202  899 000535C0 ?atEnd@QFileDevice@@UEBA_NXZ
       2203  89A 000626E0 ?atEnd@QIODevice@@UEBA_NXZ
       2204  89B 0012FD40 ?atEnd@QTextStream@@QEBA_NXZ
       2205  89C 001E4FE0 ?atEnd@QXmlStreamReader@@QEBA_NXZ
       2206  89D 00034970 ?attach@QSharedMemory@@QEAA_NW4AccessMode@1@@Z
       2207  89E 0058DC70 ?attribs@QCoreApplicationPrivate@@2IA
       2208  89F 000A6AA0 ?attributes@QMetaMethod@@QEBAHXZ
       2209  8A0 000B7D80 ?attributes@QMetaMethodBuilder@@QEBAHXZ
       2210  8A1 001E5040 ?attributes@QXmlStreamReader@@QEBA?AVQXmlStreamAttributes@@XZ
       2211  8A2 0007DB90 ?authority@QUrl@@QEBA?AVQString@@V?$QFlags@W4ComponentFormattingOption@QUrl@@@@@Z
       2212  8A3 002E7820 ?autoAcceptChildRows@QSortFilterProxyModel@@QEBA_NXZ
       2213  8A4 002E7880 ?autoAcceptChildRowsChanged@QSortFilterProxyModel@@QEAAX_N@Z
       2214  8A5 0001C160 ?autoDelete@QRunnable@@QEBA_NXZ
       2215  8A6 0012FDD0 ?autoDetectUnicode@QTextStream@@QEBA_NXZ
       2216  8A7 001E5080 ?autoFormatting@QXmlStreamWriter@@QEBA_NXZ
       2217  8A8 001E5090 ?autoFormattingIndent@QXmlStreamWriter@@QEBAHXZ
       2218  8A9 000034A0 ?autoInsertSpaces@QDebug@@QEBA_NXZ
       2219  8AA 00079A70 ?autoRemove@QTemporaryDir@@QEBA_NXZ
       2220  8AB 0007AC20 ?autoRemove@QTemporaryFile@@QEBA_NXZ
       2221  8AC 00006BC0 ?availability@QLocationPermission@@QEBA?AW4Availability@1@XZ
       2222  8AD 0022AC00 ?available@QSemaphore@@QEBAHXZ
       2223  8AE 00186990 ?availableCalendars@QCalendar@@SA?AV?$QList@VQString@@@@XZ
       2224  8AF 001869B0 ?availableCalendars@QCalendarBackend@@SA?AV?$QList@VQString@@@@XZ
       2225  8B0 00179DE0 ?availableCodecs@QStringConverter@@SA?AV?$QList@VQString@@@@XZ
       2226  8B1 0019AD00 ?availableTimeZoneIds@QTimeZone@@SA?AV?$QList@VQByteArray@@@@H@Z
       2227  8B2 0019AEF0 ?availableTimeZoneIds@QTimeZone@@SA?AV?$QList@VQByteArray@@@@W4Country@QLocale@@@Z
       2228  8B3 0019B0E0 ?availableTimeZoneIds@QTimeZone@@SA?AV?$QList@VQByteArray@@@@XZ
       2229  8B4 000938C0 ?awake@QAbstractEventDispatcher@@QEAAXXZ
       2230  8B5 000034B0 ?back@QByteArray@@QEAAAEADXZ
       2231  8B6 00003500 ?back@QByteArray@@QEBADXZ
       2232  8B7 00003510 ?back@QByteArrayView@@QEBADXZ
       2233  8B8 00003520 ?back@QString@@QEAAAEAVQChar@@XZ
       2234  8B9 00003570 ?back@QString@@QEBA?AVQChar@@XZ
       2235  8BA 002687A0 ?baseDate@QDateTimeParser@@AEBA?AVQDateTime@@AEBVQTimeZone@@@Z
       2236  8BB 0004D110 ?baseName@DirEntry@QDirListing@@QEBA?AVQString@@XZ
       2237  8BC 00055510 ?baseName@QFileInfo@@QEBA?AVQString@@XZ
       2238  8BD 003AC080 ?basetable@qfloat16@@0QBGB
       2239  8BE 00236090 ?batchSize@ResultIteratorBase@QtPrivate@@QEBAHXZ
       2240  8BF 002360B0 ?batchedAdvance@ResultIteratorBase@QtPrivate@@QEAAXXZ
       2241  8C0 00144A20 ?bcp47Name@QLocale@@QEBA?AVQString@@W4TagSeparator@1@@Z
       2242  8C1 0001C170 ?bcp47Name@QLocale@@QEBA?AVQString@@XZ
       2243  8C2 00257D20 ?begin@@YA?AVQRegularExpressionMatchIteratorRangeBasedForIterator@QtPrivate@@AEBVQRegularExpressionMatchIterator@@@Z
       2244  8C3 00095D10 ?begin@QAssociativeIterable@@QEBA?AV?$QTaggedIterator@VQAssociativeConstIterator@@X@@XZ
       2245  8C4 00003590 ?begin@QByteArray@@QEAAPEADXZ
       2246  8C5 000035D0 ?begin@QByteArray@@QEBAPEBDXZ
       2247  8C6 000035D0 ?begin@QByteArrayView@@QEBAPEBDXZ
       2248  8C7 0001C190 ?begin@QCborArray@@QEAA?AVIterator@1@XZ
       2249  8C8 0001C1D0 ?begin@QCborArray@@QEBA?AVConstIterator@1@XZ
       2250  8C9 0001C1F0 ?begin@QCborMap@@QEAA?AVIterator@1@XZ
       2251  8CA 0001C230 ?begin@QCborMap@@QEBA?AVConstIterator@1@XZ
       2252  8CB 0004D1F0 ?begin@QDirListing@@QEBA?AVconst_iterator@1@XZ
       2253  8CC 0001C250 ?begin@QJsonArray@@QEAA?AViterator@1@XZ
       2254  8CD 0001C280 ?begin@QJsonArray@@QEBA?AVconst_iterator@1@XZ
       2255  8CE 0001C290 ?begin@QJsonObject@@QEAA?AViterator@1@XZ
       2256  8CF 0001C2C0 ?begin@QJsonObject@@QEBA?AVconst_iterator@1@XZ
       2257  8D0 000A58A0 ?begin@QMetaContainer@@QEBAPEAXPEAX@Z
       2258  8D1 00095D10 ?begin@QSequentialIterable@@QEBA?AV?$QTaggedIterator@VQSequentialConstIterator@@X@@XZ
       2259  8D2 000035E0 ?begin@QString@@QEAAPEAVQChar@@XZ
       2260  8D3 000035D0 ?begin@QString@@QEBAPEBVQChar@@XZ
       2261  8D4 00236120 ?begin@ResultStoreBase@QtPrivate@@QEBA?AVResultIteratorBase@2@XZ
       2262  8D5 00038EC0 ?beginEntryList@QAbstractFileEngine@@UEAA?AV?$unique_ptr@VQAbstractFileEngineIterator@@U?$default_delete@VQAbstractFileEngineIterator@@@std@@@std@@AEBVQString@@V?$QFlags@W4IteratorFlag@QDirListing@@@@AEBV?$QList@VQString@@@@@Z
       2263  8D6 0005E680 ?beginEntryList@QFSFileEngine@@UEAA?AV?$unique_ptr@VQAbstractFileEngineIterator@@U?$default_delete@VQAbstractFileEngineIterator@@@std@@@std@@AEBVQString@@V?$QFlags@W4IteratorFlag@QDirListing@@@@AEBV?$QList@VQString@@@@@Z
       2264  8D7 0001C2D0 ?beginGroup@QSettings@@QEAAXAEBVQString@@@Z
       2265  8D8 00292A00 ?beginGroup@QSettings@@QEAAXVQAnyStringView@@@Z
       2266  8D9 002ACD30 ?beginInsertColumns@QAbstractItemModel@@IEAAXAEBVQModelIndex@@HH@Z
       2267  8DA 002ACE40 ?beginInsertRows@QAbstractItemModel@@IEAAXAEBVQModelIndex@@HH@Z
       2268  8DB 002ACF50 ?beginMoveColumns@QAbstractItemModel@@IEAA_NAEBVQModelIndex@@HH0H@Z
       2269  8DC 002AD2C0 ?beginMoveRows@QAbstractItemModel@@IEAA_NAEBVQModelIndex@@HH0H@Z
       2270  8DD 000EC1B0 ?beginPropertyUpdateGroup@Qt@@YAXXZ
       2271  8DE 0001C310 ?beginReadArray@QSettings@@QEAAHAEBVQString@@@Z
       2272  8DF 00292C10 ?beginReadArray@QSettings@@QEAAHVQAnyStringView@@@Z
       2273  8E0 002AD630 ?beginRemoveColumns@QAbstractItemModel@@IEAAXAEBVQModelIndex@@HH@Z
       2274  8E1 002AD740 ?beginRemoveRows@QAbstractItemModel@@IEAAXAEBVQModelIndex@@HH@Z
       2275  8E2 002AD850 ?beginResetModel@QAbstractItemModel@@IEAAXXZ
       2276  8E3 0001C350 ?beginWriteArray@QSettings@@QEAAXAEBVQString@@H@Z
       2277  8E4 00292DC0 ?beginWriteArray@QSettings@@QEAAXVQAnyStringView@@H@Z
       2278  8E5 0012FDE0 ?bin@Qt@@YAAEAVQTextStream@@AEAV2@@Z
       2279  8E6 000A6AC0 ?bindable@QMetaProperty@@QEBA?AVQUntypedBindable@@PEAVQObject@@@Z
       2280  8E7 00098330 ?bindableActive@QChronoTimer@@QEAA?AV?$QBindable@_N@@XZ
       2281  8E8 00098330 ?bindableActive@QTimer@@QEAA?AV?$QBindable@_N@@XZ
       2282  8E9 002E78C0 ?bindableAutoAcceptChildRows@QSortFilterProxyModel@@QEAA?AV?$QBindable@_N@@XZ
       2283  8EA 00206680 ?bindableCurrentAnimation@QSequentialAnimationGroup@@QEBA?AV?$QBindable@PEAVQAbstractAnimation@@@@XZ
       2284  8EB 001FA770 ?bindableCurrentLoop@QAbstractAnimation@@QEBA?AV?$QBindable@H@@XZ
       2285  8EC 001FA790 ?bindableCurrentTime@QAbstractAnimation@@QEAA?AV?$QBindable@H@@XZ
       2286  8ED 0024D510 ?bindableCurrentTime@QTimeLine@@QEAA?AV?$QBindable@H@@XZ
       2287  8EE 001FA7B0 ?bindableDirection@QAbstractAnimation@@QEAA?AV?$QBindable@W4Direction@QAbstractAnimation@@@@XZ
       2288  8EF 0024D530 ?bindableDirection@QTimeLine@@QEAA?AV?$QBindable@W4Direction@QTimeLine@@@@XZ
       2289  8F0 002011F0 ?bindableDuration@QPauseAnimation@@QEAA?AV?$QBindable@H@@XZ
       2290  8F1 0024D550 ?bindableDuration@QTimeLine@@QEAA?AV?$QBindable@H@@XZ
       2291  8F2 00209740 ?bindableDuration@QVariantAnimation@@QEAA?AV?$QBindable@H@@XZ
       2292  8F3 002E78E0 ?bindableDynamicSortFilter@QSortFilterProxyModel@@QEAA?AV?$QBindable@_N@@XZ
       2293  8F4 0024D570 ?bindableEasingCurve@QTimeLine@@QEAA?AV?$QBindable@VQEasingCurve@@@@XZ
       2294  8F5 00209760 ?bindableEasingCurve@QVariantAnimation@@QEAA?AV?$QBindable@VQEasingCurve@@@@XZ
       2295  8F6 002E7900 ?bindableFilterCaseSensitivity@QSortFilterProxyModel@@QEAA?AV?$QBindable@W4CaseSensitivity@Qt@@@@XZ
       2296  8F7 002E7920 ?bindableFilterKeyColumn@QSortFilterProxyModel@@QEAA?AV?$QBindable@H@@XZ
       2297  8F8 002E7940 ?bindableFilterRegularExpression@QSortFilterProxyModel@@QEAA?AV?$QBindable@VQRegularExpression@@@@XZ
       2298  8F9 002E7960 ?bindableFilterRole@QSortFilterProxyModel@@QEAA?AV?$QBindable@H@@XZ
       2299  8FA 00098350 ?bindableInterval@QChronoTimer@@QEAA?AV?$QBindable@V?$duration@_JU?$ratio@$00$0DLJKMKAA@@std@@@chrono@std@@@@XZ
       2300  8FB 000F5510 ?bindableInterval@QTimer@@QEAA?AV?$QBindable@H@@XZ
       2301  8FC 002E7980 ?bindableIsSortLocaleAware@QSortFilterProxyModel@@QEAA?AV?$QBindable@_N@@XZ
       2302  8FD 001FA7D0 ?bindableLoopCount@QAbstractAnimation@@QEAA?AV?$QBindable@H@@XZ
       2303  8FE 0024D590 ?bindableLoopCount@QTimeLine@@QEAA?AV?$QBindable@H@@XZ
       2304  8FF 002C2D20 ?bindableModel@QItemSelectionModel@@QEAA?AV?$QBindable@PEAVQAbstractItemModel@@@@XZ
       2305  900 000DE2F0 ?bindableObjectName@QObject@@QEAA?AV?$QBindable@VQString@@@@XZ
       2306  901 00202AF0 ?bindablePropertyName@QPropertyAnimation@@QEAA?AV?$QBindable@VQByteArray@@@@XZ
       2307  902 002E79A0 ?bindableRecursiveFilteringEnabled@QSortFilterProxyModel@@QEAA?AV?$QBindable@_N@@XZ
       2308  903 00098370 ?bindableSingleShot@QChronoTimer@@QEAA?AV?$QBindable@_N@@XZ
       2309  904 00098370 ?bindableSingleShot@QTimer@@QEAA?AV?$QBindable@_N@@XZ
       2310  905 002E79C0 ?bindableSortCaseSensitivity@QSortFilterProxyModel@@QEAA?AV?$QBindable@W4CaseSensitivity@Qt@@@@XZ
       2311  906 002E79E0 ?bindableSortRole@QSortFilterProxyModel@@QEAA?AV?$QBindable@H@@XZ
       2312  907 002CF220 ?bindableSourceModel@QAbstractProxyModel@@QEAA?AV?$QBindable@PEAVQAbstractItemModel@@@@XZ
       2313  908 001FA7F0 ?bindableState@QAbstractAnimation@@QEBA?AV?$QBindable@W4State@QAbstractAnimation@@@@XZ
       2314  909 00202B10 ?bindableTargetObject@QPropertyAnimation@@QEAA?AV?$QBindable@PEAVQObject@@@@XZ
       2315  90A 00098390 ?bindableTimerType@QChronoTimer@@QEAA?AV?$QBindable@W4TimerType@Qt@@@@XZ
       2316  90B 00098390 ?bindableTimerType@QTimer@@QEAA?AV?$QBindable@W4TimerType@Qt@@@@XZ
       2317  90C 0024D5B0 ?bindableUpdateInterval@QTimeLine@@QEAA?AV?$QBindable@H@@XZ
       2318  90D 0001C390 ?binding@QPropertyBindingData@QtPrivate@@QEBAPEAVQPropertyBindingPrivate@@XZ
       2319  90E 00003620 ?bindingData@QBindingStorage@@QEAAPEAVQPropertyBindingData@QtPrivate@@PEAVQUntypedPropertyData@@_N@Z
       2320  90F 00003640 ?bindingData@QBindingStorage@@QEBAPEAVQPropertyBindingData@QtPrivate@@PEBVQUntypedPropertyData@@@Z
       2321  910 000EC200 ?bindingData_helper@QBindingStorage@@AEAAPEAVQPropertyBindingData@QtPrivate@@PEAVQUntypedPropertyData@@_N@Z
       2322  911 000EC220 ?bindingData_helper@QBindingStorage@@AEBAPEAVQPropertyBindingData@QtPrivate@@PEBVQUntypedPropertyData@@@Z
       2323  912 0001C3B0 ?bindingError@QPropertyBindingPrivate@@QEBA?AVQPropertyBindingError@@XZ
       2324  913 00003650 ?bindingStorage@QObject@@QEAAPEAVQBindingStorage@@XZ
       2325  914 00003650 ?bindingStorage@QObject@@QEBAPEBVQBindingStorage@@XZ
       2326  915 000EC2B0 ?bindingWrapper@PropertyAdaptorSlotObjectHelpers@QtPrivate@@YA_NVQMetaType@@PEAVQUntypedPropertyData@@UQPropertyBindingFunction@2@1PEAX@Z
       2327  916 0001C3E0 ?birthTime@QFileInfo@@QEBA?AVQDateTime@@AEBVQTimeZone@@@Z
       2328  917 0001C400 ?birthTime@QFileInfo@@QEBA?AVQDateTime@@XZ
       2329  918 00015430 ?bits@QBitArray@@QEBAPEBDXZ
       2330  919 000B7E30 ?blobSize@QMetaStringTable@@QEBAHXZ
       2331  91A 000DE4A0 ?blockSignals@QObject@@QEAA_N_N@Z
       2332  91B 00078D20 ?blockSize@QStorageInfo@@QEBAHXZ
       2333  91C 0012FE00 ?bom@Qt@@YAAEAVQTextStream@@AEAV2@@Z
       2334  91D 00032440 ?bootUniqueId@QSysInfo@@SA?AVQByteArray@@XZ
       2335  91E 0001C420 ?bottom@QItemSelectionRange@@QEBAHXZ
       2336  91F 0001C430 ?bottom@QRect@@QEBAHXZ
       2337  920 0001C440 ?bottom@QRectF@@QEBANXZ
       2338  921 0001C450 ?bottomLeft@QRect@@QEBA?AVQPoint@@XZ
       2339  922 0001C460 ?bottomLeft@QRectF@@QEBA?AVQPointF@@XZ
       2340  923 0001C480 ?bottomRight@QItemSelectionRange@@QEBAAEBVQPersistentModelIndex@@XZ
       2341  924 0001C490 ?bottomRight@QRect@@QEBA?AVQPoint@@XZ
       2342  925 0001C4A0 ?bottomRight@QRectF@@QEBA?AVQPointF@@XZ
       2343  926 00181250 ?boundaryReasons@QTextBoundaryFinder@@QEBA?AV?$QFlags@W4BoundaryReason@QTextBoundaryFinder@@@@XZ
       2344  927 0001C4C0 ?boundedTo@QSize@@QEBA?AV1@AEBV1@@Z
       2345  928 0001C4F0 ?boundedTo@QSizeF@@QEBA?AV1@AEBV1@@Z
       2346  929 002AD9F0 ?buddy@QAbstractItemModel@@UEBA?AVQModelIndex@@AEBV2@@Z
       2347  92A 002CF310 ?buddy@QAbstractProxyModel@@UEBA?AVQModelIndex@@AEBV2@@Z
       2348  92B 002E8300 ?buddy@QSortFilterProxyModel@@UEBA?AVQModelIndex@@AEBV2@@Z
       2349  92C 0003A520 ?buffer@QBuffer@@QEAAAEAVQByteArray@@XZ
       2350  92D 0003A520 ?buffer@QBuffer@@QEBAAEBVQByteArray@@XZ
       2351  92E 00028170 ?build@QLibraryInfo@@SAPEBDXZ
       2352  92F 00032460 ?buildAbi@QSysInfo@@SA?AVQString@@XZ
       2353  930 00032490 ?buildCpuArchitecture@QSysInfo@@SA?AVQString@@XZ
       2354  931 0004D320 ?bundleName@DirEntry@QDirListing@@QEBA?AVQString@@XZ
       2355  932 00055620 ?bundleName@QFileInfo@@QEBA?AVQString@@XZ
       2356  933 00003660 ?byteOrder@QDataStream@@QEBA?AW4ByteOrder@1@XZ
       2357  934 00144C30 ?bytearrayToLongLong@QLocaleData@@SA?AU?$QSimpleParsedNumber@_J@@VQByteArrayView@@H@Z
       2358  935 000627A0 ?bytesAvailable@QIODevice@@UEBA_JXZ
       2359  936 00078D30 ?bytesAvailable@QStorageInfo@@QEBA_JXZ
       2360  937 0021A120 ?bytesAvailable@QWindowsPipeReader@@QEBA_JXZ
       2361  938 00078D40 ?bytesFree@QStorageInfo@@QEBA_JXZ
       2362  939 00062830 ?bytesToWrite@QIODevice@@UEBA_JXZ
       2363  93A 00282470 ?bytesToWrite@QProcess@@UEBA_JXZ
       2364  93B 0021B970 ?bytesToWrite@QWindowsPipeWriter@@QEBA_JXZ
       2365  93C 00078D50 ?bytesTotal@QStorageInfo@@QEBA_JXZ
       2366  93D 00062850 ?bytesWritten@QIODevice@@QEAAX_J@Z
       2367  93E 0021BA00 ?bytesWritten@QWindowsPipeWriter@@QEAAX_J@Z
       2368  93F 00015460 ?c@QLocale@@SA?AV1@XZ
       2369  940 00598990 ?cachedApplicationFilePath@QCoreApplicationPrivate@@2PEAVQString@@EA
       2370  941 00055680 ?caching@QFileInfo@@QEBA_NXZ
       2371  942 000041B0 ?calendarId@QCalendarBackend@@QEBA?AVSystemId@QCalendar@@XZ
       2372  943 001870E0 ?calendarSystem@QCalendarBackend@@QEBA?AW4System@QCalendar@@XZ
       2373  944 00003670 ?canAddValue@QMetaSequence@@QEBA_NXZ
       2374  945 000A58D0 ?canAddValueAtBegin@QMetaSequence@@QEBA_NXZ
       2375  946 000A5900 ?canAddValueAtEnd@QMetaSequence@@QEBA_NXZ
       2376  947 000A5930 ?canClear@QMetaContainer@@QEBA_NXZ
       2377  948 00003670 ?canContainsKey@QMetaAssociation@@QEBA_NXZ
       2378  949 000CD560 ?canConvert@QMetaType@@SA_NV1@0@Z
       2379  94A 00003690 ?canConvert@QVariant@@QEBA_NH@Z
       2380  94B 000036C0 ?canConvert@QVariant@@QEBA_NVQMetaType@@@Z
       2381  94C 000036D0 ?canCreateConstIteratorAtKey@QMetaAssociation@@QEBA_NXZ
       2382  94D 000036F0 ?canCreateIteratorAtKey@QMetaAssociation@@QEBA_NXZ
       2383  94E 002ADA10 ?canDropMimeData@QAbstractItemModel@@UEBA_NPEBVQMimeData@@W4DropAction@Qt@@HHAEBVQModelIndex@@@Z
       2384  94F 002CF3F0 ?canDropMimeData@QAbstractProxyModel@@UEBA_NPEBVQMimeData@@W4DropAction@Qt@@HHAEBVQModelIndex@@@Z
       2385  950 002D3A60 ?canDropMimeData@QConcatenateTablesProxyModel@@UEBA_NPEBVQMimeData@@W4DropAction@Qt@@HHAEBVQModelIndex@@@Z
       2386  951 00003770 ?canEraseRangeAtIterator@QMetaSequence@@QEBA_NXZ
       2387  952 00003710 ?canEraseValueAtIterator@QMetaSequence@@QEBA_NXZ
       2388  953 00028FB0 ?canFetchMore@QAbstractItemModel@@UEBA_NAEBVQModelIndex@@@Z
       2389  954 002CF4E0 ?canFetchMore@QAbstractProxyModel@@UEBA_NAEBVQModelIndex@@@Z
       2390  955 002E84F0 ?canFetchMore@QSortFilterProxyModel@@UEBA_NAEBVQModelIndex@@@Z
       2391  956 00095D60 ?canForwardIterate@?$QIterable@VQMetaAssociation@@@@QEBA_NXZ
       2392  957 00095D60 ?canForwardIterate@?$QIterable@VQMetaSequence@@@@QEBA_NXZ
       2393  958 00003710 ?canGetKeyAtConstIterator@QMetaAssociation@@QEBA_NXZ
       2394  959 00003730 ?canGetKeyAtIterator@QMetaAssociation@@QEBA_NXZ
       2395  95A 00003750 ?canGetMappedAtConstIterator@QMetaAssociation@@QEBA_NXZ
       2396  95B 00003770 ?canGetMappedAtIterator@QMetaAssociation@@QEBA_NXZ
       2397  95C 00003790 ?canGetMappedAtKey@QMetaAssociation@@QEBA_NXZ
       2398  95D 00003730 ?canGetValueAtConstIterator@QMetaSequence@@QEBA_NXZ
       2399  95E 000037B0 ?canGetValueAtIndex@QMetaSequence@@QEBA_NXZ
       2400  95F 00003810 ?canGetValueAtIterator@QMetaSequence@@QEBA_NXZ
       2401  960 00236150 ?canIncrementVectorIndex@ResultIteratorBase@QtPrivate@@QEBA_NXZ
       2402  961 00095D70 ?canInputIterate@?$QIterable@VQMetaAssociation@@@@QEBA_NXZ
       2403  962 00095D70 ?canInputIterate@?$QIterable@VQMetaSequence@@@@QEBA_NXZ
       2404  963 000037B0 ?canInsertKey@QMetaAssociation@@QEBA_NXZ
       2405  964 000036D0 ?canInsertValueAtIterator@QMetaSequence@@QEBA_NXZ
       2406  965 0009C6E0 ?canQuitAutomatically@QCoreApplicationPrivate@@UEAA_NXZ
       2407  966 00095D80 ?canRandomAccessIterate@?$QIterable@VQMetaAssociation@@@@QEBA_NXZ
       2408  967 00095D80 ?canRandomAccessIterate@?$QIterable@VQMetaSequence@@@@QEBA_NXZ
       2409  968 0003A530 ?canReadLine@QBuffer@@UEBA_NXZ
       2410  969 00062890 ?canReadLine@QIODevice@@UEBA_NXZ
       2411  96A 0021A130 ?canReadLine@QWindowsPipeReader@@QEBA_NXZ
       2412  96B 000037D0 ?canRemoveKey@QMetaAssociation@@QEBA_NXZ
       2413  96C 00003790 ?canRemoveValue@QMetaSequence@@QEBA_NXZ
       2414  96D 000A5950 ?canRemoveValueAtBegin@QMetaSequence@@QEBA_NXZ
       2415  96E 000A5980 ?canRemoveValueAtEnd@QMetaSequence@@QEBA_NXZ
       2416  96F 00095D90 ?canReverseIterate@?$QIterable@VQMetaAssociation@@@@QEBA_NXZ
       2417  970 00095D90 ?canReverseIterate@?$QIterable@VQMetaSequence@@@@QEBA_NXZ
       2418  971 000037F0 ?canSetMappedAtIterator@QMetaAssociation@@QEBA_NXZ
       2419  972 00003810 ?canSetMappedAtKey@QMetaAssociation@@QEBA_NXZ
       2420  973 000037D0 ?canSetValueAtIndex@QMetaSequence@@QEBA_NXZ
       2421  974 000036F0 ?canSetValueAtIterator@QMetaSequence@@QEBA_NXZ
       2422  975 001FA990 ?canUninstallAnimationDriver@QUnifiedTimer@@QEAA_NPEAVQAnimationDriver@@@Z
       2423  976 000CDC30 ?canView@QMetaType@@SA_NV1@0@Z
       2424  977 00003830 ?canView@QVariant@@QEBA_NVQMetaType@@@Z
       2425  978 00230260 ?cancel@QFutureInterfaceBase@@IEAAXW4CancelMode@1@@Z
       2426  979 00230530 ?cancel@QFutureInterfaceBase@@QEAAXXZ
       2427  97A 00234710 ?cancel@QFutureWatcherBase@@QEAAXXZ
       2428  97B 0009C700 ?cancelAndFinish@QFutureInterfaceBase@@QEAAXXZ
       2429  97C 0021A1E0 ?cancelAsyncRead@QWindowsPipeReader@@AEAAXW4State@1@@Z
       2430  97D 00075410 ?cancelWriting@QSaveFile@@QEAAXXZ
       2431  97E 00234730 ?canceled@QFutureWatcherBase@@QEAAXXZ
       2432  97F 0004D350 ?canonicalFilePath@DirEntry@QDirListing@@QEBA?AVQString@@XZ
       2433  980 00055690 ?canonicalFilePath@QFileInfo@@QEBA?AVQString@@XZ
       2434  981 000438B0 ?canonicalPath@QDir@@QEBA?AVQString@@XZ
       2435  982 000556F0 ?canonicalPath@QFileInfo@@QEBA?AVQString@@XZ
       2436  983 00003840 ?capacity@QByteArray@@QEBA_JXZ
       2437  984 00003840 ?capacity@QString@@QEBA_JXZ
       2438  985 00257E00 ?captureCount@QRegularExpression@@QEBAHXZ
       2439  986 0001C530 ?captured@QRegularExpressionMatch@@QEBA?AVQString@@AEBV2@@Z
       2440  987 00257E30 ?captured@QRegularExpressionMatch@@QEBA?AVQString@@H@Z
       2441  988 00257F10 ?captured@QRegularExpressionMatch@@QEBA?AVQString@@VQAnyStringView@@@Z
       2442  989 0001C570 ?captured@QRegularExpressionMatch@@QEBA?AVQString@@VQStringView@@@Z
       2443  98A 0001C5B0 ?capturedEnd@QRegularExpressionMatch@@QEBA_JAEBVQString@@@Z
       2444  98B 00257FB0 ?capturedEnd@QRegularExpressionMatch@@QEBA_JH@Z
       2445  98C 00257FE0 ?capturedEnd@QRegularExpressionMatch@@QEBA_JVQAnyStringView@@@Z
       2446  98D 0001C5F0 ?capturedEnd@QRegularExpressionMatch@@QEBA_JVQStringView@@@Z
       2447  98E 0001C630 ?capturedLength@QRegularExpressionMatch@@QEBA_JAEBVQString@@@Z
       2448  98F 00258170 ?capturedLength@QRegularExpressionMatch@@QEBA_JH@Z
       2449  990 002581E0 ?capturedLength@QRegularExpressionMatch@@QEBA_JVQAnyStringView@@@Z
       2450  991 0001C670 ?capturedLength@QRegularExpressionMatch@@QEBA_JVQStringView@@@Z
       2451  992 0001C6B0 ?capturedStart@QRegularExpressionMatch@@QEBA_JAEBVQString@@@Z
       2452  993 002583A0 ?capturedStart@QRegularExpressionMatch@@QEBA_JH@Z
       2453  994 002583E0 ?capturedStart@QRegularExpressionMatch@@QEBA_JVQAnyStringView@@@Z
       2454  995 0001C6F0 ?capturedStart@QRegularExpressionMatch@@QEBA_JVQStringView@@@Z
       2455  996 00258570 ?capturedTexts@QRegularExpressionMatch@@QEBA?AV?$QList@VQString@@@@XZ
       2456  997 00258B60 ?capturedView@QRegularExpressionMatch@@QEBA?AVQStringView@@H@Z
       2457  998 0001C730 ?capturedView@QRegularExpressionMatch@@QEBA?AVQStringView@@V2@@Z
       2458  999 00258C30 ?capturedView@QRegularExpressionMatch@@QEBA?AVQStringView@@VQAnyStringView@@@Z
       2459  99A 00028FB0 ?caseSensitive@QAbstractFileEngine@@UEBA_NXZ
       2460  99B 0005E6E0 ?caseSensitive@QFSFileEngine@@UEBA_NXZ
       2461  99C 0013F310 ?caseSensitivity@QCollator@@QEBA?AW4CaseSensitivity@Qt@@XZ
       2462  99D 00004A10 ?caseSensitivity@QLatin1StringMatcher@@QEBA?AW4CaseSensitivity@Qt@@XZ
       2463  99E 00003850 ?caseSensitivity@QStringMatcher@@QEBA?AW4CaseSensitivity@Qt@@XZ
       2464  99F 00003860 ?cast@QMetaObject@@QEBAPEAVQObject@@PEAV2@@Z
       2465  9A0 000A6BD0 ?cast@QMetaObject@@QEBAPEBVQObject@@PEBV2@@Z
       2466  9A1 000020C0 ?castHelper@QByteArrayView@@CAPEBDPEBD@Z
       2467  9A2 00003870 ?category@QChar@@QEBA?AW4Category@1@XZ
       2468  9A3 001666B0 ?category@QChar@@SA?AW4Category@1@_U@Z
       2469  9A4 000035D0 ?categoryName@QLoggingCategory@@QEBAPEBDXZ
       2470  9A5 000035D0 ?cbegin@QByteArray@@QEBAPEBDXZ
       2471  9A6 000035D0 ?cbegin@QByteArrayView@@QEBAPEBDXZ
       2472  9A7 0001C1D0 ?cbegin@QCborArray@@QEBA?AVConstIterator@1@XZ
       2473  9A8 0001C230 ?cbegin@QCborMap@@QEBA?AVConstIterator@1@XZ
       2474  9A9 0001C280 ?cbegin@QJsonArray@@QEBA?AVconst_iterator@1@XZ
       2475  9AA 000035D0 ?cbegin@QString@@QEBAPEBVQChar@@XZ
       2476  9AB 000439D0 ?cd@QDir@@QEAA_NAEBVQString@@@Z
       2477  9AC 00043F30 ?cdUp@QDir@@QEAA_NXZ
       2478  9AD 00003880 ?cell@QChar@@QEBAEXZ
       2479  9AE 00003890 ?cend@QByteArray@@QEBAPEBDXZ
       2480  9AF 000038A0 ?cend@QByteArrayView@@QEBAPEBDXZ
       2481  9B0 0001C770 ?cend@QCborArray@@QEBA?AVConstIterator@1@XZ
       2482  9B1 0001C7A0 ?cend@QCborMap@@QEBA?AVConstIterator@1@XZ
       2483  9B2 0001C7E0 ?cend@QJsonArray@@QEBA?AVconst_iterator@1@XZ
       2484  9B3 000038B0 ?cend@QString@@QEBAPEBVQChar@@XZ
       2485  9B4 0001C810 ?center@QLine@@QEBA?AVQPoint@@XZ
       2486  9B5 0001C850 ?center@QLineF@@QEBA?AVQPointF@@XZ
       2487  9B6 0001C810 ?center@QRect@@QEBA?AVQPoint@@XZ
       2488  9B7 0001C890 ?center@QRectF@@QEBA?AVQPointF@@XZ
       2489  9B8 0012FEC0 ?center@Qt@@YAAEAVQTextStream@@AEAV2@@Z
       2490  9B9 002ADB30 ?changePersistentIndex@QAbstractItemModel@@IEAAXAEBVQModelIndex@@0@Z
       2491  9BA 002ADC90 ?changePersistentIndexList@QAbstractItemModel@@IEAAXAEBV?$QList@VQModelIndex@@@@0@Z
       2492  9BB 00062910 ?channelBytesWritten@QIODevice@@QEAAXH_J@Z
       2493  9BC 00062970 ?channelReadyRead@QIODevice@@QEAAXH@Z
       2494  9BD 001E5110 ?characterOffset@QXmlStreamReader@@QEBA_JXZ
       2495  9BE 000A6C40 ?checkConnectArgs@QMetaObject@@SA_NAEBVQMetaMethod@@0@Z
       2496  9BF 000A6C50 ?checkConnectArgs@QMetaObject@@SA_NPEBD0@Z
       2497  9C0 0001C8B0 ?checkForIncompatibleLibraryVersion@QObjectPrivate@@QEBAXH@Z
       2498  9C1 0021A310 ?checkForReadyRead@QWindowsPipeReader@@QEAA_NXZ
       2499  9C2 0021BA40 ?checkForWrite@QWindowsPipeWriter@@QEAA_NXZ
       2500  9C3 002AE090 ?checkIndex@QAbstractItemModel@@QEBA_NAEBVQModelIndex@@V?$QFlags@W4CheckIndexOption@QAbstractItemModel@@@@@Z
       2501  9C4 0009C710 ?checkInstance@QCoreApplicationPrivate@@SA_NPEBD@Z
       2502  9C5 0009C770 ?checkPermission@QCoreApplication@@QEAA?AW4PermissionStatus@Qt@@AEBVQPermission@@@Z
       2503  9C6 0021A320 ?checkPipeState@QWindowsPipeReader@@QEAAKXZ
       2504  9C7 001DC160 ?checkQObjectShared@ExternalRefCountData@QtSharedPointer@@QEAAXPEBVQObject@@@Z
       2505  9C8 0009C780 ?checkReceiverThread@QCoreApplicationPrivate@@SAXPEAVQObject@@@Z
       2506  9C9 0017A330 ?checkUtf8@QLocal8Bit@@SAHXZ
       2507  9CA 000038C0 ?child@QChildEvent@@QEBAPEAVQObject@@XZ
       2508  9CB 000058E0 ?childEvent@QObject@@MEAAXPEAVQChildEvent@@@Z
       2509  9CC 00292FA0 ?childGroups@QSettings@@QEBA?AV?$QList@VQString@@@@XZ
       2510  9CD 00292FD0 ?childKeys@QSettings@@QEBA?AV?$QList@VQString@@@@XZ
       2511  9CE 000038D0 ?children@QObject@@QEBAAEBV?$QList@PEAVQObject@@@@XZ
       2512  9CF 000700E0 ?children@QResource@@IEBA?AV?$QList@VQString@@@@XZ
       2513  9D0 00135C90 ?chop@QByteArray@@QEAAX_J@Z
       2514  9D1 000038E0 ?chop@QByteArrayView@@QEAAX_J@Z
       2515  9D2 001DA060 ?chop@QRingBuffer@@QEAAX_J@Z
       2516  9D3 001668E0 ?chop@QString@@QEAAX_J@Z
       2517  9D4 000038F0 ?chopped@QByteArray@@QEBA?AV1@_J@Z
       2518  9D5 000038F0 ?chopped@QByteArray@@QEGBA?AV1@_J@Z
       2519  9D6 00003920 ?chopped@QByteArray@@QEHAA?AV1@_J@Z
       2520  9D7 00003980 ?chopped@QByteArrayView@@QEBA?AV1@_J@Z
       2521  9D8 000039A0 ?chopped@QString@@QEBA?AV1@_J@Z
       2522  9D9 000039A0 ?chopped@QString@@QEGBA?AV1@_J@Z
       2523  9DA 000039D0 ?chopped@QString@@QEHAA?AV1@_J@Z
       2524  9DB 000A6F10 ?classInfo@QMetaObject@@QEBA?AVQMetaClassInfo@@H@Z
       2525  9DC 000A7020 ?classInfoCount@QMetaObject@@QEBAHXZ
       2526  9DD 000B7F80 ?classInfoCount@QMetaObjectBuilder@@QEBAHXZ
       2527  9DE 000B7F90 ?classInfoName@QMetaObjectBuilder@@QEBA?AVQByteArray@@H@Z
       2528  9DF 000A7080 ?classInfoOffset@QMetaObject@@QEBAHXZ
       2529  9E0 000B8040 ?classInfoValue@QMetaObjectBuilder@@QEBA?AVQByteArray@@H@Z
       2530  9E1 000A70E0 ?className@QMetaObject@@QEBAPEBDXZ
       2531  9E2 000B80F0 ?className@QMetaObjectBuilder@@QEBA?AVQByteArray@@XZ
       2532  9E3 00230740 ?cleanContinuation@QFutureInterfaceBase@@IEAAXXZ
       2533  9E4 00043FC0 ?cleanPath@QDir@@SA?AVQString@@AEBV2@@Z
       2534  9E5 0009C7A0 ?cleanupThreadData@QCoreApplicationPrivate@@QEAAXXZ
       2535  9E6 001FF080 ?clear@QAnimationGroup@@QEAAXXZ
       2536  9E7 000EC3A0 ?clear@QBindingStorage@@AEAAXXZ
       2537  9E8 00015490 ?clear@QBitArray@@QEAAXXZ
       2538  9E9 00135E90 ?clear@QByteArray@@QEAAXXZ
       2539  9EA 001121E0 ?clear@QCborArray@@QEAAXXZ
       2540  9EB 001121E0 ?clear@QCborMap@@QEAAXXZ
       2541  9EC 00302930 ?clear@QCborStreamReader@@QEAAXXZ
       2542  9ED 002C3090 ?clear@QItemSelectionModel@@UEAAXXZ
       2543  9EE 000A59B0 ?clear@QMetaContainer@@QEBAXPEAX@Z
       2544  9EF 000D7160 ?clear@QMimeData@@QEAAXXZ
       2545  9F0 000EA250 ?clear@QObjectCleanupHandler@@QEAAXXZ
       2546  9F1 00282550 ?clear@QProcessEnvironment@@QEAAXXZ
       2547  9F2 001DA1A0 ?clear@QRingBuffer@@QEAAXXZ
       2548  9F3 00293C50 ?clear@QSettings@@QEAAXXZ
       2549  9F4 00003A30 ?clear@QString@@QEAAXXZ
       2550  9F5 0022BCD0 ?clear@QThreadPool@@QEAAXXZ
       2551  9F6 0022BCE0 ?clear@QThreadPoolPrivate@@QEAAXXZ
       2552  9F7 0007DC10 ?clear@QUrl@@QEAAXXZ
       2553  9F8 0008A7C0 ?clear@QUrlQuery@@QEAAXXZ
       2554  9F9 000FB4C0 ?clear@QVariant@@QEAAXXZ
       2555  9FA 001E5770 ?clear@QXmlStreamReader@@QEAAXXZ
       2556  9FB 0017A360 ?clear@State@QStringConverterBase@@QEAAXXZ
       2557  9FC 002A6780 ?clearAllCaches@QWinRTFactoryCacheRegistration@detail@@SAXXZ
       2558  9FD 0002BAC0 ?clearApplicationFilePath@QCoreApplicationPrivate@@SAXXZ
       2559  9FE 000DEAB0 ?clearBindingStorage@QObjectPrivate@@QEAAXXZ
       2560  9FF 000154A0 ?clearBit@QBitArray@@QEAAX_J@Z
       2561  A00 002C3160 ?clearCurrentIndex@QItemSelectionModel@@UEAAXXZ
       2562  A01 000EC410 ?clearDependencyObservers@QPropertyBindingPrivate@@QEAAXXZ
       2563  A02 00028FB0 ?clearItemData@QAbstractItemModel@@UEAA_NAEBVQModelIndex@@@Z
       2564  A03 002CF590 ?clearItemData@QAbstractProxyModel@@UEAA_NAEBVQModelIndex@@@Z
       2565  A04 002FA5E0 ?clearItemData@QStringListModel@@UEAA_NAEBVQModelIndex@@@Z
       2566  A05 00095DA0 ?clearIterator@?$QBaseIterator@VQMetaAssociation@@@@IEAAXXZ
       2567  A06 00095DA0 ?clearIterator@?$QBaseIterator@VQMetaSequence@@@@IEAAXXZ
       2568  A07 0023B5D0 ?clearPositionalArguments@QCommandLineParser@@QEAAXXZ
       2569  A08 002C32B0 ?clearSelection@QItemSelectionModel@@QEAAXXZ
       2570  A09 00013DE0 ?clockType@QElapsedTimer@@SA?AW4ClockType@1@XZ
       2571  A0A 000A3360 ?clone@QChildEvent@@UEBAPEAV1@XZ
       2572  A0B 000A3500 ?clone@QDynamicPropertyChangeEvent@@UEBAPEAV1@XZ
       2573  A0C 000A3530 ?clone@QEvent@@UEBAPEAV1@XZ
       2574  A0D 0022F3F0 ?clone@QException@@UEBAPEAV1@XZ
       2575  A0E 00230810 ?clone@QFutureCallOutEvent@@UEBAPEAV1@XZ
       2576  A0F 000A35F0 ?clone@QTimerEvent@@UEBAPEAV1@XZ
       2577  A10 0022F440 ?clone@QUnhandledException@@UEBAPEAV1@XZ
       2578  A11 00028FB0 ?cloneTo@QAbstractFileEngine@@UEAA_NPEAV1@@Z
       2579  A12 00028FB0 ?cloneTo@QFSFileEngine@@UEAA_NPEAVQAbstractFileEngine@@@Z
       2580  A13 001DE080 ?close@FILEHandleTraits@QtUniqueHandleTraits@@SA_NPEAU_iobuf@@@Z
       2581  A14 001DE0A0 ?close@FileDescriptorHandleTraits@QtUniqueHandleTraits@@SA_NH@Z
       2582  A15 001DE0C0 ?close@InvalidHandleTraits@QtUniqueHandleTraits@@SA_NPEAX@Z
       2583  A16 001DE0C0 ?close@NullHandleTraits@QtUniqueHandleTraits@@SA_NPEAX@Z
       2584  A17 00028FB0 ?close@QAbstractFileEngine@@UEAA_NXZ
       2585  A18 0003A5A0 ?close@QBuffer@@UEAAXXZ
       2586  A19 0005E7E0 ?close@QFSFileEngine@@UEAA_NXZ
       2587  A1A 00053700 ?close@QFileDevice@@UEAAXXZ
       2588  A1B 00063050 ?close@QIODevice@@UEAAXXZ
       2589  A1C 002825C0 ?close@QProcess@@UEAAXXZ
       2590  A1D 000754A0 ?close@QSaveFile@@EEAAXXZ
       2591  A1E 00226B80 ?close@QWinRegistryKey@@QEAAXXZ
       2592  A1F 0008FF10 ?close@QZipReader@@QEAAXXZ
       2593  A20 0008FF30 ?close@QZipWriter@@QEAAXXZ
       2594  A21 002826C0 ?closeReadChannel@QProcess@@QEAAXW4ProcessChannel@1@@Z
       2595  A22 002826E0 ?closeWriteChannel@QProcess@@QEAAXXZ
       2596  A23 001FA9B0 ?closestPausedAnimationTimerTimeToFinish@QUnifiedTimer@@AEAAHXZ
       2597  A24 000058E0 ?closingDown@QAbstractEventDispatcher@@UEAAXXZ
       2598  A25 0009C910 ?closingDown@QCoreApplication@@SA_NXZ
       2599  A26 00220800 ?closingDown@QEventDispatcherWin32@@UEAAXXZ
       2600  A27 00144DE0 ?codeToCountry@QLocale@@SA?AW4Country@1@VQStringView@@@Z
       2601  A28 0001C920 ?codeToLanguage@QLocale@@SA?AW4Language@1@VQStringView@@@Z
       2602  A29 00144EC0 ?codeToLanguage@QLocale@@SA?AW4Language@1@VQStringView@@V?$QFlags@W4LanguageCodeType@QLocale@@@@@Z
       2603  A2A 00145100 ?codeToScript@QLocale@@SA?AW4Script@1@VQStringView@@@Z
       2604  A2B 00144DE0 ?codeToTerritory@QLocale@@SA?AW4Country@1@VQStringView@@@Z
       2605  A2C 000FB680 ?coerce@QVariantTypeCoercer@QtPrivate@@QEAAPEBXAEBVQVariant@@AEBVQMetaType@@@Z
       2606  A2D 001453B0 ?collation@QLocale@@QEBA?AV1@XZ
       2607  A2E 000D71D0 ?colorData@QMimeData@@QEBA?AVQVariant@@XZ
       2608  A2F 002AEE10 ?column@QPersistentModelIndex@@QEBAHXZ
       2609  A30 002AEE30 ?columnCount@QAbstractListModel@@EEBAHAEBVQModelIndex@@@Z
       2610  A31 002D3B30 ?columnCount@QConcatenateTablesProxyModel@@UEBAHAEBVQModelIndex@@@Z
       2611  A32 002D7270 ?columnCount@QIdentityProxyModel@@UEBAHAEBVQModelIndex@@@Z
       2612  A33 002E8740 ?columnCount@QSortFilterProxyModel@@UEBAHAEBVQModelIndex@@@Z
       2613  A34 002F5CD0 ?columnCount@QTransposeProxyModel@@UEBAHAEBVQModelIndex@@@Z
       2614  A35 002C3360 ?columnIntersectsSelection@QItemSelectionModel@@QEBA_NHAEBVQModelIndex@@@Z
       2615  A36 001E5890 ?columnNumber@QXmlStreamReader@@QEBA_JXZ
       2616  A37 002AEE50 ?columnsAboutToBeInserted@QAbstractItemModel@@QEAAXAEBVQModelIndex@@HHUQPrivateSignal@1@@Z
       2617  A38 002AEEC0 ?columnsAboutToBeInserted@QAbstractItemModelPrivate@@QEAAXAEBVQModelIndex@@HH@Z
       2618  A39 002AF330 ?columnsAboutToBeMoved@QAbstractItemModel@@QEAAXAEBVQModelIndex@@HH0HUQPrivateSignal@1@@Z
       2619  A3A 002AF3B0 ?columnsAboutToBeRemoved@QAbstractItemModel@@QEAAXAEBVQModelIndex@@HHUQPrivateSignal@1@@Z
       2620  A3B 002AF420 ?columnsAboutToBeRemoved@QAbstractItemModelPrivate@@QEAAXAEBVQModelIndex@@HH@Z
       2621  A3C 002AFAB0 ?columnsInserted@QAbstractItemModel@@QEAAXAEBVQModelIndex@@HHUQPrivateSignal@1@@Z
       2622  A3D 002AFB20 ?columnsInserted@QAbstractItemModelPrivate@@QEAAXAEBVQModelIndex@@HH@Z
       2623  A3E 002B00D0 ?columnsMoved@QAbstractItemModel@@QEAAXAEBVQModelIndex@@HH0HUQPrivateSignal@1@@Z
       2624  A3F 002B0150 ?columnsRemoved@QAbstractItemModel@@QEAAXAEBVQModelIndex@@HHUQPrivateSignal@1@@Z
       2625  A40 002B01C0 ?columnsRemoved@QAbstractItemModelPrivate@@QEAAXAEBVQModelIndex@@HH@Z
       2626  A41 00003A70 ?combiningClass@QChar@@QEBAEXZ
       2627  A42 00166B00 ?combiningClass@QChar@@SAE_U@Z
       2628  A43 003148A0 ?comment@QMimeType@@QEBA?AVQString@@XZ
       2629  A44 0019B2C0 ?comment@QTimeZone@@QEBA?AVQString@@XZ
       2630  A45 000754E0 ?commit@QSaveFile@@QEAA_NXZ
       2631  A46 0011AF50 ?commitTransaction@QDataStream@@QEAA_NXZ
       2632  A47 000630C0 ?commitTransaction@QIODevice@@QEAAXXZ
       2633  A48 001DE4B0 ?commonPrefix@QVersionNumber@@SA?AV1@AEBV1@0@Z
       2634  A49 00319630 ?communicationModes@QBluetoothPermission@@QEBA?AV?$QFlags@W4CommunicationMode@QBluetoothPermission@@@@XZ
       2635  A4A 00166B70 ?compare@QAnyStringView@@SAHV1@0W4CaseSensitivity@Qt@@@Z
       2636  A4B 00003A80 ?compare@QByteArray@@QEBAHVQByteArrayView@@W4CaseSensitivity@Qt@@@Z
       2637  A4C 00003AE0 ?compare@QByteArrayView@@QEBAHV1@W4CaseSensitivity@Qt@@@Z
       2638  A4D 001123D0 ?compare@QCborArray@@QEBAHAEBV1@@Z
       2639  A4E 001123D0 ?compare@QCborMap@@QEBAHAEBV1@@Z
       2640  A4F 001123F0 ?compare@QCborValue@@QEBAHAEBV1@@Z
       2641  A50 0001C940 ?compare@QCborValueRef@@QEBAHAEBVQCborValue@@@Z
       2642  A51 0001C9A0 ?compare@QCollator@@QEBAHAEBVQString@@0@Z
       2643  A52 0001C9E0 ?compare@QCollator@@QEBAHPEBVQChar@@H0H@Z
       2644  A53 0001CA20 ?compare@QCollator@@QEBAHPEBVQChar@@_J01@Z
       2645  A54 00255E40 ?compare@QCollator@@QEBAHVQStringView@@0@Z
       2646  A55 00255F80 ?compare@QCollatorSortKey@@QEBAHAEBV1@@Z
       2647  A56 000CE1E0 ?compare@QMetaType@@QEBA?AVQPartialOrdering@@PEBX0@Z
       2648  A57 00003B30 ?compare@QMetaType@@SA_NPEBX0HPEAH@Z
       2649  A58 0001CA60 ?compare@QOperatingSystemVersion@@CAHAEBV1@0@Z
       2650  A59 00030980 ?compare@QOperatingSystemVersionBase@@KAHV1@0@Z
       2651  A5A 00166D20 ?compare@QString@@QEBAHAEBV1@W4CaseSensitivity@Qt@@@Z
       2652  A5B 00003BE0 ?compare@QString@@QEBAHVQChar@@W4CaseSensitivity@Qt@@@Z
       2653  A5C 00166DB0 ?compare@QString@@QEBAHVQLatin1String@@W4CaseSensitivity@Qt@@@Z
       2654  A5D 00003C20 ?compare@QString@@QEBAHVQStringView@@W4CaseSensitivity@Qt@@@Z
       2655  A5E 00003C60 ?compare@QString@@SAHAEBV1@0W4CaseSensitivity@Qt@@@Z
       2656  A5F 00003C70 ?compare@QString@@SAHAEBV1@VQLatin1String@@W4CaseSensitivity@Qt@@@Z
       2657  A60 00003C20 ?compare@QString@@SAHAEBV1@VQStringView@@W4CaseSensitivity@Qt@@@Z
       2658  A61 00003C90 ?compare@QString@@SAHVQLatin1String@@AEBV1@W4CaseSensitivity@Qt@@@Z
       2659  A62 00003CC0 ?compare@QString@@SAHVQStringView@@AEBV1@W4CaseSensitivity@Qt@@@Z
       2660  A63 000FB770 ?compare@QVariant@@SA?AVQPartialOrdering@@AEBV1@0@Z
       2661  A64 001DE6B0 ?compare@QVersionNumber@@SAHAEBV1@0@Z
       2662  A65 000A59D0 ?compareConstIterator@QMetaContainer@@QEBA_NPEBX0@Z
       2663  A66 000A5A00 ?compareIterator@QMetaContainer@@QEBA_NPEBX0@Z
       2664  A67 00135EC0 ?compareMemory@QtPrivate@@YAHVQByteArrayView@@0@Z
       2665  A68 00166E40 ?compareStrings@QtPrivate@@YAHV?$QBasicUtf8StringView@$0A@@@0W4CaseSensitivity@Qt@@@Z
       2666  A69 00166E80 ?compareStrings@QtPrivate@@YAHV?$QBasicUtf8StringView@$0A@@@VQLatin1String@@W4CaseSensitivity@Qt@@@Z
       2667  A6A 00166EC0 ?compareStrings@QtPrivate@@YAHV?$QBasicUtf8StringView@$0A@@@VQStringView@@W4CaseSensitivity@Qt@@@Z
       2668  A6B 00166F20 ?compareStrings@QtPrivate@@YAHVQLatin1String@@0W4CaseSensitivity@Qt@@@Z
       2669  A6C 00167000 ?compareStrings@QtPrivate@@YAHVQLatin1String@@V?$QBasicUtf8StringView@$0A@@@W4CaseSensitivity@Qt@@@Z
       2670  A6D 00167040 ?compareStrings@QtPrivate@@YAHVQLatin1String@@VQStringView@@W4CaseSensitivity@Qt@@@Z
       2671  A6E 00167100 ?compareStrings@QtPrivate@@YAHVQStringView@@0W4CaseSensitivity@Qt@@@Z
       2672  A6F 00167190 ?compareStrings@QtPrivate@@YAHVQStringView@@V?$QBasicUtf8StringView@$0A@@@W4CaseSensitivity@Qt@@@Z
       2673  A70 00167210 ?compareStrings@QtPrivate@@YAHVQStringView@@VQLatin1String@@W4CaseSensitivity@Qt@@@Z
       2674  A71 00167290 ?compareThreeWay@@YA?AVstrong_ordering@Qt@@AEBVQByteArray@@AEBVQChar@@@Z
       2675  A72 00167310 ?compareThreeWay@@YA?AVstrong_ordering@Qt@@AEBVQByteArray@@_S@Z
       2676  A73 001673A0 ?compareThreeWay@@YA?AVstrong_ordering@Qt@@AEBVQByteArrayView@@AEBVQChar@@@Z
       2677  A74 00167420 ?compareThreeWay@@YA?AVstrong_ordering@Qt@@AEBVQByteArrayView@@_S@Z
       2678  A75 002B0AE0 ?compareThreeWay@@YA?AVstrong_ordering@Qt@@AEBVQPersistentModelIndex@@0@Z
       2679  A76 002B0B70 ?compareThreeWay@@YA?AVstrong_ordering@Qt@@AEBVQPersistentModelIndex@@AEBVQModelIndex@@@Z
       2680  A77 0018BF10 ?compareThreeWay@@YA?AVweak_ordering@Qt@@AEBVQDateTime@@0@Z
       2681  A78 0007DC70 ?compareThreeWay@@YA?AVweak_ordering@Qt@@AEBVQUrl@@0@Z
       2682  A79 00112FD0 ?compareThreeWay_helper@QCborArray@@CA?AVstrong_ordering@Qt@@AEBV1@AEBVQCborValue@@@Z
       2683  A7A 00113040 ?compareThreeWay_helper@QCborArray@@CA?AVstrong_ordering@Qt@@AEBV1@VQCborValueConstRef@@@Z
       2684  A7B 001130C0 ?compareThreeWay_helper@QCborMap@@CA?AVstrong_ordering@Qt@@AEBV1@AEBVQCborValue@@@Z
       2685  A7C 00113130 ?compareThreeWay_helper@QCborMap@@CA?AVstrong_ordering@Qt@@AEBV1@VQCborValueConstRef@@@Z
       2686  A7D 001131B0 ?compareThreeWay_helper@QCborValueConstRef@@KA?AVstrong_ordering@Qt@@V1@0@Z
       2687  A7E 00113240 ?compareThreeWay_helper@QCborValueConstRef@@KA?AVstrong_ordering@Qt@@V1@AEBVQCborValue@@@Z
       2688  A7F 0001CA90 ?compareThreeWay_helper@QUuid@@CA?AVstrong_ordering@Qt@@AEBV1@0@Z
       2689  A80 001674A0 ?compare_helper@QChar@@CAHV1@PEBD@Z
       2690  A81 00167510 ?compare_helper@QLatin1String@@CAHAEBV1@PEBD_J@Z
       2691  A82 00167550 ?compare_helper@QLatin1String@@CAHPEBVQChar@@_JV1@W4CaseSensitivity@Qt@@@Z
       2692  A83 001675E0 ?compare_helper@QString@@CAHPEBVQChar@@_J01W4CaseSensitivity@Qt@@@Z
       2693  A84 00167660 ?compare_helper@QString@@CAHPEBVQChar@@_JPEBD1W4CaseSensitivity@Qt@@@Z
       2694  A85 00167740 ?compare_helper@QStringView@@CAHV1@PEBD_J@Z
       2695  A86 000370A0 ?compare_internal@QNativeIpcKey@@CAHAEBV1@0@Z
       2696  A87 00167780 ?comparesEqual@@YA_NAEBVQByteArray@@AEBVQChar@@@Z
       2697  A88 001677D0 ?comparesEqual@@YA_NAEBVQByteArray@@_S@Z
       2698  A89 00167830 ?comparesEqual@@YA_NAEBVQByteArrayView@@AEBVQChar@@@Z
       2699  A8A 00167880 ?comparesEqual@@YA_NAEBVQByteArrayView@@_S@Z
       2700  A8B 00113300 ?comparesEqual@@YA_NAEBVQCborArray@@0@Z
       2701  A8C 00113300 ?comparesEqual@@YA_NAEBVQCborMap@@0@Z
       2702  A8D 00113320 ?comparesEqual@@YA_NAEBVQCborValue@@0@Z
       2703  A8E 00044310 ?comparesEqual@@YA_NAEBVQDir@@0@Z
       2704  A8F 00247FC0 ?comparesEqual@@YA_NAEBVQEasingCurve@@0@Z
       2705  A90 00055750 ?comparesEqual@@YA_NAEBVQFileInfo@@0@Z
       2706  A91 0011BE30 ?comparesEqual@@YA_NAEBVQJsonArray@@0@Z
       2707  A92 0011C010 ?comparesEqual@@YA_NAEBVQJsonArray@@AEBVQJsonValue@@@Z
       2708  A93 00120F00 ?comparesEqual@@YA_NAEBVQJsonDocument@@0@Z
       2709  A94 00123D10 ?comparesEqual@@YA_NAEBVQJsonObject@@0@Z
       2710  A95 0012A960 ?comparesEqual@@YA_NAEBVQJsonValue@@0@Z
       2711  A96 00145590 ?comparesEqual@@YA_NAEBVQLocale@@W4Language@1@@Z
       2712  A97 00315260 ?comparesEqual@@YA_NAEBVQMimeType@@0@Z
       2713  A98 002B0C30 ?comparesEqual@@YA_NAEBVQPersistentModelIndex@@0@Z
       2714  A99 002B0C80 ?comparesEqual@@YA_NAEBVQPersistentModelIndex@@AEBVQModelIndex@@@Z
       2715  A9A 00282740 ?comparesEqual@@YA_NAEBVQProcessEnvironment@@0@Z
       2716  A9B 00258DC0 ?comparesEqual@@YA_NAEBVQRegularExpression@@0@Z
       2717  A9C 00078D60 ?comparesEqual@@YA_NAEBVQStorageInfo@@0@Z
       2718  A9D 0019B340 ?comparesEqual@@YA_NAEBVQTimeZone@@0@Z
       2719  A9E 0007DEA0 ?comparesEqual@@YA_NAEBVQUrl@@0@Z
       2720  A9F 0008A7F0 ?comparesEqual@@YA_NAEBVQUrlQuery@@0@Z
       2721  AA0 001133E0 ?comparesEqual_helper@QCborArray@@CA_NAEBV1@AEBVQCborValue@@@Z
       2722  AA1 00113420 ?comparesEqual_helper@QCborArray@@CA_NAEBV1@VQCborValueConstRef@@@Z
       2723  AA2 00113470 ?comparesEqual_helper@QCborMap@@CA_NAEBV1@AEBVQCborValue@@@Z
       2724  AA3 00113420 ?comparesEqual_helper@QCborMap@@CA_NAEBV1@VQCborValueConstRef@@@Z
       2725  AA4 001134B0 ?comparesEqual_helper@QCborValueConstRef@@KA_NV1@0@Z
       2726  AA5 00113510 ?comparesEqual_helper@QCborValueConstRef@@KA_NV1@AEBVQCborValue@@@Z
       2727  AA6 0004DAA0 ?completeBaseName@DirEntry@QDirListing@@QEBA?AVQString@@XZ
       2728  AA7 000559D0 ?completeBaseName@QFileInfo@@QEBA?AVQString@@XZ
       2729  AA8 0004DB80 ?completeSuffix@DirEntry@QDirListing@@QEBA?AVQString@@XZ
       2730  AA9 00055AE0 ?completeSuffix@QFileInfo@@QEBA?AVQString@@XZ
       2731  AAA 0009C920 ?compressEvent@QCoreApplication@@MEAA_NPEAVQEvent@@PEAVQObject@@PEAVQPostEventList@@@Z
       2732  AAB 000708E0 ?compressionAlgorithm@QResource@@QEBA?AW4Compression@1@XZ
       2733  AAC 000900F0 ?compressionPolicy@QZipWriter@@QEBA?AW4CompressionPolicy@1@XZ
       2734  AAD 001135A0 ?concrete@QCborValueConstRef@@KA?AVQCborValue@@V1@@Z
       2735  AAE 0001CAF0 ?concrete@QCborValueRef@@AEBA?AVQCborValue@@XZ
       2736  AAF 001135A0 ?concrete@QCborValueRef@@CA?AVQCborValue@@V1@@Z
       2737  AB0 0012AC90 ?concrete@QJsonValueConstRef@@KA?AVQJsonValue@@V1@@Z
       2738  AB1 0012AD90 ?concreteBool@QJsonValueConstRef@@KA_NV1@_N@Z
       2739  AB2 00113640 ?concreteBoolean@QCborValueConstRef@@KA_NV1@_N@Z
       2740  AB3 00113670 ?concreteByteArray@QCborValueConstRef@@KA?AVQByteArray@@V1@AEBV2@@Z
       2741  AB4 00113720 ?concreteDouble@QCborValueConstRef@@KANV1@N@Z
       2742  AB5 0012ADF0 ?concreteDouble@QJsonValueConstRef@@KANV1@N@Z
       2743  AB6 0012AE50 ?concreteInt@QJsonValueConstRef@@KA_JV1@_J_N@Z
       2744  AB7 00113760 ?concreteIntegral@QCborValueConstRef@@KA_JV1@_J@Z
       2745  AB8 001137A0 ?concreteString@QCborValueConstRef@@KA?AVQString@@V1@AEBV2@@Z
       2746  AB9 0012AF00 ?concreteString@QJsonValueConstRef@@KA?AVQString@@V1@AEBV2@@Z
       2747  ABA 00113800 ?concreteType@QCborValueConstRef@@KA?AW4Type@QCborValue@@V1@@Z
       2748  ABB 0001CB20 ?concreteType@QCborValueRef@@AEBA?AW4Type@QCborValue@@XZ
       2749  ABC 00113800 ?concreteType@QCborValueRef@@CA?AW4Type@QCborValue@@V1@@Z
       2750  ABD 0012AF80 ?concreteType@QJsonValueConstRef@@KA?AW4Type@QJsonValue@@V1@@Z
       2751  ABE 000282C0 ?configuration@QLibraryInfoPrivate@@SAPEAVQSettings@@XZ
       2752  ABF 000DEAC0 ?connect@QMetaObject@@SA?AVConnection@1@PEBVQObject@@H0HHPEAH@Z
       2753  AC0 00003D00 ?connect@QObject@@QEBA?AVConnection@QMetaObject@@PEBV1@PEBD1W4ConnectionType@Qt@@@Z
       2754  AC1 000DEF70 ?connect@QObject@@SA?AVConnection@QMetaObject@@PEBV1@AEBVQMetaMethod@@01W4ConnectionType@Qt@@@Z
       2755  AC2 000DF480 ?connect@QObject@@SA?AVConnection@QMetaObject@@PEBV1@PEBD01W4ConnectionType@Qt@@@Z
       2756  AC3 000E0120 ?connect@QObjectPrivate@@SA?AVConnection@QMetaObject@@PEBVQObject@@H0PEAVQSlotObjectBase@QtPrivate@@W4ConnectionType@Qt@@@Z
       2757  AC4 000E02D0 ?connect@QObjectPrivate@@SA?AVConnection@QMetaObject@@PEBVQObject@@HPEAVQSlotObjectBase@QtPrivate@@W4ConnectionType@Qt@@@Z
       2758  AC5 000E0300 ?connectImpl@QObject@@CA?AVConnection@QMetaObject@@PEBV1@PEAPEAX01PEAVQSlotObjectBase@QtPrivate@@W4ConnectionType@Qt@@PEBHPEBU3@@Z
       2759  AC6 000E0690 ?connectImpl@QObjectPrivate@@SA?AVConnection@QMetaObject@@PEBVQObject@@H0PEAPEAXPEAVQSlotObjectBase@QtPrivate@@HPEBHPEBU3@@Z
       2760  AC7 0003A5B0 ?connectNotify@QBuffer@@MEAAXAEBVQMetaMethod@@@Z
       2761  AC8 00234750 ?connectNotify@QFutureWatcherBase@@MEAAXAEBVQMetaMethod@@@Z
       2762  AC9 000058E0 ?connectNotify@QObject@@MEAAXAEBVQMetaMethod@@@Z
       2763  ACA 0001CB40 ?connectNotify@QObjectPrivate@@QEAAXAEBVQMetaMethod@@@Z
       2764  ACB 002347F0 ?connectOutputInterface@QFutureWatcherBase@@IEAAXXZ
       2765  ACC 000E0C00 ?connectSlotsByName@QMetaObject@@SAXPEAVQObject@@@Z
       2766  ACD 00095DF0 ?constBegin@?$QIterable@VQMetaAssociation@@@@QEBA?AU?$QConstIterator@VQMetaAssociation@@@@XZ
       2767  ACE 00095DF0 ?constBegin@?$QIterable@VQMetaSequence@@@@QEBA?AU?$QConstIterator@VQMetaSequence@@@@XZ
       2768  ACF 00095E30 ?constBegin@QAssociativeIterable@@QEBA?AV?$QTaggedIterator@VQAssociativeConstIterator@@X@@XZ
       2769  AD0 000035D0 ?constBegin@QByteArray@@QEBAPEBDXZ
       2770  AD1 0001C1D0 ?constBegin@QCborArray@@QEBA?AVConstIterator@1@XZ
       2771  AD2 0001C230 ?constBegin@QCborMap@@QEBA?AVConstIterator@1@XZ
       2772  AD3 0001C280 ?constBegin@QJsonArray@@QEBA?AVconst_iterator@1@XZ
       2773  AD4 0001C2C0 ?constBegin@QJsonObject@@QEBA?AVconst_iterator@1@XZ
       2774  AD5 000A5A30 ?constBegin@QMetaContainer@@QEBAPEAXPEBX@Z
       2775  AD6 00095E30 ?constBegin@QSequentialIterable@@QEBA?AV?$QTaggedIterator@VQSequentialConstIterator@@X@@XZ
       2776  AD7 000035D0 ?constBegin@QString@@QEBAPEBVQChar@@XZ
       2777  AD8 00002F50 ?constData@QByteArray@@QEBAPEBDXZ
       2778  AD9 000035D0 ?constData@QByteArrayView@@QEBAPEBDXZ
       2779  ADA 00034AC0 ?constData@QSharedMemory@@QEBAPEBXXZ
       2780  ADB 00003D40 ?constData@QString@@QEBAPEBVQChar@@XZ
       2781  ADC 00003D60 ?constData@QVariant@@QEBAPEBXXZ
       2782  ADD 00095E80 ?constEnd@?$QIterable@VQMetaAssociation@@@@QEBA?AU?$QConstIterator@VQMetaAssociation@@@@XZ
       2783  ADE 00095E80 ?constEnd@?$QIterable@VQMetaSequence@@@@QEBA?AU?$QConstIterator@VQMetaSequence@@@@XZ
       2784  ADF 00095EC0 ?constEnd@QAssociativeIterable@@QEBA?AV?$QTaggedIterator@VQAssociativeConstIterator@@X@@XZ
       2785  AE0 00003890 ?constEnd@QByteArray@@QEBAPEBDXZ
       2786  AE1 0001C770 ?constEnd@QCborArray@@QEBA?AVConstIterator@1@XZ
       2787  AE2 0001C7A0 ?constEnd@QCborMap@@QEBA?AVConstIterator@1@XZ
       2788  AE3 0001C7E0 ?constEnd@QJsonArray@@QEBA?AVconst_iterator@1@XZ
       2789  AE4 0001CB60 ?constEnd@QJsonObject@@QEBA?AVconst_iterator@1@XZ
       2790  AE5 000A5A60 ?constEnd@QMetaContainer@@QEBAPEAXPEBX@Z
       2791  AE6 00095EC0 ?constEnd@QSequentialIterable@@QEBA?AV?$QTaggedIterator@VQSequentialConstIterator@@X@@XZ
       2792  AE7 000038B0 ?constEnd@QString@@QEBAPEBVQChar@@XZ
       2793  AE8 00095F10 ?constFind@QAssociativeIterable@@QEBA?AV?$QTaggedIterator@VQAssociativeConstIterator@@X@@AEBVQVariant@@@Z
       2794  AE9 00113820 ?constFind@QCborMap@@QEBA?AVConstIterator@1@AEBVQCborValue@@@Z
       2795  AEA 00113880 ?constFind@QCborMap@@QEBA?AVConstIterator@1@AEBVQString@@@Z
       2796  AEB 001138F0 ?constFind@QCborMap@@QEBA?AVConstIterator@1@VQLatin1String@@@Z
       2797  AEC 00113960 ?constFind@QCborMap@@QEBA?AVConstIterator@1@_J@Z
       2798  AED 00123EF0 ?constFind@QJsonObject@@QEBA?AVconst_iterator@1@AEBVQString@@@Z
       2799  AEE 00123F70 ?constFind@QJsonObject@@QEBA?AVconst_iterator@1@VQLatin1String@@@Z
       2800  AEF 00123FE0 ?constFind@QJsonObject@@QEBA?AVconst_iterator@1@VQStringView@@@Z
       2801  AF0 00003840 ?constInternalPointer@QPersistentModelIndex@@QEBAPEBXXZ
       2802  AF1 00095F30 ?constIterable@?$QBaseIterator@VQMetaAssociation@@@@IEBAPEBV?$QIterable@VQMetaAssociation@@@@XZ
       2803  AF2 00095F30 ?constIterable@?$QBaseIterator@VQMetaSequence@@@@IEBAPEBV?$QIterable@VQMetaSequence@@@@XZ
       2804  AF3 00095F40 ?constIterable@?$QIterable@VQMetaAssociation@@@@QEBAPEBXXZ
       2805  AF4 00095F40 ?constIterable@?$QIterable@VQMetaSequence@@@@QEBAPEBXXZ
       2806  AF5 000035D0 ?constIterator@?$QBaseIterator@VQMetaAssociation@@@@QEBAPEBXXZ
       2807  AF6 000035D0 ?constIterator@?$QBaseIterator@VQMetaSequence@@@@QEBAPEBXXZ
       2808  AF7 000CE2C0 ?construct@QMetaType@@QEBAPEAXPEAXPEBX@Z
       2809  AF8 00003D80 ?construct@QMetaType@@SAPEAXHPEAXPEBX@Z
       2810  AF9 000A7240 ?constructor@QMetaObject@@QEBA?AVQMetaMethod@@H@Z
       2811  AFA 000B8120 ?constructor@QMetaObjectBuilder@@QEBA?AVQMetaMethodBuilder@@H@Z
       2812  AFB 000A7280 ?constructorCount@QMetaObject@@QEBAHXZ
       2813  AFC 000B8170 ?constructorCount@QMetaObjectBuilder@@QEBAHXZ
       2814  AFD 0021A370 ?consumePending@QWindowsPipeReader@@AEAA_NXZ
       2815  AFE 0021A3A0 ?consumePendingAndEmit@QWindowsPipeReader@@AEAA_N_N@Z
       2816  AFF 0021BA50 ?consumePendingAndEmit@QWindowsPipeWriter@@AEAA_N_N@Z
       2817  B00 00130050 ?containerDepth@QCborStreamReader@@QEBAHXZ
       2818  B01 00003DC0 ?contains@QByteArray@@QEBA_ND@Z
       2819  B02 00003DE0 ?contains@QByteArray@@QEBA_NVQByteArrayView@@@Z
       2820  B03 00003E20 ?contains@QByteArrayView@@QEBA_ND@Z
       2821  B04 00003E70 ?contains@QByteArrayView@@QEBA_NV1@@Z
       2822  B05 001139D0 ?contains@QCborArray@@QEBA_NAEBVQCborValue@@@Z
       2823  B06 0001CBA0 ?contains@QCborMap@@QEBA_NAEBVQCborValue@@@Z
       2824  B07 0001CC00 ?contains@QCborMap@@QEBA_NAEBVQString@@@Z
       2825  B08 0001CC60 ?contains@QCborMap@@QEBA_NVQLatin1String@@@Z
       2826  B09 0001CCC0 ?contains@QCborMap@@QEBA_N_J@Z
       2827  B0A 002C4440 ?contains@QItemSelection@@QEBA_NAEBVQModelIndex@@@Z
       2828  B0B 0001CD20 ?contains@QItemSelectionRange@@QEBA_NAEBVQModelIndex@@@Z
       2829  B0C 0001CE30 ?contains@QItemSelectionRange@@QEBA_NHHAEBVQModelIndex@@@Z
       2830  B0D 0011C090 ?contains@QJsonArray@@QEBA_NAEBVQJsonValue@@@Z
       2831  B0E 00124050 ?contains@QJsonObject@@QEBA_NAEBVQString@@@Z
       2832  B0F 00124090 ?contains@QJsonObject@@QEBA_NVQLatin1String@@@Z
       2833  B10 001240D0 ?contains@QJsonObject@@QEBA_NVQStringView@@@Z
       2834  B11 00282780 ?contains@QProcessEnvironment@@QEBA_NAEBVQString@@@Z
       2835  B12 001D9230 ?contains@QRect@@QEBA_NAEBV1@_N@Z
       2836  B13 001D9340 ?contains@QRect@@QEBA_NAEBVQPoint@@_N@Z
       2837  B14 0001CED0 ?contains@QRect@@QEBA_NHH@Z
       2838  B15 0001CEF0 ?contains@QRect@@QEBA_NHH_N@Z
       2839  B16 001D9400 ?contains@QRectF@@QEBA_NAEBV1@@Z
       2840  B17 001D94E0 ?contains@QRectF@@QEBA_NAEBVQPointF@@@Z
       2841  B18 0001CF10 ?contains@QRectF@@QEBA_NNN@Z
       2842  B19 0001CF30 ?contains@QSettings@@QEBA_NAEBVQString@@@Z
       2843  B1A 00293CC0 ?contains@QSettings@@QEBA_NVQAnyStringView@@@Z
       2844  B1B 00003EB0 ?contains@QString@@QEBA_NAEBV1@W4CaseSensitivity@Qt@@@Z
       2845  B1C 00167BC0 ?contains@QString@@QEBA_NAEBVQRegularExpression@@PEAVQRegularExpressionMatch@@@Z
       2846  B1D 00003ED0 ?contains@QString@@QEBA_NVQChar@@W4CaseSensitivity@Qt@@@Z
       2847  B1E 00003EF0 ?contains@QString@@QEBA_NVQLatin1String@@W4CaseSensitivity@Qt@@@Z
       2848  B1F 00003F20 ?contains@QString@@QEBA_NVQStringView@@W4CaseSensitivity@Qt@@@Z
       2849  B20 0022BE90 ?contains@QThreadPool@@QEBA_NPEBVQThread@@@Z
       2850  B21 00167CB0 ?contains@QtPrivate@@YA_NVQStringView@@AEBVQRegularExpression@@PEAVQRegularExpressionMatch@@@Z
       2851  B22 00236160 ?contains@ResultStoreBase@QtPrivate@@QEBA_NH@Z
       2852  B23 00095F50 ?containsKey@QAssociativeIterable@@QEAA_NAEBVQVariant@@@Z
       2853  B24 00003F60 ?containsKey@QMetaAssociation@@QEBA_NPEBX0@Z
       2854  B25 002361B0 ?containsValidResultItem@ResultStoreBase@QtPrivate@@IEBA_NH@Z
       2855  B26 00003F90 ?convert@QMetaType@@SA_NPEBXHPEAXH@Z
       2856  B27 000CE3A0 ?convert@QMetaType@@SA_NV1@PEBX0PEAX@Z
       2857  B28 00028FB0 ?convert@QMetaTypeModuleHelper@@UEBA_NPEBXHPEAXH@Z
       2858  B29 000FB980 ?convert@QVariant@@IEBA_NHPEAX@Z
       2859  B2A 00003FF0 ?convert@QVariant@@QEAA_NH@Z
       2860  B2B 000FB9D0 ?convert@QVariant@@QEAA_NVQMetaType@@@Z
       2861  B2C 000FBC50 ?convert@QVariantTypeCoercer@QtPrivate@@QEAAPEBXAEBVQVariant@@AEBVQMetaType@@@Z
       2862  B2D 00004020 ?convertFromAscii@QAbstractConcatenable@@KAXDAEAPEAVQChar@@@Z
       2863  B2E 0017AB60 ?convertFromLatin1@QUtf8@@SAPEADPEADVQLatin1String@@@Z
       2864  B2F 00167DC0 ?convertFromUnicode@QLatin1@@SAPEADPEADVQStringView@@@Z
       2865  B30 0008CFE0 ?convertFromUnicode@QLocal8Bit@@SA?AVQByteArray@@VQStringView@@PEAUState@QStringConverterBase@@@Z
       2866  B31 0017ABB0 ?convertFromUnicode@QUtf16@@SA?AVQByteArray@@VQStringView@@PEAUState@QStringConverterBase@@W4DataEndianness@@@Z
       2867  B32 0017ACE0 ?convertFromUnicode@QUtf32@@SA?AVQByteArray@@VQStringView@@PEAUState@QStringConverterBase@@W4DataEndianness@@@Z
       2868  B33 0017AEF0 ?convertFromUnicode@QUtf8@@SA?AVQByteArray@@VQStringView@@@Z
       2869  B34 0017B160 ?convertFromUnicode@QUtf8@@SA?AVQByteArray@@VQStringView@@PEAUState@QStringConverterBase@@@Z
       2870  B35 0017B220 ?convertFromUnicode_sys@QLocal8Bit@@SA?AVQByteArray@@VQStringView@@IPEAUState@QStringConverterBase@@@Z
       2871  B36 0017B7B0 ?convertFromUnicode_sys@QLocal8Bit@@SA?AVQByteArray@@VQStringView@@PEAUState@QStringConverterBase@@@Z
       2872  B37 00178E60 ?convertFromUtf8@QAbstractConcatenable@@KAXVQByteArrayView@@AEAPEAVQChar@@@Z
       2873  B38 00167DF0 ?convertToLatin1@QtPrivate@@YA?AVQByteArray@@VQStringView@@@Z
       2874  B39 00167E20 ?convertToLocal8Bit@QtPrivate@@YA?AVQByteArray@@VQStringView@@@Z
       2875  B3A 00167E50 ?convertToQString@QtPrivate@@YA?AVQString@@VQAnyStringView@@@Z
       2876  B3B 00167E80 ?convertToUcs4@QtPrivate@@YA?AV?$QList@I@@VQStringView@@@Z
       2877  B3C 0008D060 ?convertToUnicode@QLocal8Bit@@SA?AVQString@@VQByteArrayView@@PEAUState@QStringConverterBase@@@Z
       2878  B3D 0017B7E0 ?convertToUnicode@QUtf16@@SA?AVQString@@VQByteArrayView@@PEAUState@QStringConverterBase@@W4DataEndianness@@@Z
       2879  B3E 0017BA70 ?convertToUnicode@QUtf32@@SA?AVQString@@VQByteArrayView@@PEAUState@QStringConverterBase@@W4DataEndianness@@@Z
       2880  B3F 0017BEE0 ?convertToUnicode@QUtf8@@SA?AVQString@@VQByteArrayView@@PEAUState@QStringConverterBase@@@Z
       2881  B40 0017BF90 ?convertToUnicode@QUtf8@@SAPEA_SPEA_SVQByteArrayView@@@Z
       2882  B41 0017C840 ?convertToUnicode_sys@QLocal8Bit@@SA?AVQString@@VQByteArrayView@@IPEAUState@QStringConverterBase@@@Z
       2883  B42 0017D270 ?convertToUnicode_sys@QLocal8Bit@@SA?AVQString@@VQByteArrayView@@PEAUState@QStringConverterBase@@@Z
       2884  B43 00167FC0 ?convertToUtf8@QtPrivate@@YA?AVQByteArray@@VQStringView@@@Z
       2885  B44 00028FB0 ?copy@QAbstractFileEngine@@UEAA_NAEBVQString@@@Z
       2886  B45 0005E920 ?copy@QFSFileEngine@@UEAA_NAEBVQString@@@Z
       2887  B46 000509C0 ?copy@QFile@@QEAA_NAEBVQString@@@Z
       2888  B47 000511E0 ?copy@QFile@@SA_NAEBVQString@@0@Z
       2889  B48 000A5A90 ?copyConstIterator@QMetaContainer@@QEBAXPEAXPEBX@Z
       2890  B49 000FBD70 ?copyConstruct@QVariant@@CA?AV1@VQMetaType@@PEBX@Z
       2891  B4A 000A5AC0 ?copyIterator@QMetaContainer@@QEBAXPEAXPEBX@Z
       2892  B4B 000371A0 ?copy_internal@QNativeIpcKey@@AEAAXAEBV1@@Z
       2893  B4C 00015500 ?count@QBitArray@@QEBA_JXZ
       2894  B4D 0019F0E0 ?count@QBitArray@@QEBA_J_N@Z
       2895  B4E 00135F30 ?count@QByteArray@@QEBA_JD@Z
       2896  B4F 00004030 ?count@QByteArray@@QEBA_JVQByteArrayView@@@Z
       2897  B50 000038C0 ?count@QByteArray@@QEBA_JXZ
       2898  B51 00004070 ?count@QByteArrayView@@QEBA_JD@Z
       2899  B52 000040B0 ?count@QByteArrayView@@QEBA_JV1@@Z
       2900  B53 0001CF70 ?count@QDir@@QEBAIXZ
       2901  B54 00044690 ?count@QDir@@QEBA_JUDisambiguated_t@Qt@@@Z
       2902  B55 0001CF80 ?count@QJsonArray@@QEBA_JXZ
       2903  B56 0001CF90 ?count@QJsonObject@@QEBA_JXZ
       2904  B57 00168010 ?count@QString@@QEBA_JAEBV1@W4CaseSensitivity@Qt@@@Z
       2905  B58 00168070 ?count@QString@@QEBA_JAEBVQRegularExpression@@@Z
       2906  B59 001680A0 ?count@QString@@QEBA_JVQChar@@W4CaseSensitivity@Qt@@@Z
       2907  B5A 001680E0 ?count@QString@@QEBA_JVQStringView@@W4CaseSensitivity@Qt@@@Z
       2908  B5B 000038C0 ?count@QString@@QEBA_JXZ
       2909  B5C 000901E0 ?count@QZipReader@@QEBAHXZ
       2910  B5D 00135F70 ?count@QtPrivate@@YA_JVQByteArrayView@@0@Z
       2911  B5E 00168120 ?count@QtPrivate@@YA_JVQLatin1String@@0W4CaseSensitivity@Qt@@@Z
       2912  B5F 001681E0 ?count@QtPrivate@@YA_JVQLatin1String@@VQChar@@W4CaseSensitivity@Qt@@@Z
       2913  B60 00168250 ?count@QtPrivate@@YA_JVQLatin1String@@VQStringView@@W4CaseSensitivity@Qt@@@Z
       2914  B61 00168460 ?count@QtPrivate@@YA_JVQStringView@@0W4CaseSensitivity@Qt@@@Z
       2915  B62 00168610 ?count@QtPrivate@@YA_JVQStringView@@AEBVQRegularExpression@@@Z
       2916  B63 00168760 ?count@QtPrivate@@YA_JVQStringView@@VQChar@@W4CaseSensitivity@Qt@@@Z
       2917  B64 001688A0 ?count@QtPrivate@@YA_JVQStringView@@VQLatin1String@@W4CaseSensitivity@Qt@@@Z
       2918  B65 00236230 ?count@ResultStoreBase@QtPrivate@@QEBAHXZ
       2919  B66 001456C0 ?countriesForLanguage@QLocale@@SA?AV?$QList@W4Country@QLocale@@@@W4Language@1@@Z
       2920  B67 00145AB0 ?country@QLocale@@QEBA?AW4Country@1@XZ
       2921  B68 0019B3A0 ?country@QTimeZone@@QEBA?AW4Country@QLocale@@XZ
       2922  B69 00145AC0 ?countryToCode@QLocale@@SA?AVQString@@W4Country@1@@Z
       2923  B6A 00145B50 ?countryToString@QLocale@@SA?AVQString@@W4Country@1@@Z
       2924  B6B 000040E0 ?crbegin@QByteArray@@QEBA?AV?$reverse_iterator@PEBD@std@@XZ
       2925  B6C 000040F0 ?crbegin@QByteArrayView@@QEBA?AV?$reverse_iterator@PEBD@std@@XZ
       2926  B6D 00004100 ?crbegin@QString@@QEBA?AV?$reverse_iterator@PEBVQChar@@@std@@XZ
       2927  B6E 00038EE0 ?create@QAbstractFileEngine@@SA?AV?$unique_ptr@VQAbstractFileEngine@@U?$default_delete@VQAbstractFileEngine@@@std@@@std@@AEBVQString@@@Z
       2928  B6F 000D09E0 ?create@QMetaType@@QEBAPEAXPEBX@Z
       2929  B70 00004120 ?create@QMetaType@@SAPEAXHPEBX@Z
       2930  B71 0006E450 ?create@QNonContiguousByteDeviceFactory@@SAPEAVQNonContiguousByteDevice@@AEBVQByteArray@@@Z
       2931  B72 0006E520 ?create@QNonContiguousByteDeviceFactory@@SAPEAVQNonContiguousByteDevice@@PEAVQIODevice@@@Z
       2932  B73 0006E590 ?create@QNonContiguousByteDeviceFactory@@SAPEAVQNonContiguousByteDevice@@V?$shared_ptr@VQRingBuffer@@@std@@@Z
       2933  B74 0001CFA0 ?create@QRunnable@@SAPEAV1@V?$function@$$A6AXXZ@std@@@Z
       2934  B75 00034AD0 ?create@QSharedMemory@@QEAA_N_JW4AccessMode@1@@Z
       2935  B76 000FBF20 ?create@QVariant@@IEAAXHPEBX@Z
       2936  B77 000FBF60 ?create@QVariant@@IEAAXVQMetaType@@PEBX@Z
       2937  B78 00004150 ?createConstIteratorAtKey@QMetaAssociation@@QEBAPEAXPEBX0@Z
       2938  B79 0009C9F0 ?createEventDispatcher@QCoreApplicationPrivate@@UEAAXXZ
       2939  B7A 0001D0B0 ?createIndex@QAbstractItemModel@@IEBA?AVQModelIndex@@HHPEBX@Z
       2940  B7B 0001D0B0 ?createIndex@QAbstractItemModel@@IEBA?AVQModelIndex@@HH_K@Z
       2941  B7C 002B0E20 ?createIndex@QAbstractItemModelPrivate@@QEBA?AVQModelIndex@@HHH@Z
       2942  B7D 002B0E40 ?createIndex@QAbstractItemModelPrivate@@QEBA?AVQModelIndex@@HHPEAX@Z
       2943  B7E 00004180 ?createIteratorAtKey@QMetaAssociation@@QEBAPEAXPEAXPEBX@Z
       2944  B7F 0007AF20 ?createNativeFile@QTemporaryFile@@SAPEAV1@AEAVQFile@@@Z
       2945  B80 000512A0 ?createNativeFile@QTemporaryFile@@SAPEAV1@AEBVQString@@@Z
       2946  B81 00282880 ?createProcessArgumentsModifier@QProcess@@QEBA?AV?$function@$$A6AXPEAUCreateProcessArguments@QProcess@@@Z@std@@XZ
       2947  B82 00007370 ?createProperty@QAbstractDynamicMetaObject@@UEAAHPEBD0@Z
       2948  B83 00145BE0 ?createSeparatedList@QLocale@@QEBA?AVQString@@AEBV?$QList@VQString@@@@@Z
       2949  B84 0006E6B0 ?createShared@QNonContiguousByteDeviceFactory@@SA?AV?$shared_ptr@VQNonContiguousByteDevice@@@std@@AEBVQByteArray@@@Z
       2950  B85 0006E780 ?createShared@QNonContiguousByteDeviceFactory@@SA?AV?$shared_ptr@VQNonContiguousByteDevice@@@std@@PEAVQIODevice@@@Z
       2951  B86 0006E850 ?createShared@QNonContiguousByteDeviceFactory@@SA?AV?$shared_ptr@VQNonContiguousByteDevice@@@std@@V?$shared_ptr@VQRingBuffer@@@3@@Z
       2952  B87 002CF640 ?createSourceIndex@QAbstractProxyModel@@IEBA?AVQModelIndex@@HHPEAX@Z
       2953  B88 00184C80 ?createThreadImpl@QThread@@CAPEAV1@$$QEAV?$future@X@std@@@Z
       2954  B89 00109E40 ?createUuid@QUuid@@SA?AV1@XZ
       2955  B8A 0001D0D0 ?createUuidV3@QUuid@@SA?AV1@AEBV1@AEBVQByteArray@@@Z
       2956  B8B 0001D110 ?createUuidV3@QUuid@@SA?AV1@AEBV1@AEBVQString@@@Z
       2957  B8C 00109EE0 ?createUuidV3@QUuid@@SA?AV1@V1@VQByteArrayView@@@Z
       2958  B8D 0001D190 ?createUuidV5@QUuid@@SA?AV1@AEBV1@AEBVQByteArray@@@Z
       2959  B8E 0001D1D0 ?createUuidV5@QUuid@@SA?AV1@AEBV1@AEBVQString@@@Z
       2960  B8F 0010A010 ?createUuidV5@QUuid@@SA?AV1@V1@VQByteArrayView@@@Z
       2961  B90 0001D250 ?create_impl@QMetaCallEvent@@CAPEAV1@PEAVQSlotObjectBase@QtPrivate@@PEBVQObject@@H_KQEBQEBXQEBVQMetaType@@@Z
       2962  B91 000E1820 ?create_impl@QMetaCallEvent@@CAPEAV1@V?$unique_ptr@VQSlotObjectBase@QtPrivate@@UDeleter@12@@std@@PEBVQObject@@H_KQEBQEBXQEBVQMetaType@@@Z
       2963  B92 00090200 ?creationPermissions@QZipWriter@@QEBA?AV?$QFlags@W4Permission@QFileDevice@@@@XZ
       2964  B93 000041B0 ?crend@QByteArray@@QEBA?AV?$reverse_iterator@PEBD@std@@XZ
       2965  B94 000041B0 ?crend@QByteArrayView@@QEBA?AV?$reverse_iterator@PEBD@std@@XZ
       2966  B95 000041B0 ?crend@QString@@QEBA?AV?$reverse_iterator@PEBVQChar@@@std@@XZ
       2967  B96 0002BB10 ?critical@QMessageLogger@@QEBA?AVQDebug@@AEBVQLoggingCategory@@@Z
       2968  B97 0002BC10 ?critical@QMessageLogger@@QEBA?AVQDebug@@P6AAEBVQLoggingCategory@@XZ@Z
       2969  B98 0002BC50 ?critical@QMessageLogger@@QEBA?AVQDebug@@XZ
       2970  B99 0002BD20 ?critical@QMessageLogger@@QEBAXAEBVQLoggingCategory@@PEBDZZ
       2971  B9A 0002BDA0 ?critical@QMessageLogger@@QEBAXP6AAEBVQLoggingCategory@@XZPEBDZZ
       2972  B9B 0002BE30 ?critical@QMessageLogger@@QEBAXPEBDZZ
       2973  B9C 00146190 ?currencySymbol@QLocale@@QEBA?AVQString@@W4CurrencySymbolFormat@1@@Z
       2974  B9D 000A3BD0 ?current@QDeadlineTimer@@SA?AV1@W4TimerType@Qt@@@Z
       2975  B9E 0001D290 ?current@QDir@@SA?AV1@XZ
       2976  B9F 0001D2E0 ?current@QOperatingSystemVersion@@SA?AV1@XZ
       2977  BA0 000309C0 ?current@QOperatingSystemVersionBase@@SA?AV1@XZ
       2978  BA1 002066A0 ?currentAnimation@QSequentialAnimationGroup@@QEBAPEAVQAbstractAnimation@@XZ
       2979  BA2 002066E0 ?currentAnimationChanged@QSequentialAnimationGroup@@QEAAXPEAVQAbstractAnimation@@@Z
       2980  BA3 002C45D0 ?currentChanged@QItemSelectionModel@@QEAAXAEBVQModelIndex@@0@Z
       2981  BA4 002C4620 ?currentColumnChanged@QItemSelectionModel@@QEAAXAEBVQModelIndex@@0@Z
       2982  BA5 000324C0 ?currentCpuArchitecture@QSysInfo@@SA?AVQString@@XZ
       2983  BA6 0018C2E0 ?currentDate@QDate@@SA?AV1@XZ
       2984  BA7 0018C360 ?currentDateTime@QDateTime@@SA?AV1@AEBVQTimeZone@@@Z
       2985  BA8 0018C5B0 ?currentDateTime@QDateTime@@SA?AV1@XZ
       2986  BA9 0018C5F0 ?currentDateTimeUtc@QDateTime@@SA?AV1@XZ
       2987  BAA 00039010 ?currentFileInfo@QAbstractFileEngineIterator@@UEBA?AVQFileInfo@@XZ
       2988  BAB 00039120 ?currentFilePath@QAbstractFileEngineIterator@@UEBA?AVQString@@XZ
       2989  BAC 0024D8B0 ?currentFrame@QTimeLine@@QEBAHXZ
       2990  BAD 002C4670 ?currentIndex@QItemSelectionModel@@QEBA?AVQModelIndex@@XZ
       2991  BAE 001FA9F0 ?currentLoop@QAbstractAnimation@@QEBAHXZ
       2992  BAF 001FAA40 ?currentLoopChanged@QAbstractAnimation@@QEAAXH@Z
       2993  BB0 001FAA80 ?currentLoopTime@QAbstractAnimation@@QEBAHXZ
       2994  BB1 0018C630 ?currentMSecsSinceEpoch@QDateTime@@SA_JXZ
       2995  BB2 00302B30 ?currentOffset@QCborStreamReader@@QEBA_JXZ
       2996  BB3 000446C0 ?currentPath@QDir@@SA?AVQString@@XZ
       2997  BB4 00213BD0 ?currentPath@QFSFileEngine@@SA?AVQString@@AEBV2@@Z
       2998  BB5 00063150 ?currentReadChannel@QIODevice@@QEBAHXZ
       2999  BB6 002C46A0 ?currentRowChanged@QItemSelectionModel@@QEAAXAEBVQModelIndex@@0@Z
       3000  BB7 0018C730 ?currentSecsSinceEpoch@QDateTime@@SA_JXZ
       3001  BB8 0001D310 ?currentStringChunkSize@QCborStreamReader@@QEBA_JXZ
       3002  BB9 00184D10 ?currentThread@QThread@@SAPEAV1@XZ
       3003  BBA 0001D320 ?currentThreadId@QThread@@SAPEAXXZ
       3004  BBB 00228020 ?currentThreadIdImpl@QThread@@CAPEAXXZ
       3005  BBC 001FAA90 ?currentTime@QAbstractAnimation@@QEBAHXZ
       3006  BBD 0018C820 ?currentTime@QTime@@SA?AV1@XZ
       3007  BBE 0024D920 ?currentTime@QTimeLine@@QEBAHXZ
       3008  BBF 00013DE0 ?currentType@QOperatingSystemVersion@@SA?AW4OSType@1@XZ
       3009  BC0 00168AA0 ?currentUnicodeVersion@QChar@@SA?AW4UnicodeVersion@1@XZ
       3010  BC1 0024D970 ?currentValue@QTimeLine@@QEBANXZ
       3011  BC2 00209B10 ?currentValue@QVariantAnimation@@QEBA?AVQVariant@@XZ
       3012  BC3 00063160 ?currentWriteChannel@QIODevice@@QEBAHXZ
       3013  BC4 000EC520 ?currentlyEvaluatingBinding@QPropertyBindingPrivate@@SAPEAV1@XZ
       3014  BC5 00007370 ?cursorPosition@QDateTimeParser@@MEBAHXZ
       3015  BC6 000058E0 ?customEvent@QObject@@MEAAXPEAVQEvent@@@Z
       3016  BC7 00248B70 ?customType@QEasingCurve@@QEBAP6ANN@ZXZ
       3017  BC8 000041C0 ?d@QMetaAssociation@@AEBAPEBVQMetaAssociationInterface@QtMetaContainerPrivate@@XZ
       3018  BC9 000041C0 ?d@QMetaSequence@@AEBAPEBVQMetaSequenceInterface@QtMetaContainerPrivate@@XZ
       3019  BCA 0001D330 ?d@QPropertyBindingData@QtPrivate@@AEBA_KXZ
       3020  BCB 000035D0 ?d_func@QAbstractAnimation@@AEAAPEAVQAbstractAnimationPrivate@@XZ
       3021  BCC 000035D0 ?d_func@QAbstractAnimation@@AEBAPEBVQAbstractAnimationPrivate@@XZ
       3022  BCD 000035D0 ?d_func@QAbstractEventDispatcher@@AEAAPEAVQAbstractEventDispatcherPrivate@@XZ
       3023  BCE 000035D0 ?d_func@QAbstractEventDispatcher@@AEBAPEBVQAbstractEventDispatcherPrivate@@XZ
       3024  BCF 000035D0 ?d_func@QAbstractEventDispatcherV2@@AEAAPEAVQAbstractEventDispatcherPrivate@@XZ
       3025  BD0 000035D0 ?d_func@QAbstractEventDispatcherV2@@AEBAPEBVQAbstractEventDispatcherPrivate@@XZ
       3026  BD1 000035D0 ?d_func@QAbstractFileEngine@@AEAAPEAVQAbstractFileEnginePrivate@@XZ
       3027  BD2 000035D0 ?d_func@QAbstractFileEngine@@AEBAPEBVQAbstractFileEnginePrivate@@XZ
       3028  BD3 000035D0 ?d_func@QAbstractItemModel@@AEAAPEAVQAbstractItemModelPrivate@@XZ
       3029  BD4 000035D0 ?d_func@QAbstractItemModel@@AEBAPEBVQAbstractItemModelPrivate@@XZ
       3030  BD5 000035D0 ?d_func@QAbstractProxyModel@@AEAAPEAVQAbstractProxyModelPrivate@@XZ
       3031  BD6 000035D0 ?d_func@QAbstractProxyModel@@AEBAPEBVQAbstractProxyModelPrivate@@XZ
       3032  BD7 000035D0 ?d_func@QAnimationDriver@@AEAAPEAVQAnimationDriverPrivate@@XZ
       3033  BD8 000035D0 ?d_func@QAnimationDriver@@AEBAPEBVQAnimationDriverPrivate@@XZ
       3034  BD9 000035D0 ?d_func@QAnimationGroup@@AEAAPEAVQAnimationGroupPrivate@@XZ
       3035  BDA 000035D0 ?d_func@QAnimationGroup@@AEBAPEBVQAnimationGroupPrivate@@XZ
       3036  BDB 000035D0 ?d_func@QBuffer@@AEAAPEAVQBufferPrivate@@XZ
       3037  BDC 000035D0 ?d_func@QBuffer@@AEBAPEBVQBufferPrivate@@XZ
       3038  BDD 000035D0 ?d_func@QChronoTimer@@AEAAPEAVQTimerPrivate@@XZ
       3039  BDE 000035D0 ?d_func@QChronoTimer@@AEBAPEBVQTimerPrivate@@XZ
       3040  BDF 000035D0 ?d_func@QConcatenateTablesProxyModel@@AEAAPEAVQConcatenateTablesProxyModelPrivate@@XZ
       3041  BE0 000035D0 ?d_func@QConcatenateTablesProxyModel@@AEBAPEBVQConcatenateTablesProxyModelPrivate@@XZ
       3042  BE1 000035D0 ?d_func@QCoreApplication@@AEAAPEAVQCoreApplicationPrivate@@XZ
       3043  BE2 000035D0 ?d_func@QCoreApplication@@AEBAPEBVQCoreApplicationPrivate@@XZ
       3044  BE3 00044740 ?d_func@QDir@@AEAAPEAVQDirPrivate@@XZ
       3045  BE4 000041C0 ?d_func@QDir@@AEBAPEBVQDirPrivate@@XZ
       3046  BE5 000035D0 ?d_func@QEventDispatcherWin32@@AEAAPEAVQEventDispatcherWin32Private@@XZ
       3047  BE6 000035D0 ?d_func@QEventDispatcherWin32@@AEBAPEBVQEventDispatcherWin32Private@@XZ
       3048  BE7 000035D0 ?d_func@QEventLoop@@AEAAPEAVQEventLoopPrivate@@XZ
       3049  BE8 000035D0 ?d_func@QEventLoop@@AEBAPEBVQEventLoopPrivate@@XZ
       3050  BE9 000035D0 ?d_func@QFSFileEngine@@AEAAPEAVQFSFileEnginePrivate@@XZ
       3051  BEA 000035D0 ?d_func@QFSFileEngine@@AEBAPEBVQFSFileEnginePrivate@@XZ
       3052  BEB 000035D0 ?d_func@QFactoryLoader@@AEAAPEAVQFactoryLoaderPrivate@@XZ
       3053  BEC 000035D0 ?d_func@QFactoryLoader@@AEBAPEBVQFactoryLoaderPrivate@@XZ
       3054  BED 000035D0 ?d_func@QFile@@AEAAPEAVQFilePrivate@@XZ
       3055  BEE 000035D0 ?d_func@QFile@@AEBAPEBVQFilePrivate@@XZ
       3056  BEF 000035D0 ?d_func@QFileDevice@@AEAAPEAVQFileDevicePrivate@@XZ
       3057  BF0 000035D0 ?d_func@QFileDevice@@AEBAPEBVQFileDevicePrivate@@XZ
       3058  BF1 00055B30 ?d_func@QFileInfo@@AEAAPEAVQFileInfoPrivate@@XZ
       3059  BF2 000041C0 ?d_func@QFileInfo@@AEBAPEBVQFileInfoPrivate@@XZ
       3060  BF3 000035D0 ?d_func@QFileSelector@@AEAAPEAVQFileSelectorPrivate@@XZ
       3061  BF4 000035D0 ?d_func@QFileSelector@@AEBAPEBVQFileSelectorPrivate@@XZ
       3062  BF5 000035D0 ?d_func@QFileSystemWatcher@@AEAAPEAVQFileSystemWatcherPrivate@@XZ
       3063  BF6 000035D0 ?d_func@QFileSystemWatcher@@AEBAPEBVQFileSystemWatcherPrivate@@XZ
       3064  BF7 000035D0 ?d_func@QFutureWatcherBase@@AEAAPEAVQFutureWatcherBasePrivate@@XZ
       3065  BF8 000035D0 ?d_func@QFutureWatcherBase@@AEBAPEBVQFutureWatcherBasePrivate@@XZ
       3066  BF9 000035D0 ?d_func@QIODevice@@AEAAPEAVQIODevicePrivate@@XZ
       3067  BFA 000035D0 ?d_func@QIODevice@@AEBAPEBVQIODevicePrivate@@XZ
       3068  BFB 000035D0 ?d_func@QIdentityProxyModel@@AEAAPEAVQIdentityProxyModelPrivate@@XZ
       3069  BFC 000035D0 ?d_func@QIdentityProxyModel@@AEBAPEBVQIdentityProxyModelPrivate@@XZ
       3070  BFD 000035D0 ?d_func@QItemSelectionModel@@AEAAPEAVQItemSelectionModelPrivate@@XZ
       3071  BFE 000035D0 ?d_func@QItemSelectionModel@@AEBAPEBVQItemSelectionModelPrivate@@XZ
       3072  BFF 000041C0 ?d_func@QLockFile@@AEAAPEAVQLockFilePrivate@@XZ
       3073  C00 000041C0 ?d_func@QLockFile@@AEBAPEBVQLockFilePrivate@@XZ
       3074  C01 000B81A0 ?d_func@QMetaEnumBuilder@@AEBAPEAVQMetaEnumBuilderPrivate@@XZ
       3075  C02 000B8200 ?d_func@QMetaMethodBuilder@@AEBAPEAVQMetaMethodBuilderPrivate@@XZ
       3076  C03 000B82A0 ?d_func@QMetaPropertyBuilder@@AEBAPEAVQMetaPropertyBuilderPrivate@@XZ
       3077  C04 000035D0 ?d_func@QMimeData@@AEAAPEAVQMimeDataPrivate@@XZ
       3078  C05 000035D0 ?d_func@QMimeData@@AEBAPEBVQMimeDataPrivate@@XZ
       3079  C06 000035D0 ?d_func@QObject@@AEAAPEAVQObjectPrivate@@XZ
       3080  C07 000035D0 ?d_func@QObject@@AEBAPEBVQObjectPrivate@@XZ
       3081  C08 000035D0 ?d_func@QParallelAnimationGroup@@AEAAPEAVQParallelAnimationGroupPrivate@@XZ
       3082  C09 000035D0 ?d_func@QParallelAnimationGroup@@AEBAPEBVQParallelAnimationGroupPrivate@@XZ
       3083  C0A 000035D0 ?d_func@QPauseAnimation@@AEAAPEAVQPauseAnimationPrivate@@XZ
       3084  C0B 000035D0 ?d_func@QPauseAnimation@@AEBAPEBVQPauseAnimationPrivate@@XZ
       3085  C0C 000035D0 ?d_func@QProcess@@AEAAPEAVQProcessPrivate@@XZ
       3086  C0D 000035D0 ?d_func@QProcess@@AEBAPEBVQProcessPrivate@@XZ
       3087  C0E 000035D0 ?d_func@QPropertyAnimation@@AEAAPEAVQPropertyAnimationPrivate@@XZ
       3088  C0F 000035D0 ?d_func@QPropertyAnimation@@AEBAPEBVQPropertyAnimationPrivate@@XZ
       3089  C10 000041C0 ?d_func@QResource@@AEAAPEAVQResourcePrivate@@XZ
       3090  C11 000041C0 ?d_func@QResource@@AEBAPEBVQResourcePrivate@@XZ
       3091  C12 000035D0 ?d_func@QSaveFile@@AEAAPEAVQSaveFilePrivate@@XZ
       3092  C13 000035D0 ?d_func@QSaveFile@@AEBAPEBVQSaveFilePrivate@@XZ
       3093  C14 000035D0 ?d_func@QSequentialAnimationGroup@@AEAAPEAVQSequentialAnimationGroupPrivate@@XZ
       3094  C15 000035D0 ?d_func@QSequentialAnimationGroup@@AEBAPEBVQSequentialAnimationGroupPrivate@@XZ
       3095  C16 000035D0 ?d_func@QSettings@@AEAAPEAVQSettingsPrivate@@XZ
       3096  C17 000035D0 ?d_func@QSettings@@AEBAPEBVQSettingsPrivate@@XZ
       3097  C18 000035D0 ?d_func@QSharedMemory@@AEAAPEAVQSharedMemoryPrivate@@XZ
       3098  C19 000035D0 ?d_func@QSharedMemory@@AEBAPEBVQSharedMemoryPrivate@@XZ
       3099  C1A 000035D0 ?d_func@QSignalMapper@@AEAAPEAVQSignalMapperPrivate@@XZ
       3100  C1B 000035D0 ?d_func@QSignalMapper@@AEBAPEBVQSignalMapperPrivate@@XZ
       3101  C1C 000035D0 ?d_func@QSocketNotifier@@AEAAPEAVQSocketNotifierPrivate@@XZ
       3102  C1D 000035D0 ?d_func@QSocketNotifier@@AEBAPEBVQSocketNotifierPrivate@@XZ
       3103  C1E 000035D0 ?d_func@QSortFilterProxyModel@@AEAAPEAVQSortFilterProxyModelPrivate@@XZ
       3104  C1F 000035D0 ?d_func@QSortFilterProxyModel@@AEBAPEBVQSortFilterProxyModelPrivate@@XZ
       3105  C20 000035D0 ?d_func@QTemporaryFile@@AEAAPEAVQTemporaryFilePrivate@@XZ
       3106  C21 000035D0 ?d_func@QTemporaryFile@@AEBAPEBVQTemporaryFilePrivate@@XZ
       3107  C22 000035D0 ?d_func@QTextStream@@AEAAPEAVQTextStreamPrivate@@XZ
       3108  C23 000035D0 ?d_func@QTextStream@@AEBAPEBVQTextStreamPrivate@@XZ
       3109  C24 000035D0 ?d_func@QThread@@AEAAPEAVQThreadPrivate@@XZ
       3110  C25 000035D0 ?d_func@QThread@@AEBAPEBVQThreadPrivate@@XZ
       3111  C26 000035D0 ?d_func@QThreadPool@@AEAAPEAVQThreadPoolPrivate@@XZ
       3112  C27 000035D0 ?d_func@QThreadPool@@AEBAPEBVQThreadPoolPrivate@@XZ
       3113  C28 000035D0 ?d_func@QTimeLine@@AEAAPEAVQTimeLinePrivate@@XZ
       3114  C29 000035D0 ?d_func@QTimeLine@@AEBAPEBVQTimeLinePrivate@@XZ
       3115  C2A 000035D0 ?d_func@QTimer@@AEAAPEAVQTimerPrivate@@XZ
       3116  C2B 000035D0 ?d_func@QTimer@@AEBAPEBVQTimerPrivate@@XZ
       3117  C2C 000035D0 ?d_func@QTranslator@@AEAAPEAVQTranslatorPrivate@@XZ
       3118  C2D 000035D0 ?d_func@QTranslator@@AEBAPEBVQTranslatorPrivate@@XZ
       3119  C2E 000035D0 ?d_func@QTransposeProxyModel@@AEAAPEAVQTransposeProxyModelPrivate@@XZ
       3120  C2F 000035D0 ?d_func@QTransposeProxyModel@@AEBAPEBVQTransposeProxyModelPrivate@@XZ
       3121  C30 000035D0 ?d_func@QVariantAnimation@@AEAAPEAVQVariantAnimationPrivate@@XZ
       3122  C31 000035D0 ?d_func@QVariantAnimation@@AEBAPEBVQVariantAnimationPrivate@@XZ
       3123  C32 000035D0 ?d_func@QWinEventNotifier@@AEAAPEAVQWinEventNotifierPrivate@@XZ
       3124  C33 000035D0 ?d_func@QWinEventNotifier@@AEBAPEBVQWinEventNotifierPrivate@@XZ
       3125  C34 000041C0 ?d_func@QXmlStreamReader@@AEAAPEAVQXmlStreamReaderPrivate@@XZ
       3126  C35 000041C0 ?d_func@QXmlStreamReader@@AEBAPEBVQXmlStreamReaderPrivate@@XZ
       3127  C36 000041C0 ?d_func@QXmlStreamWriter@@AEAAPEAVQXmlStreamWriterPrivate@@XZ
       3128  C37 000041C0 ?d_func@QXmlStreamWriter@@AEBAPEBVQXmlStreamWriterPrivate@@XZ
       3129  C38 0001D340 ?d_ref@QPropertyBindingData@QtPrivate@@AEBAAEA_KXZ
       3130  C39 002CF7E0 ?data@QAbstractProxyModel@@UEBA?AVQVariant@@AEBVQModelIndex@@H@Z
       3131  C3A 0003A520 ?data@QBuffer@@QEBAAEBVQByteArray@@XZ
       3132  C3B 00003590 ?data@QByteArray@@QEAAPEADXZ
       3133  C3C 00002F50 ?data@QByteArray@@QEBAPEBDXZ
       3134  C3D 000035D0 ?data@QByteArrayView@@QEBAPEBDXZ
       3135  C3E 002D3BF0 ?data@QConcatenateTablesProxyModel@@UEBA?AVQVariant@@AEBVQModelIndex@@H@Z
       3136  C3F 000041C0 ?data@QGenericArgument@@QEBAPEAXXZ
       3137  C40 000D7260 ?data@QMimeData@@QEBA?AVQByteArray@@AEBVQString@@@Z
       3138  C41 00319640 ?data@QPermission@@AEBAPEBXVQMetaType@@@Z
       3139  C42 002B0E80 ?data@QPersistentModelIndex@@QEBA?AVQVariant@@H@Z
       3140  C43 00070900 ?data@QResource@@QEBAPEBEXZ
       3141  C44 00034AC0 ?data@QSharedMemory@@QEAAPEAXXZ
       3142  C45 00034AC0 ?data@QSharedMemory@@QEBAPEBXXZ
       3143  C46 002E9460 ?data@QSortFilterProxyModel@@UEBA?AVQVariant@@AEBVQModelIndex@@H@Z
       3144  C47 000035E0 ?data@QString@@QEAAPEAVQChar@@XZ
       3145  C48 00003D40 ?data@QString@@QEBAPEBVQChar@@XZ
       3146  C49 002FA650 ?data@QStringListModel@@UEBA?AVQVariant@@AEBVQModelIndex@@H@Z
       3147  C4A 000FC2C0 ?data@QVariant@@QEAAPEAXXZ
       3148  C4B 00003D60 ?data@QVariant@@QEBAPEBXXZ
       3149  C4C 002B0F90 ?dataChanged@QAbstractItemModel@@QEAAXAEBVQModelIndex@@0AEBV?$QList@H@@@Z
       3150  C4D 000020C0 ?data_ptr@QBitArray@@QEAAAEAU?$QArrayDataPointer@D@@XZ
       3151  C4E 000020C0 ?data_ptr@QBitArray@@QEBAAEBU?$QArrayDataPointer@D@@XZ
       3152  C4F 000020C0 ?data_ptr@QByteArray@@QEAAAEAU?$QArrayDataPointer@D@@XZ
       3153  C50 000020C0 ?data_ptr@QByteArray@@QEBAAEBU?$QArrayDataPointer@D@@XZ
       3154  C51 000020C0 ?data_ptr@QString@@QEAAAEAU?$QArrayDataPointer@_S@@XZ
       3155  C52 000020C0 ?data_ptr@QString@@QEBAAEBU?$QArrayDataPointer@_S@@XZ
       3156  C53 000020C0 ?data_ptr@QUrl@@QEAAAEAPEAVQUrlPrivate@@XZ
       3157  C54 000020C0 ?data_ptr@QUrlQuery@@QEAAAEAV?$QSharedDataPointer@VQUrlQueryPrivate@@@@XZ
       3158  C55 000020C0 ?data_ptr@QVariant@@QEAAAEAUPrivate@1@XZ
       3159  C56 000020C0 ?data_ptr@QVariant@@QEBAAEBUPrivate@1@XZ
       3160  C57 0018C8B0 ?date@QDateTime@@QEBA?AVQDate@@XZ
       3161  C58 001464D0 ?dateFormat@QLocale@@QEBA?AVQString@@W4FormatType@1@@Z
       3162  C59 00187100 ?dateFromParts@QCalendar@@QEBA?AVQDate@@AEBUYearMonthDay@1@@Z
       3163  C5A 001871B0 ?dateFromParts@QCalendar@@QEBA?AVQDate@@HHH@Z
       3164  C5B 00146730 ?dateTimeFormat@QLocale@@QEBA?AVQString@@W4FormatType@1@@Z
       3165  C5C 00187250 ?dateTimeToString@QCalendar@@QEBA?AVQString@@VQStringView@@AEBVQDateTime@@VQDate@@VQTime@@AEBVQLocale@@@Z
       3166  C5D 00146A50 ?dateTimeToString@QCalendarBackend@@UEBA?AVQString@@VQStringView@@AEBVQDateTime@@VQDate@@VQTime@@AEBVQLocale@@@Z
       3167  C5E 001964C0 ?dateToJulianDay@QGregorianCalendar@@UEBA_NHHHPEA_J@Z
       3168  C5F 0025AE70 ?dateToJulianDay@QIslamicCivilCalendar@@UEBA_NHHHPEA_J@Z
       3169  C60 0025B2B0 ?dateToJulianDay@QJalaliCalendar@@UEBA_NHHHPEA_J@Z
       3170  C61 00197190 ?dateToJulianDay@QJulianCalendar@@UEBA_NHHHPEA_J@Z
       3171  C62 00198A70 ?dateToJulianDay@QMilankovicCalendar@@UEBA_NHHHPEA_J@Z
       3172  C63 0018C960 ?day@QDate@@QEBAHVQCalendar@@@Z
       3173  C64 0018C9C0 ?day@QDate@@QEBAHXZ
       3174  C65 00147AB0 ?dayName@QLocale@@QEBA?AVQString@@HW4FormatType@1@@Z
       3175  C66 00187370 ?dayOfWeek@QCalendar@@QEBAHVQDate@@@Z
       3176  C67 001873C0 ?dayOfWeek@QCalendarBackend@@UEBAH_J@Z
       3177  C68 0018CA10 ?dayOfWeek@QDate@@QEBAHVQCalendar@@@Z
       3178  C69 0018CA60 ?dayOfWeek@QDate@@QEBAHXZ
       3179  C6A 0018CA90 ?dayOfYear@QDate@@QEBAHVQCalendar@@@Z
       3180  C6B 0018CB60 ?dayOfYear@QDate@@QEBAHXZ
       3181  C6C 0019B440 ?daylightTimeOffset@QTimeZone@@QEBAHAEBVQDateTime@@@Z
       3182  C6D 00187420 ?daysInMonth@QCalendar@@QEBAHHH@Z
       3183  C6E 0018CBE0 ?daysInMonth@QDate@@QEBAHVQCalendar@@@Z
       3184  C6F 0018CC50 ?daysInMonth@QDate@@QEBAHXZ
       3185  C70 0025AD90 ?daysInMonth@QHijriCalendar@@UEBAHHH@Z
       3186  C71 0025B3D0 ?daysInMonth@QJalaliCalendar@@UEBAHHH@Z
       3187  C72 00198FE0 ?daysInMonth@QRomanCalendar@@UEBAHHH@Z
       3188  C73 00187450 ?daysInYear@QCalendar@@QEBAHH@Z
       3189  C74 00187480 ?daysInYear@QCalendarBackend@@UEBAHH@Z
       3190  C75 0018CCB0 ?daysInYear@QDate@@QEBAHVQCalendar@@@Z
       3191  C76 0018CD30 ?daysInYear@QDate@@QEBAHXZ
       3192  C77 0025ADE0 ?daysInYear@QHijriCalendar@@UEBAHH@Z
       3193  C78 0018CDB0 ?daysTo@QDate@@QEBA_JV1@@Z
       3194  C79 0018CDF0 ?daysTo@QDateTime@@QEBA_JAEBV1@@Z
       3195  C7A 000A3CA0 ?deadline@QDeadlineTimer@@QEBA_JXZ
       3196  C7B 000A3CE0 ?deadlineNSecs@QDeadlineTimer@@QEBA_JXZ
       3197  C7C 0019D920 ?deallocate@QArrayData@@SAXPEAU1@_J1@Z
       3198  C7D 0002BEA0 ?debug@QMessageLogger@@QEBA?AVQDebug@@AEBVQLoggingCategory@@@Z
       3199  C7E 0002BFA0 ?debug@QMessageLogger@@QEBA?AVQDebug@@P6AAEBVQLoggingCategory@@XZ@Z
       3200  C7F 0002BFE0 ?debug@QMessageLogger@@QEBA?AVQDebug@@XZ
       3201  C80 0002C0B0 ?debug@QMessageLogger@@QEBAXAEBVQLoggingCategory@@PEBDZZ
       3202  C81 0002C120 ?debug@QMessageLogger@@QEBAXP6AAEBVQLoggingCategory@@XZPEBDZZ
       3203  C82 0002C1A0 ?debug@QMessageLogger@@QEBAXPEBDZZ
       3204  C83 000D0B00 ?debugStream@QMetaType@@QEAA_NAEAVQDebug@@PEBX@Z
       3205  C84 000041D0 ?debugStream@QMetaType@@SA_NAEAVQDebug@@PEBXH@Z
       3206  C85 00130020 ?dec@Qt@@YAAEAVQTextStream@@AEAV2@@Z
       3207  C86 00147F30 ?decimalPoint@QLocale@@QEBA?AVQString@@XZ
       3208  C87 002B0FF0 ?decodeData@QAbstractItemModel@@IEAA_NHHAEBVQModelIndex@@AEAVQDataStream@@@Z
       3209  C88 0021CFD0 ?decodeMSG@@YA?AVQString@@AEBUtagMSG@@@Z
       3210  C89 0001D5F0 ?decodeName@QFile@@SA?AVQString@@AEBVQByteArray@@@Z
       3211  C8A 0001D620 ?decodeName@QFile@@SA?AVQString@@PEBD@Z
       3212  C8B 0017D2A0 ?decoderForHtml@QStringDecoder@@SA?AV1@VQByteArrayView@@@Z
       3213  C8C 00169240 ?decomposition@QChar@@QEBA?AVQString@@XZ
       3214  C8D 00169260 ?decomposition@QChar@@SA?AVQString@@_U@Z
       3215  C8E 00004210 ?decompositionTag@QChar@@QEBA?AW4Decomposition@1@XZ
       3216  C8F 00169470 ?decompositionTag@QChar@@SA?AW4Decomposition@1@_U@Z
       3217  C90 000682C0 ?defaultCategory@QLoggingCategory@@SAPEAV1@XZ
       3218  C91 0013F400 ?defaultCompare@QCollator@@SAHVQStringView@@0@Z
       3219  C92 00293E40 ?defaultFormat@QSettings@@SA?AW4Format@1@XZ
       3220  C93 00013DA0 ?defaultQueryPairDelimiter@QUrlQuery@@SA_SXZ
       3221  C94 0001D660 ?defaultQueryValueDelimiter@QUrlQuery@@SA_SXZ
       3222  C95 002B1A20 ?defaultRoleNames@QAbstractItemModelPrivate@@SAAEBV?$QHash@HVQByteArray@@@@XZ
       3223  C96 0013F4D0 ?defaultSortKey@QCollator@@SA?AVQCollatorSortKey@@VQStringView@@@Z
       3224  C97 00004220 ?defaultTypeFor@QTimer@@CA?AW4TimerType@Qt@@H@Z
       3225  C98 00004240 ?defaultTypeFor@QTimer@@CA?AW4TimerType@Qt@@V?$duration@_JU?$ratio@$00$0DLJKMKAA@@std@@@chrono@std@@@Z
       3226  C99 00079160 ?defaultValues@QCommandLineOption@@QEBA?AV?$QList@VQString@@@@XZ
       3227  C9A 000E1950 ?deleteChildren@QObjectPrivate@@QEAAXXZ
       3228  C9B 000E1A80 ?deleteLater@QObject@@QEAAXXZ
       3229  C9C 0009CA50 ?deref@QCoreApplicationPrivate@@QEAAXXZ
       3230  C9D 00230E80 ?derefT@QFutureInterfaceBase@@IEBA_NXZ
       3231  C9E 00079830 ?description@QCommandLineOption@@QEBA?AVQString@@XZ
       3232  C9F 00082F60 ?description@QPropertyBindingError@@QEBA?AVQString@@XZ
       3233  CA0 000D0B60 ?destroy@QMetaType@@QEBAXPEAX@Z
       3234  CA1 00004250 ?destroy@QMetaType@@SAXHPEAX@Z
       3235  CA2 0001D670 ?destroyAndFreeMemory@QPropertyBindingPrivate@@SAXPEAV1@@Z
       3236  CA3 000EC550 ?destroyAndFreeMemory@QPropertyBindingPrivatePtr@@QEAAXXZ
       3237  CA4 000A5AF0 ?destroyConstIterator@QMetaContainer@@QEBAXPEBX@Z
       3238  CA5 00229550 ?destroyInternal@QBasicMutex@@AEAAXPEAVQMutexPrivate@@@Z
       3239  CA6 000A5B10 ?destroyIterator@QMetaContainer@@QEBAXPEBX@Z
       3240  CA7 00229CE0 ?destroyRecursive@QReadWriteLock@@CAXPEAVQReadWriteLockPrivate@@@Z
       3241  CA8 000371F0 ?destroy_internal@QNativeIpcKey@@AEAAXXZ
       3242  CA9 0059AB00 ?destroyed@QAbstractDeclarativeData@@2P6AXPEAV1@PEAVQObject@@@ZEA
       3243  CAA 000E1D00 ?destroyed@QObject@@QEAAXPEAV1@@Z
       3244  CAB 000D0BE0 ?destruct@QMetaType@@QEBAXPEAX@Z
       3245  CAC 00004280 ?destruct@QMetaType@@SAXHPEAX@Z
       3246  CAD 000042B0 ?detach@QBitArray@@QEAAXXZ
       3247  CAE 000042B0 ?detach@QByteArray@@QEAAXXZ
       3248  CAF 00115610 ?detach@QCborArray@@AEAAX_J@Z
       3249  CB0 001158A0 ?detach@QCborMap@@AEAAX_J@Z
       3250  CB1 0013F640 ?detach@QCollator@@AEAAXXZ
       3251  CB2 0011C110 ?detach@QJsonArray@@AEAA_N_J@Z
       3252  CB3 00124110 ?detach@QJsonObject@@AEAA_N_J@Z
       3253  CB4 0012B030 ?detach@QJsonValueRef@@AEAAXXZ
       3254  CB5 001DA380 ?detach@QRingChunk@@QEAAXXZ
       3255  CB6 00034D10 ?detach@QSharedMemory@@QEAA_NXZ
       3256  CB7 000042D0 ?detach@QString@@QEAAXXZ
       3257  CB8 0007E040 ?detach@QUrl@@QEAAXXZ
       3258  CB9 000FC300 ?detach@QVariant@@QEAAXXZ
       3259  CBA 0001D6B0 ?detachFromProperty@QPropertyBindingPrivate@@QEAAXXZ
       3260  CBB 00130040 ?device@QCborStreamReader@@QEBAPEAVQIODevice@@XZ
       3261  CBC 00090210 ?device@QCborStreamWriter@@QEBAPEAVQIODevice@@XZ
       3262  CBD 000035D0 ?device@QDataStream@@QEBAPEAVQIODevice@@XZ
       3263  CBE 00079050 ?device@QStorageInfo@@QEBA?AVQByteArray@@XZ
       3264  CBF 00130040 ?device@QTextStream@@QEBAPEAVQIODevice@@XZ
       3265  CC0 001E5A10 ?device@QXmlStreamReader@@QEBAPEAVQIODevice@@XZ
       3266  CC1 001E5A20 ?device@QXmlStreamWriter@@QEBAPEAVQIODevice@@XZ
       3267  CC2 00090210 ?device@QZipReader@@QEBAPEAVQIODevice@@XZ
       3268  CC3 00090210 ?device@QZipWriter@@QEBAPEAVQIODevice@@XZ
       3269  CC4 000A5B30 ?diffConstIterator@QMetaContainer@@QEBA_JPEBX0@Z
       3270  CC5 000A5B60 ?diffIterator@QMetaContainer@@QEBA_JPEBX0@Z
       3271  CC6 000042F0 ?digitValue@QChar@@QEBAHXZ
       3272  CC7 001695C0 ?digitValue@QChar@@SAH_U@Z
       3273  CC8 00055B90 ?dir@QFileInfo@@QEBA?AVQDir@@XZ
       3274  CC9 00044900 ?dirName@QDir@@QEBA?AVQString@@XZ
       3275  CCA 000756A0 ?directWriteFallback@QSaveFile@@QEBA_NXZ
       3276  CCB 000F5670 ?direction@QAbstractAnimation@@QEBA?AW4Direction@1@XZ
       3277  CCC 00004300 ?direction@QChar@@QEBA?AW4Direction@1@XZ
       3278  CCD 00169630 ?direction@QChar@@SA?AW4Direction@1@_U@Z
       3279  CCE 0024D9F0 ?direction@QTimeLine@@QEBA?AW4Direction@1@XZ
       3280  CCF 001FAAE0 ?directionChanged@QAbstractAnimation@@QEAAXW4Direction@1@@Z
       3281  CD0 00271FA0 ?directories@QFileSystemWatcher@@QEBA?AV?$QList@VQString@@@@XZ
       3282  CD1 00271FE0 ?directoryChanged@QFileSystemWatcher@@QEAAXAEBVQString@@UQPrivateSignal@1@@Z
       3283  CD2 00031A80 ?discard@QRandomGenerator@@QEAAX_K@Z
       3284  CD3 000E1D50 ?disconnect@QMetaObject@@SA_NPEBVQObject@@H0H@Z
       3285  CD4 00004310 ?disconnect@QObject@@QEBA_NPEBDPEBV1@0@Z
       3286  CD5 00004320 ?disconnect@QObject@@QEBA_NPEBV1@PEBD@Z
       3287  CD6 000E2100 ?disconnect@QObject@@SA_NAEBVConnection@QMetaObject@@@Z
       3288  CD7 000E21C0 ?disconnect@QObject@@SA_NPEBV1@AEBVQMetaMethod@@01@Z
       3289  CD8 000E2760 ?disconnect@QObject@@SA_NPEBV1@PEBD01@Z
       3290  CD9 000E30F0 ?disconnect@QObjectPrivate@@SA_NPEBVQObject@@H0PEAPEAX@Z
       3291  CDA 000E3220 ?disconnect@QObjectPrivate@@SA_NPEBVQObject@@HPEAPEAX@Z
       3292  CDB 000E3440 ?disconnectImpl@QObject@@CA_NPEBV1@PEAPEAX01PEBUQMetaObject@@@Z
       3293  CDC 0003A5E0 ?disconnectNotify@QBuffer@@MEAAXAEBVQMetaMethod@@@Z
       3294  CDD 00234830 ?disconnectNotify@QFutureWatcherBase@@MEAAXAEBVQMetaMethod@@@Z
       3295  CDE 000058E0 ?disconnectNotify@QObject@@MEAAXAEBVQMetaMethod@@@Z
       3296  CDF 0001D6D0 ?disconnectNotify@QObjectPrivate@@QEAAXAEBVQMetaMethod@@@Z
       3297  CE0 000E3730 ?disconnectOne@QMetaObject@@SA_NPEBVQObject@@H0H@Z
       3298  CE1 002348D0 ?disconnectOutputInterface@QFutureWatcherBase@@IEAAX_N@Z
       3299  CE2 000760A0 ?displayName@QStandardPaths@@SA?AVQString@@W4StandardLocation@1@@Z
       3300  CE3 00079080 ?displayName@QStorageInfo@@QEBA?AVQString@@XZ
       3301  CE4 0019B540 ?displayName@QTimeZone@@QEBA?AVQString@@AEBVQDateTime@@W4NameType@1@AEBVQLocale@@@Z
       3302  CE5 0019B6B0 ?displayName@QTimeZone@@QEBA?AVQString@@W4TimeType@1@W4NameType@1@AEBVQLocale@@@Z
       3303  CE6 00039CB0 ?displayText@QDateTimeParser@@UEBA?AVQString@@XZ
       3304  CE7 00115A20 ?dispose@QCborValue@@AEAAXXZ
       3305  CE8 000E3860 ?doSetObjectName@QObject@@AEAAXAEBVQString@@@Z
       3306  CE9 000E39C0 ?doSetProperty@QObject@@AEAA_NPEBDPEBVQVariant@@PEAV2@@Z
       3307  CEA 00220F80 ?doUnregisterSocketNotifier@QEventDispatcherWin32@@IEAAXPEAVQSocketNotifier@@@Z
       3308  CEB 002214B0 ?doWsaAsyncSelect@QEventDispatcherWin32Private@@QEAAX_JJ@Z
       3309  CEC 001E5A30 ?documentEncoding@QXmlStreamReader@@QEBA?AVQStringView@@XZ
       3310  CED 001E5AA0 ?documentVersion@QXmlStreamReader@@QEBA?AVQStringView@@XZ
       3311  CEE 0021A600 ?drainAndStop@QWindowsPipeReader@@QEAAXXZ
       3312  CEF 00044BD0 ?drives@QDir@@SA?AV?$QList@VQFileInfo@@@@XZ
       3313  CF0 00213F70 ?drives@QFSFileEngine@@SA?AV?$QList@VQFileInfo@@@@XZ
       3314  CF1 002B21B0 ?dropMimeData@QAbstractItemModel@@UEAA_NPEBVQMimeData@@W4DropAction@Qt@@HHAEBVQModelIndex@@@Z
       3315  CF2 002B23E0 ?dropMimeData@QAbstractListModel@@UEAA_NPEBVQMimeData@@W4DropAction@Qt@@HHAEBVQModelIndex@@@Z
       3316  CF3 002CF8A0 ?dropMimeData@QAbstractProxyModel@@UEAA_NPEBVQMimeData@@W4DropAction@Qt@@HHAEBVQModelIndex@@@Z
       3317  CF4 002B2980 ?dropMimeData@QAbstractTableModel@@UEAA_NPEBVQMimeData@@W4DropAction@Qt@@HHAEBVQModelIndex@@@Z
       3318  CF5 002D3CC0 ?dropMimeData@QConcatenateTablesProxyModel@@UEAA_NPEBVQMimeData@@W4DropAction@Qt@@HHAEBVQModelIndex@@@Z
       3319  CF6 002D7320 ?dropMimeData@QIdentityProxyModel@@UEAA_NPEBVQMimeData@@W4DropAction@Qt@@HHAEBVQModelIndex@@@Z
       3320  CF7 002E97E0 ?dropMimeData@QSortFilterProxyModel@@UEAA_NPEBVQMimeData@@W4DropAction@Qt@@HHAEBVQModelIndex@@@Z
       3321  CF8 00015530 ?ds@QTime@@AEBAHXZ
       3322  CF9 001E5B10 ?dtdName@QXmlStreamReader@@QEBA?AVQStringView@@XZ
       3323  CFA 001E5B80 ?dtdPublicId@QXmlStreamReader@@QEBA?AVQStringView@@XZ
       3324  CFB 001E5BF0 ?dtdSystemId@QXmlStreamReader@@QEBA?AVQStringView@@XZ
       3325  CFC 00013DE0 ?dummyLocked@QBasicMutex@@CAPEAVQMutexPrivate@@XZ
       3326  CFD 000E3ED0 ?dumpObjectInfo@QObject@@QEBAXXZ
       3327  CFE 000E46E0 ?dumpObjectTree@QObject@@QEBAXXZ
       3328  CFF 002000D0 ?duration@QParallelAnimationGroup@@UEBAHXZ
       3329  D00 00201360 ?duration@QPauseAnimation@@UEBAHXZ
       3330  D01 00206720 ?duration@QSequentialAnimationGroup@@UEBAHXZ
       3331  D02 0024DA40 ?duration@QTimeLine@@QEBAHXZ
       3332  D03 00209BA0 ?duration@QVariantAnimation@@UEBAHXZ
       3333  D04 000A4610 ?durationElapsed@QElapsedTimer@@QEBA?AV?$duration@_JU?$ratio@$00$0DLJKMKAA@@std@@@chrono@std@@XZ
       3334  D05 000A46E0 ?durationTo@QElapsedTimer@@QEBA?AV?$duration@_JU?$ratio@$00$0DLJKMKAA@@std@@@chrono@std@@AEBV1@@Z
       3335  D06 0001D6F0 ?dx@QLine@@QEBAHXZ
       3336  D07 0001D700 ?dx@QLineF@@QEBANXZ
       3337  D08 0001D710 ?dy@QLine@@QEBAHXZ
       3338  D09 0001D720 ?dy@QLineF@@QEBANXZ
       3339  D0A 000E4890 ?dynamicMetaObject@QObjectData@@QEBAPEAUQMetaObject@@XZ
       3340  D0B 000E48B0 ?dynamicPropertyNames@QObject@@QEBA?AV?$QList@VQByteArray@@@@XZ
       3341  D0C 002E97F0 ?dynamicSortFilter@QSortFilterProxyModel@@QEBA_NXZ
       3342  D0D 002E9850 ?dynamicSortFilterChanged@QSortFilterProxyModel@@QEAAX_N@Z
       3343  D0E 0024DA90 ?easingCurve@QTimeLine@@QEBA?AVQEasingCurve@@XZ
       3344  D0F 00209C00 ?easingCurve@QVariantAnimation@@QEBA?AVQEasingCurve@@XZ
       3345  D10 001696A0 ?eastAsianWidth@QUnicodeTables@@YA?AW4EastAsianWidth@1@_U@Z
       3346  D11 001FAB20 ?elapsed@QAnimationDriver@@UEBA_JXZ
       3347  D12 000A46F0 ?elapsed@QElapsedTimer@@QEBA_JXZ
       3348  D13 001FAB40 ?elapsed@QUnifiedTimer@@QEBA_JXZ
       3349  D14 001FABC0 ?emitCurrentLoopChanged@QAbstractAnimationPrivate@@QEAAXXZ
       3350  D15 001FAC50 ?emitDirectionChanged@QAbstractAnimationPrivate@@QEAAXXZ
       3351  D16 002CF990 ?emitHeaderDataChanged@QAbstractProxyModelPrivate@@QEAAXXZ
       3352  D17 002C4720 ?emitSelectionChanged@QItemSelectionModel@@IEAAXAEBVQItemSelection@@0@Z
       3353  D18 00004330 ?empty@QByteArrayView@@QEBA_NXZ
       3354  D19 0001D730 ?empty@QCborArray@@QEBA_NXZ
       3355  D1A 0001D750 ?empty@QCborMap@@QEBA_NXZ
       3356  D1B 0001D770 ?empty@QJsonArray@@QEBA_NXZ
       3357  D1C 0001D770 ?empty@QJsonObject@@QEBA_NXZ
       3358  D1D 000041C0 ?enclosingMetaObject@QMetaClassInfo@@QEBAPEBUQMetaObject@@XZ
       3359  D1E 000041C0 ?enclosingMetaObject@QMetaEnum@@QEBAPEBUQMetaObject@@XZ
       3360  D1F 000041C0 ?enclosingMetaObject@QMetaMethod@@QEBAPEBUQMetaObject@@XZ
       3361  D20 000041C0 ?enclosingMetaObject@QMetaProperty@@QEBAPEBUQMetaObject@@XZ
       3362  D21 002B2F10 ?encodeData@QAbstractItemModel@@IEBAXAEBV?$QList@VQModelIndex@@@@AEAVQDataStream@@@Z
       3363  D22 0001D780 ?encodeName@QFile@@SA?AVQByteArray@@AEBVQString@@@Z
       3364  D23 00130050 ?encoding@QTextStream@@QEBA?AW4Encoding@QStringConverter@@XZ
       3365  D24 0017D4C0 ?encodingForData@QStringConverter@@SA?AV?$optional@W4Encoding@QStringConverter@@@std@@VQByteArrayView@@_S@Z
       3366  D25 0017D5D0 ?encodingForHtml@QStringConverter@@SA?AV?$optional@W4Encoding@QStringConverter@@@std@@VQByteArrayView@@@Z
       3367  D26 0001D7B0 ?encodingForName@QStringConverter@@SA?AV?$optional@W4Encoding@QStringConverter@@@std@@PEBD@Z
       3368  D27 0017D810 ?encodingForName@QStringConverter@@SA?AV?$optional@W4Encoding@QStringConverter@@@std@@VQAnyStringView@@@Z
       3369  D28 0043FFA0 ?encodingInterfaces@QStringConverter@@0QBUInterface@1@B
       3370  D29 00096060 ?end@QAssociativeIterable@@QEBA?AV?$QTaggedIterator@VQAssociativeConstIterator@@X@@XZ
       3371  D2A 00004340 ?end@QByteArray@@QEAAPEADXZ
       3372  D2B 00003890 ?end@QByteArray@@QEBAPEBDXZ
       3373  D2C 000038A0 ?end@QByteArrayView@@QEBAPEBDXZ
       3374  D2D 0001D800 ?end@QCborArray@@QEAA?AVIterator@1@XZ
       3375  D2E 0001C770 ?end@QCborArray@@QEBA?AVConstIterator@1@XZ
       3376  D2F 0001D850 ?end@QCborMap@@QEAA?AVIterator@1@XZ
       3377  D30 0001C7A0 ?end@QCborMap@@QEBA?AVConstIterator@1@XZ
       3378  D31 0001D8A0 ?end@QJsonArray@@QEAA?AViterator@1@XZ
       3379  D32 0001C7E0 ?end@QJsonArray@@QEBA?AVconst_iterator@1@XZ
       3380  D33 0001D8E0 ?end@QJsonObject@@QEAA?AViterator@1@XZ
       3381  D34 0001CB60 ?end@QJsonObject@@QEBA?AVconst_iterator@1@XZ
       3382  D35 000A5B90 ?end@QMetaContainer@@QEBAPEAXPEAX@Z
       3383  D36 00096060 ?end@QSequentialIterable@@QEBA?AV?$QTaggedIterator@VQSequentialConstIterator@@X@@XZ
       3384  D37 00004380 ?end@QString@@QEAAPEAVQChar@@XZ
       3385  D38 000038B0 ?end@QString@@QEBAPEBVQChar@@XZ
       3386  D39 002363D0 ?end@ResultStoreBase@QtPrivate@@QEBA?AVResultIteratorBase@2@XZ
       3387  D3A 00305760 ?endArray@QCborStreamWriter@@QEAA_NXZ
       3388  D3B 00294120 ?endArray@QSettings@@QEAAXXZ
       3389  D3C 00038EC0 ?endEntryList@QAbstractFileEngine@@UEAA?AV?$unique_ptr@VQAbstractFileEngineIterator@@U?$default_delete@VQAbstractFileEngineIterator@@@std@@@std@@XZ
       3390  D3D 0024DAE0 ?endFrame@QTimeLine@@QEBAHXZ
       3391  D3E 00294510 ?endGroup@QSettings@@QEAAXXZ
       3392  D3F 002B3140 ?endInsertColumns@QAbstractItemModel@@IEAAXXZ
       3393  D40 002B3270 ?endInsertRows@QAbstractItemModel@@IEAAXXZ
       3394  D41 00305760 ?endMap@QCborStreamWriter@@QEAA_NXZ
       3395  D42 002B33A0 ?endMoveColumns@QAbstractItemModel@@IEAAXXZ
       3396  D43 002B35D0 ?endMoveRows@QAbstractItemModel@@IEAAXXZ
       3397  D44 0018D030 ?endOfDay@QDate@@QEBA?AVQDateTime@@AEBVQTimeZone@@@Z
       3398  D45 0018D400 ?endOfDay@QDate@@QEBA?AVQDateTime@@W4TimeSpec@Qt@@H@Z
       3399  D46 0018D460 ?endOfDay@QDate@@QEBA?AVQDateTime@@XZ
       3400  D47 000EC590 ?endPropertyUpdateGroup@Qt@@YAXXZ
       3401  D48 002B3810 ?endRemoveColumns@QAbstractItemModel@@IEAAXXZ
       3402  D49 002B3940 ?endRemoveRows@QAbstractItemModel@@IEAAXXZ
       3403  D4A 002B3A70 ?endResetModel@QAbstractItemModel@@IEAAXXZ
       3404  D4B 00209C70 ?endValue@QVariantAnimation@@QEBA?AVQVariant@@XZ
       3405  D4C 00130060 ?endl@Qt@@YAAEAVQTextStream@@AEAV2@@Z
       3406  D4D 000043C0 ?endsWith@QByteArray@@QEBA_ND@Z
       3407  D4E 000043E0 ?endsWith@QByteArray@@QEBA_NVQByteArrayView@@@Z
       3408  D4F 00004420 ?endsWith@QByteArrayView@@QEBA_ND@Z
       3409  D50 00004440 ?endsWith@QByteArrayView@@QEBA_NV1@@Z
       3410  D51 00169700 ?endsWith@QString@@QEBA_NAEBV1@W4CaseSensitivity@Qt@@@Z
       3411  D52 00169790 ?endsWith@QString@@QEBA_NVQChar@@W4CaseSensitivity@Qt@@@Z
       3412  D53 00169880 ?endsWith@QString@@QEBA_NVQLatin1String@@W4CaseSensitivity@Qt@@@Z
       3413  D54 00004470 ?endsWith@QString@@QEBA_NVQStringView@@W4CaseSensitivity@Qt@@@Z
       3414  D55 001360D0 ?endsWith@QtPrivate@@YA_NVQByteArrayView@@0@Z
       3415  D56 00169910 ?endsWith@QtPrivate@@YA_NVQLatin1String@@0W4CaseSensitivity@Qt@@@Z
       3416  D57 00169940 ?endsWith@QtPrivate@@YA_NVQLatin1String@@VQStringView@@W4CaseSensitivity@Qt@@@Z
       3417  D58 001699C0 ?endsWith@QtPrivate@@YA_NVQStringView@@0W4CaseSensitivity@Qt@@@Z
       3418  D59 00169A60 ?endsWith@QtPrivate@@YA_NVQStringView@@VQLatin1String@@W4CaseSensitivity@Qt@@@Z
       3419  D5A 0022C030 ?enqueueTask@QThreadPoolPrivate@@QEAAXPEAVQRunnable@@H@Z
       3420  D5B 000E4910 ?ensureConnectionData@QObjectPrivate@@QEAAXXZ
       3421  D5C 0001D920 ?ensureExtraData@QObjectPrivate@@QEAAXXZ
       3422  D5D 000B8430 ?enter@QMetaStringTable@@QEAAHAEBVQByteArray@@@Z
       3423  D5E 0001D990 ?enterContainer@QCborStreamReader@@QEAA_NXZ
       3424  D5F 001E5C60 ?entityDeclarations@QXmlStreamReader@@QEBA?AV?$QList@VQXmlStreamEntityDeclaration@@@@XZ
       3425  D60 001E5CC0 ?entityExpansionLimit@QXmlStreamReader@@QEBAHXZ
       3426  D61 001E5CD0 ?entityResolver@QXmlStreamReader@@QEBAPEAVQXmlStreamEntityResolver@@XZ
       3427  D62 00090220 ?entryInfoAt@QZipReader@@QEBA?AUFileInfo@1@H@Z
       3428  D63 00044BF0 ?entryInfoList@QDir@@QEBA?AV?$QList@VQFileInfo@@@@AEBV?$QList@VQString@@@@V?$QFlags@W4Filter@QDir@@@@V?$QFlags@W4SortFlag@QDir@@@@@Z
       3429  D64 00044E20 ?entryInfoList@QDir@@QEBA?AV?$QList@VQFileInfo@@@@V?$QFlags@W4Filter@QDir@@@@V?$QFlags@W4SortFlag@QDir@@@@@Z
       3430  D65 000392C0 ?entryList@QAbstractFileEngine@@UEBA?AV?$QList@VQString@@@@V?$QFlags@W4Filter@QDir@@@@AEBV2@@Z
       3431  D66 00039740 ?entryList@QAbstractFileEngine@@UEBA?AV?$QList@VQString@@@@V?$QFlags@W4IteratorFlag@QDirListing@@@@AEBV2@@Z
       3432  D67 00044E50 ?entryList@QDir@@QEBA?AV?$QList@VQString@@@@AEBV2@V?$QFlags@W4Filter@QDir@@@@V?$QFlags@W4SortFlag@QDir@@@@@Z
       3433  D68 00045400 ?entryList@QDir@@QEBA?AV?$QList@VQString@@@@V?$QFlags@W4Filter@QDir@@@@V?$QFlags@W4SortFlag@QDir@@@@@Z
       3434  D69 000A7340 ?enumName@QMetaEnum@@QEBAPEBDXZ
       3435  D6A 000B8960 ?enumName@QMetaEnumBuilder@@QEBA?AVQByteArray@@XZ
       3436  D6B 000A7370 ?enumerator@QMetaObject@@QEBA?AVQMetaEnum@@H@Z
       3437  D6C 000B8A00 ?enumerator@QMetaObjectBuilder@@QEBA?AVQMetaEnumBuilder@@H@Z
       3438  D6D 000213D0 ?enumerator@QMetaProperty@@QEBA?AVQMetaEnum@@XZ
       3439  D6E 000A7480 ?enumeratorCount@QMetaObject@@QEBAHXZ
       3440  D6F 000B8A50 ?enumeratorCount@QMetaObjectBuilder@@QEBAHXZ
       3441  D70 000A74E0 ?enumeratorOffset@QMetaObject@@QEBAHXZ
       3442  D71 002829A0 ?environment@QProcess@@QEBA?AV?$QList@VQString@@@@XZ
       3443  D72 00169AF0 ?equal@QAnyStringView@@SA_NV1@0@Z
       3444  D73 00169B50 ?equalStrings@QtPrivate@@YA_NV?$QBasicUtf8StringView@$0A@@@0@Z
       3445  D74 00169B80 ?equalStrings@QtPrivate@@YA_NV?$QBasicUtf8StringView@$0A@@@VQLatin1String@@@Z
       3446  D75 00169BC0 ?equalStrings@QtPrivate@@YA_NV?$QBasicUtf8StringView@$0A@@@VQStringView@@@Z
       3447  D76 00169C00 ?equalStrings@QtPrivate@@YA_NVQLatin1String@@0@Z
       3448  D77 00169C30 ?equalStrings@QtPrivate@@YA_NVQLatin1String@@V?$QBasicUtf8StringView@$0A@@@@Z
       3449  D78 00169C70 ?equalStrings@QtPrivate@@YA_NVQLatin1String@@VQStringView@@@Z
       3450  D79 00169CA0 ?equalStrings@QtPrivate@@YA_NVQStringView@@0@Z
       3451  D7A 00169CD0 ?equalStrings@QtPrivate@@YA_NVQStringView@@V?$QBasicUtf8StringView@$0A@@@@Z
       3452  D7B 00169D10 ?equalStrings@QtPrivate@@YA_NVQStringView@@VQLatin1String@@@Z
       3453  D7C 00169D30 ?equal_helper@QChar@@CA_NV1@PEBD@Z
       3454  D7D 00169DA0 ?equal_helper@QLatin1String@@CA_NV1@PEBD_J@Z
       3455  D7E 00169DE0 ?equal_helper@QStringView@@CA_NV1@PEBD_J@Z
       3456  D7F 0018D4A0 ?equals@QDateTime@@AEBA_NAEBV1@@Z
       3457  D80 00149260 ?equals@QLocale@@AEBA_NAEBV1@@Z
       3458  D81 000D13C0 ?equals@QMetaType@@QEBA_NPEBX0@Z
       3459  D82 000044B0 ?equals@QMetaType@@SA_NPEBX0HPEAH@Z
       3460  D83 000FC500 ?equals@QVariant@@IEBA_NAEBV1@@Z
       3461  D84 00136120 ?erase@QByteArray@@QEAAPEADPEBD0@Z
       3462  D85 00004520 ?erase@QByteArray@@QEAAPEADPEBD@Z
       3463  D86 0001DB70 ?erase@QCborArray@@QEAA?AVIterator@1@V21@@Z
       3464  D87 0001DB70 ?erase@QCborArray@@QEAA?AVIterator@1@VConstIterator@1@@Z
       3465  D88 00115E10 ?erase@QCborMap@@QEAA?AVIterator@1@V21@@Z
       3466  D89 0001DBB0 ?erase@QCborMap@@QEAA?AVIterator@1@VConstIterator@1@@Z
       3467  D8A 0001DBE0 ?erase@QJsonArray@@QEAA?AViterator@1@V21@@Z
       3468  D8B 00124190 ?erase@QJsonObject@@QEAA?AViterator@1@V21@@Z
       3469  D8C 00169E20 ?erase@QString@@QEAAPEAVQChar@@PEBV2@0@Z
       3470  D8D 00004530 ?erase@QString@@QEAAPEAVQChar@@PEBV2@@Z
       3471  D8E 000A5BC0 ?eraseRangeAtIterator@QMetaSequence@@QEBAXPEAXPEBX1@Z
       3472  D8F 00005880 ?eraseValueAtIterator@QMetaSequence@@QEBAXPEAXPEBX@Z
       3473  D90 00039BC0 ?error@QAbstractFileEngine@@QEBA?AW4FileError@QFileDevice@@XZ
       3474  D91 000538B0 ?error@QFileDevice@@QEBA?AW4FileError@1@XZ
       3475  D92 000671E0 ?error@QLockFile@@QEBA?AW4LockError@1@XZ
       3476  D93 002829F0 ?error@QProcess@@QEBA?AW4ProcessError@1@XZ
       3477  D94 00034E20 ?error@QSharedMemory@@QEBA?AW4SharedMemoryError@1@XZ
       3478  D95 00036440 ?error@QSystemSemaphore@@QEBA?AW4SystemSemaphoreError@1@XZ
       3479  D96 000EC820 ?error@QUntypedPropertyBinding@@QEBA?AVQPropertyBindingError@@XZ
       3480  D97 001E5CE0 ?error@QXmlStreamReader@@QEBA?AW4Error@1@XZ
       3481  D98 00282A00 ?errorOccurred@QProcess@@QEAAXW4ProcessError@1@@Z
       3482  D99 00039BD0 ?errorString@QAbstractFileEngine@@QEBA?AVQString@@XZ
       3483  D9A 00063170 ?errorString@QIODevice@@QEBA?AVQString@@XZ
       3484  D9B 00127800 ?errorString@QJsonParseError@@QEBA?AVQString@@XZ
       3485  D9C 002FCAF0 ?errorString@QLibrary@@QEBA?AVQString@@XZ
       3486  D9D 001075C0 ?errorString@QPluginLoader@@QEBA?AVQString@@XZ
       3487  D9E 00259650 ?errorString@QRegularExpression@@QEBA?AVQString@@XZ
       3488  D9F 00034E30 ?errorString@QSharedMemory@@QEBA?AVQString@@XZ
       3489  DA0 00036450 ?errorString@QSystemSemaphore@@QEBA?AVQString@@XZ
       3490  DA1 00079F40 ?errorString@QTemporaryDir@@QEBA?AVQString@@XZ
       3491  DA2 0007E610 ?errorString@QUrl@@QEBA?AVQString@@XZ
       3492  DA3 001E5D00 ?errorString@QXmlStreamReader@@QEBA?AVQString@@XZ
       3493  DA4 0023B5E0 ?errorText@QCommandLineParser@@QEBA?AVQString@@XZ
       3494  DA5 00004540 ?escape@QRegularExpression@@SA?AVQString@@AEBV2@@Z
       3495  DA6 002597B0 ?escape@QRegularExpression@@SA?AVQString@@VQStringView@@@Z
       3496  DA7 000058E0 ?evaluateIfDirty@QPropertyBindingData@QtPrivate@@QEBAXPEBVQUntypedPropertyData@@@Z
       3497  DA8 000ECC90 ?evaluateRecursive@QPropertyBindingPrivate@@QEAA_NAEAV?$QVarLengthArray@VQPropertyBindingPrivatePtr@@$0BAA@@@PEAUQBindingStatus@@@Z
       3498  DA9 0001DC10 ?evaluateRecursive_inline@QPropertyBindingPrivate@@QEAA_NAEAV?$QVarLengthArray@VQPropertyBindingPrivatePtr@@$0BAA@@@PEAUQBindingStatus@@@Z
       3499  DAA 001FAD70 ?event@QAbstractAnimation@@MEAA_NPEAVQEvent@@@Z
       3500  DAB 001FF250 ?event@QAnimationGroup@@MEAA_NPEAVQEvent@@@Z
       3501  DAC 0009CC20 ?event@QCoreApplication@@MEAA_NPEAVQEvent@@@Z
       3502  DAD 002219B0 ?event@QEventDispatcherWin32@@UEAA_NPEAVQEvent@@@Z
       3503  DAE 000A5010 ?event@QEventLoop@@UEAA_NPEAVQEvent@@@Z
       3504  DAF 00234930 ?event@QFutureWatcherBase@@UEAA_NPEAVQEvent@@@Z
       3505  DB0 000E50F0 ?event@QObject@@UEAA_NPEAVQEvent@@@Z
       3506  DB1 00200150 ?event@QParallelAnimationGroup@@MEAA_NPEAVQEvent@@@Z
       3507  DB2 002013B0 ?event@QPauseAnimation@@MEAA_NPEAVQEvent@@@Z
       3508  DB3 00203140 ?event@QPropertyAnimation@@MEAA_NPEAVQEvent@@@Z
       3509  DB4 00200150 ?event@QSequentialAnimationGroup@@MEAA_NPEAVQEvent@@@Z
       3510  DB5 00295D90 ?event@QSettings@@MEAA_NPEAVQEvent@@@Z
       3511  DB6 000F34C0 ?event@QSocketNotifier@@MEAA_NPEAVQEvent@@@Z
       3512  DB7 00184E30 ?event@QThread@@UEAA_NPEAVQEvent@@@Z
       3513  DB8 002013B0 ?event@QVariantAnimation@@MEAA_NPEAVQEvent@@@Z
       3514  DB9 00226410 ?event@QWinEventNotifier@@MEAA_NPEAVQEvent@@@Z
       3515  DBA 0021A620 ?event@QWindowsPipeReader@@MEAA_NPEAVQEvent@@@Z
       3516  DBB 0021BC10 ?event@QWindowsPipeWriter@@MEAA_NPEAVQEvent@@@Z
       3517  DBC 0009CCE0 ?eventDispatcher@QCoreApplication@@SAPEAVQAbstractEventDispatcher@@XZ
       3518  DBD 00598998 ?eventDispatcher@QCoreApplicationPrivate@@2PEAVQAbstractEventDispatcher@@EA
       3519  DBE 00184E60 ?eventDispatcher@QThread@@QEBAPEAVQAbstractEventDispatcher@@XZ
       3520  DBF 000058E0 ?eventDispatcherReady@QCoreApplicationPrivate@@UEAAXXZ
       3521  DC0 00028FB0 ?eventFilter@QObject@@UEAA_NPEAV1@PEAVQEvent@@@Z
       3522  DC1 0022F480 ?exception@ExceptionStore@QtPrivate@@QEBA?AVexception_ptr@std@@XZ
       3523  DC2 0022F4B0 ?exception@QUnhandledException@@QEBA?AVexception_ptr@std@@XZ
       3524  DC3 00231000 ?exceptionStore@QFutureInterfaceBase@@QEAAAEAVExceptionStore@QtPrivate@@XZ
       3525  DC4 0009CD00 ?exec@QCoreApplication@@SAHXZ
       3526  DC5 000A5070 ?exec@QEventLoop@@QEAAHV?$QFlags@W4ProcessEventsFlag@QEventLoop@@@@@Z
       3527  DC6 00004570 ?exec@QTextStreamManipulator@@QEAAXAEAVQTextStream@@@Z
       3528  DC7 00184E70 ?exec@QThread@@IEAAHXZ
       3529  DC8 0009CEC0 ?execCleanup@QCoreApplicationPrivate@@QEAAXXZ
       3530  DC9 00282A40 ?execute@QProcess@@SAHAEBVQString@@AEBV?$QList@VQString@@@@@Z
       3531  DCA 000058E0 ?executePendingOperations@QAbstractItemModelPrivate@@UEBAXXZ
       3532  DCB 0004E000 ?exists@DirEntry@QDirListing@@QEBA_NXZ
       3533  DCC 00045720 ?exists@QDir@@QEBA_NAEBVQString@@@Z
       3534  DCD 000457B0 ?exists@QDir@@QEBA_NXZ
       3535  DCE 000513E0 ?exists@QFile@@QEBA_NXZ
       3536  DCF 00051430 ?exists@QFile@@SA_NAEBVQString@@@Z
       3537  DD0 00055C00 ?exists@QFileInfo@@QEBA_NXZ
       3538  DD1 00055D00 ?exists@QFileInfo@@SA_NAEBVQString@@@Z
       3539  DD2 000902A0 ?exists@QZipReader@@QEBA_NXZ
       3540  DD3 000902A0 ?exists@QZipWriter@@QEBA_NXZ
       3541  DD4 0009CEF0 ?exit@QCoreApplication@@SAXH@Z
       3542  DD5 000A52A0 ?exit@QEventLoop@@QEAAXH@Z
       3543  DD6 00184FA0 ?exit@QThread@@QEAAXH@Z
       3544  DD7 00282B10 ?exitCode@QProcess@@QEBAHXZ
       3545  DD8 00282B20 ?exitStatus@QProcess@@QEBA?AW4ExitStatus@1@XZ
       3546  DD9 00136180 ?expand@QByteArray@@AEAAX_J@Z
       3547  DDA 0001DDE0 ?expandedTo@QSize@@QEBA?AV1@AEBV1@@Z
       3548  DDB 0001DE00 ?expandedTo@QSizeF@@QEBA?AV1@AEBV1@@Z
       3549  DDC 00231010 ?expectedResultCount@QFutureInterfaceBase@@QEAAHXZ
       3550  DDD 0022C150 ?expiryTimeout@QThreadPool@@QEBAHXZ
       3551  DDE 001496F0 ?exponential@QLocale@@QEBA?AVQString@@XZ
       3552  DDF 003ABE80 ?exponenttable@qfloat16@@0QBIB
       3553  DE0 00028FB0 ?extension@QAbstractFileEngine@@UEAA_NW4Extension@1@PEBVExtensionOption@1@PEAVExtensionReturn@1@@Z
       3554  DE1 0005EA10 ?extension@QFSFileEngine@@UEAA_NW4Extension@QAbstractFileEngine@@PEBVExtensionOption@3@PEAVExtensionReturn@3@@Z
       3555  DE2 00058D90 ?extraSelectors@QFileSelector@@QEBA?AV?$QList@VQString@@@@XZ
       3556  DE3 0001DE40 ?extract@QCborArray@@QEAA?AVQCborValue@@VConstIterator@1@@Z
       3557  DE4 00115E70 ?extract@QCborArray@@QEAA?AVQCborValue@@VIterator@1@@Z
       3558  DE5 0001DE70 ?extract@QCborMap@@QEAA?AVQCborValue@@VConstIterator@1@@Z
       3559  DE6 00115EE0 ?extract@QCborMap@@QEAA?AVQCborValue@@VIterator@1@@Z
       3560  DE7 000902D0 ?extractAll@QZipReader@@QEBA_NAEBVQString@@@Z
       3561  DE8 00251640 ?fallbackLocale@QSystemLocale@@UEBA?AVQLocale@@XZ
       3562  DE9 00015540 ?fallbackLocaleIndex@QSystemLocale@@QEBA_JXZ
       3563  DEA 00295DD0 ?fallbacksEnabled@QSettings@@QEBA_NXZ
       3564  DEB 0001DEA0 ?fastTryLock@QBasicMutex@@AEAA_NXZ
       3565  DEC 0001DEC0 ?fastTryUnlock@QBasicMutex@@AEAA_NXZ
       3566  DED 0002C210 ?fatal@QMessageLogger@@QEBA?AVQDebug@@AEBVQLoggingCategory@@@Z
       3567  DEE 0002C300 ?fatal@QMessageLogger@@QEBA?AVQDebug@@P6AAEBVQLoggingCategory@@XZ@Z
       3568  DEF 0002C340 ?fatal@QMessageLogger@@QEBA?AVQDebug@@XZ
       3569  DF0 0002C410 ?fatal@QMessageLogger@@QEBAXAEBVQLoggingCategory@@PEBDZZ
       3570  DF1 0002C480 ?fatal@QMessageLogger@@QEBAXP6AAEBVQLoggingCategory@@XZPEBDZZ
       3571  DF2 0002C500 ?fatal@QMessageLogger@@QEBAXPEBDZZ
       3572  DF3 000058E0 ?fetchMore@QAbstractItemModel@@UEAAXAEBVQModelIndex@@@Z
       3573  DF4 002CFA60 ?fetchMore@QAbstractProxyModel@@UEAAXAEBVQModelIndex@@@Z
       3574  DF5 002E9BA0 ?fetchMore@QSortFilterProxyModel@@UEAAXAEBVQModelIndex@@@Z
       3575  DF6 00130120 ?fieldAlignment@QTextStream@@QEBA?AW4FieldAlignment@1@XZ
       3576  DF7 002688C0 ?fieldInfo@QDateTimeParser@@QEBA?AV?$QFlags@W4FieldInfoFlag@QDateTimeParser@@@@H@Z
       3577  DF8 00130130 ?fieldWidth@QTextStream@@QEBAHXZ
       3578  DF9 00272910 ?fileChanged@QFileSystemWatcher@@QEAAXAEBVQString@@UQPrivateSignal@1@@Z
       3579  DFA 00090A50 ?fileData@QZipReader@@QEBA?AVQByteArray@@AEBVQString@@@Z
       3580  DFB 00039C00 ?fileFlags@QAbstractFileEngine@@UEBA?AV?$QFlags@W4FileFlag@QAbstractFileEngine@@@@V2@@Z
       3581  DFC 002143A0 ?fileFlags@QFSFileEngine@@UEBA?AV?$QFlags@W4FileFlag@QAbstractFileEngine@@@@V2@@Z
       3582  DFD 0004E0B0 ?fileInfo@DirEntry@QDirListing@@QEBA?AVQFileInfo@@XZ
       3583  DFE 00050320 ?fileInfo@QDirIterator@@QEBA?AVQFileInfo@@XZ
       3584  DFF 000911A0 ?fileInfoList@QZipReader@@QEBA?AV?$QList@UFileInfo@QZipReader@@@@XZ
       3585  E00 0004E2E0 ?fileName@DirEntry@QDirListing@@QEBA?AVQString@@XZ
       3586  E01 00039C10 ?fileName@QAbstractFileEngine@@UEBA?AVQString@@W4FileName@1@@Z
       3587  E02 00050350 ?fileName@QDirIterator@@QEBA?AVQString@@XZ
       3588  E03 00214550 ?fileName@QFSFileEngine@@UEBA?AVQString@@W4FileName@QAbstractFileEngine@@@Z
       3589  E04 00051440 ?fileName@QFile@@UEBA?AVQString@@XZ
       3590  E05 00039C10 ?fileName@QFileDevice@@UEBA?AVQString@@XZ
       3591  E06 00055F80 ?fileName@QFileInfo@@QEBA?AVQString@@XZ
       3592  E07 002FCCB0 ?fileName@QLibrary@@QEBA?AVQString@@XZ
       3593  E08 000671F0 ?fileName@QLockFile@@QEBA?AVQString@@XZ
       3594  E09 001076E0 ?fileName@QPluginLoader@@QEBA?AVQString@@XZ
       3595  E0A 00071230 ?fileName@QResource@@QEBA?AVQString@@XZ
       3596  E0B 000756B0 ?fileName@QSaveFile@@UEBA?AVQString@@XZ
       3597  E0C 00295E40 ?fileName@QSettings@@QEBA?AVQString@@XZ
       3598  E0D 0007B4D0 ?fileName@QTemporaryFile@@UEBA?AVQString@@XZ
       3599  E0E 0007F240 ?fileName@QUrl@@QEBA?AVQString@@V?$QFlags@W4ComponentFormattingOption@QUrl@@@@@Z
       3600  E0F 0004E3F0 ?filePath@DirEntry@QDirListing@@QEBA?AVQString@@XZ
       3601  E10 000458C0 ?filePath@QDir@@QEBA?AVQString@@AEBV2@@Z
       3602  E11 00050370 ?filePath@QDirIterator@@QEBA?AVQString@@XZ
       3603  E12 00056000 ?filePath@QFileInfo@@QEBA?AVQString@@XZ
       3604  E13 0007A020 ?filePath@QTemporaryDir@@QEBA?AVQString@@AEBV2@@Z
       3605  E14 000F7E70 ?filePath@QTranslator@@QEBA?AVQString@@XZ
       3606  E15 00079160 ?fileSystemType@QStorageInfo@@QEBA?AVQByteArray@@XZ
       3607  E16 0007B550 ?fileTemplate@QTemporaryFile@@QEBA?AVQString@@XZ
       3608  E17 0004E500 ?fileTime@DirEntry@QDirListing@@QEBA?AVQDateTime@@W4FileTime@QFileDevice@@AEBVQTimeZone@@@Z
       3609  E18 00039C30 ?fileTime@QAbstractFileEngine@@UEBA?AVQDateTime@@W4FileTime@QFileDevice@@@Z
       3610  E19 0005EAC0 ?fileTime@QFSFileEngine@@UEBA?AVQDateTime@@W4FileTime@QFileDevice@@@Z
       3611  E1A 000538C0 ?fileTime@QFileDevice@@QEBA?AVQDateTime@@W4FileTime@1@@Z
       3612  E1B 00056050 ?fileTime@QFileInfo@@QEBA?AVQDateTime@@W4FileTime@QFileDevice@@@Z
       3613  E1C 00056130 ?fileTime@QFileInfo@@QEBA?AVQDateTime@@W4FileTime@QFileDevice@@AEBVQTimeZone@@@Z
       3614  E1D 00272DA0 ?files@QFileSystemWatcher@@QEBA?AV?$QList@VQString@@@@XZ
       3615  E1E 0001DED0 ?filesystemAbsoluteFilePath@QFileInfo@@QEBA?AVpath@filesystem@std@@XZ
       3616  E1F 0001DF40 ?filesystemAbsolutePath@QDir@@QEBA?AVpath@filesystem@std@@XZ
       3617  E20 0001DFB0 ?filesystemAbsolutePath@QFileInfo@@QEBA?AVpath@filesystem@std@@XZ
       3618  E21 0001E020 ?filesystemCanonicalFilePath@QFileInfo@@QEBA?AVpath@filesystem@std@@XZ
       3619  E22 0001E090 ?filesystemCanonicalPath@QDir@@QEBA?AVpath@filesystem@std@@XZ
       3620  E23 0001E100 ?filesystemCanonicalPath@QFileInfo@@QEBA?AVpath@filesystem@std@@XZ
       3621  E24 0001E170 ?filesystemFileName@QFile@@QEBA?AVpath@filesystem@std@@XZ
       3622  E25 0001E1F0 ?filesystemFilePath@QFileInfo@@QEBA?AVpath@filesystem@std@@XZ
       3623  E26 0001E260 ?filesystemJunctionTarget@QFileInfo@@QEBA?AVpath@filesystem@std@@XZ
       3624  E27 0001E2D0 ?filesystemPath@QDir@@QEBA?AVpath@filesystem@std@@XZ
       3625  E28 0001E340 ?filesystemPath@QFileInfo@@QEBA?AVpath@filesystem@std@@XZ
       3626  E29 0001E3B0 ?filesystemReadSymLink@QFileInfo@@QEBA?AVpath@filesystem@std@@XZ
       3627  E2A 0001E420 ?filesystemSymLinkTarget@QFile@@QEBA?AVpath@filesystem@std@@XZ
       3628  E2B 0001E490 ?filesystemSymLinkTarget@QFileInfo@@QEBA?AVpath@filesystem@std@@XZ
       3629  E2C 0019F440 ?fill@QBitArray@@QEAAX_N_J1@Z
       3630  E2D 000155F0 ?fill@QBitArray@@QEAA_N_N_J@Z
       3631  E2E 00136370 ?fill@QByteArray@@QEAAAEAV1@D_J@Z
       3632  E2F 0016A220 ?fill@QString@@QEAAAEAV1@VQChar@@_J@Z
       3633  E30 00045B20 ?filter@QDir@@QEBA?AV?$QFlags@W4Filter@QDir@@@@XZ
       3634  E31 00028FD0 ?filterAcceptsColumn@QSortFilterProxyModel@@MEBA_NHAEBVQModelIndex@@@Z
       3635  E32 002E9D00 ?filterAcceptsRow@QSortFilterProxyModel@@MEBA_NHAEBVQModelIndex@@@Z
       3636  E33 002EA350 ?filterCaseSensitivity@QSortFilterProxyModel@@QEBA?AW4CaseSensitivity@Qt@@XZ
       3637  E34 002EA3B0 ?filterCaseSensitivityChanged@QSortFilterProxyModel@@QEAAXW4CaseSensitivity@Qt@@@Z
       3638  E35 002EA3F0 ?filterKeyColumn@QSortFilterProxyModel@@QEBAHXZ
       3639  E36 002369E0 ?filterMode@ResultStoreBase@QtPrivate@@QEBA_NXZ
       3640  E37 000938E0 ?filterNativeEvent@QAbstractEventDispatcher@@QEAA_NAEBVQByteArray@@PEAXPEA_J@Z
       3641  E38 002EA450 ?filterRegularExpression@QSortFilterProxyModel@@QEBA?AVQRegularExpression@@XZ
       3642  E39 002EA4C0 ?filterRole@QSortFilterProxyModel@@QEBAHXZ
       3643  E3A 002EA520 ?filterRoleChanged@QSortFilterProxyModel@@QEAAXH@Z
       3644  E3B 003152C0 ?filterString@QMimeType@@QEBA?AVQString@@XZ
       3645  E3C 00039C50 ?filters@QAbstractFileEngineIterator@@QEBA?AV?$QFlags@W4Filter@QDir@@@@XZ
       3646  E3D 000960C0 ?find@QAssociativeIterable@@QEBA?AV?$QTaggedIterator@VQAssociativeConstIterator@@X@@AEBVQVariant@@@Z
       3647  E3E 00116850 ?find@QCborMap@@QEAA?AVIterator@1@AEBVQCborValue@@@Z
       3648  E3F 001168B0 ?find@QCborMap@@QEAA?AVIterator@1@AEBVQString@@@Z
       3649  E40 00116920 ?find@QCborMap@@QEAA?AVIterator@1@VQLatin1String@@@Z
       3650  E41 00116990 ?find@QCborMap@@QEAA?AVIterator@1@_J@Z
       3651  E42 0001E500 ?find@QCborMap@@QEBA?AVConstIterator@1@AEBVQCborValue@@@Z
       3652  E43 0001E520 ?find@QCborMap@@QEBA?AVConstIterator@1@AEBVQString@@@Z
       3653  E44 0001E540 ?find@QCborMap@@QEBA?AVConstIterator@1@VQLatin1String@@@Z
       3654  E45 0001E570 ?find@QCborMap@@QEBA?AVConstIterator@1@_J@Z
       3655  E46 00124250 ?find@QJsonObject@@QEAA?AViterator@1@AEBVQString@@@Z
       3656  E47 00124280 ?find@QJsonObject@@QEAA?AViterator@1@VQLatin1String@@@Z
       3657  E48 001243C0 ?find@QJsonObject@@QEAA?AViterator@1@VQStringView@@@Z
       3658  E49 0001E590 ?find@QJsonObject@@QEBA?AVconst_iterator@1@AEBVQString@@@Z
       3659  E4A 0001E5B0 ?find@QJsonObject@@QEBA?AVconst_iterator@1@VQLatin1String@@@Z
       3660  E4B 0001E5E0 ?find@QJsonObject@@QEBA?AVconst_iterator@1@VQStringView@@@Z
       3661  E4C 00268B50 ?findAmPm@QDateTimeParser@@AEBA?AW4AmPmFinder@1@AEAVQString@@HPEAH@Z
       3662  E4D 0013EBB0 ?findByteArray@QtPrivate@@YA_JVQByteArrayView@@_J0@Z
       3663  E4E 00268FF0 ?findDay@QDateTimeParser@@AEBAHVQStringView@@HHPEAVQString@@PEAH@Z
       3664  E4F 00076930 ?findExecutable@QStandardPaths@@SA?AVQString@@AEBV2@AEBV?$QList@VQString@@@@@Z
       3665  E50 00269450 ?findMonth@QDateTimeParser@@AEBAHVQStringView@@HHHPEAVQString@@PEAH@Z
       3666  E51 0016A7C0 ?findString@QtPrivate@@YA_JVQLatin1String@@_J0W4CaseSensitivity@Qt@@@Z
       3667  E52 0016AA10 ?findString@QtPrivate@@YA_JVQLatin1String@@_JVQStringView@@W4CaseSensitivity@Qt@@@Z
       3668  E53 0016AC10 ?findString@QtPrivate@@YA_JVQStringView@@_J0W4CaseSensitivity@Qt@@@Z
       3669  E54 0016B280 ?findString@QtPrivate@@YA_JVQStringView@@_JVQLatin1String@@W4CaseSensitivity@Qt@@@Z
       3670  E55 002698D0 ?findTimeZone@QDateTimeParser@@AEBA?AUParsedSection@1@VQStringView@@AEBVQDateTime@@HHH@Z
       3671  E56 00269A80 ?findTimeZoneName@QDateTimeParser@@AEBA?AUParsedSection@1@VQStringView@@AEBVQDateTime@@@Z
       3672  E57 00269D50 ?findUtcOffset@QDateTimeParser@@AEBA?AUParsedSection@1@VQStringView@@H@Z
       3673  E58 0022E870 ?finish@QThreadStorageData@@SAXPEAPEAX@Z
       3674  E59 001FAD80 ?finished@QAbstractAnimation@@QEAAXXZ
       3675  E5A 00234960 ?finished@QFutureWatcherBase@@QEAAXXZ
       3676  E5B 00282B30 ?finished@QProcess@@QEAAXHW4ExitStatus@1@@Z
       3677  E5C 001850A0 ?finished@QThread@@QEAAXUQPrivateSignal@1@@Z
       3678  E5D 0024DAF0 ?finished@QTimeLine@@QEAAXUQPrivateSignal@1@@Z
       3679  E5E 000045B0 ?first@QByteArray@@QEBA?AV1@_J@Z
       3680  E5F 000045B0 ?first@QByteArray@@QEGBA?AV1@_J@Z
       3681  E60 000045D0 ?first@QByteArray@@QEHAA?AV1@_J@Z
       3682  E61 00004630 ?first@QByteArrayView@@QEBA?AV1@_J@Z
       3683  E62 00004640 ?first@QByteArrayView@@QEBADXZ
       3684  E63 0001C190 ?first@QCborArray@@QEAA?AVQCborValueRef@@XZ
       3685  E64 0001E610 ?first@QCborArray@@QEBA?AVQCborValue@@XZ
       3686  E65 0011C190 ?first@QJsonArray@@QEBA?AVQJsonValue@@XZ
       3687  E66 00004650 ?first@QString@@QEBA?AV1@_J@Z
       3688  E67 00004650 ?first@QString@@QEGBA?AV1@_J@Z
       3689  E68 00004670 ?first@QString@@QEHAA?AV1@_J@Z
       3690  E69 00149FB0 ?firstDayOfWeek@QLocale@@QEBA?AW4DayOfWeek@Qt@@XZ
       3691  E6A 000A7540 ?firstMethod@QMetaObjectPrivate@@SA?AVQMetaMethod@@PEBUQMetaObject@@VQByteArrayView@@@Z
       3692  E6B 00130540 ?fixed@Qt@@YAAEAVQTextStream@@AEAV2@@Z
       3693  E6C 0001E630 ?fixedSecondsAheadOfUtc@QTimeZone@@QEBAHXZ
       3694  E6D 002B4350 ?flags@QAbstractItemModel@@UEBA?AV?$QFlags@W4ItemFlag@Qt@@@@AEBVQModelIndex@@@Z
       3695  E6E 002B4380 ?flags@QAbstractListModel@@UEBA?AV?$QFlags@W4ItemFlag@Qt@@@@AEBVQModelIndex@@@Z
       3696  E6F 002CFB10 ?flags@QAbstractProxyModel@@UEBA?AV?$QFlags@W4ItemFlag@Qt@@@@AEBVQModelIndex@@@Z
       3697  E70 002B4380 ?flags@QAbstractTableModel@@UEBA?AV?$QFlags@W4ItemFlag@Qt@@@@AEBVQModelIndex@@@Z
       3698  E71 00237780 ?flags@QCommandLineOption@@QEBA?AV?$QFlags@W4Flag@QCommandLineOption@@@@XZ
       3699  E72 002D3F80 ?flags@QConcatenateTablesProxyModel@@UEBA?AV?$QFlags@W4ItemFlag@Qt@@@@AEBVQModelIndex@@@Z
       3700  E73 000B8A80 ?flags@QMetaObjectBuilder@@QEBA?AV?$QFlags@W4MetaObjectFlag@@@@XZ
       3701  E74 000046D0 ?flags@QMetaType@@QEBA?AV?$QFlags@W4TypeFlag@QMetaType@@@@XZ
       3702  E75 002B43D0 ?flags@QPersistentModelIndex@@QEBA?AV?$QFlags@W4ItemFlag@Qt@@@@XZ
       3703  E76 002EAF10 ?flags@QSortFilterProxyModel@@UEBA?AV?$QFlags@W4ItemFlag@Qt@@@@AEBVQModelIndex@@@Z
       3704  E77 002FA720 ?flags@QStringListModel@@UEBA?AV?$QFlags@W4ItemFlag@Qt@@@@AEBVQModelIndex@@@Z
       3705  E78 000E5480 ?flagsForDumping@QObjectPrivate@@UEBA?AV?$basic_string@DU?$char_traits@D@std@@V?$allocator@D@2@@std@@XZ
       3706  E79 0001E650 ?floatingPointPrecision@QDataStream@@QEBA?AW4FloatingPointPrecision@1@XZ
       3707  E7A 00028FB0 ?flush@QAbstractFileEngine@@UEAA_NXZ
       3708  E7B 0005EBA0 ?flush@QFSFileEngine@@UEAA_NXZ
       3709  E7C 00053950 ?flush@QFileDevice@@QEAA_NXZ
       3710  E7D 00130560 ?flush@QTextStream@@QEAAXXZ
       3711  E7E 00130570 ?flush@Qt@@YAAEAVQTextStream@@AEAV2@@Z
       3712  E7F 001307C0 ?forcepoint@Qt@@YAAEAVQTextStream@@AEAV2@@Z
       3713  E80 001307D0 ?forcesign@Qt@@YAAEAVQTextStream@@AEAV2@@Z
       3714  E81 000984B0 ?format@QSettings@@QEBA?AW4Format@1@XZ
       3715  E82 0026A0D0 ?format@SectionNode@QDateTimeParser@@QEBA?AVQString@@XZ
       3716  E83 000D75A0 ?formats@QMimeData@@UEBA?AV?$QList@VQString@@@@XZ
       3717  E84 0014A120 ?formattedDataSize@QLocale@@QEBA?AVQString@@_JHV?$QFlags@W4DataSizeFormat@QLocale@@@@@Z
       3718  E85 0009D010 ?forwardEvent@QCoreApplication@@CA_NPEAVQObject@@PEAVQEvent@@1@Z
       3719  E86 000259F0 ?fpClassify@qfloat16@@QEBAHXZ
       3720  E87 0001E660 ?fp_helper@QCborValue@@AEBANXZ
       3721  E88 0007F2F0 ?fragment@QUrl@@QEBA?AVQString@@V?$QFlags@W4ComponentFormattingOption@QUrl@@@@@Z
       3722  E89 0024DB30 ?frameChanged@QTimeLine@@QEAAXHUQPrivateSignal@1@@Z
       3723  E8A 0024DB90 ?frameForTime@QTimeLine@@QEBAHH@Z
       3724  E8B 001DA5A0 ?free@QRingBuffer@@QEAAX_J@Z
       3725  E8C 0019FAB0 ?freeData@QContiguousCacheData@@SAXPEAU1@@Z
       3726  E8D 0001E670 ?fromAce@QUrl@@SA?AVQString@@AEBVQByteArray@@@Z
       3727  E8E 0007F430 ?fromAce@QUrl@@SA?AVQString@@AEBVQByteArray@@V?$QFlags@W4AceProcessingOption@QUrl@@@@@Z
       3728  E8F 00136580 ?fromBase64@QByteArray@@SA?AV1@AEBV1@V?$QFlags@W4Base64Option@QByteArray@@@@@Z
       3729  E90 00136600 ?fromBase64Encoding@QByteArray@@SA?AVFromBase64Result@1@$$QEAV1@V?$QFlags@W4Base64Option@QByteArray@@@@@Z
       3730  E91 00136730 ?fromBase64Encoding@QByteArray@@SA?AVFromBase64Result@1@AEBV1@V?$QFlags@W4Base64Option@QByteArray@@@@@Z
       3731  E92 0019F620 ?fromBits@QBitArray@@SA?AV1@PEBD_J@Z
       3732  E93 0001E690 ?fromBytes@QUuid@@SA?AV1@PEBXW4Endian@QSysInfo@@@Z
       3733  E94 00116A10 ?fromCbor@QCborValue@@SA?AV1@AEAVQCborStreamReader@@@Z
       3734  E95 00116CE0 ?fromCbor@QCborValue@@SA?AV1@AEBVQByteArray@@PEAUQCborParserError@@@Z
       3735  E96 0001E6E0 ?fromCbor@QCborValue@@SA?AV1@PEBD_JPEAUQCborParserError@@@Z
       3736  E97 0001E6E0 ?fromCbor@QCborValue@@SA?AV1@PEBE_JPEAUQCborParserError@@@Z
       3737  E98 0001E740 ?fromDurationAheadOfUtc@QTimeZone@@SA?AV1@V?$duration@_JU?$ratio@$00$00@std@@@chrono@std@@@Z
       3738  E99 0001E790 ?fromEncoded@QUrl@@SA?AV1@AEBVQByteArray@@W4ParsingMode@1@@Z
       3739  E9A 0007F4C0 ?fromEncoded@QUrl@@SA?AV1@VQByteArrayView@@W4ParsingMode@1@@Z
       3740  E9B 001874E0 ?fromEnum@QCalendarBackend@@CAPEBV1@W4System@QCalendar@@@Z
       3741  E9C 00136B90 ?fromHex@QByteArray@@SA?AV1@AEBV1@@Z
       3742  E9D 001876A0 ?fromId@QCalendarBackend@@CAPEBV1@VSystemId@QCalendar@@@Z
       3743  E9E 00120F30 ?fromJson@QJsonDocument@@SA?AV1@AEBVQByteArray@@PEAUQJsonParseError@@@Z
       3744  E9F 0011D300 ?fromJsonArray@QCborArray@@SA?AV1@$$QEAVQJsonArray@@@Z
       3745  EA0 0011D360 ?fromJsonArray@QCborArray@@SA?AV1@AEBVQJsonArray@@@Z
       3746  EA1 0011D300 ?fromJsonObject@QCborMap@@SA?AV1@$$QEAVQJsonObject@@@Z
       3747  EA2 0011D360 ?fromJsonObject@QCborMap@@SA?AV1@AEBVQJsonObject@@@Z
       3748  EA3 0011D3D0 ?fromJsonValue@QCborValue@@SA?AV1@AEBVQJsonValue@@@Z
       3749  EA4 00015830 ?fromJulianDay@QDate@@SA?AV1@_J@Z
       3750  EA5 000016B0 ?fromLatin1@QChar@@SA?AV1@D@Z
       3751  EA6 000046F0 ?fromLatin1@QString@@SA?AV1@PEBD_J@Z
       3752  EA7 0016B6A0 ?fromLatin1@QString@@SA?AV1@VQByteArrayView@@@Z
       3753  EA8 00004740 ?fromLocal8Bit@QString@@SA?AV1@PEBD_J@Z
       3754  EA9 0016B840 ?fromLocal8Bit@QString@@SA?AV1@VQByteArrayView@@@Z
       3755  EAA 0007F530 ?fromLocalFile@QUrl@@SA?AV1@AEBVQString@@@Z
       3756  EAB 0018DF70 ?fromMSecsSinceEpoch@QDateTime@@SA?AV1@_J@Z
       3757  EAC 0018DFB0 ?fromMSecsSinceEpoch@QDateTime@@SA?AV1@_JAEBVQTimeZone@@@Z
       3758  EAD 0018E0D0 ?fromMSecsSinceEpoch@QDateTime@@SA?AV1@_JW4TimeSpec@Qt@@H@Z
       3759  EAE 00015120 ?fromMSecsSinceStartOfDay@QTime@@SA?AV1@H@Z
       3760  EAF 000FC720 ?fromMetaType@QVariant@@SA?AV1@VQMetaType@@PEBX@Z
       3761  EB0 001878E0 ?fromName@QCalendarBackend@@CAPEBV1@VQAnyStringView@@@Z
       3762  EB1 000D2470 ?fromName@QMetaType@@SA?AV1@VQByteArrayView@@@Z
       3763  EB2 00045C50 ?fromNativeSeparators@QDir@@SA?AVQString@@AEBV2@@Z
       3764  EB3 00136F70 ?fromPercentEncoding@QByteArray@@SA?AV1@AEBV1@D@Z
       3765  EB4 0007FC20 ?fromPercentEncoding@QUrl@@SA?AVQString@@AEBVQByteArray@@@Z
       3766  EB5 001D7820 ?fromPolar@QLineF@@SA?AV1@NN@Z
       3767  EB6 00004790 ?fromRawData@QByteArray@@SA?AV1@PEBD_J@Z
       3768  EB7 00004790 ?fromRawData@QString@@SA?AV1@PEBVQChar@@_J@Z
       3769  EB8 000A7640 ?fromRelativeConstructorIndex@QMetaMethod@@CA?AV1@PEBUQMetaObject@@H@Z
       3770  EB9 000A7670 ?fromRelativeMethodIndex@QMetaMethod@@CA?AV1@PEBUQMetaObject@@H@Z
       3771  EBA 0001E7C0 ?fromRfc4122@QUuid@@SA?AV1@AEBVQByteArray@@@Z
       3772  EBB 0010A140 ?fromRfc4122@QUuid@@SA?AV1@VQByteArrayView@@@Z
       3773  EBC 0001E7F0 ?fromSecondsAheadOfUtc@QTimeZone@@SA?AV1@H@Z
       3774  EBD 0018E2B0 ?fromSecsSinceEpoch@QDateTime@@SA?AV1@_J@Z
       3775  EBE 0018E2F0 ?fromSecsSinceEpoch@QDateTime@@SA?AV1@_JAEBVQTimeZone@@@Z
       3776  EBF 0018E430 ?fromSecsSinceEpoch@QDateTime@@SA?AV1@_JW4TimeSpec@Qt@@H@Z
       3777  EC0 000A76A0 ?fromSignalImpl@QMetaMethod@@CA?AV1@PEBUQMetaObject@@PEAPEAX@Z
       3778  EC1 00136F90 ?fromStdString@QByteArray@@SA?AV1@AEBV?$basic_string@DU?$char_traits@D@std@@V?$allocator@D@2@@std@@@Z
       3779  EC2 000047B0 ?fromStdString@QString@@SA?AV1@AEBV?$basic_string@DU?$char_traits@D@std@@V?$allocator@D@2@@std@@@Z
       3780  EC3 0018E490 ?fromStdTimePoint@QDateTime@@SA?AV1@V?$time_point@Usystem_clock@chrono@std@@V?$duration@_JU?$ratio@$00$0DOI@@std@@@23@@chrono@std@@@Z
       3781  EC4 00004810 ?fromStdU16String@QString@@SA?AV1@AEBV?$basic_string@_SU?$char_traits@_S@std@@V?$allocator@_S@2@@std@@@Z
       3782  EC5 00004840 ?fromStdU32String@QString@@SA?AV1@AEBV?$basic_string@_UU?$char_traits@_U@std@@V?$allocator@_U@2@@std@@@Z
       3783  EC6 00004870 ?fromStdWString@QString@@SA?AV1@AEBV?$basic_string@_WU?$char_traits@_W@std@@V?$allocator@_W@2@@std@@@Z
       3784  EC7 00015860 ?fromString@QDate@@SA?AV1@AEBVQString@@0H@Z
       3785  EC8 00015890 ?fromString@QDate@@SA?AV1@AEBVQString@@0HVQCalendar@@@Z
       3786  EC9 000158D0 ?fromString@QDate@@SA?AV1@AEBVQString@@0VQCalendar@@@Z
       3787  ECA 0018E4D0 ?fromString@QDate@@SA?AV1@AEBVQString@@VQStringView@@H@Z
       3788  ECB 0018E540 ?fromString@QDate@@SA?AV1@AEBVQString@@VQStringView@@HVQCalendar@@@Z
       3789  ECC 0001E840 ?fromString@QDate@@SA?AV1@AEBVQString@@VQStringView@@VQCalendar@@@Z
       3790  ECD 00015910 ?fromString@QDate@@SA?AV1@AEBVQString@@W4DateFormat@Qt@@@Z
       3791  ECE 00015940 ?fromString@QDate@@SA?AV1@VQStringView@@0H@Z
       3792  ECF 000159C0 ?fromString@QDate@@SA?AV1@VQStringView@@0HVQCalendar@@@Z
       3793  ED0 00015A50 ?fromString@QDate@@SA?AV1@VQStringView@@0VQCalendar@@@Z
       3794  ED1 0018E6E0 ?fromString@QDate@@SA?AV1@VQStringView@@W4DateFormat@Qt@@@Z
       3795  ED2 00015AE0 ?fromString@QDateTime@@SA?AV1@AEBVQString@@0H@Z
       3796  ED3 00015B10 ?fromString@QDateTime@@SA?AV1@AEBVQString@@0HVQCalendar@@@Z
       3797  ED4 00015B50 ?fromString@QDateTime@@SA?AV1@AEBVQString@@0VQCalendar@@@Z
       3798  ED5 0018EB40 ?fromString@QDateTime@@SA?AV1@AEBVQString@@VQStringView@@H@Z
       3799  ED6 0018EBB0 ?fromString@QDateTime@@SA?AV1@AEBVQString@@VQStringView@@HVQCalendar@@@Z
       3800  ED7 0001E870 ?fromString@QDateTime@@SA?AV1@AEBVQString@@VQStringView@@VQCalendar@@@Z
       3801  ED8 00015B90 ?fromString@QDateTime@@SA?AV1@AEBVQString@@W4DateFormat@Qt@@@Z
       3802  ED9 00015BC0 ?fromString@QDateTime@@SA?AV1@VQStringView@@0H@Z
       3803  EDA 00015C40 ?fromString@QDateTime@@SA?AV1@VQStringView@@0HVQCalendar@@@Z
       3804  EDB 00015CD0 ?fromString@QDateTime@@SA?AV1@VQStringView@@0VQCalendar@@@Z
       3805  EDC 0018EDA0 ?fromString@QDateTime@@SA?AV1@VQStringView@@W4DateFormat@Qt@@@Z
       3806  EDD 0026A2D0 ?fromString@QDateTimeParser@@QEBA_NAEBVQString@@PEAVQDate@@PEAVQTime@@H@Z
       3807  EDE 0026A4A0 ?fromString@QDateTimeParser@@QEBA_NAEBVQString@@PEAVQDateTime@@H@Z
       3808  EDF 00037240 ?fromString@QNativeIpcKey@@SA?AV1@AEBVQString@@@Z
       3809  EE0 00015D60 ?fromString@QTime@@SA?AV1@AEBVQString@@0@Z
       3810  EE1 0018FA50 ?fromString@QTime@@SA?AV1@AEBVQString@@VQStringView@@@Z
       3811  EE2 00015D90 ?fromString@QTime@@SA?AV1@AEBVQString@@W4DateFormat@Qt@@@Z
       3812  EE3 00015DC0 ?fromString@QTime@@SA?AV1@VQStringView@@0@Z
       3813  EE4 0018FBF0 ?fromString@QTime@@SA?AV1@VQStringView@@W4DateFormat@Qt@@@Z
       3814  EE5 0010A1A0 ?fromString@QUuid@@SA?AV1@VQAnyStringView@@@Z
       3815  EE6 0001E8A0 ?fromString@QUuid@@SA?AV1@VQLatin1String@@@Z
       3816  EE7 0001E8E0 ?fromString@QUuid@@SA?AV1@VQStringView@@@Z
       3817  EE8 0001E920 ?fromString@QVersionNumber@@SA?AV1@AEBVQString@@PEAH@Z
       3818  EE9 001DEAE0 ?fromString@QVersionNumber@@SA?AV1@VQAnyStringView@@PEA_J@Z
       3819  EEA 0001E980 ?fromString@QVersionNumber@@SA?AV1@VQLatin1String@@PEAH@Z
       3820  EEB 0001E9E0 ?fromString@QVersionNumber@@SA?AV1@VQStringView@@PEAH@Z
       3821  EEC 0011D620 ?fromStringList@QCborArray@@SA?AV1@AEBV?$QList@VQString@@@@@Z
       3822  EED 0011C1B0 ?fromStringList@QJsonArray@@SA?AV1@AEBV?$QList@VQString@@@@@Z
       3823  EEE 0007FCC0 ?fromStringList@QUrl@@SA?AV?$QList@VQUrl@@@@AEBV?$QList@VQString@@@@W4ParsingMode@1@@Z
       3824  EEF 000016E0 ?fromUcs2@QChar@@SA?AV1@_S@Z
       3825  EF0 000048A0 ?fromUcs4@QChar@@SA@_U@Z
       3826  EF1 000048E0 ?fromUcs4@QString@@SA?AV1@PEBI_J@Z
       3827  EF2 0016B8F0 ?fromUcs4@QString@@SA?AV1@PEB_U_J@Z
       3828  EF3 000801E0 ?fromUserInput@QUrl@@SA?AV1@AEBVQString@@0V?$QFlags@W4UserInputResolutionOption@QUrl@@@@@Z
       3829  EF4 00004900 ?fromUtf16@QString@@SA?AV1@PEBG_J@Z
       3830  EF5 0016B9B0 ?fromUtf16@QString@@SA?AV1@PEB_S_J@Z
       3831  EF6 00004920 ?fromUtf8@QString@@SA?AV1@PEBD_J@Z
       3832  EF7 0016BA70 ?fromUtf8@QString@@SA?AV1@VQByteArrayView@@@Z
       3833  EF8 0011D730 ?fromVariant@QCborValue@@SA?AV1@AEBVQVariant@@@Z
       3834  EF9 00121090 ?fromVariant@QJsonDocument@@SA?AV1@AEBVQVariant@@@Z
       3835  EFA 0012B0A0 ?fromVariant@QJsonValue@@SA?AV1@AEBVQVariant@@@Z
       3836  EFB 0011E100 ?fromVariantHash@QCborMap@@SA?AV1@AEBV?$QHash@VQString@@VQVariant@@@@@Z
       3837  EFC 00124500 ?fromVariantHash@QJsonObject@@SA?AV1@AEBV?$QHash@VQString@@VQVariant@@@@@Z
       3838  EFD 0011E320 ?fromVariantList@QCborArray@@SA?AV1@AEBV?$QList@VQVariant@@@@@Z
       3839  EFE 0011C440 ?fromVariantList@QJsonArray@@SA?AV1@AEBV?$QList@VQVariant@@@@@Z
       3840  EFF 0011E3A0 ?fromVariantMap@QCborMap@@SA?AV1@AEBV?$QMap@VQString@@VQVariant@@@@@Z
       3841  F00 00124A60 ?fromVariantMap@QJsonObject@@SA?AV1@AEBV?$QMap@VQString@@VQVariant@@@@@Z
       3842  F01 00004970 ?fromWCharArray@QString@@SA?AV1@PEB_W_J@Z
       3843  F02 00259930 ?fromWildcard@QRegularExpression@@SA?AV1@VQStringView@@W4CaseSensitivity@Qt@@V?$QFlags@W4WildcardConversionOption@QRegularExpression@@@@@Z
       3844  F03 000F55F0 ?from_msecs@QTimer@@CA?AV?$duration@_JU?$ratio@$00$0DLJKMKAA@@std@@@chrono@std@@V?$duration@_JU?$ratio@$00$0DOI@@std@@@34@@Z
       3845  F04 00003590 ?front@QByteArray@@QEAAAEADXZ
       3846  F05 00004640 ?front@QByteArray@@QEBADXZ
       3847  F06 00004640 ?front@QByteArrayView@@QEBADXZ
       3848  F07 000035E0 ?front@QString@@QEAAAEAVQChar@@XZ
       3849  F08 00004990 ?front@QString@@QEBA?AVQChar@@XZ
       3850  F09 001307E0 ?generateByteOrderMark@QTextStream@@QEBA_NXZ
       3851  F0A 003155E0 ?genericIconName@QMimeType@@QEBA?AVQString@@XZ
       3852  F0B 000035D0 ?get@QAbstractAnimationPrivate@@SAPEAV1@PEAVQAbstractAnimation@@@Z
       3853  F0C 000035D0 ?get@QAbstractEventDispatcherPrivate@@SAPEAV1@PEAVQAbstractEventDispatcher@@@Z
       3854  F0D 000035D0 ?get@QAbstractEventDispatcherPrivate@@SAPEBV1@PEBVQAbstractEventDispatcher@@@Z
       3855  F0E 000035D0 ?get@QAbstractItemModelPrivate@@SAPEBV1@PEBVQAbstractItemModel@@@Z
       3856  F0F 000035D0 ?get@QObjectPrivate@@SAPEAV1@PEAVQObject@@@Z
       3857  F10 000035D0 ?get@QObjectPrivate@@SAPEBV1@PEBVQObject@@@Z
       3858  F11 000041C0 ?get@QPropertyBindingPrivate@@SAPEAV1@AEBVQUntypedPropertyBinding@@@Z
       3859  F12 0022EB60 ?get@QThreadStorageData@@QEBAPEAPEAXXZ
       3860  F13 0026A630 ?getAmPmText@QDateTimeParser@@AEBA?AVQString@@W4AmPm@1@W4Case@1@@Z
       3861  F14 001DC8E0 ?getAndRef@ExternalRefCountData@QtSharedPointer@@SAPEAU12@PEBVQObject@@@Z
       3862  F15 000ED0B0 ?getBinding@PropertyAdaptorSlotObjectHelpers@QtPrivate@@YA?AVQUntypedPropertyBinding@@PEBVQUntypedPropertyData@@@Z
       3863  F16 000631F0 ?getChar@QIODevice@@QEAA_NPEAD@Z
       3864  F17 0001EA40 ?getCoords@QRect@@QEBAXPEAH000@Z
       3865  F18 0001EA60 ?getCoords@QRectF@@QEBAXPEAN000@Z
       3866  F19 00197710 ?getCurrentStandardUtcOffset@QLocalTime@@YAHXZ
       3867  F1A 0018FC70 ?getDate@QDate@@QEBAXPEAH00@Z
       3868  F1B 0026A7A0 ?getDigit@QDateTimeParser@@IEBAHAEBVQDateTime@@H@Z
       3869  F1C 00209E20 ?getInterpolator@QVariantAnimationPrivate@@SAP6A?AVQVariant@@PEBX0N@ZH@Z
       3870  F1D 00067220 ?getLockInfo@QLockFile@@QEBA_NPEA_JPEAVQString@@1@Z
       3871  F1E 0026AAF0 ?getMaximum@QDateTimeParser@@MEBA?AVQDateTime@@AEBVQTimeZone@@@Z
       3872  F1F 000A7760 ?getMetaPropertyData@QMetaProperty@@CA?AUData@1@PEBUQMetaObject@@H@Z
       3873  F20 0026AC40 ?getMinimum@QDateTimeParser@@MEBA?AVQDateTime@@AEBVQTimeZone@@@Z
       3874  F21 002CFBD0 ?getModelForwarder@QAbstractProxyModelPrivate@@QEBAPEAVQAbstractItemModel@@XZ
       3875  F22 000A7780 ?getParameterTypes@QMetaMethod@@QEBAXPEAH@Z
       3876  F23 000E59C0 ?getPropertyAdaptorSlotObject@QObjectPrivate@@QEAAPEAVQPropertyAdaptorSlotObject@QtPrivate@@AEBVQMetaProperty@@@Z
       3877  F24 0001EA90 ?getRect@QRect@@QEBAXPEAH000@Z
       3878  F25 0001EAC0 ?getRect@QRectF@@QEBAXPEAN000@Z
       3879  F26 0001EAF0 ?getSizeEnsuringAlignment@QPropertyBindingPrivate@@SA_KXZ
       3880  F27 001977C0 ?getUtcOffset@QLocalTime@@YAH_J@Z
       3881  F28 000ED110 ?getter@PropertyAdaptorSlotObjectHelpers@QtPrivate@@YAXPEBVQUntypedPropertyData@@PEAX@Z
       3882  F29 00315790 ?globPatterns@QMimeType@@QEBA?AV?$QList@VQString@@@@XZ
       3883  F2A 00031D20 ?global@QRandomGenerator64@@SAPEAV1@XZ
       3884  F2B 0022C1D0 ?globalInstance@QThreadPool@@SAPEAV1@XZ
       3885  F2C 00259A10 ?globalMatch@QRegularExpression@@QEBA?AVQRegularExpressionMatchIterator@@AEBVQString@@_JW4MatchType@1@V?$QFlags@W4MatchOption@QRegularExpression@@@@@Z
       3886  F2D 00259B60 ?globalMatch@QRegularExpression@@QEBA?AVQRegularExpressionMatchIterator@@VQStringView@@_JW4MatchType@1@V?$QFlags@W4MatchOption@QRegularExpression@@@@@Z
       3887  F2E 00259BA0 ?globalMatchView@QRegularExpression@@QEBA?AVQRegularExpressionMatchIterator@@VQStringView@@_JW4MatchType@1@V?$QFlags@W4MatchOption@QRegularExpression@@@@@Z
       3888  F2F 00015E30 ?globalSeed@QHashSeed@@SA?AU1@XZ
       3889  F30 0016BAE0 ?graphemeBreakClass@QUnicodeTables@@YA?AW4GraphemeBreakClass@1@_U@Z
       3890  F31 00187B90 ?gregorian@QCalendarBackend@@CAPEBV1@XZ
       3891  F32 001FADA0 ?group@QAbstractAnimation@@QEBAPEAVQAnimationGroup@@XZ
       3892  F33 00056B10 ?group@QFileInfo@@QEBA?AVQString@@XZ
       3893  F34 00296BB0 ?group@QSettings@@QEBA?AVQString@@XZ
       3894  F35 00056B70 ?groupId@QFileInfo@@QEBAIXZ
       3895  F36 0014A7E0 ?groupSeparator@QLocale@@QEBA?AVQString@@XZ
       3896  F37 0001EB00 ?grownBy@QSize@@QEBA?AV1@VQMargins@@@Z
       3897  F38 0001EB20 ?grownBy@QSizeF@@QEBA?AV1@VQMarginsF@@@Z
       3898  F39 00007370 ?handle@QAbstractFileEngine@@UEBAHXZ
       3899  F3A 0005EC80 ?handle@QFSFileEngine@@UEBAHXZ
       3900  F3B 00053AB0 ?handle@QFileDevice@@QEBAHXZ
       3901  F3C 00034AC0 ?handle@QWinEventNotifier@@QEBAPEAXXZ
       3902  F3D 000041C0 ?handle@QWinRegistryKey@@QEBAPEAUHKEY__@@XZ
       3903  F3E 002D73F0 ?handleSourceDataChanges@QIdentityProxyModel@@QEBA_NXZ
       3904  F3F 002D7400 ?handleSourceLayoutChanges@QIdentityProxyModel@@QEBA_NXZ
       3905  F40 0019B800 ?hasAlternativeName@QTimeZone@@QEBA_NVQByteArrayView@@@Z
       3906  F41 000A5BF0 ?hasBidirectionalIterator@QMetaContainer@@QEBA_NXZ
       3907  F42 0001EB40 ?hasBinding@QPropertyBindingData@QtPrivate@@QEBA_NXZ
       3908  F43 0001EB50 ?hasCaptured@QRegularExpressionMatch@@QEBA_NAEBVQString@@@Z
       3909  F44 00259CD0 ?hasCaptured@QRegularExpressionMatch@@QEBA_NH@Z
       3910  F45 00259D00 ?hasCaptured@QRegularExpressionMatch@@QEBA_NVQAnyStringView@@@Z
       3911  F46 0001EB90 ?hasCaptured@QRegularExpressionMatch@@QEBA_NVQStringView@@@Z
       3912  F47 002B4750 ?hasChildren@QAbstractItemModel@@UEBA_NAEBVQModelIndex@@@Z
       3913  F48 002B47B0 ?hasChildren@QAbstractListModel@@EEBA_NAEBVQModelIndex@@@Z
       3914  F49 002CFC90 ?hasChildren@QAbstractProxyModel@@UEBA_NAEBVQModelIndex@@@Z
       3915  F4A 002B4810 ?hasChildren@QAbstractTableModel@@EEBA_NAEBVQModelIndex@@@Z
       3916  F4B 002EB820 ?hasChildren@QSortFilterProxyModel@@UEBA_NAEBVQModelIndex@@@Z
       3917  F4C 000D7AA0 ?hasColor@QMimeData@@QEBA_NXZ
       3918  F4D 000A5C10 ?hasConstIterator@QMetaContainer@@QEBA_NXZ
       3919  F4E 0001EBD0 ?hasCustomVTable@QPropertyBindingPrivate@@QEBA_NXZ
       3920  F4F 0019BB80 ?hasDaylightTime@QTimeZone@@QEBA_NXZ
       3921  F50 00015F90 ?hasError@QPropertyBindingError@@QEBA_NXZ
       3922  F51 0001EBE0 ?hasError@QXmlStreamReader@@QEBA_NXZ
       3923  F52 001E77C0 ?hasError@QXmlStreamWriter@@QEBA_NXZ
       3924  F53 0022F4E0 ?hasException@ExceptionStore@QtPrivate@@QEBA_NXZ
       3925  F54 00231020 ?hasException@QFutureInterfaceBase@@QEBA_NXZ
       3926  F55 000A3D00 ?hasExpired@QDeadlineTimer@@QEBA_NXZ
       3927  F56 000A47D0 ?hasExpired@QElapsedTimer@@QEBA_N_J@Z
       3928  F57 000D7B10 ?hasFormat@QMimeData@@UEBA_NAEBVQString@@@Z
       3929  F58 000A5C30 ?hasForwardIterator@QMetaContainer@@QEBA_NXZ
       3930  F59 00080AB0 ?hasFragment@QUrl@@QEBA_NXZ
       3931  F5A 000D7BE0 ?hasHtml@QMimeData@@QEBA_NXZ
       3932  F5B 000D7C50 ?hasImage@QMimeData@@QEBA_NXZ
       3933  F5C 002B4880 ?hasIndex@QAbstractItemModel@@QEBA_NHHAEBVQModelIndex@@@Z
       3934  F5D 000A5C50 ?hasInputIterator@QMetaContainer@@QEBA_NXZ
       3935  F5E 000A5C60 ?hasIterator@QMetaContainer@@QEBA_NXZ
       3936  F5F 00259E10 ?hasMatch@QRegularExpressionMatch@@QEBA_NXZ
       3937  F60 000049A0 ?hasMirrored@QChar@@QEBA_NXZ
       3938  F61 0016BDD0 ?hasMirrored@QChar@@SA_N_U@Z
       3939  F62 00302D90 ?hasNext@QCborStreamReader@@QEBA_NXZ
       3940  F63 00050390 ?hasNext@QDirIterator@@QEBA_NXZ
       3941  F64 00259E20 ?hasNext@QRegularExpressionMatchIterator@@QEBA_NXZ
       3942  F65 00236B70 ?hasNextResult@ResultStoreBase@QtPrivate@@QEBA_NXZ
       3943  F66 000A7870 ?hasNotifySignal@QMetaProperty@@QEBA_NXZ
       3944  F67 000B8A90 ?hasNotifySignal@QMetaPropertyBuilder@@QEBA_NXZ
       3945  F68 00259E40 ?hasPartialMatch@QRegularExpressionMatch@@QEBA_NXZ
       3946  F69 00080AD0 ?hasQuery@QUrl@@QEBA_NXZ
       3947  F6A 0008AE20 ?hasQueryItem@QUrlQuery@@QEBA_NAEBVQString@@@Z
       3948  F6B 000A5C80 ?hasRandomAccessIterator@QMetaContainer@@QEBA_NXZ
       3949  F6C 000D25E0 ?hasRegisteredConverterFunction@QMetaType@@SA_NV1@0@Z
       3950  F6D 000D2860 ?hasRegisteredConverterFunctionToIterableMetaAssociation@QtPrivate@@YA_NVQMetaType@@@Z
       3951  F6E 000D2870 ?hasRegisteredConverterFunctionToIterableMetaSequence@QtPrivate@@YA_NVQMetaType@@@Z
       3952  F6F 000D2880 ?hasRegisteredConverterFunctionToPairVariantInterface@QtPrivate@@YA_NVQMetaType@@@Z
       3953  F70 000D2890 ?hasRegisteredDataStreamOperators@QMetaType@@QEBA_NXZ
       3954  F71 000D2980 ?hasRegisteredDebugStreamOperator@QMetaType@@QEBA_NXZ
       3955  F72 000049B0 ?hasRegisteredDebugStreamOperator@QMetaType@@SA_NH@Z
       3956  F73 000D29A0 ?hasRegisteredMutableViewFunction@QMetaType@@SA_NV1@0@Z
       3957  F74 000D2C20 ?hasRegisteredMutableViewFunctionToIterableMetaAssociation@QtPrivate@@YA_NVQMetaType@@@Z
       3958  F75 000D2C30 ?hasRegisteredMutableViewFunctionToIterableMetaSequence@QtPrivate@@YA_NVQMetaType@@@Z
       3959  F76 002C56D0 ?hasSelection@QItemSelectionModel@@QEBA_NXZ
       3960  F77 000A5CA0 ?hasSize@QMetaContainer@@QEBA_NXZ
       3961  F78 001E77D0 ?hasStandaloneDeclaration@QXmlStreamReader@@QEBA_NXZ
       3962  F79 000A7890 ?hasStdCppSet@QMetaProperty@@QEBA_NXZ
       3963  F7A 000B8AF0 ?hasStdCppSet@QMetaPropertyBuilder@@QEBA_NXZ
       3964  F7B 000D7CC0 ?hasText@QMimeData@@QEBA_NXZ
       3965  F7C 0019BC20 ?hasTransitions@QTimeZone@@QEBA_NXZ
       3966  F7D 000D7E20 ?hasUrls@QMimeData@@QEBA_NXZ
       3967  F7E 00187D40 ?hasYearZero@QCalendar@@QEBA_NXZ
       3968  F7F 00028FB0 ?hasYearZero@QCalendarBackend@@UEBA_NXZ
       3969  F80 0001EC00 ?hash@QCryptographicHash@@SA?AVQByteArray@@AEBV2@W4Algorithm@1@@Z
       3970  F81 001D3AC0 ?hash@QCryptographicHash@@SA?AVQByteArray@@VQByteArrayView@@W4Algorithm@1@@Z
       3971  F82 0001EC30 ?hash@QMessageAuthenticationCode@@SA?AVQByteArray@@AEBV2@0W4Algorithm@QCryptographicHash@@@Z
       3972  F83 001D3C30 ?hash@QMessageAuthenticationCode@@SA?AVQByteArray@@VQByteArrayView@@0W4Algorithm@QCryptographicHash@@@Z
       3973  F84 0001EC80 ?hashInto@QCryptographicHash@@SA?AVQByteArrayView@@V?$QSpan@D$0?0@@V2@W4Algorithm@1@@Z
       3974  F85 0001ECC0 ?hashInto@QCryptographicHash@@SA?AVQByteArrayView@@V?$QSpan@D$0?0@@V?$QSpan@$$CBVQByteArrayView@@$0?0@@W4Algorithm@1@@Z
       3975  F86 0001EC80 ?hashInto@QCryptographicHash@@SA?AVQByteArrayView@@V?$QSpan@E$0?0@@V2@W4Algorithm@1@@Z
       3976  F87 0001ECC0 ?hashInto@QCryptographicHash@@SA?AVQByteArrayView@@V?$QSpan@E$0?0@@V?$QSpan@$$CBVQByteArrayView@@$0?0@@W4Algorithm@1@@Z
       3977  F88 0001ED00 ?hashInto@QCryptographicHash@@SA?AVQByteArrayView@@V?$QSpan@W4byte@std@@$0?0@@V2@W4Algorithm@1@@Z
       3978  F89 001D3E20 ?hashInto@QCryptographicHash@@SA?AVQByteArrayView@@V?$QSpan@W4byte@std@@$0?0@@V?$QSpan@$$CBVQByteArrayView@@$0?0@@W4Algorithm@1@@Z
       3979  F8A 0001ED40 ?hashInto@QMessageAuthenticationCode@@SA?AVQByteArrayView@@V?$QSpan@D$0?0@@V2@1W4Algorithm@QCryptographicHash@@@Z
       3980  F8B 0001EDA0 ?hashInto@QMessageAuthenticationCode@@SA?AVQByteArrayView@@V?$QSpan@D$0?0@@V?$QSpan@$$CBVQByteArrayView@@$0?0@@V2@W4Algorithm@QCryptographicHash@@@Z
       3981  F8C 0001ED40 ?hashInto@QMessageAuthenticationCode@@SA?AVQByteArrayView@@V?$QSpan@E$0?0@@V2@1W4Algorithm@QCryptographicHash@@@Z
       3982  F8D 0001EDA0 ?hashInto@QMessageAuthenticationCode@@SA?AVQByteArrayView@@V?$QSpan@E$0?0@@V?$QSpan@$$CBVQByteArrayView@@$0?0@@V2@W4Algorithm@QCryptographicHash@@@Z
       3983  F8E 0001EDF0 ?hashInto@QMessageAuthenticationCode@@SA?AVQByteArrayView@@V?$QSpan@W4byte@std@@$0?0@@V2@1W4Algorithm@QCryptographicHash@@@Z
       3984  F8F 001D3FD0 ?hashInto@QMessageAuthenticationCode@@SA?AVQByteArrayView@@V?$QSpan@W4byte@std@@$0?0@@V?$QSpan@$$CBVQByteArrayView@@$0?0@@V2@W4Algorithm@QCryptographicHash@@@Z
       3985  F90 001D4100 ?hashLength@QCryptographicHash@@SAHW4Algorithm@1@@Z
       3986  F91 002B48F0 ?headerData@QAbstractItemModel@@UEBA?AVQVariant@@HW4Orientation@Qt@@H@Z
       3987  F92 002CFD40 ?headerData@QAbstractProxyModel@@UEBA?AVQVariant@@HW4Orientation@Qt@@H@Z
       3988  F93 002D4000 ?headerData@QConcatenateTablesProxyModel@@UEBA?AVQVariant@@HW4Orientation@Qt@@H@Z
       3989  F94 002D7410 ?headerData@QIdentityProxyModel@@UEBA?AVQVariant@@HW4Orientation@Qt@@H@Z
       3990  F95 002EB9B0 ?headerData@QSortFilterProxyModel@@UEBA?AVQVariant@@HW4Orientation@Qt@@H@Z
       3991  F96 002F5DB0 ?headerData@QTransposeProxyModel@@UEBA?AVQVariant@@HW4Orientation@Qt@@H@Z
       3992  F97 002B4940 ?headerDataChanged@QAbstractItemModel@@QEAAXW4Orientation@Qt@@HH@Z
       3993  F98 0001EE40 ?height@QItemSelectionRange@@QEBAHXZ
       3994  F99 0001EE70 ?height@QRect@@QEBAHXZ
       3995  F9A 0001EE80 ?height@QRectF@@QEBANXZ
       3996  F9B 0001EE90 ?height@QSize@@QEBAHXZ
       3997  F9C 0001EEA0 ?height@QSizeF@@QEBANXZ
       3998  F9D 0023B8A0 ?helpText@QCommandLineParser@@QEBA?AVQString@@XZ
       3999  F9E 00131E70 ?hex@Qt@@YAAEAVQTextStream@@AEAV2@@Z
       4000  F9F 000049D0 ?highSurrogate@QChar@@SA_S_U@Z
       4001  FA0 0001EEB0 ?home@QDir@@SA?AV1@XZ
       4002  FA1 00045CF0 ?homePath@QDir@@SA?AVQString@@XZ
       4003  FA2 00045CF0 ?homePath@QFSFileEngine@@SA?AVQString@@XZ
       4004  FA3 00080AF0 ?host@QUrl@@QEBA?AVQString@@V?$QFlags@W4ComponentFormattingOption@QUrl@@@@@Z
       4005  FA4 0018FE10 ?hour@QTime@@QEBAHXZ
       4006  FA5 000D7E90 ?html@QMimeData@@QEBA?AVQString@@XZ
       4007  FA6 0019BCC0 ?ianaIdToWindowsId@QTimeZone@@SA?AVQByteArray@@AEBV2@@Z
       4008  FA7 003157D0 ?iconName@QMimeType@@QEBA?AVQString@@XZ
       4009  FA8 00039C10 ?id@QAbstractFileEngine@@UEBA?AVQByteArray@@XZ
       4010  FA9 000049E0 ?id@QBasicTimer@@QEBA?AW4TimerId@Qt@@XZ
       4011  FAA 000984B0 ?id@QChronoTimer@@QEBA?AW4TimerId@Qt@@XZ
       4012  FAB 00214CD0 ?id@QFSFileEngine@@UEBA?AVQByteArray@@XZ
       4013  FAC 0001EF00 ?id@QMetaCallEvent@@QEBAHXZ
       4014  FAD 000049F0 ?id@QMetaType@@QEBAHH@Z
       4015  FAE 000049F0 ?id@QMetaType@@QEBAHXZ
       4016  FAF 0019BCE0 ?id@QTimeZone@@QEBA?AVQByteArray@@XZ
       4017  FB0 000984B0 ?id@QTimer@@QEBA?AW4TimerId@Qt@@XZ
       4018  FB1 00004A10 ?id@QTimerEvent@@QEBA?AW4TimerId@Qt@@XZ
       4019  FB2 0001EF10 ?idHelper@QMetaType@@AEBAHXZ
       4020  FB3 00228040 ?idealThreadCount@QThread@@SAHXZ
       4021  FB4 00088030 ?idnWhitelist@QUrl@@SA?AV?$QList@VQString@@@@XZ
       4022  FB5 0016BE40 ?idnaMapping@QUnicodeTables@@YA?AVQStringView@@_U@Z
       4023  FB6 0016BEF0 ?idnaStatus@QUnicodeTables@@YA?AW4IdnaStatus@1@_U@Z
       4024  FB7 000041C0 ?iface@QMetaAssociation@@QEBAPEBVQMetaAssociationInterface@QtMetaContainerPrivate@@XZ
       4025  FB8 000041C0 ?iface@QMetaSequence@@QEBAPEBVQMetaSequenceInterface@QtMetaContainerPrivate@@XZ
       4026  FB9 000041C0 ?iface@QMetaType@@QEAAPEBVQMetaTypeInterface@QtPrivate@@XZ
       4027  FBA 000041C0 ?iface@QMetaType@@QEBAPEBVQMetaTypeInterface@QtPrivate@@XZ
       4028  FBB 00004A20 ?ignore@QEvent@@QEAAXXZ
       4029  FBC 0007A160 ?ignorePunctuation@QCollator@@QEBA_NXZ
       4030  FBD 000D7F60 ?imageData@QMimeData@@QEBA?AVQVariant@@XZ
       4031  FBE 002B49B0 ?index@QAbstractListModel@@UEBA?AVQModelIndex@@HHAEBV2@@Z
       4032  FBF 002B49B0 ?index@QAbstractTableModel@@UEBA?AVQModelIndex@@HHAEBV2@@Z
       4033  FC0 002D4260 ?index@QConcatenateTablesProxyModel@@UEBA?AVQModelIndex@@HHAEBV2@@Z
       4034  FC1 002D7540 ?index@QIdentityProxyModel@@UEBA?AVQModelIndex@@HHAEBV2@@Z
       4035  FC2 00003850 ?index@QMetaEnumBuilder@@QEBAHXZ
       4036  FC3 000B8B50 ?index@QMetaMethodBuilder@@QEBAHXZ
       4037  FC4 00003850 ?index@QMetaPropertyBuilder@@QEBAHXZ
       4038  FC5 002EBB30 ?index@QSortFilterProxyModel@@UEBA?AVQModelIndex@@HHAEBV2@@Z
       4039  FC6 002F6080 ?index@QTransposeProxyModel@@UEBA?AVQModelIndex@@HHAEBV2@@Z
       4040  FC7 0001EFB0 ?indexIn@QByteArrayMatcher@@QEBA_JAEBVQByteArray@@_J@Z
       4041  FC8 0013EDB0 ?indexIn@QByteArrayMatcher@@QEBA_JPEBD_J1@Z
       4042  FC9 0013EDF0 ?indexIn@QByteArrayMatcher@@QEBA_JVQByteArrayView@@_J@Z
       4043  FCA 0013FF70 ?indexIn@QLatin1StringMatcher@@QEBA_JVQLatin1String@@_J@Z
       4044  FCB 0013FF90 ?indexIn@QLatin1StringMatcher@@QEBA_JVQStringView@@_J@Z
       4045  FCC 00004A30 ?indexIn@QStringMatcher@@QEBA_JAEBVQString@@_J@Z
       4046  FCD 00004A60 ?indexIn@QStringMatcher@@QEBA_JPEBVQChar@@_J1@Z
       4047  FCE 0016BF50 ?indexIn@QStringMatcher@@QEBA_JVQStringView@@_J@Z
       4048  FCF 0001EFE0 ?indexOf@QByteArray@@QEBA_JD_J@Z
       4049  FD0 00004A80 ?indexOf@QByteArray@@QEBA_JVQByteArrayView@@_J@Z
       4050  FD1 00004AC0 ?indexOf@QByteArrayView@@QEBA_JD_J@Z
       4051  FD2 00004B30 ?indexOf@QByteArrayView@@QEBA_JV1@_J@Z
       4052  FD3 00103800 ?indexOf@QFactoryLoader@@QEBAHAEBVQString@@@Z
       4053  FD4 001DA6C0 ?indexOf@QRingBuffer@@QEBA_JD_J0@Z
       4054  FD5 0016BF90 ?indexOf@QString@@QEBA_JAEBV1@_JW4CaseSensitivity@Qt@@@Z
       4055  FD6 0016C000 ?indexOf@QString@@QEBA_JAEBVQRegularExpression@@_JPEAVQRegularExpressionMatch@@@Z
       4056  FD7 0001F040 ?indexOf@QString@@QEBA_JVQChar@@_JW4CaseSensitivity@Qt@@@Z
       4057  FD8 0016C120 ?indexOf@QString@@QEBA_JVQLatin1String@@_JW4CaseSensitivity@Qt@@@Z
       4058  FD9 00004B60 ?indexOf@QString@@QEBA_JVQStringView@@_JW4CaseSensitivity@Qt@@@Z
       4059  FDA 0016C170 ?indexOf@QtPrivate@@YA_JVQStringView@@AEBVQRegularExpression@@_JPEAVQRegularExpressionMatch@@@Z
       4060  FDB 001FF310 ?indexOfAnimation@QAnimationGroup@@QEBAHPEAVQAbstractAnimation@@@Z
       4061  FDC 000A78B0 ?indexOfClassInfo@QMetaObject@@QEBAHPEBD@Z
       4062  FDD 000B8B60 ?indexOfClassInfo@QMetaObjectBuilder@@QEAAHAEBVQByteArray@@@Z
       4063  FDE 000A79E0 ?indexOfConstructor@QMetaObject@@QEBAHPEBD@Z
       4064  FDF 000B8C20 ?indexOfConstructor@QMetaObjectBuilder@@QEAAHAEBVQByteArray@@@Z
       4065  FE0 000A7B90 ?indexOfEnumerator@QMetaObject@@QEBAHPEBD@Z
       4066  FE1 000B8D10 ?indexOfEnumerator@QMetaObjectBuilder@@QEAAHAEBVQByteArray@@@Z
       4067  FE2 0001F0D0 ?indexOfIn@QStaticByteArrayMatcherBase@@IEBAHPEBDI0HH@Z
       4068  FE3 0013EE40 ?indexOfIn@QStaticByteArrayMatcherBase@@IEBA_JPEBD_K0_J2@Z
       4069  FE4 000A7D80 ?indexOfMethod@QMetaObject@@QEBAHPEBD@Z
       4070  FE5 000B8DC0 ?indexOfMethod@QMetaObjectBuilder@@QEAAHAEBVQByteArray@@@Z
       4071  FE6 000A80C0 ?indexOfProperty@QMetaObject@@QEBAHPEBD@Z
       4072  FE7 000B8EB0 ?indexOfProperty@QMetaObjectBuilder@@QEAAHAEBVQByteArray@@@Z
       4073  FE8 000A81F0 ?indexOfSignal@QMetaObject@@QEBAHPEBD@Z
       4074  FE9 000B8F50 ?indexOfSignal@QMetaObjectBuilder@@QEAAHAEBVQByteArray@@@Z
       4075  FEA 000A84F0 ?indexOfSlot@QMetaObject@@QEBAHPEBD@Z
       4076  FEB 000B9040 ?indexOfSlot@QMetaObjectBuilder@@QEAAHAEBVQByteArray@@@Z
       4077  FEC 002B4A80 ?indexValid@QAbstractItemModelPrivate@@QEBA_NAEBVQModelIndex@@@Z
       4078  FED 002C5990 ?indexes@QItemSelection@@QEBA?AV?$QList@VQModelIndex@@@@XZ
       4079  FEE 002C5A00 ?indexes@QItemSelectionRange@@QEBA?AV?$QList@VQModelIndex@@@@XZ
       4080  FEF 0002CDF0 ?info@QMessageLogger@@QEBA?AVQDebug@@AEBVQLoggingCategory@@@Z
       4081  FF0 0002CEF0 ?info@QMessageLogger@@QEBA?AVQDebug@@P6AAEBVQLoggingCategory@@XZ@Z
       4082  FF1 0002CF30 ?info@QMessageLogger@@QEBA?AVQDebug@@XZ
       4083  FF2 0002D000 ?info@QMessageLogger@@QEBAXAEBVQLoggingCategory@@PEBDZZ
       4084  FF3 0002D080 ?info@QMessageLogger@@QEBAXP6AAEBVQLoggingCategory@@XZPEBDZZ
       4085  FF4 0002D110 ?info@QMessageLogger@@QEBAXPEBDZZ
       4086  FF5 000A8800 ?inherits@QMetaObject@@QEBA_NPEBU1@@Z
       4087  FF6 00315910 ?inherits@QMimeType@@QEBA_NAEBVQString@@@Z
       4088  FF7 00004BA0 ?inherits@QObject@@QEBA_NPEBD@Z
       4089  FF8 00004330 ?inheritsFromParent@QProcessEnvironment@@QEBA_NXZ
       4090  FF9 0009D090 ?init@QCoreApplicationPrivate@@QEAAXXZ
       4091  FFA 000ED220 ?initBindingStatusThreadId@QtPrivate@@YAXXZ
       4092  FFB 00182680 ?initCharAttributes@QUnicodeTools@@YAXVQStringView@@PEBUScriptItem@1@_JPEAUQCharAttributes@@V?$QFlags@W4CharAttributeOption@QUnicodeTools@@@@@Z
       4093  FFC 0009DB70 ?initConsole@QCoreApplicationPrivate@@QEAAXXZ
       4094  FFD 000961A0 ?initIterator@?$QBaseIterator@VQMetaAssociation@@@@IEAAXPEBX@Z
       4095  FFE 000961A0 ?initIterator@?$QBaseIterator@VQMetaSequence@@@@IEAAXPEBX@Z
       4096  FFF 000058E0 ?initLocale@QCoreApplicationPrivate@@SAXXZ
       4097 1000 00229D60 ?initRecursive@QReadWriteLock@@CAPEAVQReadWriteLockPrivate@@XZ
       4098 1001 00182B30 ?initScripts@QUnicodeTools@@YAXVQStringView@@PEAV?$QVarLengthArray@UScriptItem@QUnicodeTools@@$0EA@@@@Z
       4099 1002 00282D90 ?inputChannelMode@QProcess@@QEBA?AW4InputChannelMode@1@XZ
       4100 1003 00137490 ?insert@QByteArray@@QEAAAEAV1@_J0D@Z
       4101 1004 00004BC0 ?insert@QByteArray@@QEAAAEAV1@_JAEBV1@@Z
       4102 1005 00004BF0 ?insert@QByteArray@@QEAAAEAV1@_JD@Z
       4103 1006 00004C20 ?insert@QByteArray@@QEAAAEAV1@_JPEBD0@Z
       4104 1007 00004C40 ?insert@QByteArray@@QEAAAEAV1@_JPEBD@Z
       4105 1008 00137660 ?insert@QByteArray@@QEAAAEAV1@_JVQByteArrayView@@@Z
       4106 1009 0001F0F0 ?insert@QCborArray@@QEAA?AVIterator@1@V21@AEBVQCborValue@@@Z
       4107 100A 0001F0F0 ?insert@QCborArray@@QEAA?AVIterator@1@VConstIterator@1@AEBVQCborValue@@@Z
       4108 100B 00116F10 ?insert@QCborArray@@QEAAX_J$$QEAVQCborValue@@@Z
       4109 100C 00117040 ?insert@QCborArray@@QEAAX_JAEBVQCborValue@@@Z
       4110 100D 0001F140 ?insert@QCborMap@@QEAA?AVIterator@1@AEBVQCborValue@@0@Z
       4111 100E 0001F1A0 ?insert@QCborMap@@QEAA?AVIterator@1@AEBVQString@@AEBVQCborValue@@@Z
       4112 100F 0001F200 ?insert@QCborMap@@QEAA?AVIterator@1@U?$pair@VQCborValue@@V1@@std@@@Z
       4113 1010 0001F290 ?insert@QCborMap@@QEAA?AVIterator@1@VQLatin1String@@AEBVQCborValue@@@Z
       4114 1011 0001F300 ?insert@QCborMap@@QEAA?AVIterator@1@_JAEBVQCborValue@@@Z
       4115 1012 0001F360 ?insert@QJsonArray@@QEAA?AViterator@1@V21@AEBVQJsonValue@@@Z
       4116 1013 0011C460 ?insert@QJsonArray@@QEAAX_JAEBVQJsonValue@@@Z
       4117 1014 00124A80 ?insert@QJsonObject@@QEAA?AViterator@1@AEBVQString@@AEBVQJsonValue@@@Z
       4118 1015 00124AB0 ?insert@QJsonObject@@QEAA?AViterator@1@VQLatin1String@@AEBVQJsonValue@@@Z
       4119 1016 00124AE0 ?insert@QJsonObject@@QEAA?AViterator@1@VQStringView@@AEBVQJsonValue@@@Z
       4120 1017 00282FC0 ?insert@QProcessEnvironment@@QEAAXAEBV1@@Z
       4121 1018 00283000 ?insert@QProcessEnvironment@@QEAAXAEBVQString@@0@Z
       4122 1019 00004C80 ?insert@QString@@QEAAAEAV1@_JAEBV1@@Z
       4123 101A 00004CA0 ?insert@QString@@QEAAAEAV1@_JAEBVQByteArray@@@Z
       4124 101B 00004CD0 ?insert@QString@@QEAAAEAV1@_JPEBD@Z
       4125 101C 0016C290 ?insert@QString@@QEAAAEAV1@_JPEBVQChar@@0@Z
       4126 101D 0016C380 ?insert@QString@@QEAAAEAV1@_JV?$QBasicUtf8StringView@$0A@@@@Z
       4127 101E 0016CA90 ?insert@QString@@QEAAAEAV1@_JVQChar@@@Z
       4128 101F 0016CBC0 ?insert@QString@@QEAAAEAV1@_JVQLatin1String@@@Z
       4129 1020 00004D10 ?insert@QString@@QEAAAEAV1@_JVQStringView@@@Z
       4130 1021 001FF360 ?insertAnimation@QAnimationGroup@@QEAAXHPEAVQAbstractAnimation@@@Z
       4131 1022 0001F3A0 ?insertColumn@QAbstractItemModel@@QEAA_NHAEBVQModelIndex@@@Z
       4132 1023 00028FB0 ?insertColumns@QAbstractItemModel@@UEAA_NHHAEBVQModelIndex@@@Z
       4133 1024 002D7620 ?insertColumns@QIdentityProxyModel@@UEAA_NHHAEBVQModelIndex@@@Z
       4134 1025 002EBC30 ?insertColumns@QSortFilterProxyModel@@UEAA_NHHAEBVQModelIndex@@@Z
       4135 1026 002F61D0 ?insertColumns@QTransposeProxyModel@@UEAA_NHHAEBVQModelIndex@@@Z
       4136 1027 00096280 ?insertKey@QAssociativeIterable@@QEAAXAEBVQVariant@@@Z
       4137 1028 00004D20 ?insertKey@QMetaAssociation@@QEBAXPEAXPEBX@Z
       4138 1029 00206790 ?insertPause@QSequentialAnimationGroup@@QEAAPEAVQPauseAnimation@@HH@Z
       4139 102A 00236B90 ?insertResultItem@ResultStoreBase@QtPrivate@@IEAAHHAEAVResultItem@2@@Z
       4140 102B 00236C20 ?insertResultItemIfValid@ResultStoreBase@QtPrivate@@IEAAXHAEAVResultItem@2@@Z
       4141 102C 0001F3D0 ?insertRow@QAbstractItemModel@@QEAA_NHAEBVQModelIndex@@@Z
       4142 102D 00028FB0 ?insertRows@QAbstractItemModel@@UEAA_NHHAEBVQModelIndex@@@Z
       4143 102E 002D76E0 ?insertRows@QIdentityProxyModel@@UEAA_NHHAEBVQModelIndex@@@Z
       4144 102F 002EBD90 ?insertRows@QSortFilterProxyModel@@UEAA_NHHAEBVQModelIndex@@@Z
       4145 1030 002FA780 ?insertRows@QStringListModel@@UEAA_NHHAEBVQModelIndex@@@Z
       4146 1031 002F62D0 ?insertRows@QTransposeProxyModel@@UEAA_NHHAEBVQModelIndex@@@Z
       4147 1032 000A5CC0 ?insertValueAtIterator@QMetaSequence@@QEBAXPEAXPEBX1@Z
       4148 1033 001FB060 ?install@QAnimationDriver@@QEAAXXZ
       4149 1034 001FB120 ?installAnimationDriver@QUnifiedTimer@@QEAAXPEAVQAnimationDriver@@@Z
       4150 1035 000E5B70 ?installEventFilter@QObject@@QEAAXPEAV1@@Z
       4151 1036 00068390 ?installFilter@QLoggingCategory@@SAP6AXPEAV1@@ZP6AX0@Z@Z
       4152 1037 00093990 ?installNativeEventFilter@QAbstractEventDispatcher@@QEAAXPEAVQAbstractNativeEventFilter@@@Z
       4153 1038 0009DD50 ?installNativeEventFilter@QCoreApplication@@QEAAXPEAVQAbstractNativeEventFilter@@@Z
       4154 1039 0009DDD0 ?installTranslator@QCoreApplication@@SA_NPEAVQTranslator@@@Z
       4155 103A 00093A00 ?instance@QAbstractEventDispatcher@@SAPEAV1@PEAVQThread@@@Z
       4156 103B 00004D50 ?instance@QCoreApplication@@SAPEAV1@XZ
       4157 103C 00103B70 ?instance@QFactoryLoader@@QEBAPEAVQObject@@H@Z
       4158 103D 00107730 ?instance@QPluginLoader@@QEAAPEAVQObject@@XZ
       4159 103E 001FB2B0 ?instance@QUnifiedTimer@@SAPEAV1@XZ
       4160 103F 001FB350 ?instance@QUnifiedTimer@@SAPEAV1@_N@Z
       4161 1040 00131E90 ?integerBase@QTextStream@@QEBAHXZ
       4162 1041 00221BC0 ?internalHwnd@QEventDispatcherWin32@@QEAAPEAUHWND__@@XZ
       4163 1042 00003840 ?internalId@QPersistentModelIndex@@QEBA_KXZ
       4164 1043 00003840 ?internalPointer@QPersistentModelIndex@@QEBAPEAXXZ
       4165 1044 001DC950 ?internalSafetyCheckAdd@QtSharedPointer@@YAXPEBXPEDX@Z
       4166 1045 001DCBF0 ?internalSafetyCheckRemove@QtSharedPointer@@YAXPEBX@Z
       4167 1046 0020A2D0 ?interpolated@QVariantAnimation@@MEBA?AVQVariant@@AEBV2@0N@Z
       4168 1047 00221BD0 ?interrupt@QEventDispatcherWin32@@UEAAXXZ
       4169 1048 002C6120 ?intersected@QItemSelectionRange@@QEBA?AV1@AEBV1@@Z
       4170 1049 0001F400 ?intersected@QRect@@QEBA?AV1@AEBV1@@Z
       4171 104A 0001F420 ?intersected@QRectF@@QEBA?AV1@AEBV1@@Z
       4172 104B 002C6300 ?intersects@QItemSelectionRange@@QEBA_NAEBV1@@Z
       4173 104C 001D7890 ?intersects@QLineF@@QEBA?AW4IntersectionType@1@AEBV1@PEAVQPointF@@@Z
       4174 104D 001D9560 ?intersects@QRect@@QEBA_NAEBV1@@Z
       4175 104E 001D9630 ?intersects@QRectF@@QEBA_NAEBV1@@Z
       4176 104F 000984C0 ?interval@QChronoTimer@@QEBA?AV?$duration@_JU?$ratio@$00$0DLJKMKAA@@std@@@chrono@std@@XZ
       4177 1050 000F5670 ?interval@QTimer@@QEBAHXZ
       4178 1051 00004D60 ?intervalAsDuration@QTimer@@QEBA?AV?$duration@_JU?$ratio@$00$0DOI@@std@@@chrono@std@@XZ
       4179 1052 000A47F0 ?invalidate@QElapsedTimer@@QEAAXXZ
       4180 1053 002EC2B0 ?invalidate@QSortFilterProxyModel@@QEAAXXZ
       4181 1054 002EC3D0 ?invalidateColumnsFilter@QSortFilterProxyModel@@IEAAXXZ
       4182 1055 002EC410 ?invalidateFilter@QSortFilterProxyModel@@IEAAXXZ
       4183 1056 002B51B0 ?invalidatePersistentIndex@QAbstractItemModelPrivate@@QEAAXAEBVQModelIndex@@@Z
       4184 1057 002B52D0 ?invalidatePersistentIndexes@QAbstractItemModelPrivate@@QEAAXXZ
       4185 1058 002EC450 ?invalidateRowsFilter@QSortFilterProxyModel@@IEAAXXZ
       4186 1059 0019F730 ?inverted_inplace@QBitArray@@AEHAA?AV1@XZ
       4187 105A 0001F440 ?invoke@QMetaMethod@@QEBA_NPEAVQObject@@VQGenericArgument@@111111111@Z
       4188 105B 0001F570 ?invoke@QMetaMethod@@QEBA_NPEAVQObject@@VQGenericReturnArgument@@VQGenericArgument@@222222222@Z
       4189 105C 0001F6A0 ?invoke@QMetaMethod@@QEBA_NPEAVQObject@@W4ConnectionType@Qt@@VQGenericArgument@@222222222@Z
       4190 105D 000A8840 ?invoke@QMetaMethod@@QEBA_NPEAVQObject@@W4ConnectionType@Qt@@VQGenericReturnArgument@@VQGenericArgument@@333333333@Z
       4191 105E 000A8B80 ?invokeImpl@QMetaMethod@@CA_NV1@PEAXW4ConnectionType@Qt@@_JPEBQEBXPEBQEBDPEBQEBVQMetaTypeInterface@QtPrivate@@@Z
       4192 105F 000A8D80 ?invokeImpl@QMetaMethodInvoker@@SA?AW4InvokeFailReason@1@VQMetaMethod@@PEAXW4ConnectionType@Qt@@_JPEBQEBXPEBQEBDPEBQEBVQMetaTypeInterface@QtPrivate@@@Z
       4193 1060 00004D80 ?invokeMethod@QMetaObject@@SA_NPEAVQObject@@PEBDVQGenericArgument@@222222222@Z
       4194 1061 00004EB0 ?invokeMethod@QMetaObject@@SA_NPEAVQObject@@PEBDVQGenericReturnArgument@@VQGenericArgument@@333333333@Z
       4195 1062 00004FE0 ?invokeMethod@QMetaObject@@SA_NPEAVQObject@@PEBDW4ConnectionType@Qt@@VQGenericArgument@@333333333@Z
       4196 1063 000A99A0 ?invokeMethod@QMetaObject@@SA_NPEAVQObject@@PEBDW4ConnectionType@Qt@@VQGenericReturnArgument@@VQGenericArgument@@444444444@Z
       4197 1064 0001F7D0 ?invokeMethodImpl@QMetaObject@@CA_NPEAVQObject@@PEAVQSlotObjectBase@QtPrivate@@W4ConnectionType@Qt@@PEAX@Z
       4198 1065 000A9B70 ?invokeMethodImpl@QMetaObject@@CA_NPEAVQObject@@PEAVQSlotObjectBase@QtPrivate@@W4ConnectionType@Qt@@_JPEBQEBXPEBQEBDPEBQEBVQMetaTypeInterface@4@@Z
       4199 1066 000A9E20 ?invokeMethodImpl@QMetaObject@@CA_NPEAVQObject@@PEBDW4ConnectionType@Qt@@_JPEBQEBXPEBQEBDPEBQEBVQMetaTypeInterface@QtPrivate@@@Z
       4200 1067 0001F800 ?invokeOnGadget@QMetaMethod@@QEBA_NPEAXVQGenericArgument@@111111111@Z
       4201 1068 000AA030 ?invokeOnGadget@QMetaMethod@@QEBA_NPEAXVQGenericReturnArgument@@VQGenericArgument@@222222222@Z
       4202 1069 0001F920 ?isAbsolute@QDir@@QEBA_NXZ
       4203 106A 0001F930 ?isAbsolute@QFileInfo@@QEBA_NXZ
       4204 106B 0001F940 ?isAbsolutePath@QDir@@SA_NAEBVQString@@@Z
       4205 106C 00005110 ?isAccepted@QEvent@@QEBA_NXZ
       4206 106D 00005120 ?isActive@QBasicTimer@@QEBA_NXZ
       4207 106E 00098530 ?isActive@QChronoTimer@@QEBA_NXZ
       4208 106F 00098530 ?isActive@QTimer@@QEBA_NXZ
       4209 1070 00056BE0 ?isAlias@QFileInfo@@QEBA_NXZ
       4210 1071 000AA480 ?isAlias@QMetaProperty@@QEBA_NXZ
       4211 1072 000B9240 ?isAlias@QMetaPropertyBuilder@@QEBA_NXZ
       4212 1073 0009DF00 ?isAlive@QCoreApplicationPrivate@@SA_NXZ
       4213 1074 000ED250 ?isAnyBindingEvaluating@QtPrivate@@YA_NXZ
       4214 1075 00030A40 ?isAnyOfType@QOperatingSystemVersion@@QEBA_NV?$initializer_list@W4OSType@QOperatingSystemVersion@@@std@@@Z
       4215 1076 00030A70 ?isAnyOfType@QOperatingSystemVersionBase@@SA_NV?$initializer_list@W4OSType@QOperatingSystemVersionBase@@@std@@W4OSType@1@@Z
       4216 1077 0001F950 ?isArray@QCborStreamReader@@QEBA_NXZ
       4217 1078 0001F960 ?isArray@QCborValue@@QEBA_NXZ
       4218 1079 0001F970 ?isArray@QCborValueRef@@QEBA_NXZ
       4219 107A 00121710 ?isArray@QJsonDocument@@QEBA_NXZ
       4220 107B 0001F9A0 ?isArray@QJsonValue@@QEBA_NXZ
       4221 107C 0001F9C0 ?isArray@QJsonValueRef@@QEBA_NXZ
       4222 107D 0016CBF0 ?isAscii@QtPrivate@@YA_NVQLatin1String@@@Z
       4223 107E 0016CC90 ?isAscii@QtPrivate@@YA_NVQStringView@@@Z
       4224 107F 00181370 ?isAtBoundary@QTextBoundaryFinder@@QEBA_NXZ
       4225 1080 00298BF0 ?isAtomicSyncRequired@QSettings@@QEBA_NXZ
       4226 1081 000353F0 ?isAttached@QSharedMemory@@QEBA_NXZ
       4227 1082 00133D70 ?isBaseChar@QXmlUtils@@CA_NVQChar@@@Z
       4228 1083 000AA4A0 ?isBindable@QMetaProperty@@QEBA_NXZ
       4229 1084 000B92A0 ?isBindable@QMetaPropertyBuilder@@QEBA_NXZ
       4230 1085 0001F9F0 ?isBool@QCborStreamReader@@QEBA_NXZ
       4231 1086 0001FA10 ?isBool@QCborValue@@QEBA_NXZ
       4232 1087 0001FA30 ?isBool@QCborValueRef@@QEBA_NXZ
       4233 1088 0001FA80 ?isBool@QJsonValue@@QEBA_NXZ
       4234 1089 0001FAA0 ?isBool@QJsonValueRef@@QEBA_NXZ
       4235 108A 0003A620 ?isBufferEmpty@QIODevicePrivate@@QEBA_NXZ
       4236 108B 000B9300 ?isBuiltinType@QtPrivate@@YA_NAEBVQByteArray@@@Z
       4237 108C 00056C40 ?isBundle@QFileInfo@@QEBA_NXZ
       4238 108D 0001FAD0 ?isByteArray@QCborStreamReader@@QEBA_NXZ
       4239 108E 0001FAE0 ?isByteArray@QCborValue@@QEBA_NXZ
       4240 108F 0001FAF0 ?isByteArray@QCborValueRef@@QEBA_NXZ
       4241 1090 001E7E80 ?isCDATA@QXmlStreamReader@@QEBA_NXZ
       4242 1091 00231200 ?isCanceled@QFutureInterfaceBase@@QEBA_NXZ
       4243 1092 00234980 ?isCanceled@QFutureWatcherBase@@QEBA_NXZ
       4244 1093 00231210 ?isChainCanceled@QFutureInterfaceBase@@QEBA_NXZ
       4245 1094 00133DE0 ?isChar@QXmlUtils@@SA_N_U@Z
       4246 1095 0001FB20 ?isCharacters@QXmlStreamReader@@QEBA_NXZ
       4247 1096 002C6480 ?isColumnSelected@QItemSelectionModel@@QEBA_NHAEBVQModelIndex@@@Z
       4248 1097 00133E20 ?isCombiningChar@QXmlUtils@@CA_NVQChar@@@Z
       4249 1098 0001FB40 ?isComment@QXmlStreamReader@@QEBA_NXZ
       4250 1099 000E5CA0 ?isConnected_helper@Connection@QMetaObject@@AEBA_NXZ
       4251 109A 000AA4C0 ?isConst@QMetaMethod@@QEBA_NXZ
       4252 109B 000B93B0 ?isConst@QMetaMethodBuilder@@QEBAHXZ
       4253 109C 000AA4F0 ?isConstant@QMetaProperty@@QEBA_NXZ
       4254 109D 000B9460 ?isConstant@QMetaPropertyBuilder@@QEBA_NXZ
       4255 109E 0001FB60 ?isContainer@QCborStreamReader@@QEBA_NXZ
       4256 109F 0001FB80 ?isContainer@QCborValue@@QEBA_NXZ
       4257 10A0 0001FBA0 ?isContainer@QCborValueRef@@QEBA_NXZ
       4258 10A1 000D3140 ?isCopyConstructible@QMetaType@@CA_NPEBVQMetaTypeInterface@QtPrivate@@@Z
       4259 10A2 00005130 ?isCopyConstructible@QMetaType@@QEBA_NXZ
       4260 10A3 0001E650 ?isCriticalEnabled@QLoggingCategory@@QEBA_NXZ
       4261 10A4 001852A0 ?isCurrentThread@QThread@@QEBA_NXZ
       4262 10A5 0001FBF0 ?isDTD@QXmlStreamReader@@QEBA_NXZ
       4263 10A6 0001FC10 ?isDateTime@QCborValue@@QEBA_NXZ
       4264 10A7 0001FC20 ?isDateTime@QCborValueRef@@QEBA_NXZ
       4265 10A8 00187D80 ?isDateValid@QCalendar@@QEBA_NHHH@Z
       4266 10A9 00187DC0 ?isDateValid@QCalendarBackend@@UEBA_NHHH@Z
       4267 10AA 0018FF10 ?isDaylightTime@QDateTime@@QEBA_NXZ
       4268 10AB 0019BDB0 ?isDaylightTime@QTimeZone@@QEBA_NAEBVQDateTime@@@Z
       4269 10AC 00028FB0 ?isDebugBuild@QLibraryInfo@@SA_NXZ
       4270 10AD 000249E0 ?isDebugEnabled@QLoggingCategory@@QEBA_NXZ
       4271 10AE 0001FC50 ?isDeclarativeSignalConnected@QObjectPrivate@@QEBA_NI@Z
       4272 10AF 00315990 ?isDefault@QMimeType@@QEBA_NXZ
       4273 10B0 0001FCA0 ?isDefault@QXmlStreamAttribute@@QEBA_NXZ
       4274 10B1 000D3160 ?isDefaultConstructible@QMetaType@@CA_NPEBVQMetaTypeInterface@QtPrivate@@@Z
       4275 10B2 00005160 ?isDefaultConstructible@QMetaType@@QEBA_NXZ
       4276 10B3 000AA510 ?isDesignable@QMetaProperty@@QEBA_NXZ
       4277 10B4 000B94C0 ?isDesignable@QMetaPropertyBuilder@@QEBA_NXZ
       4278 10B5 000D3180 ?isDestructible@QMetaType@@CA_NPEBVQMetaTypeInterface@QtPrivate@@@Z
       4279 10B6 00005190 ?isDestructible@QMetaType@@QEBA_NXZ
       4280 10B7 000051C0 ?isDetached@QBitArray@@QEBA_NXZ
       4281 10B8 000051C0 ?isDetached@QByteArray@@QEBA_NXZ
       4282 10B9 000051C0 ?isDetached@QString@@QEBA_NXZ
       4283 10BA 00080CA0 ?isDetached@QUrl@@QEBA_NXZ
       4284 10BB 000051C0 ?isDetached@QUrlQuery@@QEBA_NXZ
       4285 10BC 000051E0 ?isDetached@QVariant@@QEBA_NXZ
       4286 10BD 0011AFE0 ?isDeviceTransactionStarted@QDataStream@@QEBA_NXZ
       4287 10BE 00005200 ?isDigit@QChar@@QEBA_NXZ
       4288 10BF 00005230 ?isDigit@QChar@@SA_N_U@Z
       4289 10C0 00133EA0 ?isDigit@QXmlUtils@@CA_NVQChar@@@Z
       4290 10C1 0004E870 ?isDir@DirEntry@QDirListing@@QEBA_NXZ
       4291 10C2 00056C90 ?isDir@QFileInfo@@QEBA_NXZ
       4292 10C3 00071DC0 ?isDir@QResource@@IEBA_NXZ
       4293 10C4 0001FCB0 ?isDouble@QCborStreamReader@@QEBA_NXZ
       4294 10C5 0001FCC0 ?isDouble@QCborValue@@QEBA_NXZ
       4295 10C6 0001FCD0 ?isDouble@QCborValueRef@@QEBA_NXZ
       4296 10C7 0001FD00 ?isDouble@QJsonValue@@QEBA_NXZ
       4297 10C8 0001FD20 ?isDouble@QJsonValueRef@@QEBA_NXZ
       4298 10C9 00004330 ?isEmpty@QBindingStorage@@QEAA_NXZ
       4299 10CA 00005260 ?isEmpty@QBitArray@@QEBA_NXZ
       4300 10CB 00005260 ?isEmpty@QByteArray@@QEBA_NXZ
       4301 10CC 00004330 ?isEmpty@QByteArrayView@@QEBA_NXZ
       4302 10CD 0001D730 ?isEmpty@QCborArray@@QEBA_NXZ
       4303 10CE 0001D750 ?isEmpty@QCborMap@@QEBA_NXZ
       4304 10CF 00046040 ?isEmpty@QDir@@QEBA_NV?$QFlags@W4Filter@QDir@@@@@Z
       4305 10D0 002C6B20 ?isEmpty@QItemSelectionRange@@QEBA_NXZ
       4306 10D1 0011C650 ?isEmpty@QJsonArray@@QEBA_NXZ
       4307 10D2 00004330 ?isEmpty@QJsonDocument@@QEBA_NXZ
       4308 10D3 0011C650 ?isEmpty@QJsonObject@@QEBA_NXZ
       4309 10D4 000EA2D0 ?isEmpty@QObjectCleanupHandler@@QEBA_NXZ
       4310 10D5 002833A0 ?isEmpty@QProcessEnvironment@@QEBA_NXZ
       4311 10D6 0001FD50 ?isEmpty@QRect@@QEBA_NXZ
       4312 10D7 0001FD70 ?isEmpty@QRectF@@QEBA_NXZ
       4313 10D8 0001FD90 ?isEmpty@QSize@@QEBA_NXZ
       4314 10D9 0001FDB0 ?isEmpty@QSizeF@@QEBA_NXZ
       4315 10DA 00005260 ?isEmpty@QString@@QEBA_NXZ
       4316 10DB 000F96A0 ?isEmpty@QTranslator@@UEBA_NXZ
       4317 10DC 00080CC0 ?isEmpty@QUrl@@QEBA_NXZ
       4318 10DD 0008AE70 ?isEmpty@QUrlQuery@@QEBA_NXZ
       4319 10DE 000683B0 ?isEnabled@QLoggingCategory@@QEBA_NW4QtMsgType@@@Z
       4320 10DF 000F36A0 ?isEnabled@QSocketNotifier@@QEBA_NXZ
       4321 10E0 00226670 ?isEnabled@QWinEventNotifier@@QEBA_NXZ
       4322 10E1 00133F20 ?isEncName@QXmlUtils@@SA_NVQStringView@@@Z
       4323 10E2 0001FDD0 ?isEndDocument@QXmlStreamReader@@QEBA_NXZ
       4324 10E3 0001FDF0 ?isEndElement@QXmlStreamReader@@QEBA_NXZ
       4325 10E4 0001FE10 ?isEntityReference@QXmlStreamReader@@QEBA_NXZ
       4326 10E5 000B9520 ?isEnumOrFlag@QMetaPropertyBuilder@@QEBA_NXZ
       4327 10E6 000AA530 ?isEnumType@QMetaProperty@@QEBA_NXZ
       4328 10E7 000D31B0 ?isEqualityComparable@QMetaType@@QEBA_NXZ
       4329 10E8 0004E920 ?isExecutable@DirEntry@QDirListing@@QEBA_NXZ
       4330 10E9 00056D00 ?isExecutable@QFileInfo@@QEBA_NXZ
       4331 10EA 00133FD0 ?isExtender@QXmlUtils@@CA_NVQChar@@@Z
       4332 10EB 0001FE30 ?isFalse@QCborStreamReader@@QEBA_NXZ
       4333 10EC 0001FE50 ?isFalse@QCborValue@@QEBA_NXZ
       4334 10ED 0001FE60 ?isFalse@QCborValueRef@@QEBA_NXZ
       4335 10EE 0004E9D0 ?isFile@DirEntry@QDirListing@@QEBA_NXZ
       4336 10EF 00056D70 ?isFile@QFileInfo@@QEBA_NXZ
       4337 10F0 00028FC0 ?isFile@QResource@@IEBA_NXZ
       4338 10F1 000AA570 ?isFinal@QMetaProperty@@QEBA_NXZ
       4339 10F2 000B9580 ?isFinal@QMetaPropertyBuilder@@QEBA_NXZ
       4340 10F3 00231240 ?isFinished@QFutureInterfaceBase@@QEBA_NXZ
       4341 10F4 002349B0 ?isFinished@QFutureWatcherBase@@QEBA_NXZ
       4342 10F5 001852D0 ?isFinished@QThread@@QEBA_NXZ
       4343 10F6 000AA590 ?isFlag@QMetaEnum@@QEBA_NXZ
       4344 10F7 000B95E0 ?isFlag@QMetaEnumBuilder@@QEBA_NXZ
       4345 10F8 000AA5B0 ?isFlagType@QMetaProperty@@QEBA_NXZ
       4346 10F9 0001FE90 ?isFloat16@QCborStreamReader@@QEBA_NXZ
       4347 10FA 0001FEA0 ?isFloat@QCborStreamReader@@QEBA_NXZ
       4348 10FB 00005270 ?isForever@QDeadlineTimer@@QEBA_NXZ
       4349 10FC 00187E00 ?isGregorian@QCalendar@@QEBA_NXZ
       4350 10FD 00187EB0 ?isGregorian@QCalendarBackend@@QEBA_NXZ
       4351 10FE 0004EA80 ?isHidden@DirEntry@QDirListing@@QEBA_NXZ
       4352 10FF 00056DE0 ?isHidden@QFileInfo@@QEBA_NXZ
       4353 1100 00005290 ?isHighSurrogate@QChar@@QEBA_NXZ
       4354 1101 000052B0 ?isHighSurrogate@QChar@@SA_N_U@Z
       4355 1102 00134040 ?isIdeographic@QXmlUtils@@CA_NVQChar@@@Z
       4356 1103 00022C40 ?isInfoEnabled@QLoggingCategory@@QEBA_NXZ
       4357 1104 000052C0 ?isInputEvent@QEvent@@QEBA_NXZ
       4358 1105 0001FEB0 ?isInteger@QCborStreamReader@@QEBA_NXZ
       4359 1106 0001FEC0 ?isInteger@QCborValue@@QEBA_NXZ
       4360 1107 0001FED0 ?isInteger@QCborValueRef@@QEBA_NXZ
       4361 1108 00185360 ?isInterruptionRequested@QThread@@QEBA_NXZ
       4362 1109 0001FEF0 ?isInvalid@QCborStreamReader@@QEBA_NXZ
       4363 110A 0001FF00 ?isInvalid@QCborValue@@QEBA_NXZ
       4364 110B 0001FF10 ?isInvalid@QCborValueRef@@QEBA_NXZ
       4365 110C 00056E50 ?isJunction@QFileInfo@@QEBA_NXZ
       4366 110D 00035400 ?isKeyTypeSupported@QSharedMemory@@SA_NW4Type@QNativeIpcKey@@@Z
       4367 110E 00035400 ?isKeyTypeSupported@QSystemSemaphore@@SA_NW4Type@QNativeIpcKey@@@Z
       4368 110F 0016CD30 ?isLatin1@QtPrivate@@YA_NVQStringView@@@Z
       4369 1110 00187F60 ?isLeapYear@QCalendar@@QEBA_NH@Z
       4370 1111 00190040 ?isLeapYear@QDate@@SA_NH@Z
       4371 1112 001964F0 ?isLeapYear@QGregorianCalendar@@UEBA_NH@Z
       4372 1113 0025AF40 ?isLeapYear@QIslamicCivilCalendar@@UEBA_NH@Z
       4373 1114 0025B420 ?isLeapYear@QJalaliCalendar@@UEBA_NH@Z
       4374 1115 00197260 ?isLeapYear@QJulianCalendar@@UEBA_NH@Z
       4375 1116 00198BD0 ?isLeapYear@QMilankovicCalendar@@UEBA_NH@Z
       4376 1117 00302F10 ?isLengthKnown@QCborStreamReader@@QEBA_NXZ
       4377 1118 000052D0 ?isLetter@QChar@@QEBA_NXZ
       4378 1119 00005310 ?isLetter@QChar@@SA_N_U@Z
       4379 111A 001340B0 ?isLetter@QXmlUtils@@SA_NVQChar@@@Z
       4380 111B 00005340 ?isLetterOrNumber@QChar@@QEBA_NXZ
       4381 111C 00005380 ?isLetterOrNumber@QChar@@SA_N_U@Z
       4382 111D 0016CDD0 ?isLetterOrNumber_helper@QChar@@CA_N_U@Z
       4383 111E 0016CE50 ?isLetter_helper@QChar@@CA_N_U@Z
       4384 111F 002FD870 ?isLibrary@QLibrary@@SA_NAEBVQString@@@Z
       4385 1120 002FD8A0 ?isLoaded@QLibrary@@QEBA_NXZ
       4386 1121 001077C0 ?isLoaded@QPluginLoader@@QEBA_NXZ
       4387 1122 00080CF0 ?isLocalFile@QUrl@@QEBA_NXZ
       4388 1123 000678C0 ?isLocked@QLockFile@@QEBA_NXZ
       4389 1124 000053C0 ?isLowSurrogate@QChar@@QEBA_NXZ
       4390 1125 000053E0 ?isLowSurrogate@QChar@@SA_N_U@Z
       4391 1126 00137960 ?isLower@QByteArray@@QEBA_NXZ
       4392 1127 000053F0 ?isLower@QChar@@QEBA_NXZ
       4393 1128 00005420 ?isLower@QChar@@SA_N_U@Z
       4394 1129 0016CED0 ?isLower@QString@@QEBA_NXZ
       4395 112A 0016CFB0 ?isLower@QtPrivate@@YA_NVQStringView@@@Z
       4396 112B 00187FA0 ?isLunar@QCalendar@@QEBA_NXZ
       4397 112C 00028FD0 ?isLunar@QHijriCalendar@@UEBA_NXZ
       4398 112D 00028FB0 ?isLunar@QJalaliCalendar@@UEBA_NXZ
       4399 112E 00028FB0 ?isLunar@QRomanCalendar@@UEBA_NXZ
       4400 112F 00187FE0 ?isLuniSolar@QCalendar@@QEBA_NXZ
       4401 1130 00028FB0 ?isLuniSolar@QHijriCalendar@@UEBA_NXZ
       4402 1131 00028FB0 ?isLuniSolar@QJalaliCalendar@@UEBA_NXZ
       4403 1132 00028FB0 ?isLuniSolar@QRomanCalendar@@UEBA_NXZ
       4404 1133 00185400 ?isMainThread@QThread@@SA_NXZ
       4405 1134 0001FF40 ?isMap@QCborStreamReader@@QEBA_NXZ
       4406 1135 0001FF50 ?isMap@QCborValue@@QEBA_NXZ
       4407 1136 0001FF60 ?isMap@QCborValueRef@@QEBA_NXZ
       4408 1137 00005450 ?isMark@QChar@@QEBA_NXZ
       4409 1138 0016D090 ?isMark@QChar@@SA_N_U@Z
       4410 1139 00028FD0 ?isMonotonic@QElapsedTimer@@SA_NXZ
       4411 113A 000D31E0 ?isMoveConstructible@QMetaType@@CA_NPEBVQMetaTypeInterface@QtPrivate@@@Z
       4412 113B 00005460 ?isMoveConstructible@QMetaType@@QEBA_NXZ
       4413 113C 00134190 ?isNCName@QXmlUtils@@SA_NVQStringView@@@Z
       4414 113D 00134220 ?isNameChar@QXmlUtils@@SA_NVQChar@@@Z
       4415 113E 00056EC0 ?isNativePath@QFileInfo@@QEBA_NXZ
       4416 113F 0001FF90 ?isNegativeInteger@QCborStreamReader@@QEBA_NXZ
       4417 1140 00005490 ?isNonCharacter@QChar@@QEBA_NXZ
       4418 1141 000054C0 ?isNonCharacter@QChar@@SA_N_U@Z
       4419 1142 0001FFA0 ?isNotificationDelayed@QPropertyBindingData@QtPrivate@@QEBA_NXZ
       4420 1143 00015F40 ?isNull@QBitArray@@QEBA_NXZ
       4421 1144 000054F0 ?isNull@QByteArray@@QEBA_NXZ
       4422 1145 000054F0 ?isNull@QByteArrayView@@QEBA_NXZ
       4423 1146 0001FFB0 ?isNull@QCborStreamReader@@QEBA_NXZ
       4424 1147 0001FFD0 ?isNull@QCborValue@@QEBA_NXZ
       4425 1148 0001FFE0 ?isNull@QCborValueRef@@QEBA_NXZ
       4426 1149 00005500 ?isNull@QChar@@QEBA_NXZ
       4427 114A 00015F50 ?isNull@QDate@@QEBA_NXZ
       4428 114B 00190050 ?isNull@QDateTime@@QEBA_NXZ
       4429 114C 00004330 ?isNull@QJsonDocument@@QEBA_NXZ
       4430 114D 00020010 ?isNull@QJsonValue@@QEBA_NXZ
       4431 114E 00020030 ?isNull@QJsonValueRef@@QEBA_NXZ
       4432 114F 00020050 ?isNull@QLine@@QEBA_NXZ
       4433 1150 00020070 ?isNull@QLineF@@QEBA_NXZ
       4434 1151 00020080 ?isNull@QRect@@QEBA_NXZ
       4435 1152 000200A0 ?isNull@QRectF@@QEBA_NXZ
       4436 1153 000200D0 ?isNull@QSize@@QEBA_NXZ
       4437 1154 000200F0 ?isNull@QSizeF@@QEBA_NXZ
       4438 1155 000054F0 ?isNull@QString@@QEBA_NXZ
       4439 1156 00015F80 ?isNull@QTime@@QEBA_NXZ
       4440 1157 00004330 ?isNull@QUntypedPropertyBinding@@QEBA_NXZ
       4441 1158 0010A280 ?isNull@QUuid@@QEBA_NXZ
       4442 1159 000FC960 ?isNull@QVariant@@QEBA_NXZ
       4443 115A 00005510 ?isNumber@QChar@@QEBA_NXZ
       4444 115B 00005540 ?isNumber@QChar@@SA_N_U@Z
       4445 115C 0016D110 ?isNumber_helper@QChar@@CA_N_U@Z
       4446 115D 00121730 ?isObject@QJsonDocument@@QEBA_NXZ
       4447 115E 00020120 ?isObject@QJsonValue@@QEBA_NXZ
       4448 115F 00020140 ?isObject@QJsonValueRef@@QEBA_NXZ
       4449 1160 00063220 ?isOpen@QIODevice@@QEBA_NXZ
       4450 1161 000D3200 ?isOrdered@QMetaType@@QEBA_NXZ
       4451 1162 00080D10 ?isParentOf@QUrl@@QEBA_NAEBV1@@Z
       4452 1163 00231250 ?isPaused@QFutureInterfaceBase@@QEBA_NXZ
       4453 1164 002349D0 ?isPaused@QFutureWatcherBase@@QEBA_NXZ
       4454 1165 0021A650 ?isPipeClosed@QWindowsPipeReader@@QEBA_NXZ
       4455 1166 00005570 ?isPointerEvent@QEvent@@QEBA_NXZ
       4456 1167 001DEEE0 ?isPrefixOf@QVersionNumber@@QEBA_NAEBV1@@Z
       4457 1168 00005580 ?isPrint@QChar@@QEBA_NXZ
       4458 1169 0016D190 ?isPrint@QChar@@SA_N_U@Z
       4459 116A 00020170 ?isProcessingInstruction@QXmlStreamReader@@QEBA_NXZ
       4460 116B 00231270 ?isProgressUpdateNeeded@QFutureInterfaceBase@@QEBA_NXZ
       4461 116C 00188020 ?isProleptic@QCalendar@@QEBA_NXZ
       4462 116D 00028FD0 ?isProleptic@QCalendarBackend@@UEBA_NXZ
       4463 116E 000ED280 ?isPropertyInBindingWrapper@QtPrivate@@YA_NPEBVQUntypedPropertyData@@@Z
       4464 116F 00134350 ?isPublicID@QXmlUtils@@SA_NVQStringView@@@Z
       4465 1170 00005590 ?isPunct@QChar@@QEBA_NXZ
       4466 1171 0016D210 ?isPunct@QChar@@SA_N_U@Z
       4467 1172 000055A0 ?isQuickItemType@QObject@@QEBA_NXZ
       4468 1173 0009DF10 ?isQuitLockEnabled@QCoreApplication@@SA_NXZ
       4469 1174 00079380 ?isReadOnly@QStorageInfo@@QEBA_NXZ
       4470 1175 0021A660 ?isReadOperationActive@QWindowsPipeReader@@QEBA_NXZ
       4471 1176 0004EB30 ?isReadable@DirEntry@QDirListing@@QEBA_NXZ
       4472 1177 000460D0 ?isReadable@QDir@@QEBA_NXZ
       4473 1178 00056FA0 ?isReadable@QFileInfo@@QEBA_NXZ
       4474 1179 00063230 ?isReadable@QIODevice@@QEBA_NXZ
       4475 117A 000AA590 ?isReadable@QMetaProperty@@QEBA_NXZ
       4476 117B 000B9640 ?isReadable@QMetaPropertyBuilder@@QEBA_NXZ
       4477 117C 00091960 ?isReadable@QZipReader@@QEBA_NXZ
       4478 117D 00079390 ?isReady@QStorageInfo@@QEBA_NXZ
       4479 117E 002EC490 ?isRecursiveFilteringEnabled@QSortFilterProxyModel@@QEBA_NXZ
       4480 117F 000D3220 ?isRegistered@QMetaType@@QEBA_NXZ
       4481 1180 000D3240 ?isRegistered@QMetaType@@SA_NH@Z
       4482 1181 00020190 ?isRegularExpression@QCborValue@@QEBA_NXZ
       4483 1182 000201A0 ?isRegularExpression@QCborValueRef@@QEBA_NXZ
       4484 1183 000461D0 ?isRelative@QDir@@QEBA_NXZ
       4485 1184 00057010 ?isRelative@QFileInfo@@QEBA_NXZ
       4486 1185 000811D0 ?isRelative@QUrl@@QEBA_NXZ
       4487 1186 00028FB0 ?isRelativePath@QAbstractFileEngine@@UEBA_NXZ
       4488 1187 00046200 ?isRelativePath@QDir@@SA_NAEBVQString@@@Z
       4489 1188 00214D70 ?isRelativePath@QFSFileEngine@@UEBA_NXZ
       4490 1189 000AA5F0 ?isRequired@QMetaProperty@@QEBA_NXZ
       4491 118A 000AA610 ?isResettable@QMetaProperty@@QEBA_NXZ
       4492 118B 000B96A0 ?isResettable@QMetaPropertyBuilder@@QEBA_NXZ
       4493 118C 00231320 ?isResultReadyAt@QFutureInterfaceBase@@QEBA_NH@Z
       4494 118D 0016D290 ?isRightToLeft@QString@@QEBA_NXZ
       4495 118E 0016D2C0 ?isRightToLeft@QtPrivate@@YA_NVQStringView@@@Z
       4496 118F 00046240 ?isRoot@QDir@@QEBA_NXZ
       4497 1190 00057050 ?isRoot@QFileInfo@@QEBA_NXZ
       4498 1191 000793A0 ?isRoot@QStorageInfo@@QEBA_NXZ
       4499 1192 0005D580 ?isRootPath@QFileSystemEntry@@SA_NAEBVQString@@@Z
       4500 1193 002C6CF0 ?isRowSelected@QItemSelectionModel@@QEBA_NHAEBVQModelIndex@@@Z
       4501 1194 001FB400 ?isRunning@QAnimationDriver@@QEBA_NXZ
       4502 1195 000A52E0 ?isRunning@QEventLoop@@QEBA_NXZ
       4503 1196 002313D0 ?isRunning@QFutureInterfaceBase@@QEBA_NXZ
       4504 1197 002349F0 ?isRunning@QFutureWatcherBase@@QEBA_NXZ
       4505 1198 00185420 ?isRunning@QThread@@QEBA_NXZ
       4506 1199 002313E0 ?isRunningOrPending@QFutureInterfaceBase@@IEBA_NXZ
       4507 119A 000AA7B0 ?isScoped@QMetaEnum@@QEBA_NXZ
       4508 119B 000B9700 ?isScoped@QMetaEnumBuilder@@QEBA_NXZ
       4509 119C 000AA7D0 ?isScriptable@QMetaProperty@@QEBA_NXZ
       4510 119D 000B9760 ?isScriptable@QMetaPropertyBuilder@@QEBA_NXZ
       4511 119E 002C7390 ?isSelected@QItemSelectionModel@@QEBA_NAEBVQModelIndex@@@Z
       4512 119F 00028FB0 ?isSequential@QAbstractFileEngine@@UEBA_NXZ
       4513 11A0 0005EC90 ?isSequential@QFSFileEngine@@UEBA_NXZ
       4514 11A1 00053AF0 ?isSequential@QFileDevice@@UEBA_NXZ
       4515 11A2 00028FB0 ?isSequential@QIODevice@@UEBA_NXZ
       4516 11A3 0003A6A0 ?isSequential@QIODevicePrivate@@QEBA_NXZ
       4517 11A4 00028FD0 ?isSequential@QProcess@@UEBA_NXZ
       4518 11A5 0023C250 ?isSet@QCommandLineParser@@QEBA_NAEBVQCommandLineOption@@@Z
       4519 11A6 0023C310 ?isSet@QCommandLineParser@@QEBA_NAEBVQString@@@Z
       4520 11A7 0009DF20 ?isSetuidAllowed@QCoreApplication@@SA_NXZ
       4521 11A8 00028FD0 ?isSharedBuild@QLibraryInfo@@SA_NXZ
       4522 11A9 000055B0 ?isSharedWith@QByteArray@@QEBA_NAEBV1@@Z
       4523 11AA 000055F0 ?isSharedWith@QString@@QEBA_NAEBV1@@Z
       4524 11AB 00057170 ?isShortcut@QFileInfo@@QEBA_NXZ
       4525 11AC 0059AB18 ?isSignalConnected@QAbstractDeclarativeData@@2P6A_NPEAV1@PEBVQObject@@H@ZEA
       4526 11AD 000E5CB0 ?isSignalConnected@QObject@@IEBA_NAEBVQMetaMethod@@@Z
       4527 11AE 000E5E90 ?isSignalConnected@QObjectPrivate@@QEBA_NI_N@Z
       4528 11AF 000201D0 ?isSimpleType@QCborStreamReader@@QEBA_NW4QCborSimpleType@@@Z
       4529 11B0 000201E0 ?isSimpleType@QCborStreamReader@@QEBA_NXZ
       4530 11B1 000201F0 ?isSimpleType@QCborValue@@QEBA_NW4QCborSimpleType@@@Z
       4531 11B2 00020200 ?isSimpleType@QCborValue@@QEBA_NXZ
       4532 11B3 00020220 ?isSimpleType@QCborValueRef@@QEBA_NW4QCborSimpleType@@@Z
       4533 11B4 00020250 ?isSimpleType@QCborValueRef@@QEBA_NXZ
       4534 11B5 00005610 ?isSinglePointEvent@QEvent@@QEBA_NXZ
       4535 11B6 00098570 ?isSingleShot@QChronoTimer@@QEBA_NXZ
       4536 11B7 00098570 ?isSingleShot@QTimer@@QEBA_NXZ
       4537 11B8 00188060 ?isSolar@QCalendar@@QEBA_NXZ
       4538 11B9 00028FB0 ?isSolar@QHijriCalendar@@UEBA_NXZ
       4539 11BA 00028FD0 ?isSolar@QJalaliCalendar@@UEBA_NXZ
       4540 11BB 00028FD0 ?isSolar@QRomanCalendar@@UEBA_NXZ
       4541 11BC 002EC4F0 ?isSortLocaleAware@QSortFilterProxyModel@@QEBA_NXZ
       4542 11BD 000A5CF0 ?isSortable@QMetaSequence@@QEBA_NXZ
       4543 11BE 00005620 ?isSpace@QChar@@QEBA_NXZ
       4544 11BF 00005660 ?isSpace@QChar@@SA_N_U@Z
       4545 11C0 0016D420 ?isSpace_helper@QChar@@CA_N_U@Z
       4546 11C1 001E7EA0 ?isStandaloneDocument@QXmlStreamReader@@QEBA_NXZ
       4547 11C2 000202A0 ?isStartDocument@QXmlStreamReader@@QEBA_NXZ
       4548 11C3 000202C0 ?isStartElement@QXmlStreamReader@@QEBA_NXZ
       4549 11C4 00231400 ?isStarted@QFutureInterfaceBase@@QEBA_NXZ
       4550 11C5 00234A20 ?isStarted@QFutureWatcherBase@@QEBA_NXZ
       4551 11C6 000202E0 ?isSticky@QPropertyBindingPrivate@@QEAA_NXZ
       4552 11C7 000AA7F0 ?isStored@QMetaProperty@@QEBA_NXZ
       4553 11C8 000B97C0 ?isStored@QMetaPropertyBuilder@@QEBA_NXZ
       4554 11C9 000202F0 ?isString@QCborStreamReader@@QEBA_NXZ
       4555 11CA 00020300 ?isString@QCborValue@@QEBA_NXZ
       4556 11CB 00020310 ?isString@QCborValueRef@@QEBA_NXZ
       4557 11CC 00020340 ?isString@QJsonValue@@QEBA_NXZ
       4558 11CD 00020360 ?isString@QJsonValueRef@@QEBA_NXZ
       4559 11CE 000056A0 ?isSurrogate@QChar@@QEBA_NXZ
       4560 11CF 000056C0 ?isSurrogate@QChar@@SA_N_U@Z
       4561 11D0 00231410 ?isSuspended@QFutureInterfaceBase@@QEBA_NXZ
       4562 11D1 00234A50 ?isSuspended@QFutureWatcherBase@@QEBA_NXZ
       4563 11D2 00231420 ?isSuspending@QFutureInterfaceBase@@QEBA_NXZ
       4564 11D3 00234A70 ?isSuspending@QFutureWatcherBase@@QEBA_NXZ
       4565 11D4 0004EBE0 ?isSymLink@DirEntry@QDirListing@@QEBA_NXZ
       4566 11D5 000571E0 ?isSymLink@QFileInfo@@QEBA_NXZ
       4567 11D6 000056D0 ?isSymbol@QChar@@QEBA_NXZ
       4568 11D7 0016D4A0 ?isSymbol@QChar@@SA_N_U@Z
       4569 11D8 00057260 ?isSymbolicLink@QFileInfo@@QEBA_NXZ
       4570 11D9 00020390 ?isTag@QCborStreamReader@@QEBA_NXZ
       4571 11DA 000203A0 ?isTag@QCborValue@@QEBA_NXZ
       4572 11DB 000203C0 ?isTag@QCborValueRef@@QEBA_NXZ
       4573 11DC 00020400 ?isTag_helper@QCborValue@@CA_NW4Type@1@@Z
       4574 11DD 00076F20 ?isTestModeEnabled@QStandardPaths@@SA_NXZ
       4575 11DE 00063240 ?isTextModeEnabled@QIODevice@@QEBA_NXZ
       4576 11DF 00231430 ?isThrottled@QFutureInterfaceBase@@QEBA_NXZ
       4577 11E0 0019BEA0 ?isTimeZoneIdAvailable@QTimeZone@@SA_NAEBVQByteArray@@@Z
       4578 11E1 000056E0 ?isTitleCase@QChar@@QEBA_NXZ
       4579 11E2 00005710 ?isTitleCase@QChar@@SA_N_U@Z
       4580 11E3 00063250 ?isTransactionStarted@QIODevice@@QEBA_NXZ
       4581 11E4 0009DF30 ?isTranslatorInstalled@QCoreApplicationPrivate@@SA_NPEAVQTranslator@@@Z
       4582 11E5 00020420 ?isTrue@QCborStreamReader@@QEBA_NXZ
       4583 11E6 00020440 ?isTrue@QCborValue@@QEBA_NXZ
       4584 11E7 00020450 ?isTrue@QCborValueRef@@QEBA_NXZ
       4585 11E8 00020480 ?isUndefined@QCborStreamReader@@QEBA_NXZ
       4586 11E9 000204A0 ?isUndefined@QCborValue@@QEBA_NXZ
       4587 11EA 000204B0 ?isUndefined@QCborValueRef@@QEBA_NXZ
       4588 11EB 000204E0 ?isUndefined@QJsonValue@@QEBA_NXZ
       4589 11EC 00020500 ?isUndefined@QJsonValueRef@@QEBA_NXZ
       4590 11ED 00028FB0 ?isUnnamedFile@QFSFileEngine@@UEBA_NXZ
       4591 11EE 00020530 ?isUnsignedInteger@QCborStreamReader@@QEBA_NXZ
       4592 11EF 00020540 ?isUpdating@QPropertyBindingPrivate@@QEAA_NXZ
       4593 11F0 00137990 ?isUpper@QByteArray@@QEBA_NXZ
       4594 11F1 00005740 ?isUpper@QChar@@QEBA_NXZ
       4595 11F2 00005770 ?isUpper@QChar@@SA_N_U@Z
       4596 11F3 0016D520 ?isUpper@QString@@QEBA_NXZ
       4597 11F4 0016D600 ?isUpper@QtPrivate@@YA_NVQStringView@@@Z
       4598 11F5 00020550 ?isUrl@QCborValue@@QEBA_NXZ
       4599 11F6 00020560 ?isUrl@QCborValueRef@@QEBA_NXZ
       4600 11F7 000AA810 ?isUser@QMetaProperty@@QEBA_NXZ
       4601 11F8 000B9820 ?isUser@QMetaPropertyBuilder@@QEBA_NXZ
       4602 11F9 00020590 ?isUtcOrFixedOffset@QTimeZone@@QEBA_NXZ
       4603 11FA 000205B0 ?isUtcOrFixedOffset@QTimeZone@@SA_NW4TimeSpec@Qt@@@Z
       4604 11FB 0008D590 ?isUtf8@QLocal8Bit@@SA_NXZ
       4605 11FC 000205C0 ?isUuid@QCborValue@@QEBA_NXZ
       4606 11FD 000205D0 ?isUuid@QCborValueRef@@QEBA_NXZ
       4607 11FE 000057A0 ?isValid@QBindingStorage@@QEBA_NXZ
       4608 11FF 00015F90 ?isValid@QCalendar@@QEBA_NXZ
       4609 1200 00020600 ?isValid@QCborStreamReader@@QEBA_NXZ
       4610 1201 0020D090 ?isValid@QComHelper@@QEBA_NXZ
       4611 1202 00015FA0 ?isValid@QDate@@QEBA_NXZ
       4612 1203 00190070 ?isValid@QDate@@SA_NHHH@Z
       4613 1204 00190080 ?isValid@QDateTime@@QEBA_NXZ
       4614 1205 000A4810 ?isValid@QElapsedTimer@@QEBA_NXZ
       4615 1206 00231440 ?isValid@QFutureInterfaceBase@@QEBA_NXZ
       4616 1207 00020610 ?isValid@QItemSelectionRange@@QEBA_NXZ
       4617 1208 000206E0 ?isValid@QMetaEnum@@QEBA_NXZ
       4618 1209 00015F90 ?isValid@QMetaMethod@@QEBA_NXZ
       4619 120A 00020700 ?isValid@QMetaProperty@@QEBA_NXZ
       4620 120B 00015F90 ?isValid@QMetaType@@QEBA_NXZ
       4621 120C 003159F0 ?isValid@QMimeType@@QEBA_NXZ
       4622 120D 002B54F0 ?isValid@QPersistentModelIndex@@QEBA_NXZ
       4623 120E 00020710 ?isValid@QRect@@QEBA_NXZ
       4624 120F 00020730 ?isValid@QRectF@@QEBA_NXZ
       4625 1210 00259E50 ?isValid@QRegularExpression@@QEBA_NXZ
       4626 1211 00259E80 ?isValid@QRegularExpressionMatch@@QEBA_NXZ
       4627 1212 00259E90 ?isValid@QRegularExpressionMatchIterator@@QEBA_NXZ
       4628 1213 00071DE0 ?isValid@QResource@@QEBA_NXZ
       4629 1214 00020750 ?isValid@QSize@@QEBA_NXZ
       4630 1215 00020770 ?isValid@QSizeF@@QEBA_NXZ
       4631 1216 000F36B0 ?isValid@QSocketNotifier@@QEBA_NXZ
       4632 1217 00079470 ?isValid@QStorageInfo@@QEBA_NXZ
       4633 1218 0007A160 ?isValid@QTemporaryDir@@QEBA_NXZ
       4634 1219 001813D0 ?isValid@QTextBoundaryFinder@@QEBA_NXZ
       4635 121A 001900A0 ?isValid@QTime@@QEBA_NXZ
       4636 121B 001900B0 ?isValid@QTime@@SA_NHHHH@Z
       4637 121C 0019BFE0 ?isValid@QTimeZone@@QEBA_NXZ
       4638 121D 000811F0 ?isValid@QUrl@@QEBA_NXZ
       4639 121E 000057B0 ?isValid@QVariant@@QEBA_NXZ
       4640 121F 00015F90 ?isValid@QWinRegistryKey@@QEBA_NXZ
       4641 1220 00236CF0 ?isValid@ResultIteratorBase@QtPrivate@@QEBA_NXZ
       4642 1221 000057D0 ?isValidUtf16@QString@@QEBA_NXZ
       4643 1222 0016D6E0 ?isValidUtf16@QtPrivate@@YA_NVQStringView@@@Z
       4644 1223 00005800 ?isValidUtf8@QByteArray@@QEBA_NXZ
       4645 1224 00005830 ?isValidUtf8@QByteArrayView@@QEBA_NXZ
       4646 1225 001379C0 ?isValidUtf8@QtPrivate@@YA_NVQByteArrayView@@@Z
       4647 1226 002B5510 ?isVariantLessThan@QAbstractItemModelPrivate@@SA_NAEBVQVariant@@0W4CaseSensitivity@Qt@@_N@Z
       4648 1227 00236D00 ?isVector@ResultIteratorBase@QtPrivate@@QEBA_NXZ
       4649 1228 000269D0 ?isWarningEnabled@QLoggingCategory@@QEBA_NXZ
       4650 1229 001E7EB0 ?isWhitespace@QXmlStreamReader@@QEBA_NXZ
       4651 122A 00005850 ?isWidgetType@QObject@@QEBA_NXZ
       4652 122B 00005860 ?isWindowType@QObject@@QEBA_NXZ
       4653 122C 0004EC90 ?isWritable@DirEntry@QDirListing@@QEBA_NXZ
       4654 122D 000572D0 ?isWritable@QFileInfo@@QEBA_NXZ
       4655 122E 00063260 ?isWritable@QIODevice@@QEBA_NXZ
       4656 122F 000AA7B0 ?isWritable@QMetaProperty@@QEBA_NXZ
       4657 1230 000B9880 ?isWritable@QMetaPropertyBuilder@@QEBA_NXZ
       4658 1231 0001D6D0 ?isWritable@QSettings@@QEBA_NXZ
       4659 1232 00091970 ?isWritable@QZipWriter@@QEBA_NXZ
       4660 1233 0003A6E0 ?isWriteChunkCached@QIODevicePrivate@@QEBA_NPEBD_J@Z
       4661 1234 0021BC40 ?isWriteOperationActive@QWindowsPipeWriter@@QEBA_NXZ
       4662 1235 005989A1 ?is_app_closing@QCoreApplicationPrivate@@2_NA
       4663 1236 005989A0 ?is_app_running@QCoreApplicationPrivate@@2_NA
       4664 1237 002B58F0 ?itemData@QAbstractItemModel@@UEBA?AV?$QMap@HVQVariant@@@@AEBVQModelIndex@@@Z
       4665 1238 002CFFE0 ?itemData@QAbstractProxyModel@@UEBA?AV?$QMap@HVQVariant@@@@AEBVQModelIndex@@@Z
       4666 1239 002D4640 ?itemData@QConcatenateTablesProxyModel@@UEBA?AV?$QMap@HVQVariant@@@@AEBVQModelIndex@@@Z
       4667 123A 002FA890 ?itemData@QStringListModel@@UEBA?AV?$QMap@HVQVariant@@@@AEBVQModelIndex@@@Z
       4668 123B 002F63D0 ?itemData@QTransposeProxyModel@@UEBA?AV?$QMap@HVQVariant@@@@AEBVQModelIndex@@@Z
       4669 123C 002B5DC0 ?itemsAboutToBeMoved@QAbstractItemModelPrivate@@QEAAXAEBVQModelIndex@@HH0HW4Orientation@Qt@@@Z
       4670 123D 002B66D0 ?itemsMoved@QAbstractItemModelPrivate@@QEAAXAEBVQModelIndex@@HH0HW4Orientation@Qt@@@Z
       4671 123E 0004ED40 ?iteratorFlags@QDirListing@@QEBA?AV?$QFlags@W4IteratorFlag@QDirListing@@@@XZ
       4672 123F 0004ED50 ?iteratorPath@QDirListing@@QEBA?AVQString@@XZ
       4673 1240 00005870 ?joiningType@QChar@@QEBA?AW4JoiningType@1@XZ
       4674 1241 0016D760 ?joiningType@QChar@@SA?AW4JoiningType@1@_U@Z
       4675 1242 00196560 ?julianDayToDate@QGregorianCalendar@@UEBA?AUYearMonthDay@QCalendar@@_J@Z
       4676 1243 0025AFA0 ?julianDayToDate@QIslamicCivilCalendar@@UEBA?AUYearMonthDay@QCalendar@@_J@Z
       4677 1244 0025B490 ?julianDayToDate@QJalaliCalendar@@UEBA?AUYearMonthDay@QCalendar@@_J@Z
       4678 1245 00197280 ?julianDayToDate@QJulianCalendar@@UEBA?AUYearMonthDay@QCalendar@@_J@Z
       4679 1246 00198C90 ?julianDayToDate@QMilankovicCalendar@@UEBA?AUYearMonthDay@QCalendar@@_J@Z
       4680 1247 00196580 ?julianFromParts@QGregorianCalendar@@SA?AV?$optional@_J@std@@HHH@Z
       4681 1248 00057340 ?junctionTarget@QFileInfo@@QEBA?AVQString@@XZ
       4682 1249 00032530 ?kernelType@QSysInfo@@SA?AVQString@@XZ
       4683 124A 00032560 ?kernelVersion@QSysInfo@@SA?AVQString@@XZ
       4684 124B 00096340 ?key@QAssociativeConstIterator@@QEBA?AVQVariant@@XZ
       4685 124C 00096430 ?key@QAssociativeIterator@@QEBA?AVQVariant@@XZ
       4686 124D 000AA830 ?key@QMetaEnum@@QEBAPEBDH@Z
       4687 124E 000B98E0 ?key@QMetaEnumBuilder@@QEBA?AVQByteArray@@H@Z
       4688 124F 00035420 ?key@QSharedMemory@@QEBA?AVQString@@XZ
       4689 1250 00036480 ?key@QSystemSemaphore@@QEBA?AVQString@@XZ
       4690 1251 00124B10 ?keyAt@QJsonObject@@AEBA?AVQString@@_J@Z
       4691 1252 00005880 ?keyAtConstIterator@QMetaAssociation@@QEBAXPEBXPEAX@Z
       4692 1253 000058B0 ?keyAtIterator@QMetaAssociation@@QEBAXPEBXPEAX@Z
       4693 1254 000AA870 ?keyCount@QMetaEnum@@QEBAHXZ
       4694 1255 000B99E0 ?keyCount@QMetaEnumBuilder@@QEBAHXZ
       4695 1256 00103D90 ?keyMap@QFactoryLoader@@QEBA?AV?$QMultiMap@HVQString@@@@XZ
       4696 1257 000A5D10 ?keyMetaType@QMetaAssociation@@QEBA?AVQMetaType@@XZ
       4697 1258 000AA890 ?keyToValue@QMetaEnum@@QEBAHPEBDPEA_N@Z
       4698 1259 0020A330 ?keyValueAt@QVariantAnimation@@QEBA?AVQVariant@@N@Z
       4699 125A 0020A470 ?keyValues@QVariantAnimation@@QEBA?AV?$QList@U?$pair@NVQVariant@@@std@@@@XZ
       4700 125B 00117170 ?keys@QCborMap@@QEBA?AV?$QList@VQCborValue@@@@XZ
       4701 125C 00124B30 ?keys@QJsonObject@@QEBA?AV?$QList@VQString@@@@XZ
       4702 125D 002833C0 ?keys@QProcessEnvironment@@QEBA?AV?$QList@VQString@@@@XZ
       4703 125E 000AAA80 ?keysToValue@QMetaEnum@@QEBAHPEBDPEA_N@Z
       4704 125F 00283950 ?kill@QProcess@@QEAAXXZ
       4705 1260 000E5F50 ?killTimer@QObject@@QEAAXH@Z
       4706 1261 000E5F60 ?killTimer@QObject@@QEAAXW4TimerId@Qt@@@Z
       4707 1262 000058E0 ?killTimer@QTimer@@AEAAXH@Z
       4708 1263 0014AAF0 ?language@QLocale@@QEBA?AW4Language@1@XZ
       4709 1264 000F98F0 ?language@QTranslator@@QEBA?AVQString@@XZ
       4710 1265 00020790 ?languageToCode@QLocale@@SA?AVQString@@W4Language@1@@Z
       4711 1266 0014AB00 ?languageToCode@QLocale@@SA?AVQString@@W4Language@1@V?$QFlags@W4LanguageCodeType@QLocale@@@@@Z
       4712 1267 0014AC90 ?languageToString@QLocale@@SA?AVQString@@W4Language@1@@Z
       4713 1268 000058F0 ?last@QByteArray@@QEBA?AV1@_J@Z
       4714 1269 000058F0 ?last@QByteArray@@QEGBA?AV1@_J@Z
       4715 126A 00005920 ?last@QByteArray@@QEHAA?AV1@_J@Z
       4716 126B 00005950 ?last@QByteArrayView@@QEBA?AV1@_J@Z
       4717 126C 00003510 ?last@QByteArrayView@@QEBADXZ
       4718 126D 000207B0 ?last@QCborArray@@QEAA?AVQCborValueRef@@XZ
       4719 126E 00020800 ?last@QCborArray@@QEBA?AVQCborValue@@XZ
       4720 126F 0011C670 ?last@QJsonArray@@QEBA?AVQJsonValue@@XZ
       4721 1270 00005970 ?last@QString@@QEBA?AV1@_J@Z
       4722 1271 00005970 ?last@QString@@QEGBA?AV1@_J@Z
       4723 1272 000059A0 ?last@QString@@QEHAA?AV1@_J@Z
       4724 1273 00259EA0 ?lastCapturedIndex@QRegularExpressionMatch@@QEBAHXZ
       4725 1274 00020840 ?lastError@QCborStreamReader@@QEAA?AUQCborError@@XZ
       4726 1275 00302F20 ?lastError@QCborStreamReader@@QEBA?AUQCborError@@XZ
       4727 1276 00020860 ?lastIndexOf@QByteArray@@QEBA_JD_J@Z
       4728 1277 000059D0 ?lastIndexOf@QByteArray@@QEBA_JVQByteArrayView@@@Z
       4729 1278 00005A10 ?lastIndexOf@QByteArray@@QEBA_JVQByteArrayView@@_J@Z
       4730 1279 00005A50 ?lastIndexOf@QByteArrayView@@QEBA_JD_J@Z
       4731 127A 00005AC0 ?lastIndexOf@QByteArrayView@@QEBA_JV1@@Z
       4732 127B 00005AF0 ?lastIndexOf@QByteArrayView@@QEBA_JV1@_J@Z
       4733 127C 00005B20 ?lastIndexOf@QString@@QEBA_JAEBV1@W4CaseSensitivity@Qt@@@Z
       4734 127D 0016D7D0 ?lastIndexOf@QString@@QEBA_JAEBV1@_JW4CaseSensitivity@Qt@@@Z
       4735 127E 0016D820 ?lastIndexOf@QString@@QEBA_JAEBVQRegularExpression@@_JPEAVQRegularExpressionMatch@@@Z
       4736 127F 00005B30 ?lastIndexOf@QString@@QEBA_JVQChar@@W4CaseSensitivity@Qt@@@Z
       4737 1280 000208C0 ?lastIndexOf@QString@@QEBA_JVQChar@@_JW4CaseSensitivity@Qt@@@Z
       4738 1281 00005B50 ?lastIndexOf@QString@@QEBA_JVQLatin1String@@W4CaseSensitivity@Qt@@@Z
       4739 1282 0016D9A0 ?lastIndexOf@QString@@QEBA_JVQLatin1String@@_JW4CaseSensitivity@Qt@@@Z
       4740 1283 00005B80 ?lastIndexOf@QString@@QEBA_JVQStringView@@W4CaseSensitivity@Qt@@@Z
       4741 1284 00005BC0 ?lastIndexOf@QString@@QEBA_JVQStringView@@_JW4CaseSensitivity@Qt@@@Z
       4742 1285 001379E0 ?lastIndexOf@QtPrivate@@YA_JVQByteArrayView@@_J0@Z
       4743 1286 000208F0 ?lastIndexOf@QtPrivate@@YA_JVQByteArrayView@@_JD@Z
       4744 1287 0016D9E0 ?lastIndexOf@QtPrivate@@YA_JVQLatin1String@@_J0W4CaseSensitivity@Qt@@@Z
       4745 1288 0016DA10 ?lastIndexOf@QtPrivate@@YA_JVQLatin1String@@_JVQStringView@@W4CaseSensitivity@Qt@@@Z
       4746 1289 0016DA40 ?lastIndexOf@QtPrivate@@YA_JVQStringView@@AEBVQRegularExpression@@_JPEAVQRegularExpressionMatch@@@Z
       4747 128A 0016DBD0 ?lastIndexOf@QtPrivate@@YA_JVQStringView@@_J0W4CaseSensitivity@Qt@@@Z
       4748 128B 0016DC00 ?lastIndexOf@QtPrivate@@YA_JVQStringView@@_JVQLatin1String@@W4CaseSensitivity@Qt@@@Z
       4749 128C 0016DC30 ?lastIndexOf@QtPrivate@@YA_JVQStringView@@_J_SW4CaseSensitivity@Qt@@@Z
       4750 128D 00020960 ?lastModified@QFileInfo@@QEBA?AVQDateTime@@AEBVQTimeZone@@@Z
       4751 128E 00020980 ?lastModified@QFileInfo@@QEBA?AVQDateTime@@XZ
       4752 128F 00071E00 ?lastModified@QResource@@QEBA?AVQDateTime@@XZ
       4753 1290 000209A0 ?lastRead@QFileInfo@@QEBA?AVQDateTime@@AEBVQTimeZone@@@Z
       4754 1291 000209C0 ?lastRead@QFileInfo@@QEBA?AVQDateTime@@XZ
       4755 1292 002314C0 ?launchAsync@QFutureInterfaceBase@@IEBA_NXZ
       4756 1293 002B69E0 ?layoutAboutToBeChanged@QAbstractItemModel@@QEAAXAEBV?$QList@VQPersistentModelIndex@@@@W4LayoutChangeHint@1@@Z
       4757 1294 002B6A40 ?layoutChanged@QAbstractItemModel@@QEAAXAEBV?$QList@VQPersistentModelIndex@@@@W4LayoutChangeHint@1@@Z
       4758 1295 000269E0 ?lcNativeInterface@QtPrivate@@YAAEBVQLoggingCategory@@XZ
       4759 1296 00319700 ?lcPermissions@@YAAEBVQLoggingCategory@@XZ
       4760 1297 00196760 ?leapTest@QGregorianCalendar@@SA_NH@Z
       4761 1298 00302F30 ?leaveContainer@QCborStreamReader@@QEAA_NXZ
       4762 1299 000209E0 ?left@QByteArray@@QEBA?AV1@_J@Z
       4763 129A 00005C00 ?left@QByteArray@@QEGBA?AV1@_J@Z
       4764 129B 00005C60 ?left@QByteArray@@QEHAA?AV1@_J@Z
       4765 129C 00005D00 ?left@QByteArrayView@@QEBA?AV1@_J@Z
       4766 129D 00020A50 ?left@QItemSelectionRange@@QEBAHXZ
       4767 129E 000049E0 ?left@QRect@@QEBAHXZ
       4768 129F 00020A60 ?left@QRectF@@QEBANXZ
       4769 12A0 00005D20 ?left@QString@@QEBA?AV1@_J@Z
       4770 12A1 00005D20 ?left@QString@@QEGBA?AV1@_J@Z
       4771 12A2 00005D70 ?left@QString@@QEHAA?AV1@_J@Z
       4772 12A3 00131EA0 ?left@Qt@@YAAEAVQTextStream@@AEAV2@@Z
       4773 12A4 00137B90 ?leftJustified@QByteArray@@QEBA?AV1@_JD_N@Z
       4774 12A5 0016DC60 ?leftJustified@QString@@QEBA?AV1@_JVQChar@@_N@Z
       4775 12A6 00035470 ?legacyNativeKey@QSharedMemory@@SA?AVQNativeIpcKey@@AEBVQString@@W4Type@2@@Z
       4776 12A7 000364D0 ?legacyNativeKey@QSystemSemaphore@@SA?AVQNativeIpcKey@@AEBVQString@@W4Type@2@@Z
       4777 12A8 000038C0 ?length@QByteArray@@QEBA_JXZ
       4778 12A9 000041C0 ?length@QByteArrayView@@QEBA_JXZ
       4779 12AA 00303110 ?length@QCborStreamReader@@QEBA_KXZ
       4780 12AB 0001CF90 ?length@QJsonObject@@QEBA_JXZ
       4781 12AC 001D7A20 ?length@QLineF@@QEBANXZ
       4782 12AD 000038C0 ?length@QString@@QEBA_JXZ
       4783 12AE 00005E00 ?lengthHelperCharArray@QByteArrayView@@CA_JPEBD_K@Z
       4784 12AF 002EC550 ?lessThan@QSortFilterProxyModel@@MEBA_NAEBVQModelIndex@@0@Z
       4785 12B0 0009E000 ?libraryPaths@QCoreApplication@@SA?AV?$QList@VQString@@@@XZ
       4786 12B1 0009E110 ?libraryPathsLocked@QCoreApplication@@CA?AV?$QList@VQString@@@@XZ
       4787 12B2 0016E190 ?lineBreakClass@QUnicodeTables@@YA?AW4LineBreakClass@1@_U@Z
       4788 12B3 001E7ED0 ?lineNumber@QXmlStreamReader@@QEBA_JXZ
       4789 12B4 00028FB0 ?link@QAbstractFileEngine@@UEAA_NAEBVQString@@@Z
       4790 12B5 00214D80 ?link@QFSFileEngine@@UEAA_NAEBVQString@@@Z
       4791 12B6 00051480 ?link@QFile@@QEAA_NAEBVQString@@@Z
       4792 12B7 00051600 ?link@QFile@@SA_NAEBVQString@@0@Z
       4793 12B8 00020B40 ?listSeparator@QDir@@SA?AVQChar@@XZ
       4794 12B9 002FD990 ?load@QLibrary@@QEAA_NXZ
       4795 12BA 000D3260 ?load@QMetaType@@QEBA_NAEAVQDataStream@@PEAX@Z
       4796 12BB 00005E40 ?load@QMetaType@@SA_NAEAVQDataStream@@HPEAX@Z
       4797 12BC 001077F0 ?load@QPluginLoader@@QEAA_NXZ
       4798 12BD 002270C0 ?load@QSystemLibrary@@SAPEAUHINSTANCE__@@PEB_W_N@Z
       4799 12BE 000F99C0 ?load@QTranslator@@QEAA_NAEBVQLocale@@AEBVQString@@111@Z
       4800 12BF 000F9A80 ?load@QTranslator@@QEAA_NAEBVQString@@000@Z
       4801 12C0 000F9F30 ?load@QTranslator@@QEAA_NPEBEHAEBVQString@@@Z
       4802 12C1 000FC9D0 ?load@QVariant@@QEAAXAEAVQDataStream@@@Z
       4803 12C2 002FDC60 ?loadHints@QLibrary@@QEBA?AV?$QFlags@W4LoadHint@QLibrary@@@@XZ
       4804 12C3 00107860 ?loadHints@QPluginLoader@@QEBA?AV?$QFlags@W4LoadHint@QLibrary@@@@XZ
       4805 12C4 002314D0 ?loadState@QFutureInterfaceBase@@QEBAHXZ
       4806 12C5 001FB410 ?localRestart@QUnifiedTimer@@AEAAXXZ
       4807 12C6 0013F7F0 ?locale@QCollator@@QEBA?AVQLocale@@XZ
       4808 12C7 0014ADB0 ?locale@QDateTimeParser@@MEBA?AVQLocale@@XZ
       4809 12C8 00072350 ?locale@QResource@@QEBA?AVQLocale@@XZ
       4810 12C9 00131EC0 ?locale@QTextStream@@QEBA?AVQLocale@@XZ
       4811 12CA 0016E1F0 ?localeAwareCompare@QString@@QEBAHAEBV1@@Z
       4812 12CB 00005E80 ?localeAwareCompare@QString@@QEBAHVQStringView@@@Z
       4813 12CC 00005EB0 ?localeAwareCompare@QString@@SAHAEBV1@0@Z
       4814 12CD 00005EC0 ?localeAwareCompare@QString@@SAHVQStringView@@0@Z
       4815 12CE 0016E220 ?localeAwareCompare_helper@QString@@CAHPEBVQChar@@_J01@Z
       4816 12CF 0025AE40 ?localeMonthData@QHijriCalendar@@MEBAPEB_SXZ
       4817 12D0 0025B600 ?localeMonthData@QJalaliCalendar@@MEBAPEB_SXZ
       4818 12D1 00199030 ?localeMonthData@QRomanCalendar@@MEBAPEB_SXZ
       4819 12D2 0025AE50 ?localeMonthIndexData@QHijriCalendar@@MEBAPEBUQCalendarLocale@@XZ
       4820 12D3 0025B610 ?localeMonthIndexData@QJalaliCalendar@@MEBAPEBUQCalendarLocale@@XZ
       4821 12D4 00199040 ?localeMonthIndexData@QRomanCalendar@@MEBAPEBUQCalendarLocale@@XZ
       4822 12D5 00076F30 ?locate@QStandardPaths@@SA?AVQString@@W4StandardLocation@1@AEBV2@V?$QFlags@W4LocateOption@QStandardPaths@@@@@Z
       4823 12D6 000771E0 ?locateAll@QStandardPaths@@SA?AV?$QList@VQString@@@@W4StandardLocation@1@AEBVQString@@V?$QFlags@W4LocateOption@QStandardPaths@@@@@Z
       4824 12D7 000296B0 ?location@QLibraryInfo@@SA?AVQString@@W4LibraryPath@1@@Z
       4825 12D8 000296D0 ?locationInfo@QLibraryInfoPrivate@@SA?AULocationInfo@1@W4LibraryPath@QLibraryInfo@@@Z
       4826 12D9 00020B50 ?lock@QBasicMutex@@QEAAXXZ
       4827 12DA 000678D0 ?lock@QLockFile@@QEAA_NXZ
       4828 12DB 00020B70 ?lock@QRecursiveMutex@@QEAAXXZ
       4829 12DC 00035490 ?lock@QSharedMemory@@QEAA_NXZ
       4830 12DD 00020BB0 ?lockForRead@QReadWriteLock@@QEAAXXZ
       4831 12DE 00020BF0 ?lockForWrite@QReadWriteLock@@QEAAXXZ
       4832 12DF 00229590 ?lockInternal@QBasicMutex@@AEAAXXZ
       4833 12E0 002295F0 ?lockInternal@QBasicMutex@@AEAA_NH@Z
       4834 12E1 00229640 ?lockInternal@QBasicMutex@@AEAA_NVQDeadlineTimer@@@Z
       4835 12E2 0009E5F0 ?lockThreadPostEventList@QCoreApplicationPrivate@@SA?AUQPostEventListLocker@1@PEAVQObject@@@Z
       4836 12E3 001FB4F0 ?loopCount@QAbstractAnimation@@QEBAHXZ
       4837 12E4 0024DC70 ?loopCount@QTimeLine@@QEBAHXZ
       4838 12E5 001854B0 ?loopLevel@QThread@@QEBAHXZ
       4839 12E6 00005EE0 ?lowSurrogate@QChar@@SA_S_U@Z
       4840 12E7 00131EF0 ?lowercasebase@Qt@@YAAEAVQTextStream@@AEAV2@@Z
       4841 12E8 00131F00 ?lowercasedigits@Qt@@YAAEAVQTextStream@@AEAV2@@Z
       4842 12E9 000325A0 ?machineHostName@QSysInfo@@SA?AVQString@@XZ
       4843 12EA 00032750 ?machineUniqueId@QSysInfo@@SA?AVQByteArray@@XZ
       4844 12EB 0009E6F0 ?mainThread@QCoreApplicationPrivate@@SAPEAVQThread@@XZ
       4845 12EC 0001EE90 ?majorVersion@QOperatingSystemVersion@@QEBAHXZ
       4846 12ED 00046290 ?makeAbsolute@QDir@@QEAA_NXZ
       4847 12EE 000573A0 ?makeAbsolute@QFileInfo@@QEAA_NXZ
       4848 12EF 002314F0 ?makeReadyVoidFuture@QtFuture@@YA?AV?$QFuture@X@@XZ
       4849 12F0 003A9E80 ?mantissatable@qfloat16@@0QBIB
       4850 12F1 00039C60 ?map@QAbstractFileEngine@@QEAAPEAE_J0V?$QFlags@W4MemoryMapFlag@QFileDevice@@@@@Z
       4851 12F2 00053B30 ?map@QFileDevice@@QEAAPEAE_J0V?$QFlags@W4MemoryMapFlag@QFileDevice@@@@@Z
       4852 12F3 000F1800 ?map@QSignalMapper@@QEAAXPEAVQObject@@@Z
       4853 12F4 000F1810 ?map@QSignalMapper@@QEAAXXZ
       4854 12F5 002D00A0 ?mapDropCoordinatesToSource@QAbstractProxyModelPrivate@@QEBAXHHAEBVQModelIndex@@PEAH1PEAV2@@Z
       4855 12F6 002D4890 ?mapFromSource@QConcatenateTablesProxyModel@@QEBA?AVQModelIndex@@AEBV2@@Z
       4856 12F7 002D77A0 ?mapFromSource@QIdentityProxyModel@@UEBA?AVQModelIndex@@AEBV2@@Z
       4857 12F8 002EC7F0 ?mapFromSource@QSortFilterProxyModel@@UEBA?AVQModelIndex@@AEBV2@@Z
       4858 12F9 002F64D0 ?mapFromSource@QTransposeProxyModel@@UEBA?AVQModelIndex@@AEBV2@@Z
       4859 12FA 002D0290 ?mapSelectionFromSource@QAbstractProxyModel@@UEBA?AVQItemSelection@@AEBV2@@Z
       4860 12FB 002D7860 ?mapSelectionFromSource@QIdentityProxyModel@@UEBA?AVQItemSelection@@AEBV2@@Z
       4861 12FC 002EC810 ?mapSelectionFromSource@QSortFilterProxyModel@@UEBA?AVQItemSelection@@AEBV2@@Z
       4862 12FD 002D06C0 ?mapSelectionToSource@QAbstractProxyModel@@UEBA?AVQItemSelection@@AEBV2@@Z
       4863 12FE 002D7B60 ?mapSelectionToSource@QIdentityProxyModel@@UEBA?AVQItemSelection@@AEBV2@@Z
       4864 12FF 002EC830 ?mapSelectionToSource@QSortFilterProxyModel@@UEBA?AVQItemSelection@@AEBV2@@Z
       4865 1300 002D49C0 ?mapToSource@QConcatenateTablesProxyModel@@QEBA?AVQModelIndex@@AEBV2@@Z
       4866 1301 002D7E60 ?mapToSource@QIdentityProxyModel@@UEBA?AVQModelIndex@@AEBV2@@Z
       4867 1302 002EC850 ?mapToSource@QSortFilterProxyModel@@UEBA?AVQModelIndex@@AEBV2@@Z
       4868 1303 002F6590 ?mapToSource@QTransposeProxyModel@@UEBA?AVQModelIndex@@AEBV2@@Z
       4869 1304 00005F00 ?mappedAtConstIterator@QMetaAssociation@@QEBAXPEBXPEAX@Z
       4870 1305 00005F30 ?mappedAtIterator@QMetaAssociation@@QEBAXPEBXPEAX@Z
       4871 1306 00005F60 ?mappedAtKey@QMetaAssociation@@QEBAXPEBX0PEAX@Z
       4872 1307 000F1830 ?mappedInt@QSignalMapper@@QEAAXH@Z
       4873 1308 000A5D30 ?mappedMetaType@QMetaAssociation@@QEBA?AVQMetaType@@XZ
       4874 1309 000F1870 ?mappedObject@QSignalMapper@@QEAAXPEAVQObject@@@Z
       4875 130A 000F18B0 ?mappedString@QSignalMapper@@QEAAXAEBVQString@@@Z
       4876 130B 000F18E0 ?mapping@QSignalMapper@@QEBAPEAVQObject@@AEBVQString@@@Z
       4877 130C 000F1910 ?mapping@QSignalMapper@@QEBAPEAVQObject@@H@Z
       4878 130D 000F1A90 ?mapping@QSignalMapper@@QEBAPEAVQObject@@PEAV2@@Z
       4879 130E 00020C30 ?marginsAdded@QRect@@QEBA?AV1@AEBVQMargins@@@Z
       4880 130F 00020C60 ?marginsAdded@QRectF@@QEBA?AV1@AEBVQMarginsF@@@Z
       4881 1310 00020CB0 ?marginsRemoved@QRect@@QEBA?AV1@AEBVQMargins@@@Z
       4882 1311 00020CE0 ?marginsRemoved@QRectF@@QEBA?AV1@AEBVQMarginsF@@@Z
       4883 1312 002B6B30 ?match@QAbstractItemModel@@UEBA?AV?$QList@VQModelIndex@@@@AEBVQModelIndex@@HAEBVQVariant@@HV?$QFlags@W4MatchFlag@Qt@@@@@Z
       4884 1313 00046460 ?match@QDir@@SA_NAEBV?$QList@VQString@@@@AEBVQString@@@Z
       4885 1314 00046540 ?match@QDir@@SA_NAEBVQString@@0@Z
       4886 1315 002D7F30 ?match@QIdentityProxyModel@@UEBA?AV?$QList@VQModelIndex@@@@AEBVQModelIndex@@HAEBVQVariant@@HV?$QFlags@W4MatchFlag@Qt@@@@@Z
       4887 1316 00259EB0 ?match@QRegularExpression@@QEBA?AVQRegularExpressionMatch@@AEBVQString@@_JW4MatchType@1@V?$QFlags@W4MatchOption@QRegularExpression@@@@@Z
       4888 1317 00259FB0 ?match@QRegularExpression@@QEBA?AVQRegularExpressionMatch@@VQStringView@@_JW4MatchType@1@V?$QFlags@W4MatchOption@QRegularExpression@@@@@Z
       4889 1318 002EC870 ?match@QSortFilterProxyModel@@UEBA?AV?$QList@VQModelIndex@@@@AEBVQModelIndex@@HAEBVQVariant@@HV?$QFlags@W4MatchFlag@Qt@@@@@Z
       4890 1319 001880A0 ?matchCenturyToWeekday@QCalendar@@QEBA?AVQDate@@AEBUYearMonthDay@1@H@Z
       4891 131A 00188140 ?matchCenturyToWeekday@QCalendarBackend@@UEBA_JAEBUYearMonthDay@QCalendar@@H@Z
       4892 131B 001967D0 ?matchCenturyToWeekday@QGregorianCalendar@@UEBA_JAEBUYearMonthDay@QCalendar@@H@Z
       4893 131C 0025A080 ?matchOptions@QRegularExpressionMatch@@QEBA?AV?$QFlags@W4MatchOption@QRegularExpression@@@@XZ
       4894 131D 0025A090 ?matchOptions@QRegularExpressionMatchIterator@@QEBA?AV?$QFlags@W4MatchOption@QRegularExpression@@@@XZ
       4895 131E 0025A0A0 ?matchType@QRegularExpressionMatch@@QEBA?AW4MatchType@QRegularExpression@@XZ
       4896 131F 0025A0B0 ?matchType@QRegularExpressionMatchIterator@@QEBA?AW4MatchType@QRegularExpression@@XZ
       4897 1320 00259FB0 ?matchView@QRegularExpression@@QEBA?AVQRegularExpressionMatch@@VQStringView@@_JW4MatchType@1@V?$QFlags@W4MatchOption@QRegularExpression@@@@@Z
       4898 1321 000812C0 ?matches@QUrl@@QEBA_NAEBV1@V?$QUrlTwoFlags@W4UrlFormattingOption@QUrl@@W4ComponentFormattingOption@2@@@@Z
       4899 1322 0014B070 ?matchingLocales@QLocale@@SA?AV?$QList@VQLocale@@@@W4Language@1@W4Script@1@W4Country@1@@Z
       4900 1323 0026AF50 ?maxChange@SectionNode@QDateTimeParser@@QEBAHXZ
       4901 1324 00015FD0 ?maxJd@QDate@@CA_JXZ
       4902 1325 0021A700 ?maxReadBufferSize@QWindowsPipeReader@@QEBA_JXZ
       4903 1326 00005F90 ?maxSize@QByteArray@@SA_JXZ
       4904 1327 00005FA0 ?maxSize@QByteArrayView@@SA_JXZ
       4905 1328 00005FB0 ?maxSize@QString@@SA_JXZ
       4906 1329 0022C420 ?maxThreadCount@QThreadPool@@QEBAHXZ
       4907 132A 00020D30 ?maxThreadCount@QThreadPoolPrivate@@QEBAHXZ
       4908 132B 00005F90 ?max_size@QByteArray@@QEBA_JXZ
       4909 132C 00005FA0 ?max_size@QByteArrayView@@QEBA_JXZ
       4910 132D 00005FB0 ?max_size@QString@@QEBA_JXZ
       4911 132E 00188320 ?maximumDaysInMonth@QCalendar@@QEBAHXZ
       4912 132F 00188350 ?maximumDaysInMonth@QCalendarBackend@@UEBAHXZ
       4913 1330 0025AE60 ?maximumDaysInMonth@QHijriCalendar@@UEBAHXZ
       4914 1331 00188360 ?maximumMonthsInYear@QCalendar@@QEBAHXZ
       4915 1332 00188390 ?maximumMonthsInYear@QCalendarBackend@@UEBAHXZ
       4916 1333 00005FC0 ?maybeQuote@QDebug@@QEAAAEAV1@D@Z
       4917 1334 000E6210 ?maybeSignalConnected@QObjectPrivate@@QEBA_NI@Z
       4918 1335 00005FE0 ?maybeSpace@QDebug@@QEAAAEAV1@XZ
       4919 1336 001FB530 ?maybeUpdateAnimationsToCurrentTime@QUnifiedTimer@@QEAAXXZ
       4920 1337 000065A0 ?maybeUpdateBindingAndRegister@QBindingStorage@@QEBAXPEBVQUntypedPropertyData@@@Z
       4921 1338 00020D50 ?maybeUpdateBindingAndRegister_helper@QBindingStorage@@AEBAXPEBVQUntypedPropertyData@@@Z
       4922 1339 0014B710 ?measurementSystem@QLocale@@QEBA?AW4MeasurementSystem@1@XZ
       4923 133A 002C8490 ?merge@QItemSelection@@QEAAXAEBV1@V?$QFlags@W4SelectionFlag@QItemSelectionModel@@@@@Z
       4924 133B 00020D60 ?metaCall@QAbstractDynamicMetaObject@@UEAAHPEAVQObject@@W4Call@QMetaObject@@HPEAPEAX@Z
       4925 133C 00020D90 ?metaCall@QAbstractDynamicMetaObject@@UEAAHW4Call@QMetaObject@@HPEAPEAX@Z
       4926 133D 00096520 ?metaContainer@?$QBaseIterator@VQMetaAssociation@@@@QEBA?AVQMetaAssociation@@XZ
       4927 133E 00096520 ?metaContainer@?$QBaseIterator@VQMetaSequence@@@@QEBA?AVQMetaSequence@@XZ
       4928 133F 00096540 ?metaContainer@?$QIterable@VQMetaAssociation@@@@QEBA?AVQMetaAssociation@@XZ
       4929 1340 00096540 ?metaContainer@?$QIterable@VQMetaSequence@@@@QEBA?AVQMetaSequence@@XZ
       4930 1341 001042C0 ?metaData@QFactoryLoader@@QEBA?AV?$QList@VQPluginParsedMetaData@@@@XZ
       4931 1342 00108210 ?metaData@QPluginLoader@@QEBA?AVQJsonObject@@XZ
       4932 1343 00108250 ?metaData@QStaticPlugin@@QEBA?AVQJsonObject@@XZ
       4933 1344 00104590 ?metaDataKeys@QFactoryLoader@@QEBA?AV?$QList@VQCborArray@@@@XZ
       4934 1345 001FB5C0 ?metaObject@QAbstractAnimation@@UEBAPEBUQMetaObject@@XZ
       4935 1346 001FB5E0 ?metaObject@QAbstractAnimationTimer@@UEBAPEBUQMetaObject@@XZ
       4936 1347 00093A30 ?metaObject@QAbstractEventDispatcher@@UEBAPEBUQMetaObject@@XZ
       4937 1348 00093A50 ?metaObject@QAbstractEventDispatcherV2@@UEBAPEBUQMetaObject@@XZ
       4938 1349 002B78A0 ?metaObject@QAbstractItemModel@@UEBAPEBUQMetaObject@@XZ
       4939 134A 002B78C0 ?metaObject@QAbstractListModel@@UEBAPEBUQMetaObject@@XZ
       4940 134B 002D0AF0 ?metaObject@QAbstractProxyModel@@UEBAPEBUQMetaObject@@XZ
       4941 134C 002B78E0 ?metaObject@QAbstractTableModel@@UEBAPEBUQMetaObject@@XZ
       4942 134D 001FB600 ?metaObject@QAnimationDriver@@UEBAPEBUQMetaObject@@XZ
       4943 134E 001FF500 ?metaObject@QAnimationGroup@@UEBAPEBUQMetaObject@@XZ
       4944 134F 0003A800 ?metaObject@QBuffer@@UEBAPEBUQMetaObject@@XZ
       4945 1350 000985B0 ?metaObject@QChronoTimer@@UEBAPEBUQMetaObject@@XZ
       4946 1351 002D4B50 ?metaObject@QConcatenateTablesProxyModel@@UEBAPEBUQMetaObject@@XZ
       4947 1352 0009E720 ?metaObject@QCoreApplication@@UEBAPEBUQMetaObject@@XZ
       4948 1353 00221BF0 ?metaObject@QEventDispatcherWin32@@UEBAPEBUQMetaObject@@XZ
       4949 1354 000A52F0 ?metaObject@QEventLoop@@UEBAPEBUQMetaObject@@XZ
       4950 1355 00104830 ?metaObject@QFactoryLoader@@UEBAPEBUQMetaObject@@XZ
       4951 1356 000516C0 ?metaObject@QFile@@UEBAPEBUQMetaObject@@XZ
       4952 1357 00053C80 ?metaObject@QFileDevice@@UEBAPEBUQMetaObject@@XZ
       4953 1358 00059150 ?metaObject@QFileSelector@@UEBAPEBUQMetaObject@@XZ
       4954 1359 002730D0 ?metaObject@QFileSystemWatcher@@UEBAPEBUQMetaObject@@XZ
       4955 135A 00234A90 ?metaObject@QFutureWatcherBase@@UEBAPEBUQMetaObject@@XZ
       4956 135B 00063270 ?metaObject@QIODevice@@UEBAPEBUQMetaObject@@XZ
       4957 135C 002D81E0 ?metaObject@QIdentityProxyModel@@UEBAPEBUQMetaObject@@XZ
       4958 135D 002C9160 ?metaObject@QItemSelectionModel@@UEBAPEBUQMetaObject@@XZ
       4959 135E 002FDF10 ?metaObject@QLibrary@@UEBAPEBUQMetaObject@@XZ
       4960 135F 00006010 ?metaObject@QMetaType@@QEBAPEBUQMetaObject@@XZ
       4961 1360 000D8030 ?metaObject@QMimeData@@UEBAPEBUQMetaObject@@XZ
       4962 1361 0006EB00 ?metaObject@QNonContiguousByteDevice@@UEBAPEBUQMetaObject@@XZ
       4963 1362 000E63A0 ?metaObject@QObject@@UEBAPEBUQMetaObject@@XZ
       4964 1363 000EA2E0 ?metaObject@QObjectCleanupHandler@@UEBAPEBUQMetaObject@@XZ
       4965 1364 00200160 ?metaObject@QParallelAnimationGroup@@UEBAPEBUQMetaObject@@XZ
       4966 1365 002013C0 ?metaObject@QPauseAnimation@@UEBAPEBUQMetaObject@@XZ
       4967 1366 001082C0 ?metaObject@QPluginLoader@@UEBAPEBUQMetaObject@@XZ
       4968 1367 00283960 ?metaObject@QProcess@@UEBAPEBUQMetaObject@@XZ
       4969 1368 002031B0 ?metaObject@QPropertyAnimation@@UEBAPEBUQMetaObject@@XZ
       4970 1369 000756F0 ?metaObject@QSaveFile@@UEBAPEBUQMetaObject@@XZ
       4971 136A 00206840 ?metaObject@QSequentialAnimationGroup@@UEBAPEBUQMetaObject@@XZ
       4972 136B 002990A0 ?metaObject@QSettings@@UEBAPEBUQMetaObject@@XZ
       4973 136C 00035610 ?metaObject@QSharedMemory@@UEBAPEBUQMetaObject@@XZ
       4974 136D 000F1C10 ?metaObject@QSignalMapper@@UEBAPEBUQMetaObject@@XZ
       4975 136E 000F36C0 ?metaObject@QSocketNotifier@@UEBAPEBUQMetaObject@@XZ
       4976 136F 002EC8B0 ?metaObject@QSortFilterProxyModel@@UEBAPEBUQMetaObject@@XZ
       4977 1370 002FA9B0 ?metaObject@QStringListModel@@UEBAPEBUQMetaObject@@XZ
       4978 1371 0007B6D0 ?metaObject@QTemporaryFile@@UEBAPEBUQMetaObject@@XZ
       4979 1372 00185560 ?metaObject@QThread@@UEBAPEBUQMetaObject@@XZ
       4980 1373 0022C4A0 ?metaObject@QThreadPool@@UEBAPEBUQMetaObject@@XZ
       4981 1374 0024DCB0 ?metaObject@QTimeLine@@UEBAPEBUQMetaObject@@XZ
       4982 1375 000F56C0 ?metaObject@QTimer@@UEBAPEBUQMetaObject@@XZ
       4983 1376 000F9FB0 ?metaObject@QTranslator@@UEBAPEBUQMetaObject@@XZ
       4984 1377 002F6650 ?metaObject@QTransposeProxyModel@@UEBAPEBUQMetaObject@@XZ
       4985 1378 001FB660 ?metaObject@QUnifiedTimer@@UEBAPEBUQMetaObject@@XZ
       4986 1379 0020A4B0 ?metaObject@QVariantAnimation@@UEBAPEBUQMetaObject@@XZ
       4987 137A 00226680 ?metaObject@QWinEventNotifier@@UEBAPEBUQMetaObject@@XZ
       4988 137B 0021A710 ?metaObject@QWindowsPipeReader@@UEBAPEBUQMetaObject@@XZ
       4989 137C 0021BCE0 ?metaObject@QWindowsPipeWriter@@UEBAPEBUQMetaObject@@XZ
       4990 137D 00006030 ?metaObjectForType@QMetaType@@SAPEBUQMetaObject@@H@Z
       4991 137E 000AAD60 ?metaType@QMetaEnum@@QEBA?AVQMetaType@@XZ
       4992 137F 000B9A40 ?metaType@QMetaEnumBuilder@@QEBA?AVQMetaType@@XZ
       4993 1380 000AADC0 ?metaType@QMetaObject@@QEBA?AVQMetaType@@XZ
       4994 1381 000AAEA0 ?metaType@QMetaProperty@@QEBA?AVQMetaType@@XZ
       4995 1382 000FCDC0 ?metaType@QVariant@@QEBA?AVQMetaType@@XZ
       4996 1383 000AAF00 ?metacall@QMetaObject@@SAHPEAVQObject@@W4Call@1@HPEAPEAX@Z
       4997 1384 00020DA0 ?metadataChangeTime@QFileInfo@@QEBA?AVQDateTime@@AEBVQTimeZone@@@Z
       4998 1385 00020DC0 ?metadataChangeTime@QFileInfo@@QEBA?AVQDateTime@@XZ
       4999 1386 000AAF50 ?method@QMetaObject@@QEBA?AVQMetaMethod@@H@Z
       5000 1387 000B9AB0 ?method@QMetaObjectBuilder@@QEBA?AVQMetaMethodBuilder@@H@Z
       5001 1388 000AB060 ?methodCount@QMetaObject@@QEBAHXZ
       5002 1389 000B9B00 ?methodCount@QMetaObjectBuilder@@QEBAHXZ
       5003 138A 000AB0C0 ?methodIndex@QMetaMethod@@QEBAHXZ
       5004 138B 000AB470 ?methodOffset@QMetaObject@@QEBAHXZ
       5005 138C 000AB4D0 ?methodSignature@QMetaMethod@@QEBA?AVQByteArray@@XZ
       5006 138D 000AB510 ?methodType@QMetaMethod@@QEBA?AW4MethodType@1@XZ
       5007 138E 000B9B30 ?methodType@QMetaMethodBuilder@@QEBA?AW4MethodType@QMetaMethod@@XZ
       5008 138F 0001C430 ?microVersion@QOperatingSystemVersion@@QEBAHXZ
       5009 1390 00020DE0 ?mid@QByteArray@@QEBA?AV1@_J0@Z
       5010 1391 00137E70 ?mid@QByteArray@@QEGBA?AV1@_J0@Z
       5011 1392 00138010 ?mid@QByteArray@@QEHAA?AV1@_J0@Z
       5012 1393 00006070 ?mid@QByteArrayView@@QEBA?AV1@_J0@Z
       5013 1394 000060E0 ?mid@QContainerImplHelper@QtPrivate@@SA?AW4CutResult@12@_JPEA_J1@Z
       5014 1395 00020ED0 ?mid@QString@@QEBA?AV1@_J0@Z
       5015 1396 0016E630 ?mid@QString@@QEGBA?AV1@_J0@Z
       5016 1397 0016E800 ?mid@QString@@QEHAA?AV1@_J0@Z
       5017 1398 002B7920 ?mimeData@QAbstractItemModel@@UEBAPEAVQMimeData@@AEBV?$QList@VQModelIndex@@@@@Z
       5018 1399 002D0B10 ?mimeData@QAbstractProxyModel@@UEBAPEAVQMimeData@@AEBV?$QList@VQModelIndex@@@@@Z
       5019 139A 002D4B70 ?mimeData@QConcatenateTablesProxyModel@@UEBAPEAVQMimeData@@AEBV?$QList@VQModelIndex@@@@@Z
       5020 139B 002D0B10 ?mimeData@QSortFilterProxyModel@@UEBAPEAVQMimeData@@AEBV?$QList@VQModelIndex@@@@@Z
       5021 139C 00308CF0 ?mimeTypeForData@QMimeDatabase@@QEBA?AVQMimeType@@AEBVQByteArray@@@Z
       5022 139D 00308DA0 ?mimeTypeForData@QMimeDatabase@@QEBA?AVQMimeType@@PEAVQIODevice@@@Z
       5023 139E 00308F50 ?mimeTypeForFile@QMimeDatabase@@QEBA?AVQMimeType@@AEBVQFileInfo@@W4MatchMode@1@@Z
       5024 139F 00309040 ?mimeTypeForFile@QMimeDatabase@@QEBA?AVQMimeType@@AEBVQString@@W4MatchMode@1@@Z
       5025 13A0 00309550 ?mimeTypeForFileNameAndData@QMimeDatabase@@QEBA?AVQMimeType@@AEBVQString@@AEBVQByteArray@@@Z
       5026 13A1 003096A0 ?mimeTypeForFileNameAndData@QMimeDatabase@@QEBA?AVQMimeType@@AEBVQString@@PEAVQIODevice@@@Z
       5027 13A2 00309B70 ?mimeTypeForName@QMimeDatabase@@QEBA?AVQMimeType@@AEBVQString@@@Z
       5028 13A3 00309D80 ?mimeTypeForUrl@QMimeDatabase@@QEBA?AVQMimeType@@AEBVQUrl@@@Z
       5029 13A4 002B7AE0 ?mimeTypes@QAbstractItemModel@@UEBA?AV?$QList@VQString@@@@XZ
       5030 13A5 002D0ED0 ?mimeTypes@QAbstractProxyModel@@UEBA?AV?$QList@VQString@@@@XZ
       5031 13A6 002D4DA0 ?mimeTypes@QConcatenateTablesProxyModel@@UEBA?AV?$QList@VQString@@@@XZ
       5032 13A7 002D0ED0 ?mimeTypes@QSortFilterProxyModel@@UEBA?AV?$QList@VQString@@@@XZ
       5033 13A8 0030A0A0 ?mimeTypesForFileName@QMimeDatabase@@QEBA?AV?$QList@VQMimeType@@@@AEBVQString@@@Z
       5034 13A9 00015FE0 ?minJd@QDate@@CA_JXZ
       5035 13AA 001883A0 ?minimumDaysInMonth@QCalendar@@QEBAHXZ
       5036 13AB 001883D0 ?minimumDaysInMonth@QCalendarBackend@@UEBAHXZ
       5037 13AC 00199050 ?minimumDaysInMonth@QRomanCalendar@@UEBAHXZ
       5038 13AD 00003850 ?minorVersion@QOperatingSystemVersion@@QEBAHXZ
       5039 13AE 00190950 ?minute@QTime@@QEBAHXZ
       5040 13AF 00006160 ?mirroredChar@QChar@@QEBA?AV1@XZ
       5041 13B0 0016EA10 ?mirroredChar@QChar@@SA_U_U@Z
       5042 13B1 00028FB0 ?mkdir@QAbstractFileEngine@@UEBA_NAEBVQString@@_NV?$optional@V?$QFlags@W4Permission@QFileDevice@@@@@std@@@Z
       5043 13B2 000465F0 ?mkdir@QDir@@QEBA_NAEBVQString@@@Z
       5044 13B3 00046730 ?mkdir@QDir@@QEBA_NAEBVQString@@V?$QFlags@W4Permission@QFileDevice@@@@@Z
       5045 13B4 0005ECE0 ?mkdir@QFSFileEngine@@UEBA_NAEBVQString@@_NV?$optional@V?$QFlags@W4Permission@QFileDevice@@@@@std@@@Z
       5046 13B5 00046870 ?mkpath@QDir@@QEBA_NAEBVQString@@@Z
       5047 13B6 002C9180 ?model@QItemSelectionModel@@QEAAPEAVQAbstractItemModel@@XZ
       5048 13B7 002C9180 ?model@QItemSelectionModel@@QEBAPEBVQAbstractItemModel@@XZ
       5049 13B8 00020FD0 ?model@QItemSelectionRange@@QEBAPEBVQAbstractItemModel@@XZ
       5050 13B9 000C5700 ?model@QPersistentModelIndex@@QEBAPEBVQAbstractItemModel@@XZ
       5051 13BA 002B7BC0 ?modelAboutToBeReset@QAbstractItemModel@@QEAAXUQPrivateSignal@1@@Z
       5052 13BB 002C91D0 ?modelChanged@QItemSelectionModel@@QEAAXPEAVQAbstractItemModel@@@Z
       5053 13BC 002D0F50 ?modelChangedForwarder@QAbstractProxyModelPrivate@@QEAAXXZ
       5054 13BD 002B7C00 ?modelReset@QAbstractItemModel@@QEAAXUQPrivateSignal@1@@Z
       5055 13BE 001909B0 ?month@QDate@@QEBAHVQCalendar@@@Z
       5056 13BF 00190A10 ?month@QDate@@QEBAHXZ
       5057 13C0 00196AA0 ?monthLength@QGregorianCalendar@@SAHHH@Z
       5058 13C1 001883E0 ?monthName@QCalendar@@QEBA?AVQString@@AEBVQLocale@@HHW4FormatType@3@@Z
       5059 13C2 0014B8C0 ?monthName@QCalendarBackend@@UEBA?AVQString@@AEBVQLocale@@HHW4FormatType@3@@Z
       5060 13C3 0014B950 ?monthName@QLocale@@QEBA?AVQString@@HW4FormatType@1@@Z
       5061 13C4 0014B9C0 ?monthName@QRomanCalendar@@UEBA?AVQString@@AEBVQLocale@@HHW4FormatType@3@@Z
       5062 13C5 001884D0 ?monthsInYear@QCalendar@@QEBAHH@Z
       5063 13C6 00188510 ?monthsInYear@QCalendarBackend@@UEBAHH@Z
       5064 13C7 00079480 ?mountedVolumes@QStorageInfo@@SA?AV?$QList@VQStorageInfo@@@@XZ
       5065 13C8 00020FE0 ?moveBottom@QRect@@QEAAXH@Z
       5066 13C9 00020FF0 ?moveBottom@QRectF@@QEAAXN@Z
       5067 13CA 00021000 ?moveBottomLeft@QRect@@QEAAXAEBVQPoint@@@Z
       5068 13CB 00021020 ?moveBottomLeft@QRectF@@QEAAXAEBVQPointF@@@Z
       5069 13CC 00021040 ?moveBottomRight@QRect@@QEAAXAEBVQPoint@@@Z
       5070 13CD 00021060 ?moveBottomRight@QRectF@@QEAAXAEBVQPointF@@@Z
       5071 13CE 00021080 ?moveCenter@QRect@@QEAAXAEBVQPoint@@@Z
       5072 13CF 000210D0 ?moveCenter@QRectF@@QEAAXAEBVQPointF@@@Z
       5073 13D0 00021110 ?moveColumn@QAbstractItemModel@@QEAA_NAEBVQModelIndex@@H0H@Z
       5074 13D1 00028FB0 ?moveColumns@QAbstractItemModel@@UEAA_NAEBVQModelIndex@@HH0H@Z
       5075 13D2 002D8200 ?moveColumns@QIdentityProxyModel@@UEAA_NAEBVQModelIndex@@HH0H@Z
       5076 13D3 002F6670 ?moveColumns@QTransposeProxyModel@@UEAA_NAEBVQModelIndex@@HH0H@Z
       5077 13D4 000FCDD0 ?moveConstruct@QVariant@@CA?AV1@VQMetaType@@PEAX@Z
       5078 13D5 00021140 ?moveLeft@QRect@@QEAAXH@Z
       5079 13D6 00021150 ?moveLeft@QRectF@@QEAAXN@Z
       5080 13D7 002B7C40 ?movePersistentIndexes@QAbstractItemModelPrivate@@QEAAXAEBV?$QList@PEAVQPersistentModelIndexData@@@@HAEBVQModelIndex@@W4Orientation@Qt@@@Z
       5081 13D8 00021160 ?moveRight@QRect@@QEAAXH@Z
       5082 13D9 00021170 ?moveRight@QRectF@@QEAAXN@Z
       5083 13DA 00021180 ?moveRow@QAbstractItemModel@@QEAA_NAEBVQModelIndex@@H0H@Z
       5084 13DB 00028FB0 ?moveRows@QAbstractItemModel@@UEAA_NAEBVQModelIndex@@HH0H@Z
       5085 13DC 002D8300 ?moveRows@QIdentityProxyModel@@UEAA_NAEBVQModelIndex@@HH0H@Z
       5086 13DD 002FA9D0 ?moveRows@QStringListModel@@UEAA_NAEBVQModelIndex@@HH0H@Z
       5087 13DE 002F67B0 ?moveRows@QTransposeProxyModel@@UEAA_NAEBVQModelIndex@@HH0H@Z
       5088 13DF 000211B0 ?moveTo@QRect@@QEAAXAEBVQPoint@@@Z
       5089 13E0 000211D0 ?moveTo@QRect@@QEAAXHH@Z
       5090 13E1 000211F0 ?moveTo@QRectF@@QEAAXAEBVQPointF@@@Z
       5091 13E2 00021200 ?moveTo@QRectF@@QEAAXNN@Z
       5092 13E3 00021210 ?moveToThread@QObject@@QEAAXPEAVQThread@@@Z
       5093 13E4 000E64E0 ?moveToThread@QObject@@QEAA_NPEAVQThread@@UDisambiguated_t@Qt@@@Z
       5094 13E5 000E6820 ?moveToThread_helper@QObjectPrivate@@QEAAXXZ
       5095 13E6 000516E0 ?moveToTrash@QFile@@QEAA_NXZ
       5096 13E7 00051970 ?moveToTrash@QFile@@SA_NAEBVQString@@PEAV2@@Z
       5097 13E8 00021220 ?moveTop@QRect@@QEAAXH@Z
       5098 13E9 00021230 ?moveTop@QRectF@@QEAAXN@Z
       5099 13EA 00021240 ?moveTopLeft@QRect@@QEAAXAEBVQPoint@@@Z
       5100 13EB 000211F0 ?moveTopLeft@QRectF@@QEAAXAEBVQPointF@@@Z
       5101 13EC 00021260 ?moveTopRight@QRect@@QEAAXAEBVQPoint@@@Z
       5102 13ED 00021280 ?moveTopRight@QRectF@@QEAAXAEBVQPointF@@@Z
       5103 13EE 000058E0 ?move_internal@QNativeIpcKey@@AEAAX$$QEAV1@@Z
       5104 13EF 00190A60 ?msec@QTime@@QEBAHXZ
       5105 13F0 000A4830 ?msecsSinceReference@QElapsedTimer@@QEBA_JXZ
       5106 13F1 00015530 ?msecsSinceStartOfDay@QTime@@QEBAHXZ
       5107 13F2 00190AB0 ?msecsTo@QDateTime@@QEBA_JAEBV1@@Z
       5108 13F3 000A4850 ?msecsTo@QElapsedTimer@@QEBA_JAEBV1@@Z
       5109 13F4 00190B20 ?msecsTo@QTime@@QEBAHV1@@Z
       5110 13F5 00228090 ?msleep@QThread@@SAXK@Z
       5111 13F6 002B8160 ?multiData@QAbstractItemModel@@UEBAXAEBVQModelIndex@@VQModelRoleDataSpan@@@Z
       5112 13F7 002B8260 ?multiData@QPersistentModelIndex@@QEBAXVQModelRoleDataSpan@@@Z
       5113 13F8 00096550 ?mutableBegin@?$QIterable@VQMetaAssociation@@@@QEAA?AU?$QIterator@VQMetaAssociation@@@@XZ
       5114 13F9 00096550 ?mutableBegin@?$QIterable@VQMetaSequence@@@@QEAA?AU?$QIterator@VQMetaSequence@@@@XZ
       5115 13FA 000965A0 ?mutableBegin@QAssociativeIterable@@QEAA?AV?$QTaggedIterator@VQAssociativeIterator@@X@@XZ
       5116 13FB 000965A0 ?mutableBegin@QSequentialIterable@@QEAA?AV?$QTaggedIterator@VQSequentialIterator@@X@@XZ
       5117 13FC 000965F0 ?mutableEnd@?$QIterable@VQMetaAssociation@@@@QEAA?AU?$QIterator@VQMetaAssociation@@@@XZ
       5118 13FD 000965F0 ?mutableEnd@?$QIterable@VQMetaSequence@@@@QEAA?AU?$QIterator@VQMetaSequence@@@@XZ
       5119 13FE 00096640 ?mutableEnd@QAssociativeIterable@@QEAA?AV?$QTaggedIterator@VQAssociativeIterator@@X@@XZ
       5120 13FF 00096640 ?mutableEnd@QSequentialIterable@@QEAA?AV?$QTaggedIterator@VQSequentialIterator@@X@@XZ
       5121 1400 00096690 ?mutableFind@QAssociativeIterable@@QEAA?AV?$QTaggedIterator@VQAssociativeIterator@@X@@AEBVQVariant@@@Z
       5122 1401 00096790 ?mutableIterable@?$QBaseIterator@VQMetaAssociation@@@@IEBAPEAV?$QIterable@VQMetaAssociation@@@@XZ
       5123 1402 00096790 ?mutableIterable@?$QBaseIterator@VQMetaSequence@@@@IEBAPEAV?$QIterable@VQMetaSequence@@@@XZ
       5124 1403 000967B0 ?mutableIterable@?$QIterable@VQMetaAssociation@@@@QEAAPEAXXZ
       5125 1404 000967B0 ?mutableIterable@?$QIterable@VQMetaSequence@@@@QEAAPEAXXZ
       5126 1405 000035D0 ?mutableIterator@?$QBaseIterator@VQMetaAssociation@@@@QEAAPEAXXZ
       5127 1406 000035D0 ?mutableIterator@?$QBaseIterator@VQMetaSequence@@@@QEAAPEAXXZ
       5128 1407 000035D0 ?mutex@QFutureInterfaceBase@@QEBAAEAVQMutex@@XZ
       5129 1408 00188550 ?name@QCalendar@@QEBA?AVQString@@XZ
       5130 1409 000035D0 ?name@QGenericArgument@@QEBAPEBDXZ
       5131 140A 00196B30 ?name@QGregorianCalendar@@UEBA?AVQString@@XZ
       5132 140B 0025B0F0 ?name@QIslamicCivilCalendar@@UEBA?AVQString@@XZ
       5133 140C 0025B620 ?name@QJalaliCalendar@@UEBA?AVQString@@XZ
       5134 140D 00197420 ?name@QJulianCalendar@@UEBA?AVQString@@XZ
       5135 140E 0014BBB0 ?name@QLocale@@QEBA?AVQString@@W4TagSeparator@1@@Z
       5136 140F 000212A0 ?name@QLocale@@QEBA?AVQString@@XZ
       5137 1410 000AB530 ?name@QMetaClassInfo@@QEBAPEBDXZ
       5138 1411 000AB530 ?name@QMetaEnum@@QEBAPEBDXZ
       5139 1412 000B9BE0 ?name@QMetaEnumBuilder@@QEBA?AVQByteArray@@XZ
       5140 1413 000AB560 ?name@QMetaMethod@@QEBA?AVQByteArray@@XZ
       5141 1414 000AB530 ?name@QMetaProperty@@QEBAPEBDXZ
       5142 1415 000B9C80 ?name@QMetaPropertyBuilder@@QEBA?AVQByteArray@@XZ
       5143 1416 00006180 ?name@QMetaType@@QEBAPEBDXZ
       5144 1417 00198EE0 ?name@QMilankovicCalendar@@UEBA?AVQString@@XZ
       5145 1418 000469B0 ?name@QMimeType@@QEBA?AVQString@@XZ
       5146 1419 000212C0 ?name@QOperatingSystemVersion@@QEBA?AVQString@@XZ
       5147 141A 00030AA0 ?name@QOperatingSystemVersionBase@@SA?AVQString@@V1@@Z
       5148 141B 000794A0 ?name@QStorageInfo@@QEBA?AVQString@@XZ
       5149 141C 0017DAB0 ?name@QStringConverter@@QEBAPEBDXZ
       5150 141D 000212F0 ?name@QXmlStreamAttribute@@QEBA?AVQStringView@@XZ
       5151 141E 000212F0 ?name@QXmlStreamEntityDeclaration@@QEBA?AVQStringView@@XZ
       5152 141F 000212F0 ?name@QXmlStreamNotationDeclaration@@QEBA?AVQStringView@@XZ
       5153 1420 001E7EE0 ?name@QXmlStreamReader@@QEBA?AVQStringView@@XZ
       5154 1421 0014BF80 ?name@SectionNode@QDateTimeParser@@QEBA?AVQString@@XZ
       5155 1422 0026B080 ?name@SectionNode@QDateTimeParser@@SA?AVQString@@W4Section@2@@Z
       5156 1423 00039CB0 ?nameFilters@QAbstractFileEngineIterator@@QEBA?AV?$QList@VQString@@@@XZ
       5157 1424 000469B0 ?nameFilters@QDir@@QEBA?AV?$QList@VQString@@@@XZ
       5158 1425 0004F570 ?nameFilters@QDirListing@@QEBA?AV?$QList@VQString@@@@XZ
       5159 1426 000469E0 ?nameFiltersFromString@QDir@@SA?AV?$QList@VQString@@@@AEBVQString@@@Z
       5160 1427 0017DAD0 ?nameForEncoding@QStringConverter@@SAPEBDW4Encoding@1@@Z
       5161 1428 00196B60 ?nameList@QGregorianCalendar@@SA?AV?$QList@VQString@@@@XZ
       5162 1429 0025B120 ?nameList@QIslamicCivilCalendar@@SA?AV?$QList@VQString@@@@XZ
       5163 142A 0025B650 ?nameList@QJalaliCalendar@@SA?AV?$QList@VQString@@@@XZ
       5164 142B 00197450 ?nameList@QJulianCalendar@@SA?AV?$QList@VQString@@@@XZ
       5165 142C 00198F10 ?nameList@QMilankovicCalendar@@SA?AV?$QList@VQString@@@@XZ
       5166 142D 00006190 ?nameToType@QVariant@@SA?AW4Type@1@PEBD@Z
       5167 142E 0025A0C0 ?namedCaptureGroups@QRegularExpression@@QEBA?AV?$QList@VQString@@@@XZ
       5168 142F 00188630 ?names@QCalendarBackend@@QEBA?AV?$QList@VQString@@@@XZ
       5169 1430 000469B0 ?names@QCommandLineOption@@QEBA?AV?$QList@VQString@@@@XZ
       5170 1431 001E7F30 ?namespaceDeclarations@QXmlStreamReader@@QEBA?AV?$QList@VQXmlStreamNamespaceDeclaration@@@@XZ
       5171 1432 001E8180 ?namespaceProcessing@QXmlStreamReader@@QEBA_NXZ
       5172 1433 00021310 ?namespaceUri@QXmlStreamAttribute@@QEBA?AVQStringView@@XZ
       5173 1434 00021310 ?namespaceUri@QXmlStreamNamespaceDeclaration@@QEBA?AVQStringView@@XZ
       5174 1435 001E8190 ?namespaceUri@QXmlStreamReader@@QEBA?AVQStringView@@XZ
       5175 1436 00283980 ?nativeArguments@QProcess@@QEBA?AVQString@@XZ
       5176 1437 0014BFA0 ?nativeCountryName@QLocale@@QEBA?AVQString@@XZ
       5177 1438 00035630 ?nativeIpcKey@QSharedMemory@@QEBA?AVQNativeIpcKey@@XZ
       5178 1439 00036500 ?nativeIpcKey@QSystemSemaphore@@QEBA?AVQNativeIpcKey@@XZ
       5179 143A 00035690 ?nativeKey@QSharedMemory@@QEBA?AVQString@@XZ
       5180 143B 0014BFC0 ?nativeLanguageName@QLocale@@QEBA?AVQString@@XZ
       5181 143C 0014C230 ?nativeTerritoryName@QLocale@@QEBA?AVQString@@XZ
       5182 143D 0014C4A0 ?negativeSign@QLocale@@QEBA?AVQString@@XZ
       5183 143E 000AB5C0 ?newInstance@QMetaObject@@QEBAPEAVQObject@@VQGenericArgument@@000000000@Z
       5184 143F 000AB8D0 ?newInstanceImpl@QMetaObject@@CAPEAVQObject@@PEBU1@_JPEAPEBXPEAPEBDPEAPEBVQMetaTypeInterface@QtPrivate@@@Z
       5185 1440 00303170 ?next@QCborStreamReader@@QEAA_NH@Z
       5186 1441 000503A0 ?next@QDirIterator@@QEAA?AVQString@@XZ
       5187 1442 0004F5B0 ?next@QDirListing@@CA?AVDirEntry@1@V21@@Z
       5188 1443 0025A2B0 ?next@QRegularExpressionMatchIterator@@QEAA?AVQRegularExpressionMatch@@XZ
       5189 1444 00050440 ?nextFileInfo@QDirIterator@@QEAA?AVQFileInfo@@XZ
       5190 1445 0019C020 ?nextTransition@QTimeZone@@QEBA?AUOffsetData@1@AEBVQDateTime@@@Z
       5191 1446 0002D550 ?noDebug@QMessageLogger@@QEBA?AVQNoDebug@@XZ
       5192 1447 000061F0 ?noDebug@QMessageLogger@@QEBAXPEBDZZ
       5193 1448 00131F30 ?noforcepoint@Qt@@YAAEAVQTextStream@@AEAV2@@Z
       5194 1449 00131F40 ?noforcesign@Qt@@YAAEAVQTextStream@@AEAV2@@Z
       5195 144A 00006200 ?noquote@QDebug@@QEAAAEAV1@XZ
       5196 144B 00021330 ?normalVector@QLineF@@QEBA?AV1@XZ
       5197 144C 001D9710 ?normalized@QRect@@QEBA?AV1@XZ
       5198 144D 001D9750 ?normalized@QRectF@@QEBA?AV1@XZ
       5199 144E 0016EC50 ?normalized@QString@@QEBA?AV1@W4NormalizationForm@1@W4UnicodeVersion@QChar@@@Z
       5200 144F 001DF040 ?normalized@QVersionNumber@@QEBA?AV1@XZ
       5201 1450 000ACC30 ?normalizedSignature@QMetaObject@@SA?AVQByteArray@@PEBD@Z
       5202 1451 000AD000 ?normalizedType@QMetaObject@@SA?AVQByteArray@@PEBD@Z
       5203 1452 00131F50 ?noshowbase@Qt@@YAAEAVQTextStream@@AEAV2@@Z
       5204 1453 00006210 ?nospace@QDebug@@QEAAAEAV1@XZ
       5205 1454 001E81E0 ?notationDeclarations@QXmlStreamReader@@QEBA?AV?$QList@VQXmlStreamNotationDeclaration@@@@XZ
       5206 1455 00021310 ?notationName@QXmlStreamEntityDeclaration@@QEBA?AVQStringView@@XZ
       5207 1456 0009E740 ?notify@QCoreApplication@@UEAA_NPEAVQObject@@PEAVQEvent@@@Z
       5208 1457 0021BD00 ?notifyCompleted@QWindowsPipeWriter@@AEAAXPEAV?$QMutexLocker@VQMutex@@@@@Z
       5209 1458 0009E810 ?notifyInternal2@QCoreApplication@@CA_NPEAVQObject@@PEAVQEvent@@@Z
       5210 1459 000ED460 ?notifyNonRecursive@QPropertyBindingPrivate@@QEAA?AW4NotificationState@1@XZ
       5211 145A 000ED4D0 ?notifyNonRecursive@QPropertyBindingPrivate@@QEAAXAEBV?$QVarLengthArray@VQPropertyBindingPrivatePtr@@$0BAA@@@@Z
       5212 145B 000ED5B0 ?notifyObserver_helper@QPropertyBindingData@QtPrivate@@AEBA?AW4NotificationResult@12@PEAVQUntypedPropertyData@@PEAVQBindingStorage@@UQPropertyObserverPointer@@AEAV?$QVarLengthArray@VQPropertyBindingPrivatePtr@@$0BAA@@@@Z
       5213 145C 000ED700 ?notifyObservers@QPropertyBindingData@QtPrivate@@QEBAXPEAVQUntypedPropertyData@@@Z
       5214 145D 000ED710 ?notifyObservers@QPropertyBindingData@QtPrivate@@QEBAXPEAVQUntypedPropertyData@@PEAVQBindingStorage@@@Z
       5215 145E 000AD040 ?notifySignal@QMetaProperty@@QEBA?AVQMetaMethod@@XZ
       5216 145F 000B9D10 ?notifySignal@QMetaPropertyBuilder@@QEBA?AVQMetaMethodBuilder@@XZ
       5217 1460 000AD090 ?notifySignalIndex@QMetaProperty@@QEBAHXZ
       5218 1461 00021370 ?notify_all@QWaitCondition@@QEAAXXZ
       5219 1462 0009E940 ?notify_helper@QCoreApplicationPrivate@@SA_NPEAVQObject@@PEAVQEvent@@@Z
       5220 1463 00021380 ?notify_one@QWaitCondition@@QEAAXXZ
       5221 1464 000A4880 ?nsecsElapsed@QElapsedTimer@@QEBA_JXZ
       5222 1465 002839C0 ?nullDevice@QProcess@@SA?AVQString@@XZ
       5223 1466 000160A0 ?nullJd@QDate@@CA_JXZ
       5224 1467 001381F0 ?number@QByteArray@@SA?AV1@HH@Z
       5225 1468 001383B0 ?number@QByteArray@@SA?AV1@IH@Z
       5226 1469 001381F0 ?number@QByteArray@@SA?AV1@JH@Z
       5227 146A 001383B0 ?number@QByteArray@@SA?AV1@KH@Z
       5228 146B 00138550 ?number@QByteArray@@SA?AV1@NDH@Z
       5229 146C 001385C0 ?number@QByteArray@@SA?AV1@_JH@Z
       5230 146D 00138770 ?number@QByteArray@@SA?AV1@_KH@Z
       5231 146E 0016ECB0 ?number@QString@@SA?AV1@HH@Z
       5232 146F 0016ECE0 ?number@QString@@SA?AV1@IH@Z
       5233 1470 0016ECB0 ?number@QString@@SA?AV1@JH@Z
       5234 1471 0016ECE0 ?number@QString@@SA?AV1@KH@Z
       5235 1472 0016ED00 ?number@QString@@SA?AV1@NDH@Z
       5236 1473 0016ED70 ?number@QString@@SA?AV1@_JH@Z
       5237 1474 0016EDA0 ?number@QString@@SA?AV1@_KH@Z
       5238 1475 00131F60 ?numberFlags@QTextStream@@QEBA?AV?$QFlags@W4NumberFlag@QTextStream@@@@XZ
       5239 1476 0014C9B0 ?numberOptions@QLocale@@QEBA?AV?$QFlags@W4NumberOption@QLocale@@@@XZ
       5240 1477 00079A70 ?numericMode@QCollator@@QEBA_NXZ
       5241 1478 00121750 ?object@QJsonDocument@@QEBA?AVQJsonObject@@XZ
       5242 1479 00021390 ?objectDestroyed@QDynamicMetaObjectData@@UEAAXPEAVQObject@@@Z
       5243 147A 000EA300 ?objectDestroyed@QObjectCleanupHandler@@AEAAXPEAVQObject@@@Z
       5244 147B 0012B970 ?objectKey@QJsonValueConstRef@@KA?AVQString@@V1@@Z
       5245 147C 000E70B0 ?objectName@QObject@@QEBA?AVQString@@XZ
       5246 147D 000E7330 ?objectNameChanged@QObject@@QEAAXAEBVQString@@UQPrivateSignal@1@@Z
       5247 147E 00131F70 ?oct@Qt@@YAAEAVQTextStream@@AEAV2@@Z
       5248 147F 0019C160 ?offsetData@QTimeZone@@QEBA?AUOffsetData@1@AEBVQDateTime@@@Z
       5249 1480 00190B50 ?offsetFromUtc@QDateTime@@QEBAHXZ
       5250 1481 0019C2C0 ?offsetFromUtc@QTimeZone@@QEBAHAEBVQDateTime@@@Z
       5251 1482 003ABF80 ?offsettable@qfloat16@@0QBIB
       5252 1483 00028FB0 ?open@QAbstractFileEngine@@UEAA_NV?$QFlags@W4OpenModeFlag@QIODeviceBase@@@@V?$optional@V?$QFlags@W4Permission@QFileDevice@@@@@std@@@Z
       5253 1484 0003A820 ?open@QBuffer@@UEAA_NV?$QFlags@W4OpenModeFlag@QIODeviceBase@@@@@Z
       5254 1485 0005ED60 ?open@QFSFileEngine@@QEAA_NV?$QFlags@W4OpenModeFlag@QIODeviceBase@@@@H@Z
       5255 1486 0005ED70 ?open@QFSFileEngine@@QEAA_NV?$QFlags@W4OpenModeFlag@QIODeviceBase@@@@HV?$QFlags@W4FileHandleFlag@QFileDevice@@@@@Z
       5256 1487 0005EEE0 ?open@QFSFileEngine@@QEAA_NV?$QFlags@W4OpenModeFlag@QIODeviceBase@@@@PEAU_iobuf@@@Z
       5257 1488 0005EEF0 ?open@QFSFileEngine@@QEAA_NV?$QFlags@W4OpenModeFlag@QIODeviceBase@@@@PEAU_iobuf@@V?$QFlags@W4FileHandleFlag@QFileDevice@@@@@Z
       5258 1489 0005F050 ?open@QFSFileEngine@@UEAA_NV?$QFlags@W4OpenModeFlag@QIODeviceBase@@@@V?$optional@V?$QFlags@W4Permission@QFileDevice@@@@@std@@@Z
       5259 148A 00051AC0 ?open@QFile@@QEAA_NHV?$QFlags@W4OpenModeFlag@QIODeviceBase@@@@V?$QFlags@W4FileHandleFlag@QFileDevice@@@@@Z
       5260 148B 00051CA0 ?open@QFile@@QEAA_NPEAU_iobuf@@V?$QFlags@W4OpenModeFlag@QIODeviceBase@@@@V?$QFlags@W4FileHandleFlag@QFileDevice@@@@@Z
       5261 148C 00051E70 ?open@QFile@@QEAA_NV?$QFlags@W4OpenModeFlag@QIODeviceBase@@@@V?$QFlags@W4Permission@QFileDevice@@@@@Z
       5262 148D 00052030 ?open@QFile@@UEAA_NV?$QFlags@W4OpenModeFlag@QIODeviceBase@@@@@Z
       5263 148E 00063290 ?open@QIODevice@@UEAA_NV?$QFlags@W4OpenModeFlag@QIODeviceBase@@@@@Z
       5264 148F 002839F0 ?open@QProcess@@UEAA_NV?$QFlags@W4OpenModeFlag@QIODeviceBase@@@@@Z
       5265 1490 00075710 ?open@QSaveFile@@UEAA_NV?$QFlags@W4OpenModeFlag@QIODeviceBase@@@@@Z
       5266 1491 0007B6F0 ?open@QTemporaryFile@@MEAA_NV?$QFlags@W4OpenModeFlag@QIODeviceBase@@@@@Z
       5267 1492 000521F0 ?open@QTemporaryFile@@QEAA_NXZ
       5268 1493 00063370 ?openMode@QIODevice@@QEBA?AV?$QFlags@W4OpenModeFlag@QIODeviceBase@@@@XZ
       5269 1494 0025A4C0 ?optimize@QRegularExpression@@QEBAXXZ
       5270 1495 0023C560 ?optionNames@QCommandLineParser@@QEBA?AV?$QList@VQString@@@@XZ
       5271 1496 0009E9C0 ?organizationDomain@QCoreApplication@@SA?AVQString@@XZ
       5272 1497 0009EAC0 ?organizationDomainChanged@QCoreApplication@@QEAAXXZ
       5273 1498 0009EAE0 ?organizationName@QCoreApplication@@SA?AVQString@@XZ
       5274 1499 00299180 ?organizationName@QSettings@@QEBA?AVQString@@XZ
       5275 149A 0009EBE0 ?organizationNameChanged@QCoreApplication@@QEAAXXZ
       5276 149B 0024A060 ?overshoot@QEasingCurve@@QEBANXZ
       5277 149C 00039C10 ?owner@QAbstractFileEngine@@UEBA?AVQString@@W4FileOwner@1@@Z
       5278 149D 00215F70 ?owner@QFSFileEngine@@UEBA?AVQString@@W4FileOwner@QAbstractFileEngine@@@Z
       5279 149E 00057450 ?owner@QFileInfo@@QEBA?AVQString@@XZ
       5280 149F 00039CE0 ?ownerId@QAbstractFileEngine@@UEBAIW4FileOwner@1@@Z
       5281 14A0 00072A10 ?ownerId@QFSFileEngine@@UEBAIW4FileOwner@QAbstractFileEngine@@@Z
       5282 14A1 000574A0 ?ownerId@QFileInfo@@QEBAIXZ
       5283 14A2 000213B0 ?p1@QLine@@QEBA?AVQPoint@@XZ
       5284 14A3 000213C0 ?p1@QLineF@@QEBA?AVQPointF@@XZ
       5285 14A4 000041B0 ?p2@QLine@@QEBA?AVQPoint@@XZ
       5286 14A5 000213D0 ?p2@QLineF@@QEBA?AVQPointF@@XZ
       5287 14A6 00131F90 ?padChar@QTextStream@@QEBA?AVQChar@@XZ
       5288 14A7 000AD3C0 ?parameterCount@QMetaMethod@@QEBAHXZ
       5289 14A8 000AD3E0 ?parameterMetaType@QMetaMethod@@QEBA?AVQMetaType@@H@Z
       5290 14A9 000AD490 ?parameterNames@QMetaMethod@@QEBA?AV?$QList@VQByteArray@@@@XZ
       5291 14AA 000B9D80 ?parameterNames@QMetaMethodBuilder@@QEBA?AV?$QList@VQByteArray@@@@XZ
       5292 14AB 000AD9E0 ?parameterType@QMetaMethod@@QEBAHH@Z
       5293 14AC 000ADB50 ?parameterTypeName@QMetaMethod@@QEBA?AVQByteArray@@H@Z
       5294 14AD 000AE0C0 ?parameterTypes@QMetaMethod@@QEBA?AV?$QList@VQByteArray@@@@XZ
       5295 14AE 000B9E80 ?parameterTypes@QMetaMethodBuilder@@QEBA?AV?$QList@VQByteArray@@@@XZ
       5296 14AF 002B4A60 ?parent@QAbstractListModel@@EEBA?AVQModelIndex@@AEBV2@@Z
       5297 14B0 002B4A60 ?parent@QAbstractTableModel@@EEBA?AVQModelIndex@@AEBV2@@Z
       5298 14B1 002B4A60 ?parent@QConcatenateTablesProxyModel@@UEBA?AVQModelIndex@@AEBV2@@Z
       5299 14B2 002D8400 ?parent@QIdentityProxyModel@@UEBA?AVQModelIndex@@AEBV2@@Z
       5300 14B3 000213E0 ?parent@QItemSelectionRange@@QEBA?AVQModelIndex@@XZ
       5301 14B4 00006220 ?parent@QObject@@QEBAPEAV1@XZ
       5302 14B5 002B82A0 ?parent@QPersistentModelIndex@@QEBA?AVQModelIndex@@XZ
       5303 14B6 002EDD90 ?parent@QSortFilterProxyModel@@UEBA?AVQModelIndex@@AEBV2@@Z
       5304 14B7 002F72B0 ?parent@QTransposeProxyModel@@UEBA?AVQModelIndex@@AEBV2@@Z
       5305 14B8 00303500 ?parentContainerType@QCborStreamReader@@QEBA?AW4Type@1@XZ
       5306 14B9 00315A00 ?parentMimeTypes@QMimeType@@QEBA?AV?$QList@VQString@@@@XZ
       5307 14BA 0023C5F0 ?parse@QCommandLineParser@@QEAA_NAEBV?$QList@VQString@@@@@Z
       5308 14BB 0026B390 ?parse@QDateTimeParser@@QEBA?AUStateNode@1@AEBVQString@@HAEBVQDateTime@@_N@Z
       5309 14BC 0026BB40 ?parseFormat@QDateTimeParser@@QEAA_NVQStringView@@@Z
       5310 14BD 00065FC0 ?parseIp4@QIPAddressUtils@@YA_NAEAIPEBVQChar@@1@Z
       5311 14BE 000661C0 ?parseIp6@QIPAddressUtils@@YAPEBVQChar@@AEAY0BA@EPEBV2@1@Z
       5312 14BF 0026CF20 ?parseSection@QDateTimeParser@@AEBA?AUParsedSection@1@AEBVQDateTime@@HH@Z
       5313 14C0 00188700 ?partsFromDate@QCalendar@@QEBA?AUYearMonthDay@1@VQDate@@@Z
       5314 14C1 00196C80 ?partsFromJulian@QGregorianCalendar@@SA?AUYearMonthDay@QCalendar@@_J@Z
       5315 14C2 00082360 ?password@QUrl@@QEBA?AVQString@@V?$QFlags@W4ComponentFormattingOption@QUrl@@@@@Z
       5316 14C3 00039CF0 ?path@QAbstractFileEngineIterator@@QEBA?AVQString@@XZ
       5317 14C4 00046A00 ?path@QDir@@QEBA?AVQString@@XZ
       5318 14C5 000504E0 ?path@QDirIterator@@QEBA?AVQString@@XZ
       5319 14C6 00057500 ?path@QFileInfo@@QEBA?AVQString@@XZ
       5320 14C7 000299F0 ?path@QLibraryInfo@@SA?AVQString@@W4LibraryPath@1@@Z
       5321 14C8 00029AD0 ?path@QLibraryInfoPrivate@@SA?AVQString@@W4LibraryPath@QLibraryInfo@@W4UsageMode@1@@Z
       5322 14C9 0007A170 ?path@QTemporaryDir@@QEBA?AVQString@@XZ
       5323 14CA 00082440 ?path@QUrl@@QEBA?AVQString@@V?$QFlags@W4ComponentFormattingOption@QUrl@@@@@Z
       5324 14CB 00029C60 ?paths@QLibraryInfo@@SA?AV?$QList@VQString@@@@W4LibraryPath@1@@Z
       5325 14CC 00029C80 ?paths@QLibraryInfoPrivate@@SA?AV?$QList@VQString@@@@W4LibraryPath@QLibraryInfo@@W4UsageMode@1@@Z
       5326 14CD 00021400 ?pattern@QByteArrayMatcher@@QEBA?AVQByteArray@@XZ
       5327 14CE 000213C0 ?pattern@QLatin1StringMatcher@@QEBA?AVQLatin1String@@XZ
       5328 14CF 000469B0 ?pattern@QRegularExpression@@QEBA?AVQString@@XZ
       5329 14D0 0016EDC0 ?pattern@QStringMatcher@@QEBA?AVQString@@XZ
       5330 14D1 0025A4D0 ?patternErrorOffset@QRegularExpression@@QEBA_JXZ
       5331 14D2 0025A4F0 ?patternOptions@QRegularExpression@@QEBA?AV?$QFlags@W4PatternOption@QRegularExpression@@@@XZ
       5332 14D3 00006230 ?patternView@QStringMatcher@@QEBA?AVQStringView@@XZ
       5333 14D4 001FBCB0 ?pause@QAbstractAnimation@@QEAAXXZ
       5334 14D5 00234AB0 ?pause@QFutureWatcherBase@@QEAAXXZ
       5335 14D6 001FBD00 ?pauseAnimationTimer@QUnifiedTimer@@SAXPEAVQAbstractAnimationTimer@@H@Z
       5336 14D7 00234AD0 ?paused@QFutureWatcherBase@@QEAAXXZ
       5337 14D8 00063380 ?peek@QIODevice@@QEAA?AVQByteArray@@_J@Z
       5338 14D9 00063450 ?peek@QIODevice@@QEAA_JPEAD_J@Z
       5339 14DA 000634E0 ?peek@QIODevicePrivate@@UEAA?AVQByteArray@@_J@Z
       5340 14DB 00063590 ?peek@QIODevicePrivate@@UEAA_JPEAD_J@Z
       5341 14DC 001DA7B0 ?peek@QRingBuffer@@QEBA_JPEAD_J1@Z
       5342 14DD 0025A500 ?peekNext@QRegularExpressionMatchIterator@@QEBA?AVQRegularExpressionMatch@@XZ
       5343 14DE 0014D970 ?percent@QLocale@@QEBA?AVQString@@XZ
       5344 14DF 00138910 ?percentDecoded@QByteArray@@QEBA?AV1@D@Z
       5345 14E0 0024A080 ?period@QEasingCurve@@QEBANXZ
       5346 14E1 00057550 ?permission@QFileInfo@@QEBA_NV?$QFlags@W4Permission@QFileDevice@@@@@Z
       5347 14E2 00052210 ?permissions@QFile@@SA?AV?$QFlags@W4Permission@QFileDevice@@@@AEBVQString@@@Z
       5348 14E3 000522D0 ?permissions@QFile@@UEBA?AV?$QFlags@W4Permission@QFileDevice@@@@XZ
       5349 14E4 00053CA0 ?permissions@QFileDevice@@UEBA?AV?$QFlags@W4Permission@QFileDevice@@@@XZ
       5350 14E5 000575D0 ?permissions@QFileInfo@@QEBA?AV?$QFlags@W4Permission@QFileDevice@@@@XZ
       5351 14E6 002B8320 ?persistentIndexList@QAbstractItemModel@@IEBA?AV?$QList@VQModelIndex@@@@XZ
       5352 14E7 0021A730 ?pipeClosed@QWindowsPipeReader@@QEAAXXZ
       5353 14E8 000E73B0 ?placeMetaCall@QMetaCallEvent@@UEAAXPEAVQObject@@@Z
       5354 14E9 0002A8C0 ?platformPluginArguments@QLibraryInfo@@SA?AV?$QList@VQString@@@@AEBVQString@@@Z
       5355 14EA 000356D0 ?platformSafeKey@QSharedMemory@@SA?AVQNativeIpcKey@@AEBVQString@@W4Type@2@@Z
       5356 14EB 00036560 ?platformSafeKey@QSystemSemaphore@@SA?AVQNativeIpcKey@@AEBVQString@@W4Type@2@@Z
       5357 14EC 00059170 ?platformSelectors@QFileSelectorPrivate@@SA?AV?$QList@VQString@@@@XZ
       5358 14ED 0014DA60 ?pmText@QLocale@@QEBA?AVQString@@XZ
       5359 14EE 00021460 ?pointAt@QLineF@@QEBA?AVQPointF@@N@Z
       5360 14EF 00006240 ?polished@QChildEvent@@QEBA_NXZ
       5361 14F0 000214A0 ?pop_back@QCborArray@@QEAAXXZ
       5362 14F1 000214C0 ?pop_back@QJsonArray@@QEAAXXZ
       5363 14F2 000214E0 ?pop_front@QCborArray@@QEAAXXZ
       5364 14F3 000214F0 ?pop_front@QJsonArray@@QEAAXXZ
       5365 14F4 00082480 ?port@QUrl@@QEBAHH@Z
       5366 14F5 00039CE0 ?pos@QAbstractFileEngine@@UEBA_JXZ
       5367 14F6 0003A980 ?pos@QBuffer@@UEBA_JXZ
       5368 14F7 0005F1B0 ?pos@QFSFileEngine@@UEBA_JXZ
       5369 14F8 0003A980 ?pos@QFileDevice@@UEBA_JXZ
       5370 14F9 00034AC0 ?pos@QIODevice@@UEBA_JXZ
       5371 14FA 00039F00 ?pos@QNonContiguousByteDevice@@UEBA_JXZ
       5372 14FB 00131FB0 ?pos@QTextStream@@QEBA_JXZ
       5373 14FC 0001C150 ?position@QTextBoundaryFinder@@QEBA_JXZ
       5374 14FD 0023D5E0 ?positionalArguments@QCommandLineParser@@QEBA?AV?$QList@VQString@@@@XZ
       5375 14FE 0014DCD0 ?positiveSign@QLocale@@QEBA?AVQString@@XZ
       5376 14FF 00221C10 ?postActivateSocketNotifiers@QEventDispatcherWin32Private@@QEAAXXZ
       5377 1500 0009EC00 ?postEvent@QCoreApplication@@SAXPEAVQObject@@PEAVQEvent@@H@Z
       5378 1501 0014DD20 ?potentialValue@QDateTimeParser@@AEBA_NAEBVQString@@HHHAEBVQDateTime@@H@Z
       5379 1502 0026D830 ?potentialValue@QDateTimeParser@@AEBA_NVQStringView@@HHHAEBVQDateTime@@H@Z
       5380 1503 00021500 ?precedes@QDateTime@@AEBA_NAEBV1@@Z
       5381 1504 000B9F70 ?preferredAlignment@QMetaStringTable@@SAHXZ
       5382 1505 00315A40 ?preferredSuffix@QMimeType@@QEBA?AVQString@@XZ
       5383 1506 00021520 ?prefix@QXmlStreamAttribute@@QEBA?AVQStringView@@XZ
       5384 1507 000212F0 ?prefix@QXmlStreamNamespaceDeclaration@@QEBA?AVQStringView@@XZ
       5385 1508 001ED850 ?prefix@QXmlStreamReader@@QEBA?AVQStringView@@XZ
       5386 1509 000FD190 ?prepareForEmplace@QVariant@@AEAAPEAXVQMetaType@@@Z
       5387 150A 00303520 ?preparse@QCborStreamReader@@AEAAXXZ
       5388 150B 00138A90 ?prepend@QByteArray@@QEAAAEAV1@AEBV1@@Z
       5389 150C 00006250 ?prepend@QByteArray@@QEAAAEAV1@D@Z
       5390 150D 00006280 ?prepend@QByteArray@@QEAAAEAV1@PEBD@Z
       5391 150E 000062D0 ?prepend@QByteArray@@QEAAAEAV1@PEBD_J@Z
       5392 150F 000062F0 ?prepend@QByteArray@@QEAAAEAV1@VQByteArrayView@@@Z
       5393 1510 00006310 ?prepend@QByteArray@@QEAAAEAV1@_JD@Z
       5394 1511 00021550 ?prepend@QCborArray@@QEAAX$$QEAVQCborValue@@@Z
       5395 1512 00021560 ?prepend@QCborArray@@QEAAXAEBVQCborValue@@@Z
       5396 1513 0011C6A0 ?prepend@QJsonArray@@QEAAXAEBVQJsonValue@@@Z
       5397 1514 00006320 ?prepend@QString@@QEAAAEAV1@AEBV1@@Z
       5398 1515 00006340 ?prepend@QString@@QEAAAEAV1@AEBVQByteArray@@@Z
       5399 1516 00006370 ?prepend@QString@@QEAAAEAV1@PEBD@Z
       5400 1517 000063B0 ?prepend@QString@@QEAAAEAV1@PEBVQChar@@_J@Z
       5401 1518 000063C0 ?prepend@QString@@QEAAAEAV1@V?$QBasicUtf8StringView@$0A@@@@Z
       5402 1519 000063E0 ?prepend@QString@@QEAAAEAV1@VQChar@@@Z
       5403 151A 000063F0 ?prepend@QString@@QEAAAEAV1@VQLatin1String@@@Z
       5404 151B 00006410 ?prepend@QString@@QEAAAEAV1@VQStringView@@@Z
       5405 151C 00021570 ?prependObserver@QPropertyBindingPrivate@@QEAAXUQPropertyObserverPointer@@@Z
       5406 151D 00032980 ?prettyProductName@QSysInfo@@SA?AVQString@@XZ
       5407 151E 0019C3D0 ?previousTransition@QTimeZone@@QEBA?AUOffsetData@1@AEBVQDateTime@@@Z
       5408 151F 000ED8F0 ?printMetaTypeMismatch@BindableWarnings@QtPrivate@@YAXVQMetaType@@0@Z
       5409 1520 000EDC20 ?printUnsuitableBindableWarning@BindableWarnings@QtPrivate@@YAXVQAnyStringView@@W4Reason@12@@Z
       5410 1521 00185590 ?priority@QThread@@QEBA?AW4Priority@1@XZ
       5411 1522 0023D670 ?process@QCommandLineParser@@QEAAXAEBV?$QList@VQString@@@@@Z
       5412 1523 0023D9E0 ?process@QCommandLineParser@@QEAAXAEBVQCoreApplication@@@Z
       5413 1524 00283D40 ?processChannelMode@QProcess@@QEBA?AW4ProcessChannelMode@1@XZ
       5414 1525 0009EE30 ?processCommandLineArguments@QCoreApplicationPrivate@@QEAAXXZ
       5415 1526 00283D50 ?processEnvironment@QProcess@@QEBA?AVQProcessEnvironment@@XZ
       5416 1527 0009F050 ?processEvents@QCoreApplication@@SAXV?$QFlags@W4ProcessEventsFlag@QEventLoop@@@@@Z
       5417 1528 0009F090 ?processEvents@QCoreApplication@@SAXV?$QFlags@W4ProcessEventsFlag@QEventLoop@@@@H@Z
       5418 1529 0009F100 ?processEvents@QCoreApplication@@SAXV?$QFlags@W4ProcessEventsFlag@QEventLoop@@@@VQDeadlineTimer@@@Z
       5419 152A 00221C50 ?processEvents@QEventDispatcherWin32@@UEAA_NV?$QFlags@W4ProcessEventsFlag@QEventLoop@@@@@Z
       5420 152B 000A5310 ?processEvents@QEventLoop@@QEAAXV?$QFlags@W4ProcessEventsFlag@QEventLoop@@@@H@Z
       5421 152C 000A53A0 ?processEvents@QEventLoop@@QEAAXV?$QFlags@W4ProcessEventsFlag@QEventLoop@@@@VQDeadlineTimer@@@Z
       5422 152D 000A5420 ?processEvents@QEventLoop@@QEAA_NV?$QFlags@W4ProcessEventsFlag@QEventLoop@@@@@Z
       5423 152E 00093A70 ?processEventsWithDeadline@QAbstractEventDispatcherV2@@UEAA_NV?$QFlags@W4ProcessEventsFlag@QEventLoop@@@@VQDeadlineTimer@@@Z
       5424 152F 00283F30 ?processId@QProcess@@QEBA_JXZ
       5425 1530 00216720 ?processNameByPid@QLockFilePrivate@@SA?AVQString@@_J@Z
       5426 1531 0005F1F0 ?processOpenModeFlags@@YA?AUProcessOpenModeResult@@V?$QFlags@W4OpenModeFlag@QIODeviceBase@@@@@Z
       5427 1532 001ED8A0 ?processingInstructionData@QXmlStreamReader@@QEBA?AVQStringView@@XZ
       5428 1533 001ED8F0 ?processingInstructionTarget@QXmlStreamReader@@QEBA?AVQStringView@@XZ
       5429 1534 00032F00 ?productType@QSysInfo@@SA?AVQString@@XZ
       5430 1535 00032F30 ?productVersion@QSysInfo@@SA?AVQString@@XZ
       5431 1536 00283F50 ?program@QProcess@@QEBA?AVQString@@XZ
       5432 1537 00231640 ?progressMaximum@QFutureInterfaceBase@@QEBAHXZ
       5433 1538 00234B60 ?progressMaximum@QFutureWatcherBase@@QEBAHXZ
       5434 1539 002316C0 ?progressMinimum@QFutureInterfaceBase@@QEBAHXZ
       5435 153A 00234B80 ?progressMinimum@QFutureWatcherBase@@QEBAHXZ
       5436 153B 00234BA0 ?progressRangeChanged@QFutureWatcherBase@@QEAAXHH@Z
       5437 153C 00231740 ?progressText@QFutureInterfaceBase@@QEBA?AVQString@@XZ
       5438 153D 00234C00 ?progressText@QFutureWatcherBase@@QEBA?AVQString@@XZ
       5439 153E 00234C30 ?progressTextChanged@QFutureWatcherBase@@QEAAXAEBVQString@@@Z
       5440 153F 00231880 ?progressValue@QFutureInterfaceBase@@QEBAHXZ
       5441 1540 00234C60 ?progressValue@QFutureWatcherBase@@QEBAHXZ
       5442 1541 00234C80 ?progressValueChanged@QFutureWatcherBase@@QEAAXH@Z
       5443 1542 0016EE10 ?properties@QUnicodeTables@@YAPEBUProperties@1@_S@Z
       5444 1543 0016EE50 ?properties@QUnicodeTables@@YAPEBUProperties@1@_U@Z
       5445 1544 000AF380 ?property@QMetaObject@@QEBA?AVQMetaProperty@@H@Z
       5446 1545 000B9F80 ?property@QMetaObjectBuilder@@QEBA?AVQMetaPropertyBuilder@@H@Z
       5447 1546 000E7480 ?property@QObject@@QEBA?AVQVariant@@PEBD@Z
       5448 1547 000AF490 ?propertyCount@QMetaObject@@QEBAHXZ
       5449 1548 000B9FD0 ?propertyCount@QMetaObjectBuilder@@QEBAHXZ
       5450 1549 000AF4F0 ?propertyIndex@QMetaProperty@@QEBAHXZ
       5451 154A 00006420 ?propertyName@QDynamicPropertyChangeEvent@@QEBA?AVQByteArray@@XZ
       5452 154B 00203570 ?propertyName@QPropertyAnimation@@QEBA?AVQByteArray@@XZ
       5453 154C 000AF5A0 ?propertyOffset@QMetaObject@@QEBAHXZ
       5454 154D 00021580 ?proxyData@QPropertyBindingData@QtPrivate@@AEBAPEAUQPropertyProxyBindingData@@XZ
       5455 154E 00021590 ?publicId@QXmlStreamEntityDeclaration@@QEBA?AVQStringView@@XZ
       5456 154F 000215B0 ?publicId@QXmlStreamNotationDeclaration@@QEBA?AVQStringView@@XZ
       5457 1550 00002FB0 ?push_back@QByteArray@@QEAAXAEBV1@@Z
       5458 1551 00002FC0 ?push_back@QByteArray@@QEAAXD@Z
       5459 1552 00002FD0 ?push_back@QByteArray@@QEAAXPEBD@Z
       5460 1553 00003020 ?push_back@QByteArray@@QEAAXVQByteArrayView@@@Z
       5461 1554 0001C140 ?push_back@QCborArray@@QEAAXAEBVQCborValue@@@Z
       5462 1555 000215D0 ?push_back@QJsonArray@@QEAAXAEBVQJsonValue@@@Z
       5463 1556 00003080 ?push_back@QString@@QEAAXAEBV1@@Z
       5464 1557 00003120 ?push_back@QString@@QEAAXVQChar@@@Z
       5465 1558 00006450 ?push_front@QByteArray@@QEAAXAEBV1@@Z
       5466 1559 00006460 ?push_front@QByteArray@@QEAAXD@Z
       5467 155A 00006280 ?push_front@QByteArray@@QEAAXPEBD@Z
       5468 155B 000062F0 ?push_front@QByteArray@@QEAAXVQByteArrayView@@@Z
       5469 155C 00021560 ?push_front@QCborArray@@QEAAXAEBVQCborValue@@@Z
       5470 155D 000215E0 ?push_front@QJsonArray@@QEAAXAEBVQJsonValue@@@Z
       5471 155E 00006320 ?push_front@QString@@QEAAXAEBV1@@Z
       5472 155F 000063E0 ?push_front@QString@@QEAAXVQChar@@@Z
       5473 1560 0003BFD0 ?putByteArray@QDebug@@AEAAXPEBD_KW4Latin1Content@1@@Z
       5474 1561 000635A0 ?putChar@QIODevice@@QEAA_ND@Z
       5475 1562 000635C0 ?putCharHelper@QIODevicePrivate@@UEAA_ND@Z
       5476 1563 0003C2B0 ?putInt128@QDebug@@AEAAXPEBX@Z
       5477 1564 0003C310 ?putString@QDebug@@AEAAXPEBVQChar@@_K@Z
       5478 1565 0003C480 ?putTimeUnit@QDebug@@AEAAX_J0@Z
       5479 1566 0003C2B0 ?putUInt128@QDebug@@AEAAXPEBX@Z
       5480 1567 0003C4D0 ?putUcs4@QDebug@@AEAAXI@Z
       5481 1568 0009F170 ?qAddPostRoutine@@YAXP6AXXZ@Z
       5482 1569 0009F270 ?qAddPreRoutine@@YAXP6AXXZ@Z
       5483 156A 0009F390 ?qAppName@@YA?AVQString@@XZ
       5484 156B 00211810 ?qAreNtfsPermissionChecksEnabled@@YA_NXZ
       5485 156C 000254E0 ?qBadAlloc@@YAXXZ
       5486 156D 0019D930 ?qCalculateBlockSize@@YA_J_J00@Z
       5487 156E 0019D960 ?qCalculateGrowingBlockSize@@YA?AUCalculateGrowingBlockSizeResult@@_J00@Z
       5488 156F 00138B20 ?qChecksum@@YAGVQByteArrayView@@W4ChecksumType@Qt@@@Z
       5489 1570 00138BA0 ?qCompress@@YA?AVQByteArray@@PEBE_JH@Z
       5490 1571 0003AFC0 ?qDecodeDataUrl@@YA_NAEBVQUrl@@AEAVQString@@AEAVQByteArray@@@Z
       5491 1572 00211820 ?qDisableNtfsPermissionChecks@@YA_NXZ
       5492 1573 00211840 ?qEnableNtfsPermissionChecks@@YA_NXZ
       5493 1574 00033910 ?qEnvironmentVariable@@YA?AVQString@@PEBD@Z
       5494 1575 00033960 ?qEnvironmentVariable@@YA?AVQString@@PEBDAEBV1@@Z
       5495 1576 00033B80 ?qEnvironmentVariableIntValue@@YAHPEBDPEA_N@Z
       5496 1577 00033CB0 ?qEnvironmentVariableIsEmpty@@YA_NPEBD@Z
       5497 1578 00033D30 ?qEnvironmentVariableIsSet@@YA_NPEBD@Z
       5498 1579 0002DCA0 ?qErrnoWarning@@YAXHPEBDZZ
       5499 157A 0002DF70 ?qErrnoWarning@@YAXPEBDZZ
       5500 157B 000E75A0 ?qFlagLocation@@YAPEBDPEBD@Z
       5501 157C 00030410 ?qFloatDistance@@YAIMM@Z
       5502 157D 00030520 ?qFloatDistance@@YA_KNN@Z
       5503 157E 00025AE0 ?qFloatFromFloat16@@YAXPEAMPEBVqfloat16@@_J@Z
       5504 157F 00025D30 ?qFloatToFloat16@@YAXPEAVqfloat16@@PEBM_J@Z
       5505 1580 0002E200 ?qFormatLogMessage@@YA?AVQString@@W4QtMsgType@@AEBVQMessageLogContext@@AEBV1@@Z
       5506 1581 00030630 ?qFpClassify@@YAHM@Z
       5507 1582 00030640 ?qFpClassify@@YAHN@Z
       5508 1583 000302B0 ?qFreeAligned@@YAXPEAX@Z
       5509 1584 000160B0 ?qGlobalQHashSeed@@YAHXZ
       5510 1585 00138E10 ?qHash@@YA_KAEBVFromBase64Result@QByteArray@@_K@Z
       5511 1586 000160C0 ?qHash@@YA_KAEBVQBitArray@@_K@Z
       5512 1587 000216E0 ?qHash@@YA_KAEBVQByteArray@@_K@Z
       5513 1588 00021700 ?qHash@@YA_KAEBVQByteArrayView@@_K@Z
       5514 1589 001175F0 ?qHash@@YA_KAEBVQCborArray@@_K@Z
       5515 158A 00117740 ?qHash@@YA_KAEBVQCborMap@@_K@Z
       5516 158B 00117800 ?qHash@@YA_KAEBVQCborValue@@_K@Z
       5517 158C 00190BC0 ?qHash@@YA_KAEBVQDateTime@@_K@Z
       5518 158D 0011C6B0 ?qHash@@YA_KAEBVQJsonArray@@_K@Z
       5519 158E 00125070 ?qHash@@YA_KAEBVQJsonObject@@_K@Z
       5520 158F 0012B9B0 ?qHash@@YA_KAEBVQJsonValue@@_K@Z
       5521 1590 0014DE90 ?qHash@@YA_KAEBVQLocale@@_K@Z
       5522 1591 00315B90 ?qHash@@YA_KAEBVQMimeType@@_K@Z
       5523 1592 00037D90 ?qHash@@YA_KAEBVQNativeIpcKey@@_K@Z
       5524 1593 0025A580 ?qHash@@YA_KAEBVQRegularExpression@@_K@Z
       5525 1594 001DDDD0 ?qHash@@YA_KAEBVQTypeRevision@@_K@Z
       5526 1595 000824A0 ?qHash@@YA_KAEBVQUrl@@_K@Z
       5527 1596 0008AE90 ?qHash@@YA_KAEBVQUrlQuery@@_K@Z
       5528 1597 0010A2D0 ?qHash@@YA_KAEBVQUuid@@_K@Z
       5529 1598 001DF170 ?qHash@@YA_KAEBVQVersionNumber@@_K@Z
       5530 1599 000161D0 ?qHash@@YA_KN_K@Z
       5531 159A 000161D0 ?qHash@@YA_KO_K@Z
       5532 159B 00016210 ?qHash@@YA_KVQByteArrayView@@_K@Z
       5533 159C 00190D00 ?qHash@@YA_KVQDate@@_K@Z
       5534 159D 00016280 ?qHash@@YA_KVQLatin1String@@_K@Z
       5535 159E 001D8730 ?qHash@@YA_KVQPoint@@_K@Z
       5536 159F 00016300 ?qHash@@YA_KVQStringView@@_K@Z
       5537 15A0 00190D40 ?qHash@@YA_KVQTime@@_K@Z
       5538 15A1 00016370 ?qHashBits@@YA_KPEBX_K1@Z
       5539 15A2 00030650 ?qInf@@YANXZ
       5540 15A3 0002E220 ?qInstallMessageHandler@@YAP6AXW4QtMsgType@@AEBVQMessageLogContext@@AEBVQString@@@ZP6AX012@Z@Z
       5541 15A4 00030660 ?qIsFinite@@YA_NM@Z
       5542 15A5 00030680 ?qIsFinite@@YA_NN@Z
       5543 15A6 000306A0 ?qIsInf@@YA_NM@Z
       5544 15A7 000306C0 ?qIsInf@@YA_NN@Z
       5545 15A8 000306E0 ?qIsNaN@@YA_NM@Z
       5546 15A9 000306F0 ?qIsNaN@@YA_NN@Z
       5547 15AA 00033DC0 ?qLocalTime@@YA_N_JPEAUtm@@@Z
       5548 15AB 000302D0 ?qMallocAligned@@YAPEAX_K0@Z
       5549 15AC 0059AA70 ?qMetaTypeGuiHelper@@3PEBVQMetaTypeModuleHelper@@EB
       5550 15AD 000D3770 ?qMetaTypeTypeInternal@@YAHPEBD@Z
       5551 15AE 0059AA78 ?qMetaTypeWidgetsHelper@@3PEBVQMetaTypeModuleHelper@@EB
       5552 15AF 00033E40 ?qMkTime@@YA_JPEAUtm@@@Z
       5553 15B0 00030700 ?qQNaN@@YANXZ
       5554 15B1 00014180 ?qRandomCpu@@YA_JPEAX_J@Z
       5555 15B2 00030330 ?qReallocAligned@@YAPEAXPEAX_K11@Z
       5556 15B3 0010A760 ?qRegisterNormalizedMetaType_QCborTag@@YAHAEBVQByteArray@@@Z
       5557 15B4 000A3E20 ?qRegisterNormalizedMetaType_QDeadlineTimer@@YAHAEBVQByteArray@@@Z
       5558 15B5 00057670 ?qRegisterNormalizedMetaType_QFileInfo@@YAHAEBVQByteArray@@@Z
       5559 15B6 002C9590 ?qRegisterNormalizedMetaType_QItemSelection@@YAHAEBVQByteArray@@@Z
       5560 15B7 002C9610 ?qRegisterNormalizedMetaType_QItemSelectionRange@@YAHAEBVQByteArray@@@Z
       5561 15B8 0014DF40 ?qRegisterNormalizedMetaType_QList_Qt__DayOfWeek@@YAHAEBVQByteArray@@@Z
       5562 15B9 002B88C0 ?qRegisterNormalizedMetaType_QModelIndexList@@YAHAEBVQByteArray@@@Z
       5563 15BA 000D38E0 ?qRegisterNormalizedMetaType_QPairVariantInterfaceImpl@@YAHAEBVQByteArray@@@Z
       5564 15BB 000F36E0 ?qRegisterNormalizedMetaType_QSocketDescriptor@@YAHAEBVQByteArray@@@Z
       5565 15BC 000F3760 ?qRegisterNormalizedMetaType_QSocketNotifier_Type@@YAHAEBVQByteArray@@@Z
       5566 15BD 000794D0 ?qRegisterNormalizedMetaType_QStorageInfo@@YAHAEBVQByteArray@@@Z
       5567 15BE 0014DF50 ?qRegisterNormalizedMetaType_QSystemLocale__CurrencyToStringArgument@@YAHAEBVQByteArray@@@Z
       5568 15BF 001DDE20 ?qRegisterNormalizedMetaType_QTypeRevision@@YAHAEBVQByteArray@@@Z
       5569 15C0 001DF260 ?qRegisterNormalizedMetaType_QVersionNumber@@YAHAEBVQByteArray@@@Z
       5570 15C1 000260A0 ?qRegisterNormalizedMetaType_qfloat16@@YAHAEBVQByteArray@@@Z
       5571 15C2 00072A30 ?qRegisterResourceData@@YA_NHPEBE00@Z
       5572 15C3 001082E0 ?qRegisterStaticPluginFunction@@YAXUQStaticPlugin@@@Z
       5573 15C4 0009F420 ?qRemovePostRoutine@@YAXP6AXXZ@Z
       5574 15C5 00028FB0 ?qResourceFeatureZlib@@YAEXZ
       5575 15C6 00030710 ?qSNaN@@YANXZ
       5576 15C7 000163E0 ?qSetGlobalQHashSeed@@YAXH@Z
       5577 15C8 0002E240 ?qSetMessagePattern@@YAXAEBVQString@@@Z
       5578 15C9 00028FD0 ?qSharedBuild@@YA_NXZ
       5579 15CA 000F4AA0 ?qSleep@QTest@@YAXH@Z
       5580 15CB 000F4AC0 ?qSleep@QTest@@YAXV?$duration@_JU?$ratio@$00$0DOI@@std@@@chrono@std@@@Z
       5581 15CC 00025810 ?qTerminate@@YAXXZ
       5582 15CD 00033EC0 ?qTzName@@YA?AVQString@@H@Z
       5583 15CE 00034050 ?qTzSet@@YAXXZ
       5584 15CF 00138EC0 ?qUncompress@@YA?AVQByteArray@@PEBE_J@Z
       5585 15D0 00072F30 ?qUnregisterResourceData@@YA_NHPEBE00@Z
       5586 15D1 000F4AE0 ?qWait@QTest@@YAXH@Z
       5587 15D2 000F4AF0 ?qWait@QTest@@YAXV?$duration@_JU?$ratio@$00$0DOI@@std@@@chrono@std@@@Z
       5588 15D3 000035D0 ?q_func@QAbstractAnimationPrivate@@AEAAPEAVQAbstractAnimation@@XZ
       5589 15D4 000035D0 ?q_func@QAbstractAnimationPrivate@@AEBAPEBVQAbstractAnimation@@XZ
       5590 15D5 000035D0 ?q_func@QAbstractEventDispatcherPrivate@@AEAAPEAVQAbstractEventDispatcher@@XZ
       5591 15D6 000035D0 ?q_func@QAbstractEventDispatcherPrivate@@AEBAPEBVQAbstractEventDispatcher@@XZ
       5592 15D7 000035D0 ?q_func@QAbstractItemModelPrivate@@AEAAPEAVQAbstractItemModel@@XZ
       5593 15D8 000035D0 ?q_func@QAbstractItemModelPrivate@@AEBAPEBVQAbstractItemModel@@XZ
       5594 15D9 000035D0 ?q_func@QAbstractProxyModelPrivate@@AEAAPEAVQAbstractProxyModel@@XZ
       5595 15DA 000035D0 ?q_func@QAbstractProxyModelPrivate@@AEBAPEBVQAbstractProxyModel@@XZ
       5596 15DB 000035D0 ?q_func@QCoreApplicationPrivate@@AEAAPEAVQCoreApplication@@XZ
       5597 15DC 000035D0 ?q_func@QCoreApplicationPrivate@@AEBAPEBVQCoreApplication@@XZ
       5598 15DD 000035D0 ?q_func@QEventDispatcherWin32Private@@AEAAPEAVQEventDispatcherWin32@@XZ
       5599 15DE 000035D0 ?q_func@QEventDispatcherWin32Private@@AEBAPEBVQEventDispatcherWin32@@XZ
       5600 15DF 000035D0 ?q_func@QFileSelectorPrivate@@AEAAPEAVQFileSelector@@XZ
       5601 15E0 000035D0 ?q_func@QFileSelectorPrivate@@AEBAPEBVQFileSelector@@XZ
       5602 15E1 000035D0 ?q_func@QIODevicePrivate@@AEAAPEAVQIODevice@@XZ
       5603 15E2 000035D0 ?q_func@QIODevicePrivate@@AEBAPEBVQIODevice@@XZ
       5604 15E3 000035D0 ?q_func@QIdentityProxyModelPrivate@@AEAAPEAVQIdentityProxyModel@@XZ
       5605 15E4 000035D0 ?q_func@QIdentityProxyModelPrivate@@AEBAPEBVQIdentityProxyModel@@XZ
       5606 15E5 000035D0 ?q_func@QObjectPrivate@@QEAAPEAVQObject@@XZ
       5607 15E6 000035D0 ?q_func@QObjectPrivate@@QEBAPEBVQObject@@XZ
       5608 15E7 000035D0 ?q_func@QThreadPoolPrivate@@AEAAPEAVQThreadPool@@XZ
       5609 15E8 000035D0 ?q_func@QThreadPoolPrivate@@AEBAPEBVQThreadPool@@XZ
       5610 15E9 000FDCC0 ?qdebugHelper@QVariant@@AEBA?AVQDebug@@V2@@Z
       5611 15EA 00158810 ?qdtoa@@YA?AVQString@@NPEAH0@Z
       5612 15EB 000340B0 ?qgetenv@@YA?AVQByteArray@@PEBD@Z
       5613 15EC 00158980 ?qint128toBasicLatin@@YA?AVQString@@U_Signed128@std@@H@Z
       5614 15ED 00139050 ?qmemrchr@@YAPEBXPEBXH_K@Z
       5615 15EE 0002E2F0 ?qmljsDebugArgumentsString@QCoreApplicationPrivate@@QEBA?AVQString@@XZ
       5616 15EF 00021710 ?qputenv@@YA_NPEBDAEBVQByteArray@@@Z
       5617 15F0 000341B0 ?qputenv@@YA_NPEBDVQByteArrayView@@@Z
       5618 15F1 00183710 ?qsnprintf@@YAHPEAD_KPEBDZZ
       5619 15F2 00139070 ?qstrcmp@@YAHPEBD0@Z
       5620 15F3 00139090 ?qstrcpy@@YAPEADPEADPEBD@Z
       5621 15F4 001390E0 ?qstrdup@@YAPEADPEBD@Z
       5622 15F5 00139140 ?qstricmp@@YAHPEBD0@Z
       5623 15F6 001391A0 ?qstrncpy@@YAPEADPEADPEBD_K@Z
       5624 15F7 001391E0 ?qstrnicmp@@YAHPEBD0_K@Z
       5625 15F8 00139280 ?qstrnicmp@@YAHPEBD_J01@Z
       5626 15F9 00158AE0 ?qstrntod@@YANPEBD_JPEAPEBDPEA_N@Z
       5627 15FA 0022C4E0 ?qtGuiInstance@QThreadPoolPrivate@@SAPEAVQThreadPool@@XZ
       5628 15FB 0058CCA0 ?qtHookData@@3PA_KA
       5629 15FC 0009F530 ?qtTrId@@YA?AVQString@@PEBDH@Z
       5630 15FD 000884A0 ?qt_ACE_do@@YA?AVQString@@AEBV1@W4AceOperation@@W4AceLeadingDot@@V?$QFlags@W4AceProcessingOption@QUrl@@@@@Z
       5631 15FE 0003C5F0 ?qt_QMetaEnum_debugOperator@@YA?AVQDebug@@AEAV1@_JPEBUQMetaObject@@PEBD@Z
       5632 15FF 0003C9E0 ?qt_QMetaEnum_flagDebugOperator@@YA?AVQDebug@@AEAV1@_KPEBUQMetaObject@@PEBD@Z
       5633 1600 00021740 ?qt_QMetaEnum_flagDebugOperator@@YAXAEAVQDebug@@_KH@Z
       5634 1601 0003CE00 ?qt_QMetaEnum_flagDebugOperator@@YAXAEAVQDebug@@_KI@Z
       5635 1602 00025500 ?qt_assert@@YAXPEBD0H@Z
       5636 1603 00025550 ?qt_assert_x@@YAXPEBD00H@Z
       5637 1604 0009F560 ?qt_call_post_routines@@YAXXZ
       5638 1605 00117EA0 ?qt_cbor_simpletype_id@@YAPEBDW4QCborSimpleType@@@Z
       5639 1606 00117EE0 ?qt_cbor_tag_id@@YAPEBDW4QCborTag@@@Z
       5640 1607 000255A0 ?qt_check_pointer@@YAXPEBDH@Z
       5641 1608 000F3F00 ?qt_error_string@@YA?AVQString@@H@Z
       5642 1609 0016F260 ?qt_from_latin1@@YAXPEA_SPEBD_K@Z
       5643 160A 00016440 ?qt_hash@@YAIVQStringView@@I@Z
       5644 160B 00026A70 ?qt_int_sqrt@@YAII@Z
       5645 160C 0005BD40 ?qt_isCaseSensitive@@YA_NAEBVQFileSystemEntry@@AEAVQFileSystemMetaData@@@Z
       5646 160D 00252050 ?qt_localeFromLCID@@YA?AVQLocale@@K@Z
       5647 160E 0002E3B0 ?qt_message_output@@YAXW4QtMsgType@@AEBVQMessageLogContext@@AEBVQString@@@Z
       5648 160F 001FBE20 ?qt_metacall@QAbstractAnimation@@UEAAHW4Call@QMetaObject@@HPEAPEAX@Z
       5649 1610 000356F0 ?qt_metacall@QAbstractAnimationTimer@@UEAAHW4Call@QMetaObject@@HPEAPEAX@Z
       5650 1611 00093A80 ?qt_metacall@QAbstractEventDispatcher@@UEAAHW4Call@QMetaObject@@HPEAPEAX@Z
       5651 1612 00093B10 ?qt_metacall@QAbstractEventDispatcherV2@@UEAAHW4Call@QMetaObject@@HPEAPEAX@Z
       5652 1613 002B88D0 ?qt_metacall@QAbstractItemModel@@UEAAHW4Call@QMetaObject@@HPEAPEAX@Z
       5653 1614 002B8940 ?qt_metacall@QAbstractListModel@@UEAAHW4Call@QMetaObject@@HPEAPEAX@Z
       5654 1615 002D1290 ?qt_metacall@QAbstractProxyModel@@UEAAHW4Call@QMetaObject@@HPEAPEAX@Z
       5655 1616 002B8940 ?qt_metacall@QAbstractTableModel@@UEAAHW4Call@QMetaObject@@HPEAPEAX@Z
       5656 1617 001FBEC0 ?qt_metacall@QAnimationDriver@@UEAAHW4Call@QMetaObject@@HPEAPEAX@Z
       5657 1618 001FF520 ?qt_metacall@QAnimationGroup@@UEAAHW4Call@QMetaObject@@HPEAPEAX@Z
       5658 1619 0003A990 ?qt_metacall@QBuffer@@UEAAHW4Call@QMetaObject@@HPEAPEAX@Z
       5659 161A 00098890 ?qt_metacall@QChronoTimer@@UEAAHW4Call@QMetaObject@@HPEAPEAX@Z
       5660 161B 002D4E00 ?qt_metacall@QConcatenateTablesProxyModel@@UEAAHW4Call@QMetaObject@@HPEAPEAX@Z
       5661 161C 0009F700 ?qt_metacall@QCoreApplication@@UEAAHW4Call@QMetaObject@@HPEAPEAX@Z
       5662 161D 002229A0 ?qt_metacall@QEventDispatcherWin32@@UEAAHW4Call@QMetaObject@@HPEAPEAX@Z
       5663 161E 000A5450 ?qt_metacall@QEventLoop@@UEAAHW4Call@QMetaObject@@HPEAPEAX@Z
       5664 161F 000356F0 ?qt_metacall@QFactoryLoader@@UEAAHW4Call@QMetaObject@@HPEAPEAX@Z
       5665 1620 000522F0 ?qt_metacall@QFile@@UEAAHW4Call@QMetaObject@@HPEAPEAX@Z
       5666 1621 00053ED0 ?qt_metacall@QFileDevice@@UEAAHW4Call@QMetaObject@@HPEAPEAX@Z
       5667 1622 000356F0 ?qt_metacall@QFileSelector@@UEAAHW4Call@QMetaObject@@HPEAPEAX@Z
       5668 1623 002730F0 ?qt_metacall@QFileSystemWatcher@@UEAAHW4Call@QMetaObject@@HPEAPEAX@Z
       5669 1624 00234CC0 ?qt_metacall@QFutureWatcherBase@@UEAAHW4Call@QMetaObject@@HPEAPEAX@Z
       5670 1625 000635F0 ?qt_metacall@QIODevice@@UEAAHW4Call@QMetaObject@@HPEAPEAX@Z
       5671 1626 002D84B0 ?qt_metacall@QIdentityProxyModel@@UEAAHW4Call@QMetaObject@@HPEAPEAX@Z
       5672 1627 002C9770 ?qt_metacall@QItemSelectionModel@@UEAAHW4Call@QMetaObject@@HPEAPEAX@Z
       5673 1628 002FE3C0 ?qt_metacall@QLibrary@@UEAAHW4Call@QMetaObject@@HPEAPEAX@Z
       5674 1629 000356F0 ?qt_metacall@QMimeData@@UEAAHW4Call@QMetaObject@@HPEAPEAX@Z
       5675 162A 0006EC10 ?qt_metacall@QNonContiguousByteDevice@@UEAAHW4Call@QMetaObject@@HPEAPEAX@Z
       5676 162B 000E75D0 ?qt_metacall@QObject@@UEAAHW4Call@QMetaObject@@HPEAPEAX@Z
       5677 162C 000EA310 ?qt_metacall@QObjectCleanupHandler@@UEAAHW4Call@QMetaObject@@HPEAPEAX@Z
       5678 162D 00200180 ?qt_metacall@QParallelAnimationGroup@@UEAAHW4Call@QMetaObject@@HPEAPEAX@Z
       5679 162E 002016A0 ?qt_metacall@QPauseAnimation@@UEAAHW4Call@QMetaObject@@HPEAPEAX@Z
       5680 162F 00108690 ?qt_metacall@QPluginLoader@@UEAAHW4Call@QMetaObject@@HPEAPEAX@Z
       5681 1630 00283F90 ?qt_metacall@QProcess@@UEAAHW4Call@QMetaObject@@HPEAPEAX@Z
       5682 1631 00203600 ?qt_metacall@QPropertyAnimation@@UEAAHW4Call@QMetaObject@@HPEAPEAX@Z
       5683 1632 000522F0 ?qt_metacall@QSaveFile@@UEAAHW4Call@QMetaObject@@HPEAPEAX@Z
       5684 1633 00206860 ?qt_metacall@QSequentialAnimationGroup@@UEAAHW4Call@QMetaObject@@HPEAPEAX@Z
       5685 1634 000356F0 ?qt_metacall@QSettings@@UEAAHW4Call@QMetaObject@@HPEAPEAX@Z
       5686 1635 000356F0 ?qt_metacall@QSharedMemory@@UEAAHW4Call@QMetaObject@@HPEAPEAX@Z
       5687 1636 000F1C30 ?qt_metacall@QSignalMapper@@UEAAHW4Call@QMetaObject@@HPEAPEAX@Z
       5688 1637 000F37E0 ?qt_metacall@QSocketNotifier@@UEAAHW4Call@QMetaObject@@HPEAPEAX@Z
       5689 1638 002EE970 ?qt_metacall@QSortFilterProxyModel@@UEAAHW4Call@QMetaObject@@HPEAPEAX@Z
       5690 1639 002FAB90 ?qt_metacall@QStringListModel@@UEAAHW4Call@QMetaObject@@HPEAPEAX@Z
       5691 163A 0007BAA0 ?qt_metacall@QTemporaryFile@@UEAAHW4Call@QMetaObject@@HPEAPEAX@Z
       5692 163B 00185610 ?qt_metacall@QThread@@UEAAHW4Call@QMetaObject@@HPEAPEAX@Z
       5693 163C 0022C770 ?qt_metacall@QThreadPool@@UEAAHW4Call@QMetaObject@@HPEAPEAX@Z
       5694 163D 0024E240 ?qt_metacall@QTimeLine@@UEAAHW4Call@QMetaObject@@HPEAPEAX@Z
       5695 163E 000F58B0 ?qt_metacall@QTimer@@UEAAHW4Call@QMetaObject@@HPEAPEAX@Z
       5696 163F 000356F0 ?qt_metacall@QTranslator@@UEAAHW4Call@QMetaObject@@HPEAPEAX@Z
       5697 1640 002D84B0 ?qt_metacall@QTransposeProxyModel@@UEAAHW4Call@QMetaObject@@HPEAPEAX@Z
       5698 1641 001FC0E0 ?qt_metacall@QUnifiedTimer@@UEAAHW4Call@QMetaObject@@HPEAPEAX@Z
       5699 1642 0020A870 ?qt_metacall@QVariantAnimation@@UEAAHW4Call@QMetaObject@@HPEAPEAX@Z
       5700 1643 002266A0 ?qt_metacall@QWinEventNotifier@@UEAAHW4Call@QMetaObject@@HPEAPEAX@Z
       5701 1644 0021A750 ?qt_metacall@QWindowsPipeReader@@UEAAHW4Call@QMetaObject@@HPEAPEAX@Z
       5702 1645 0021BD90 ?qt_metacall@QWindowsPipeWriter@@UEAAHW4Call@QMetaObject@@HPEAPEAX@Z
       5703 1646 001FC160 ?qt_metacast@QAbstractAnimation@@UEAAPEAXPEBD@Z
       5704 1647 001FC1C0 ?qt_metacast@QAbstractAnimationTimer@@UEAAPEAXPEBD@Z
       5705 1648 00093BA0 ?qt_metacast@QAbstractEventDispatcher@@UEAAPEAXPEBD@Z
       5706 1649 00093C00 ?qt_metacast@QAbstractEventDispatcherV2@@UEAAPEAXPEBD@Z
       5707 164A 002B89B0 ?qt_metacast@QAbstractItemModel@@UEAAPEAXPEBD@Z
       5708 164B 002B8A10 ?qt_metacast@QAbstractListModel@@UEAAPEAXPEBD@Z
       5709 164C 002D1330 ?qt_metacast@QAbstractProxyModel@@UEAAPEAXPEBD@Z
       5710 164D 002B8A80 ?qt_metacast@QAbstractTableModel@@UEAAPEAXPEBD@Z
       5711 164E 001FC220 ?qt_metacast@QAnimationDriver@@UEAAPEAXPEBD@Z
       5712 164F 001FF530 ?qt_metacast@QAnimationGroup@@UEAAPEAXPEBD@Z
       5713 1650 0003AA20 ?qt_metacast@QBuffer@@UEAAPEAXPEBD@Z
       5714 1651 00098930 ?qt_metacast@QChronoTimer@@UEAAPEAXPEBD@Z
       5715 1652 002D4EB0 ?qt_metacast@QConcatenateTablesProxyModel@@UEAAPEAXPEBD@Z
       5716 1653 0009F7A0 ?qt_metacast@QCoreApplication@@UEAAPEAXPEBD@Z
       5717 1654 002229B0 ?qt_metacast@QEventDispatcherWin32@@UEAAPEAXPEBD@Z
       5718 1655 000A5530 ?qt_metacast@QEventLoop@@UEAAPEAXPEBD@Z
       5719 1656 00104C40 ?qt_metacast@QFactoryLoader@@UEAAPEAXPEBD@Z
       5720 1657 00052300 ?qt_metacast@QFile@@UEAAPEAXPEBD@Z
       5721 1658 00053EE0 ?qt_metacast@QFileDevice@@UEAAPEAXPEBD@Z
       5722 1659 000595B0 ?qt_metacast@QFileSelector@@UEAAPEAXPEBD@Z
       5723 165A 00273220 ?qt_metacast@QFileSystemWatcher@@UEAAPEAXPEBD@Z
       5724 165B 00234D30 ?qt_metacast@QFutureWatcherBase@@UEAAPEAXPEBD@Z
       5725 165C 00063660 ?qt_metacast@QIODevice@@UEAAPEAXPEBD@Z
       5726 165D 002D84C0 ?qt_metacast@QIdentityProxyModel@@UEAAPEAXPEBD@Z
       5727 165E 002C9810 ?qt_metacast@QItemSelectionModel@@UEAAPEAXPEBD@Z
       5728 165F 002FE420 ?qt_metacast@QLibrary@@UEAAPEAXPEBD@Z
       5729 1660 000D8050 ?qt_metacast@QMimeData@@UEAAPEAXPEBD@Z
       5730 1661 0006ED50 ?qt_metacast@QNonContiguousByteDevice@@UEAAPEAXPEBD@Z
       5731 1662 000E7640 ?qt_metacast@QObject@@UEAAPEAXPEBD@Z
       5732 1663 000EA380 ?qt_metacast@QObjectCleanupHandler@@UEAAPEAXPEBD@Z
       5733 1664 002001F0 ?qt_metacast@QParallelAnimationGroup@@UEAAPEAXPEBD@Z
       5734 1665 00201750 ?qt_metacast@QPauseAnimation@@UEAAPEAXPEBD@Z
       5735 1666 001087B0 ?qt_metacast@QPluginLoader@@UEAAPEAXPEBD@Z
       5736 1667 00284000 ?qt_metacast@QProcess@@UEAAPEAXPEBD@Z
       5737 1668 00203660 ?qt_metacast@QPropertyAnimation@@UEAAPEAXPEBD@Z
       5738 1669 00075EA0 ?qt_metacast@QSaveFile@@UEAAPEAXPEBD@Z
       5739 166A 00206900 ?qt_metacast@QSequentialAnimationGroup@@UEAAPEAXPEBD@Z
       5740 166B 002991C0 ?qt_metacast@QSettings@@UEAAPEAXPEBD@Z
       5741 166C 00035700 ?qt_metacast@QSharedMemory@@UEAAPEAXPEBD@Z
       5742 166D 000F1CA0 ?qt_metacast@QSignalMapper@@UEAAPEAXPEBD@Z
       5743 166E 000F3850 ?qt_metacast@QSocketNotifier@@UEAAPEAXPEBD@Z
       5744 166F 002EEA10 ?qt_metacast@QSortFilterProxyModel@@UEAAPEAXPEBD@Z
       5745 1670 002FABA0 ?qt_metacast@QStringListModel@@UEAAPEAXPEBD@Z
       5746 1671 0007BAB0 ?qt_metacast@QTemporaryFile@@UEAAPEAXPEBD@Z
       5747 1672 00185680 ?qt_metacast@QThread@@UEAAPEAXPEBD@Z
       5748 1673 0022C7E0 ?qt_metacast@QThreadPool@@UEAAPEAXPEBD@Z
       5749 1674 0024E2E0 ?qt_metacast@QTimeLine@@UEAAPEAXPEBD@Z
       5750 1675 000F5950 ?qt_metacast@QTimer@@UEAAPEAXPEBD@Z
       5751 1676 000FA170 ?qt_metacast@QTranslator@@UEAAPEAXPEBD@Z
       5752 1677 002F74D0 ?qt_metacast@QTransposeProxyModel@@UEAAPEAXPEBD@Z
       5753 1678 001FC360 ?qt_metacast@QUnifiedTimer@@UEAAPEAXPEBD@Z
       5754 1679 0020A910 ?qt_metacast@QVariantAnimation@@UEAAPEAXPEBD@Z
       5755 167A 00226710 ?qt_metacast@QWinEventNotifier@@UEAAPEAXPEBD@Z
       5756 167B 0021A7C0 ?qt_metacast@QWindowsPipeReader@@UEAAPEAXPEBD@Z
       5757 167C 0021BE00 ?qt_metacast@QWindowsPipeWriter@@UEAAPEAXPEBD@Z
       5758 167D 0059B32C ?qt_ntfs_permission_lookup@@3HA
       5759 167E 00021750 ?qt_qFindChild_helper@@YAPEAVQObject@@PEBV1@AEBVQString@@AEBUQMetaObject@@V?$QFlags@W4FindChildOption@Qt@@@@@Z
       5760 167F 000E7680 ?qt_qFindChild_helper@@YAPEAVQObject@@PEBV1@VQAnyStringView@@AEBUQMetaObject@@V?$QFlags@W4FindChildOption@Qt@@@@@Z
       5761 1680 00021790 ?qt_qFindChildren_helper@@YAXPEBVQObject@@AEBUQMetaObject@@PEAV?$QList@PEAX@@V?$QFlags@W4FindChildOption@Qt@@@@@Z
       5762 1681 000E77D0 ?qt_qFindChildren_helper@@YAXPEBVQObject@@AEBVQRegularExpression@@AEBUQMetaObject@@PEAV?$QList@PEAX@@V?$QFlags@W4FindChildOption@Qt@@@@@Z
       5763 1682 000217C0 ?qt_qFindChildren_helper@@YAXPEBVQObject@@AEBVQString@@AEBUQMetaObject@@PEAV?$QList@PEAX@@V?$QFlags@W4FindChildOption@Qt@@@@@Z
       5764 1683 000E7930 ?qt_qFindChildren_helper@@YAXPEBVQObject@@VQAnyStringView@@AEBUQMetaObject@@PEAV?$QList@PEAX@@V?$QFlags@W4FindChildOption@Qt@@@@@Z
       5765 1684 000E7AA0 ?qt_register_signal_spy_callbacks@@YAXPEAUQSignalSpyCallbackSet@@@Z
       5766 1685 0059AAF8 ?qt_signal_spy_callback_set@@3V?$QBasicAtomicPointer@UQSignalSpyCallbackSet@@@@A
       5767 1686 003B6520 ?qt_sine_table@@3QBNB
       5768 1687 001F8B30 ?qt_static_metacall@QAbstractAnimation@@CAXPEAVQObject@@W4Call@QMetaObject@@HPEAPEAX@Z
       5769 1688 000058E0 ?qt_static_metacall@QAbstractAnimationTimer@@CAXPEAVQObject@@W4Call@QMetaObject@@HPEAPEAX@Z
       5770 1689 00092BD0 ?qt_static_metacall@QAbstractEventDispatcher@@CAXPEAVQObject@@W4Call@QMetaObject@@HPEAPEAX@Z
       5771 168A 000058E0 ?qt_static_metacall@QAbstractEventDispatcherV2@@CAXPEAVQObject@@W4Call@QMetaObject@@HPEAPEAX@Z
       5772 168B 002A6A20 ?qt_static_metacall@QAbstractItemModel@@CAXPEAVQObject@@W4Call@QMetaObject@@HPEAPEAX@Z
       5773 168C 000058E0 ?qt_static_metacall@QAbstractListModel@@CAXPEAVQObject@@W4Call@QMetaObject@@HPEAPEAX@Z
       5774 168D 002CE080 ?qt_static_metacall@QAbstractProxyModel@@CAXPEAVQObject@@W4Call@QMetaObject@@HPEAPEAX@Z
       5775 168E 000058E0 ?qt_static_metacall@QAbstractTableModel@@CAXPEAVQObject@@W4Call@QMetaObject@@HPEAPEAX@Z
       5776 168F 001F8F10 ?qt_static_metacall@QAnimationDriver@@CAXPEAVQObject@@W4Call@QMetaObject@@HPEAPEAX@Z
       5777 1690 000058E0 ?qt_static_metacall@QAnimationGroup@@CAXPEAVQObject@@W4Call@QMetaObject@@HPEAPEAX@Z
       5778 1691 0003A020 ?qt_static_metacall@QBuffer@@CAXPEAVQObject@@W4Call@QMetaObject@@HPEAPEAX@Z
       5779 1692 00096FA0 ?qt_static_metacall@QChronoTimer@@CAXPEAVQObject@@W4Call@QMetaObject@@HPEAPEAX@Z
       5780 1693 002D1EF0 ?qt_static_metacall@QConcatenateTablesProxyModel@@CAXPEAVQObject@@W4Call@QMetaObject@@HPEAPEAX@Z
       5781 1694 00098F70 ?qt_static_metacall@QCoreApplication@@CAXPEAVQObject@@W4Call@QMetaObject@@HPEAPEAX@Z
       5782 1695 000058E0 ?qt_static_metacall@QEventDispatcherWin32@@CAXPEAVQObject@@W4Call@QMetaObject@@HPEAPEAX@Z
       5783 1696 000A4AA0 ?qt_static_metacall@QEventLoop@@CAXPEAVQObject@@W4Call@QMetaObject@@HPEAPEAX@Z
       5784 1697 000058E0 ?qt_static_metacall@QFactoryLoader@@CAXPEAVQObject@@W4Call@QMetaObject@@HPEAPEAX@Z
       5785 1698 000058E0 ?qt_static_metacall@QFile@@CAXPEAVQObject@@W4Call@QMetaObject@@HPEAPEAX@Z
       5786 1699 000058E0 ?qt_static_metacall@QFileDevice@@CAXPEAVQObject@@W4Call@QMetaObject@@HPEAPEAX@Z
       5787 169A 000058E0 ?qt_static_metacall@QFileSelector@@CAXPEAVQObject@@W4Call@QMetaObject@@HPEAPEAX@Z
       5788 169B 00270A70 ?qt_static_metacall@QFileSystemWatcher@@CAXPEAVQObject@@W4Call@QMetaObject@@HPEAPEAX@Z
       5789 169C 00234140 ?qt_static_metacall@QFutureWatcherBase@@CAXPEAVQObject@@W4Call@QMetaObject@@HPEAPEAX@Z
       5790 169D 00060540 ?qt_static_metacall@QIODevice@@CAXPEAVQObject@@W4Call@QMetaObject@@HPEAPEAX@Z
       5791 169E 000058E0 ?qt_static_metacall@QIdentityProxyModel@@CAXPEAVQObject@@W4Call@QMetaObject@@HPEAPEAX@Z
       5792 169F 002BC9B0 ?qt_static_metacall@QItemSelectionModel@@CAXPEAVQObject@@W4Call@QMetaObject@@HPEAPEAX@Z
       5793 16A0 002FBCD0 ?qt_static_metacall@QLibrary@@CAXPEAVQObject@@W4Call@QMetaObject@@HPEAPEAX@Z
       5794 16A1 000058E0 ?qt_static_metacall@QMimeData@@CAXPEAVQObject@@W4Call@QMetaObject@@HPEAPEAX@Z
       5795 16A2 00313F70 ?qt_static_metacall@QMimeType@@CAXPEAVQObject@@W4Call@QMetaObject@@HPEAPEAX@Z
       5796 16A3 0006D740 ?qt_static_metacall@QNonContiguousByteDevice@@CAXPEAVQObject@@W4Call@QMetaObject@@HPEAPEAX@Z
       5797 16A4 000D9F20 ?qt_static_metacall@QObject@@CAXPEAV1@W4Call@QMetaObject@@HPEAPEAX@Z
       5798 16A5 000E9F70 ?qt_static_metacall@QObjectCleanupHandler@@CAXPEAVQObject@@W4Call@QMetaObject@@HPEAPEAX@Z
       5799 16A6 001FF800 ?qt_static_metacall@QParallelAnimationGroup@@CAXPEAVQObject@@W4Call@QMetaObject@@HPEAPEAX@Z
       5800 16A7 00200B70 ?qt_static_metacall@QPauseAnimation@@CAXPEAVQObject@@W4Call@QMetaObject@@HPEAPEAX@Z
       5801 16A8 00107100 ?qt_static_metacall@QPluginLoader@@CAXPEAVQObject@@W4Call@QMetaObject@@HPEAPEAX@Z
       5802 16A9 002802B0 ?qt_static_metacall@QProcess@@CAXPEAVQObject@@W4Call@QMetaObject@@HPEAPEAX@Z
       5803 16AA 00201AC0 ?qt_static_metacall@QPropertyAnimation@@CAXPEAVQObject@@W4Call@QMetaObject@@HPEAPEAX@Z
       5804 16AB 000058E0 ?qt_static_metacall@QSaveFile@@CAXPEAVQObject@@W4Call@QMetaObject@@HPEAPEAX@Z
       5805 16AC 00205370 ?qt_static_metacall@QSequentialAnimationGroup@@CAXPEAVQObject@@W4Call@QMetaObject@@HPEAPEAX@Z
       5806 16AD 000058E0 ?qt_static_metacall@QSettings@@CAXPEAVQObject@@W4Call@QMetaObject@@HPEAPEAX@Z
       5807 16AE 000058E0 ?qt_static_metacall@QSharedMemory@@CAXPEAVQObject@@W4Call@QMetaObject@@HPEAPEAX@Z
       5808 16AF 000EF9E0 ?qt_static_metacall@QSignalMapper@@CAXPEAVQObject@@W4Call@QMetaObject@@HPEAPEAX@Z
       5809 16B0 000F2E20 ?qt_static_metacall@QSocketNotifier@@CAXPEAVQObject@@W4Call@QMetaObject@@HPEAPEAX@Z
       5810 16B1 002DA4C0 ?qt_static_metacall@QSortFilterProxyModel@@CAXPEAVQObject@@W4Call@QMetaObject@@HPEAPEAX@Z
       5811 16B2 000058E0 ?qt_static_metacall@QStringListModel@@CAXPEAVQObject@@W4Call@QMetaObject@@HPEAPEAX@Z
       5812 16B3 000058E0 ?qt_static_metacall@QTemporaryFile@@CAXPEAVQObject@@W4Call@QMetaObject@@HPEAPEAX@Z
       5813 16B4 001838C0 ?qt_static_metacall@QThread@@CAXPEAVQObject@@W4Call@QMetaObject@@HPEAPEAX@Z
       5814 16B5 0022AE20 ?qt_static_metacall@QThreadPool@@CAXPEAVQObject@@W4Call@QMetaObject@@HPEAPEAX@Z
       5815 16B6 0024C020 ?qt_static_metacall@QTimeLine@@CAXPEAVQObject@@W4Call@QMetaObject@@HPEAPEAX@Z
       5816 16B7 000F4D30 ?qt_static_metacall@QTimer@@CAXPEAVQObject@@W4Call@QMetaObject@@HPEAPEAX@Z
       5817 16B8 000058E0 ?qt_static_metacall@QTranslator@@CAXPEAVQObject@@W4Call@QMetaObject@@HPEAPEAX@Z
       5818 16B9 000058E0 ?qt_static_metacall@QTransposeProxyModel@@CAXPEAVQObject@@W4Call@QMetaObject@@HPEAPEAX@Z
       5819 16BA 001F8810 ?qt_static_metacall@QUnifiedTimer@@CAXPEAVQObject@@W4Call@QMetaObject@@HPEAPEAX@Z
       5820 16BB 00207490 ?qt_static_metacall@QVariantAnimation@@CAXPEAVQObject@@W4Call@QMetaObject@@HPEAPEAX@Z
       5821 16BC 00225E60 ?qt_static_metacall@QWinEventNotifier@@CAXPEAVQObject@@W4Call@QMetaObject@@HPEAPEAX@Z
       5822 16BD 00219D50 ?qt_static_metacall@QWindowsPipeReader@@CAXPEAVQObject@@W4Call@QMetaObject@@HPEAPEAX@Z
       5823 16BE 0021B4F0 ?qt_static_metacall@QWindowsPipeWriter@@CAXPEAVQObject@@W4Call@QMetaObject@@HPEAPEAX@Z
       5824 16BF 000636F0 ?qt_subtract_from_timeout@@YAHHH@Z
       5825 16C0 00224BA0 ?qt_win_hasPackageIdentity@@YA_NXZ
       5826 16C1 000215B0 ?qualifiedName@QXmlStreamAttribute@@QEBA?AVQStringView@@XZ
       5827 16C2 001EDEB0 ?qualifiedName@QXmlStreamReader@@QEBA?AVQStringView@@XZ
       5828 16C3 002520F0 ?query@QSystemLocale@@UEBA?AVQVariant@@W4QueryType@1@$$QEAV2@@Z
       5829 16C4 00082670 ?query@QUrl@@QEBA?AVQString@@V?$QFlags@W4ComponentFormattingOption@QUrl@@@@@Z
       5830 16C5 0008B060 ?query@QUrlQuery@@QEBA?AVQString@@V?$QFlags@W4ComponentFormattingOption@QUrl@@@@@Z
       5831 16C6 0008B260 ?queryItemValue@QUrlQuery@@QEBA?AVQString@@AEBV2@V?$QFlags@W4ComponentFormattingOption@QUrl@@@@@Z
       5832 16C7 0008B340 ?queryItems@QUrlQuery@@QEBA?AV?$QList@U?$pair@VQString@@V1@@std@@@@V?$QFlags@W4ComponentFormattingOption@QUrl@@@@@Z
       5833 16C8 0008B930 ?queryPairDelimiter@QUrlQuery@@QEBA?AVQChar@@XZ
       5834 16C9 002319E0 ?queryState@QFutureInterfaceBase@@QEBA_NW4State@1@@Z
       5835 16CA 0008B950 ?queryValueDelimiter@QUrlQuery@@QEBA?AVQChar@@XZ
       5836 16CB 00159350 ?quint128toBasicLatin@@YA?AVQString@@U_Unsigned128@std@@H@Z
       5837 16CC 0009F800 ?quit@QCoreApplication@@SAXXZ
       5838 16CD 0009F830 ?quit@QCoreApplicationPrivate@@UEAAXXZ
       5839 16CE 000A5720 ?quit@QEventLoop@@QEAAXXZ
       5840 16CF 001856E0 ?quit@QThread@@QEAAXXZ
       5841 16D0 0009F8B0 ?quitAutomatically@QCoreApplicationPrivate@@QEAAXXZ
       5842 16D1 000342E0 ?qunsetenv@@YA_NPEBD@Z
       5843 16D2 00006490 ?quote@QDebug@@QEAAAEAV1@XZ
       5844 16D3 00016480 ?quoteString@QLocale@@QEBA?AVQString@@AEBV2@W4QuotationStyle@1@@Z
       5845 16D4 0014F7D0 ?quoteString@QLocale@@QEBA?AVQString@@VQStringView@@W4QuotationStyle@1@@Z
       5846 16D5 000064A0 ?quoteStrings@QDebug@@QEBA_NXZ
       5847 16D6 0016F8E0 ?qustrcasechr@QtPrivate@@YAPEB_SVQStringView@@_S@Z
       5848 16D7 0016F9C0 ?qustrchr@QtPrivate@@YAPEB_SVQStringView@@_S@Z
       5849 16D8 0016FAB0 ?qustrlen@QtPrivate@@YA_JPEB_S@Z
       5850 16D9 0016FB10 ?qustrnlen@QtPrivate@@YA_JPEB_S_J@Z
       5851 16DA 00183780 ?qvsnprintf@@YAHPEAD_KPEBD0@Z
       5852 16DB 0022F4F0 ?raise@QException@@UEBAXXZ
       5853 16DC 0022F530 ?raise@QUnhandledException@@UEBAXXZ
       5854 16DD 001EDF00 ?raiseError@QXmlStreamReader@@QEAAXAEBVQString@@@Z
       5855 16DE 00134420 ?rangeContains@QXmlUtils@@CA_NPEBVQXmlCharRange@@0VQChar@@@Z
       5856 16DF 000A4090 ?rawRemainingTimeNSecs@QDeadlineTimer@@AEBA_JXZ
       5857 16E0 000064B0 ?rbegin@QByteArray@@QEAA?AV?$reverse_iterator@PEAD@std@@XZ
       5858 16E1 000040E0 ?rbegin@QByteArray@@QEBA?AV?$reverse_iterator@PEBD@std@@XZ
       5859 16E2 000040F0 ?rbegin@QByteArrayView@@QEBA?AV?$reverse_iterator@PEBD@std@@XZ
       5860 16E3 00006500 ?rbegin@QString@@QEAA?AV?$reverse_iterator@PEAVQChar@@@std@@XZ
       5861 16E4 00004100 ?rbegin@QString@@QEBA?AV?$reverse_iterator@PEBVQChar@@@std@@XZ
       5862 16E5 00039F00 ?read@QAbstractFileEngine@@UEAA_JPEAD_J@Z
       5863 16E6 0005F310 ?read@QFSFileEngine@@UEAA_JPEAD_J@Z
       5864 16E7 00063710 ?read@QIODevice@@QEAA?AVQByteArray@@_J@Z
       5865 16E8 000639E0 ?read@QIODevice@@QEAA_JPEAD_J@Z
       5866 16E9 00063BB0 ?read@QIODevicePrivate@@QEAA_JPEAD_J_N@Z
       5867 16EA 000AF600 ?read@QMetaProperty@@QEBA?AVQVariant@@PEBVQObject@@@Z
       5868 16EB 001DA880 ?read@QRingBuffer@@QEAA?AVQByteArray@@XZ
       5869 16EC 001DAA20 ?read@QRingBuffer@@QEAA_JPEAD_J@Z
       5870 16ED 00132C00 ?read@QTextStream@@QEAA?AVQString@@_J@Z
       5871 16EE 0021A820 ?read@QWindowsPipeReader@@QEAA_JPEAD_J@Z
       5872 16EF 00064070 ?readAll@QIODevice@@QEAA?AVQByteArray@@XZ
       5873 16F0 00132E70 ?readAll@QTextStream@@QEAA?AVQString@@XZ
       5874 16F1 00021800 ?readAllByteArray@QCborStreamReader@@QEAA?AVQByteArray@@XZ
       5875 16F2 002849C0 ?readAllStandardError@QProcess@@QEAA?AVQByteArray@@XZ
       5876 16F3 00284AE0 ?readAllStandardOutput@QProcess@@QEAA?AVQByteArray@@XZ
       5877 16F4 00021870 ?readAllString@QCborStreamReader@@QEAA?AVQString@@XZ
       5878 16F5 000218E0 ?readAllUtf8String@QCborStreamReader@@QEAA?AVQByteArray@@XZ
       5879 16F6 00021950 ?readAndAppendToByteArray@QCborStreamReader@@QEAA_NAEAVQByteArray@@@Z
       5880 16F7 00021960 ?readAndAppendToString@QCborStreamReader@@QEAA_NAEAVQString@@@Z
       5881 16F8 00021970 ?readAndAppendToUtf8String@QCborStreamReader@@QEAA_NAEAVQByteArray@@@Z
       5882 16F9 00021980 ?readBlock@QDataStream@@AEAAHPEADH@Z
       5883 16FA 0011B010 ?readBlock@QDataStream@@AEAA_JPEAD_J@Z
       5884 16FB 00021990 ?readByteArray@QCborStreamReader@@QEAA?AU?$StringResult@VQByteArray@@@1@XZ
       5885 16FC 0011B080 ?readBytes@QDataStream@@QEAAAEAV1@AEAPEADAEAI@Z
       5886 16FD 0011B100 ?readBytes@QDataStream@@QEAAAEAV1@AEAPEADAEA_J@Z
       5887 16FE 00063150 ?readChannel@QProcess@@QEBA?AW4ProcessChannel@1@XZ
       5888 16FF 00064290 ?readChannelCount@QIODevice@@QEBAHXZ
       5889 1700 000642A0 ?readChannelFinished@QIODevice@@QEAAXXZ
       5890 1701 0021AA00 ?readCompleted@QWindowsPipeReader@@AEAA_NKK@Z
       5891 1702 0003AA80 ?readData@QBuffer@@MEAA_JPEAD_J@Z
       5892 1703 00053F40 ?readData@QFileDevice@@MEAA_JPEAD_J@Z
       5893 1704 00284B50 ?readData@QProcess@@MEAA_JPEAD_J@Z
       5894 1705 001EE0F0 ?readElementText@QXmlStreamReader@@QEAA?AVQString@@W4ReadElementTextBehaviour@1@@Z
       5895 1706 00039F10 ?readLine@QAbstractFileEngine@@UEAA_JPEAD_J@Z
       5896 1707 0005F550 ?readLine@QFSFileEngine@@UEAA_JPEAD_J@Z
       5897 1708 000642C0 ?readLine@QIODevice@@QEAA?AVQByteArray@@_J@Z
       5898 1709 00064520 ?readLine@QIODevice@@QEAA_JPEAD_J@Z
       5899 170A 000645A0 ?readLine@QIODevicePrivate@@QEAA_JPEAD_J@Z
       5900 170B 001DABE0 ?readLine@QRingBuffer@@QEAA_JPEAD_J@Z
       5901 170C 00132EF0 ?readLine@QTextStream@@QEAA?AVQString@@_J@Z
       5902 170D 0021AA60 ?readLine@QWindowsPipeReader@@QEAA_JPEAD_J@Z
       5903 170E 00054090 ?readLineData@QFileDevice@@MEAA_JPEAD_J@Z
       5904 170F 00064860 ?readLineData@QIODevice@@MEAA_JPEAD_J@Z
       5905 1710 00132F30 ?readLineInto@QTextStream@@QEAA_NPEAVQString@@_J@Z
       5906 1711 001EE300 ?readNext@QXmlStreamReader@@QEAA?AW4TokenType@1@XZ
       5907 1712 001EE5E0 ?readNextStartElement@QXmlStreamReader@@QEAA_NXZ
       5908 1713 000AF980 ?readOnGadget@QMetaProperty@@QEBA?AVQVariant@@PEBX@Z
       5909 1714 001DAC30 ?readPointerAtPosition@QRingBuffer@@QEBAPEBD_JAEA_J@Z
       5910 1715 0006F330 ?readProgress@QNonContiguousByteDevice@@QEAAX_J0@Z
       5911 1716 00006550 ?readQSizeType@QDataStream@@CA_JAEAV1@@Z
       5912 1717 000219B0 ?readRawData@QDataStream@@QEAAHPEADH@Z
       5913 1718 0011B270 ?readRawData@QDataStream@@QEAA_JPEAD_J@Z
       5914 1719 000219C0 ?readString@QCborStreamReader@@QEAA?AU?$StringResult@VQString@@@1@XZ
       5915 171A 00303D30 ?readStringChunk@QCborStreamReader@@QEAA?AU?$StringResult@_J@1@PEAD_J@Z
       5916 171B 000578D0 ?readSymLink@QFileInfo@@QEBA?AVQString@@XZ
       5917 171C 000219E0 ?readUtf8String@QCborStreamReader@@QEAA?AU?$StringResult@VQByteArray@@@1@XZ
       5918 171D 00021A00 ?readWriteLock@QReadLocker@@QEBAPEAVQReadWriteLock@@XZ
       5919 171E 00021A00 ?readWriteLock@QWriteLocker@@QEBAPEAVQReadWriteLock@@XZ
       5920 171F 00064A40 ?readyRead@QIODevice@@QEAAXXZ
       5921 1720 0006F390 ?readyRead@QNonContiguousByteDevice@@QEAAXXZ
       5922 1721 0021AC00 ?readyRead@QWindowsPipeReader@@QEAAXXZ
       5923 1722 00284B70 ?readyReadStandardError@QProcess@@QEAAXUQPrivateSignal@1@@Z
       5924 1723 00284BB0 ?readyReadStandardOutput@QProcess@@QEAAXUQPrivateSignal@1@@Z
       5925 1724 001331A0 ?realNumberNotation@QTextStream@@QEBA?AW4RealNumberNotation@1@XZ
       5926 1725 001331B0 ?realNumberPrecision@QTextStream@@QEBAHXZ
       5927 1726 001393F0 ?reallocData@QByteArray@@AEAAX_JW4AllocationOption@QArrayData@@@Z
       5928 1727 0016FB40 ?reallocData@QString@@AEAAX_JW4AllocationOption@QArrayData@@@Z
       5929 1728 00139570 ?reallocGrowData@QByteArray@@AEAAX_J@Z
       5930 1729 0016FCD0 ?reallocGrowData@QString@@AEAAX_J@Z
       5931 172A 0019D9D0 ?reallocateUnaligned@QArrayData@@SA?AU?$pair@PEAUQArrayData@@PEAX@std@@PEAU1@PEAX_J2W4AllocationOption@1@@Z
       5932 172B 000E8710 ?receiverList@QObjectPrivate@@QEBA?AV?$QList@PEAVQObject@@@@PEBD@Z
       5933 172C 0059AB10 ?receivers@QAbstractDeclarativeData@@2P6AHPEAV1@PEBVQObject@@H@ZEA
       5934 172D 000E8A40 ?receivers@QObject@@IEBAHPEBD@Z
       5935 172E 002EF340 ?recursiveFilteringEnabledChanged@QSortFilterProxyModel@@QEAAX_N@Z
       5936 172F 0009FDB0 ?ref@QCoreApplicationPrivate@@QEAAXXZ
       5937 1730 002319F0 ?refT@QFutureInterfaceBase@@IEBA_NXZ
       5938 1731 000473C0 ?refresh@QDir@@QEBAXXZ
       5939 1732 00057910 ?refresh@QFileInfo@@QEAAXXZ
       5940 1733 00079730 ?refresh@QStorageInfo@@QEAAXXZ
       5941 1734 00105120 ?refreshAll@QFactoryLoader@@SAXXZ
       5942 1735 00026FC0 ?registerCallback@QInternal@@SA_NW4Callback@1@P6A_NPEAPEAX@Z@Z
       5943 1736 000D3FB0 ?registerConverterFunction@QMetaType@@SA_NAEBV?$function@$$A6A_NPEBXPEAX@Z@std@@V1@1@Z
       5944 1737 00188C90 ?registerCustomBackend@QCalendarBackend@@QEAA?AVSystemId@QCalendar@@AEBV?$QList@VQString@@@@@Z
       5945 1738 000065A0 ?registerDependency@QBindingStorage@@QEBAXPEBVQUntypedPropertyData@@@Z
       5946 1739 000EE420 ?registerDependency_helper@QBindingStorage@@AEBAXPEBVQUntypedPropertyData@@@Z
       5947 173A 0006CAA0 ?registerEnvironmentOverrideForCategory@QLoggingRegistry@@QEAAXPEBD0@Z
       5948 173B 000A3850 ?registerEventType@QEvent@@SAHH@Z
       5949 173C 0029AA10 ?registerFormat@QSettings@@SA?AW4Format@1@AEBVQString@@P6A_NAEAVQIODevice@@AEAV?$QMap@VQString@@VQVariant@@@@@ZP6A_N1AEBV5@@ZW4CaseSensitivity@Qt@@@Z
       5950 173D 000049F0 ?registerHelper@QMetaType@@AEBAHXZ
       5951 173E 000D4540 ?registerHelper@QMetaType@@CAHPEBVQMetaTypeInterface@QtPrivate@@@Z
       5952 173F 0020B260 ?registerInterpolator@QVariantAnimation@@CAXP6A?AVQVariant@@PEBX0N@ZH@Z
       5953 1740 000D45E0 ?registerMutableViewFunction@QMetaType@@SA_NAEBV?$function@$$A6A_NPEAX0@Z@std@@V1@1@Z
       5954 1741 000D4940 ?registerNormalizedTypedef@QMetaType@@SAXAEBVQByteArray@@V1@@Z
       5955 1742 001FC900 ?registerProfilerCallback@QUnifiedTimer@@QEAAXP6AX_J@Z@Z
       5956 1743 000AF9A0 ?registerPropertyType@QMetaProperty@@AEBAHXZ
       5957 1744 00073590 ?registerResource@QResource@@SA_NAEBVQString@@0@Z
       5958 1745 000739E0 ?registerResource@QResource@@SA_NPEBEAEBVQString@@@Z
       5959 1746 00222CD0 ?registerSocketNotifier@QEventDispatcherWin32@@UEAAXPEAVQSocketNotifier@@@Z
       5960 1747 00094030 ?registerTimer@QAbstractEventDispatcher@@QEAA?AW4TimerId@Qt@@V?$duration@_JU?$ratio@$00$0DLJKMKAA@@std@@@chrono@std@@W4TimerType@3@PEAVQObject@@@Z
       5961 1748 000940F0 ?registerTimer@QAbstractEventDispatcher@@QEAAH_JW4TimerType@Qt@@PEAVQObject@@@Z
       5962 1749 000941B0 ?registerTimer@QAbstractEventDispatcher@@QEAAXW4TimerId@Qt@@V?$duration@_JU?$ratio@$00$0DLJKMKAA@@std@@@chrono@std@@W4TimerType@3@PEAVQObject@@@Z
       5963 174A 00094250 ?registerTimer@QAbstractEventDispatcherV2@@EEAAXH_JW4TimerType@Qt@@PEAVQObject@@@Z
       5964 174B 002233E0 ?registerTimer@QEventDispatcherWin32@@UEAAXH_JW4TimerType@Qt@@PEAVQObject@@@Z
       5965 174C 00223490 ?registerTimer@QEventDispatcherWin32Private@@QEAAXPEAUWinTimerInfo@@@Z
       5966 174D 000049F0 ?registerType@QMetaType@@QEBAXXZ
       5967 174E 00021A10 ?registerWithCurrentlyEvaluatingBinding@QPropertyBindingData@QtPrivate@@QEBAXPEAUBindingEvaluationState@2@@Z
       5968 174F 000EE560 ?registerWithCurrentlyEvaluatingBinding@QPropertyBindingData@QtPrivate@@QEBAXXZ
       5969 1750 000EE590 ?registerWithCurrentlyEvaluatingBinding_helper@QPropertyBindingData@QtPrivate@@AEBAXPEAUBindingEvaluationState@2@@Z
       5970 1751 00094280 ?registeredTimers@QAbstractEventDispatcherV2@@EEBA?AV?$QList@UTimerInfo@QAbstractEventDispatcher@@@@PEAVQObject@@@Z
       5971 1752 002236D0 ?registeredTimers@QEventDispatcherWin32@@UEBA?AV?$QList@UTimerInfo@QAbstractEventDispatcher@@@@PEAVQObject@@@Z
       5972 1753 0025A6F0 ?regularExpression@QRegularExpressionMatch@@QEBA?AVQRegularExpression@@XZ
       5973 1754 0025A710 ?regularExpression@QRegularExpressionMatchIterator@@QEBA?AVQRegularExpression@@XZ
       5974 1755 000EE7B0 ?reinitAfterThreadMove@QBindingStorage@@AEAAXXZ
       5975 1756 000E8C80 ?reinitBindingStorageAfterThreadMove@QObjectPrivate@@QEAAXXZ
       5976 1757 000BA600 ?relatedMetaObject@QMetaObjectBuilder@@QEBAPEBUQMetaObject@@H@Z
       5977 1758 000BA670 ?relatedMetaObjectCount@QMetaObjectBuilder@@QEBAHXZ
       5978 1759 00047890 ?relativeFilePath@QDir@@QEBA?AVQString@@AEBV2@@Z
       5979 175A 000AFA00 ?relativeMethodIndex@QMetaMethod@@QEBAHXZ
       5980 175B 000AFA40 ?relativePropertyIndex@QMetaProperty@@QEBAHXZ
       5981 175C 0022AC10 ?release@QSemaphore@@QEAAXH@Z
       5982 175D 00036720 ?release@QSystemSemaphore@@QEAA_NH@Z
       5983 175E 0022CC60 ?releaseThread@QThreadPool@@QEAAXXZ
       5984 175F 000947B0 ?releaseTimerId@QAbstractEventDispatcherPrivate@@SAXH@Z
       5985 1760 000948C0 ?releaseTimerId@QAbstractEventDispatcherPrivate@@SAXW4TimerId@Qt@@@Z
       5986 1761 0002AA80 ?reload@QLibraryInfoPrivate@@SAXXZ
       5987 1762 00021A20 ?relock@QReadLocker@@QEAAXXZ
       5988 1763 00021A70 ?relock@QWriteLocker@@QEAAXXZ
       5989 1764 000948D0 ?remainingTime@QAbstractEventDispatcher@@QEBA?AV?$duration@_JU?$ratio@$00$0DLJKMKAA@@std@@@chrono@std@@W4TimerId@Qt@@@Z
       5990 1765 00094940 ?remainingTime@QAbstractEventDispatcherV2@@EEAAHH@Z
       5991 1766 00098990 ?remainingTime@QChronoTimer@@QEBA?AV?$duration@_JU?$ratio@$00$0DLJKMKAA@@std@@@chrono@std@@XZ
       5992 1767 000A4190 ?remainingTime@QDeadlineTimer@@QEBA_JXZ
       5993 1768 002241A0 ?remainingTime@QEventDispatcherWin32@@UEAAHH@Z
       5994 1769 000F59B0 ?remainingTime@QTimer@@QEBAHXZ
       5995 176A 000065C0 ?remainingTimeAsDuration@QDeadlineTimer@@QEBA?AV?$duration@_JU?$ratio@$00$0DLJKMKAA@@std@@@chrono@std@@XZ
       5996 176B 00006610 ?remainingTimeAsDuration@QTimer@@QEBA?AV?$duration@_JU?$ratio@$00$0DOI@@std@@@chrono@std@@XZ
       5997 176C 000A4200 ?remainingTimeNSecs@QDeadlineTimer@@QEBA_JXZ
       5998 176D 00028FB0 ?remove@QAbstractFileEngine@@UEAA_NXZ
       5999 176E 001398F0 ?remove@QByteArray@@QEAAAEAV1@_J0@Z
       6000 176F 00021AC0 ?remove@QCborMap@@QEAAXAEBVQCborValue@@@Z
       6001 1770 00021B30 ?remove@QCborMap@@QEAAXAEBVQString@@@Z
       6002 1771 00021BA0 ?remove@QCborMap@@QEAAXVQLatin1String@@@Z
       6003 1772 00021C10 ?remove@QCborMap@@QEAAX_J@Z
       6004 1773 00047EC0 ?remove@QDir@@QEAA_NAEBVQString@@@Z
       6005 1774 0005F6F0 ?remove@QFSFileEngine@@UEAA_NXZ
       6006 1775 00052360 ?remove@QFile@@QEAA_NXZ
       6007 1776 000524A0 ?remove@QFile@@SA_NAEBVQString@@@Z
       6008 1777 00125210 ?remove@QJsonObject@@QEAAXAEBVQString@@@Z
       6009 1778 001252D0 ?remove@QJsonObject@@QEAAXVQLatin1String@@@Z
       6010 1779 00125390 ?remove@QJsonObject@@QEAAXVQStringView@@@Z
       6011 177A 000EA3E0 ?remove@QObjectCleanupHandler@@QEAAXPEAVQObject@@@Z
       6012 177B 00284DF0 ?remove@QProcessEnvironment@@QEAAXAEBVQString@@@Z
       6013 177C 00021C80 ?remove@QSettings@@QEAAXAEBVQString@@@Z
       6014 177D 0029C130 ?remove@QSettings@@QEAAXVQAnyStringView@@@Z
       6015 177E 0016FF20 ?remove@QString@@QEAAAEAV1@AEBV1@W4CaseSensitivity@Qt@@@Z
       6016 177F 00006630 ?remove@QString@@QEAAAEAV1@AEBVQRegularExpression@@@Z
       6017 1780 00170000 ?remove@QString@@QEAAAEAV1@VQChar@@W4CaseSensitivity@Qt@@@Z
       6018 1781 001702F0 ?remove@QString@@QEAAAEAV1@VQLatin1String@@W4CaseSensitivity@Qt@@@Z
       6019 1782 00170310 ?remove@QString@@QEAAAEAV1@_J0@Z
       6020 1783 0007A250 ?remove@QTemporaryDir@@QEAA_NXZ
       6021 1784 0008BFE0 ?removeAllQueryItems@QUrlQuery@@QEAAXAEBVQString@@@Z
       6022 1785 001FF590 ?removeAnimation@QAnimationGroup@@QEAAXPEAVQAbstractAnimation@@@Z
       6023 1786 00006690 ?removeAt@QByteArray@@QEAAAEAV1@_J@Z
       6024 1787 00118530 ?removeAt@QCborArray@@QEAAX_J@Z
       6025 1788 0011C790 ?removeAt@QJsonArray@@QEAAX_J@Z
       6026 1789 00125450 ?removeAt@QJsonObject@@AEAAX_J@Z
       6027 178A 000066B0 ?removeAt@QString@@QEAAAEAV1@_J@Z
       6028 178B 00021CC0 ?removeBinding@QPropertyBindingData@QtPrivate@@QEAAXXZ
       6029 178C 000EE7D0 ?removeBinding_helper@QPropertyBindingData@QtPrivate@@AEAAXXZ
       6030 178D 000BA770 ?removeClassInfo@QMetaObjectBuilder@@QEAAXH@Z
       6031 178E 00021CD0 ?removeColumn@QAbstractItemModel@@QEAA_NHAEBVQModelIndex@@@Z
       6032 178F 00028FB0 ?removeColumns@QAbstractItemModel@@UEAA_NHHAEBVQModelIndex@@@Z
       6033 1790 002D8650 ?removeColumns@QIdentityProxyModel@@UEAA_NHHAEBVQModelIndex@@@Z
       6034 1791 002EFD40 ?removeColumns@QSortFilterProxyModel@@UEAA_NHHAEBVQModelIndex@@@Z
       6035 1792 002F7530 ?removeColumns@QTransposeProxyModel@@UEAA_NHHAEBVQModelIndex@@@Z
       6036 1793 000E8E20 ?removeConnection@QObjectPrivate@@SA_NPEAUConnection@1@@Z
       6037 1794 000BA7C0 ?removeConstructor@QMetaObjectBuilder@@QEAAXH@Z
       6038 1795 000BA830 ?removeEnumerator@QMetaObjectBuilder@@QEAAXH@Z
       6039 1796 000E9020 ?removeEventFilter@QObject@@QEAAXPEAV1@@Z
       6040 1797 000066D0 ?removeFirst@QByteArray@@QEAAAEAV1@XZ
       6041 1798 000214E0 ?removeFirst@QCborArray@@QEAAXXZ
       6042 1799 000214F0 ?removeFirst@QJsonArray@@QEAAXXZ
       6043 179A 000066F0 ?removeFirst@QString@@QEAAAEAV1@XZ
       6044 179B 000D80B0 ?removeFormat@QMimeData@@QEAAXAEBVQString@@@Z
       6045 179C 000967D0 ?removeKey@QAssociativeIterable@@QEAAXAEBVQVariant@@@Z
       6046 179D 00006710 ?removeKey@QMetaAssociation@@QEBAXPEAXPEBX@Z
       6047 179E 000BA8B0 ?removeKey@QMetaEnumBuilder@@QEAAXH@Z
       6048 179F 00006740 ?removeLast@QByteArray@@QEAAAEAV1@XZ
       6049 17A0 000214A0 ?removeLast@QCborArray@@QEAAXXZ
       6050 17A1 000214C0 ?removeLast@QJsonArray@@QEAAXXZ
       6051 17A2 00006760 ?removeLast@QString@@QEAAAEAV1@XZ
       6052 17A3 0009FDC0 ?removeLibraryPath@QCoreApplication@@SAXAEBVQString@@@Z
       6053 17A4 000F2070 ?removeMappings@QSignalMapper@@QEAAXPEAVQObject@@@Z
       6054 17A5 000BA9D0 ?removeMethod@QMetaObjectBuilder@@QEAAXH@Z
       6055 17A6 000949C0 ?removeNativeEventFilter@QAbstractEventDispatcher@@QEAAXPEAVQAbstractNativeEventFilter@@@Z
       6056 17A7 000A0150 ?removeNativeEventFilter@QCoreApplication@@QEAAXPEAVQAbstractNativeEventFilter@@@Z
       6057 17A8 000BAA80 ?removeNotifySignal@QMetaPropertyBuilder@@QEAAXXZ
       6058 17A9 002736B0 ?removePath@QFileSystemWatcher@@QEAA_NAEBVQString@@@Z
       6059 17AA 00273810 ?removePaths@QFileSystemWatcher@@QEAA?AV?$QList@VQString@@@@AEBV2@@Z
       6060 17AB 002B9DE0 ?removePersistentIndexData@QAbstractItemModelPrivate@@QEAAXPEAVQPersistentModelIndexData@@@Z
       6061 17AC 000A0190 ?removePostedEvent@QCoreApplicationPrivate@@SAXPEAVQEvent@@@Z
       6062 17AD 000A0270 ?removePostedEvents@QCoreApplication@@SAXPEAVQObject@@H@Z
       6063 17AE 0021EC90 ?removePostedTimerEvent@QCoreApplicationPrivate@@SAXPEAVQObject@@H@Z
       6064 17AF 000BAAE0 ?removeProperty@QMetaObjectBuilder@@QEAAXH@Z
       6065 17B0 0008C120 ?removeQueryItem@QUrlQuery@@QEAAXAEBVQString@@@Z
       6066 17B1 00047F50 ?removeRecursively@QDir@@QEAA_NXZ
       6067 17B2 000BAC30 ?removeRelatedMetaObject@QMetaObjectBuilder@@QEAAXH@Z
       6068 17B3 00021D00 ?removeRow@QAbstractItemModel@@QEAA_NHAEBVQModelIndex@@@Z
       6069 17B4 00028FB0 ?removeRows@QAbstractItemModel@@UEAA_NHHAEBVQModelIndex@@@Z
       6070 17B5 002D8710 ?removeRows@QIdentityProxyModel@@UEAA_NHHAEBVQModelIndex@@@Z
       6071 17B6 002F0020 ?removeRows@QSortFilterProxyModel@@UEAA_NHHAEBVQModelIndex@@@Z
       6072 17B7 002FAEC0 ?removeRows@QStringListModel@@UEAA_NHHAEBVQModelIndex@@@Z
       6073 17B8 002F7630 ?removeRows@QTransposeProxyModel@@UEAA_NHHAEBVQModelIndex@@@Z
       6074 17B9 002D5140 ?removeSourceModel@QConcatenateTablesProxyModel@@QEAAXPEAVQAbstractItemModel@@@Z
       6075 17BA 00067DD0 ?removeStaleLockFile@QLockFile@@QEAA_NXZ
       6076 17BB 000A0780 ?removeTranslator@QCoreApplication@@SA_NPEAVQTranslator@@@Z
       6077 17BC 000A5D60 ?removeValue@QMetaSequence@@QEBAXPEAX@Z
       6078 17BD 000EF720 ?removeValue@QSequentialIterable@@QEAAXW4Position@1@@Z
       6079 17BE 000A5D90 ?removeValueAtBegin@QMetaSequence@@QEBAXPEAX@Z
       6080 17BF 000A5DC0 ?removeValueAtEnd@QMetaSequence@@QEBAXPEAX@Z
       6081 17C0 00006780 ?removed@QChildEvent@@QEBA_NXZ
       6082 17C1 00028FB0 ?rename@QAbstractFileEngine@@UEAA_NAEBVQString@@@Z
       6083 17C2 00048340 ?rename@QDir@@QEAA_NAEBVQString@@0@Z
       6084 17C3 00039FB0 ?rename@QFSFileEngine@@UEAA_NAEBVQString@@@Z
       6085 17C4 00052550 ?rename@QFile@@QEAA_NAEBVQString@@@Z
       6086 17C5 00052E70 ?rename@QFile@@SA_NAEBVQString@@0@Z
       6087 17C6 0007BB70 ?rename@QTemporaryFile@@QEAA_NAEBVQString@@@Z
       6088 17C7 00028FB0 ?renameOverwrite@QAbstractFileEngine@@UEAA_NAEBVQString@@@Z
       6089 17C8 00039FC0 ?renameOverwrite@QFSFileEngine@@UEAA_NAEBVQString@@@Z
       6090 17C9 0005F790 ?rename_helper@QFSFileEngine@@AEAA_NAEBVQString@@W4RenameMode@1@@Z
       6091 17CA 00006790 ?rend@QByteArray@@QEAA?AV?$reverse_iterator@PEAD@std@@XZ
       6092 17CB 000041B0 ?rend@QByteArray@@QEBA?AV?$reverse_iterator@PEBD@std@@XZ
       6093 17CC 000041B0 ?rend@QByteArrayView@@QEBA?AV?$reverse_iterator@PEBD@std@@XZ
       6094 17CD 000067E0 ?rend@QString@@QEAA?AV?$reverse_iterator@PEAVQChar@@@std@@XZ
       6095 17CE 000041B0 ?rend@QString@@QEBA?AV?$reverse_iterator@PEBVQChar@@@std@@XZ
       6096 17CF 00304540 ?reparse@QCborStreamReader@@QEAAXXZ
       6097 17D0 00139AE0 ?repeated@QByteArray@@QEBA?AV1@_J@Z
       6098 17D1 001704E0 ?repeated@QString@@QEBA?AV1@_J@Z
       6099 17D2 00139D00 ?replace@QByteArray@@QEAAAEAV1@DD@Z
       6100 17D3 00006830 ?replace@QByteArray@@QEAAAEAV1@DVQByteArrayView@@@Z
       6101 17D4 00006870 ?replace@QByteArray@@QEAAAEAV1@PEBD_J01@Z
       6102 17D5 00139E80 ?replace@QByteArray@@QEAAAEAV1@VQByteArrayView@@0@Z
       6103 17D6 000068B0 ?replace@QByteArray@@QEAAAEAV1@_J0PEBD0@Z
       6104 17D7 0013A5C0 ?replace@QByteArray@@QEAAAEAV1@_J0VQByteArrayView@@@Z
       6105 17D8 0011C820 ?replace@QJsonArray@@QEAAX_JAEBVQJsonValue@@@Z
       6106 17D9 001706F0 ?replace@QString@@QEAAAEAV1@AEBV1@0W4CaseSensitivity@Qt@@@Z
       6107 17DA 00170740 ?replace@QString@@QEAAAEAV1@AEBV1@VQLatin1String@@W4CaseSensitivity@Qt@@@Z
       6108 17DB 00170810 ?replace@QString@@QEAAAEAV1@AEBVQRegularExpression@@AEBV1@@Z
       6109 17DC 00171560 ?replace@QString@@QEAAAEAV1@PEBVQChar@@_J01W4CaseSensitivity@Qt@@@Z
       6110 17DD 00171890 ?replace@QString@@QEAAAEAV1@VQChar@@0W4CaseSensitivity@Qt@@@Z
       6111 17DE 00171C30 ?replace@QString@@QEAAAEAV1@VQChar@@AEBV1@W4CaseSensitivity@Qt@@@Z
       6112 17DF 00172070 ?replace@QString@@QEAAAEAV1@VQChar@@VQLatin1String@@W4CaseSensitivity@Qt@@@Z
       6113 17E0 00172130 ?replace@QString@@QEAAAEAV1@VQLatin1String@@0W4CaseSensitivity@Qt@@@Z
       6114 17E1 00172230 ?replace@QString@@QEAAAEAV1@VQLatin1String@@AEBV1@W4CaseSensitivity@Qt@@@Z
       6115 17E2 00172300 ?replace@QString@@QEAAAEAV1@_J0AEBV1@@Z
       6116 17E3 00172370 ?replace@QString@@QEAAAEAV1@_J0PEBVQChar@@0@Z
       6117 17E4 001723D0 ?replace@QString@@QEAAAEAV1@_J0VQChar@@@Z
       6118 17E5 00231A10 ?reportCanceled@QFutureInterfaceBase@@QEAAXXZ
       6119 17E6 00231A20 ?reportException@QFutureInterfaceBase@@QEAAXAEBVQException@@@Z
       6120 17E7 00231A40 ?reportException@QFutureInterfaceBase@@QEAAXVexception_ptr@std@@@Z
       6121 17E8 00231C30 ?reportFinished@QFutureInterfaceBase@@QEAAXXZ
       6122 17E9 00231DD0 ?reportResultsReady@QFutureInterfaceBase@@QEAAXHH@Z
       6123 17EA 002320D0 ?reportStarted@QFutureInterfaceBase@@QEAAXXZ
       6124 17EB 00232250 ?reportSuspended@QFutureInterfaceBase@@QEBAXXZ
       6125 17EC 001857E0 ?requestInterruption@QThread@@QEAAXXZ
       6126 17ED 000A0A90 ?requestPermission@QCoreApplication@@AEAAXAEBVQPermission@@PEAVQSlotObjectBase@QtPrivate@@PEBVQObject@@@Z
       6127 17EE 000068E0 ?requiresSurrogates@QChar@@SA_N_U@Z
       6128 17EF 000068F0 ?reserve@QByteArray@@QEAAX_J@Z
       6129 17F0 001DAFC0 ?reserve@QRingBuffer@@QEAAPEAD_J@Z
       6130 17F1 00006970 ?reserve@QString@@QEAAX_J@Z
       6131 17F2 001DB200 ?reserveFront@QRingBuffer@@QEAAPEAD_J@Z
       6132 17F3 0022CCF0 ?reserveThread@QThreadPool@@QEAAXXZ
       6133 17F4 00304610 ?reset@QCborStreamReader@@QEAAXXZ
       6134 17F5 001D4510 ?reset@QCryptographicHash@@QEAAXXZ
       6135 17F6 002323E0 ?reset@QFutureInterfaceBase@@IEAAXXZ
       6136 17F7 00064BD0 ?reset@QIODevice@@UEAA_NXZ
       6137 17F8 002CA680 ?reset@QItemSelectionModel@@UEAAXXZ
       6138 17F9 001D4530 ?reset@QMessageAuthenticationCode@@QEAAXXZ
       6139 17FA 000AFA80 ?reset@QMetaProperty@@QEBA_NPEAVQObject@@@Z
       6140 17FB 001331E0 ?reset@QTextStream@@QEAAXXZ
       6141 17FC 0022CD70 ?reset@QThreadPoolPrivate@@QEAAXXZ
       6142 17FD 001333A0 ?reset@Qt@@YAAEAVQTextStream@@AEAV2@@Z
       6143 17FE 0017DE90 ?reset@State@QStringConverterBase@@QEAAXXZ
       6144 17FF 0003CE10 ?resetFormat@QDebug@@QEAAAEAV1@XZ
       6145 1800 000058E0 ?resetInternalData@QAbstractItemModel@@MEAAXXZ
       6146 1801 000AFC00 ?resetOnGadget@QMetaProperty@@QEBA_NPEAX@Z
       6147 1802 000164B0 ?resetRandomGlobalSeed@QHashSeed@@SAXXZ
       6148 1803 0011B2F0 ?resetStatus@QDataStream@@QEAAXXZ
       6149 1804 001333E0 ?resetStatus@QTextStream@@QEAAXXZ
       6150 1805 0019F820 ?resize@QBitArray@@QEAAX_J@Z
       6151 1806 0013A700 ?resize@QByteArray@@QEAAX_J@Z
       6152 1807 0013A780 ?resize@QByteArray@@QEAAX_JD@Z
       6153 1808 00052F30 ?resize@QFile@@SA_NAEBVQString@@_J@Z
       6154 1809 00053000 ?resize@QFile@@UEAA_N_J@Z
       6155 180A 00054150 ?resize@QFileDevice@@UEAA_N_J@Z
       6156 180B 00173060 ?resize@QString@@QEAAX_J@Z
       6157 180C 00173110 ?resize@QString@@QEAAX_JVQChar@@@Z
       6158 180D 001DF5E0 ?resize@SegmentStorage@QVersionNumber@@QEAAX_J@Z
       6159 180E 0013A9A0 ?resizeForOverwrite@QByteArray@@QEAAX_J@Z
       6160 180F 00173390 ?resizeForOverwrite@QString@@QEAAX_J@Z
       6161 1810 002FE830 ?resolve@QLibrary@@QEAAP6AXXZPEBD@Z
       6162 1811 002FE8A0 ?resolve@QLibrary@@SAP6AXXZAEBVQString@@0PEBD@Z
       6163 1812 002FE9A0 ?resolve@QLibrary@@SAP6AXXZAEBVQString@@HPEBD@Z
       6164 1813 002FEB40 ?resolve@QLibrary@@SAP6AXXZAEBVQString@@PEBD@Z
       6165 1814 00039C10 ?resolveEntity@QXmlStreamEntityResolver@@UEAA?AVQString@@AEBV2@0@Z
       6166 1815 00039CE0 ?resolveInterface@QCoreApplication@@IEBAPEAXPEBDH@Z
       6167 1816 00039C10 ?resolveUndeclaredEntity@QXmlStreamEntityResolver@@UEAA?AVQString@@AEBV2@@Z
       6168 1817 000829C0 ?resolved@QUrl@@QEBA?AV1@AEBV1@@Z
       6169 1818 000A4950 ?restart@QElapsedTimer@@QEAA_JXZ
       6170 1819 001FC910 ?restart@QUnifiedTimer@@QEAAXXZ
       6171 181A 000EE980 ?restoreBindingStatus@QtPrivate@@YAXPEAUBindingEvaluationState@1@@Z
       6172 181B 0059896C ?result@?1??isUtf8@QLocal8Bit@@SA_NXZ@4V?$QBasicAtomicInteger@C@@A
       6173 181C 001D4A60 ?result@QCryptographicHash@@QEBA?AVQByteArray@@XZ
       6174 181D 001D4B20 ?result@QMessageAuthenticationCode@@QEBA?AVQByteArray@@XZ
       6175 181E 00236D10 ?resultAt@ResultStoreBase@QtPrivate@@QEBA?AVResultIteratorBase@2@H@Z
       6176 181F 00232470 ?resultCount@QFutureInterfaceBase@@QEBAHXZ
       6177 1820 00236D30 ?resultIndex@ResultIteratorBase@QtPrivate@@QEBAHXZ
       6178 1821 00234D90 ?resultReadyAt@QFutureWatcherBase@@QEAAXH@Z
       6179 1822 00231000 ?resultStoreBase@QFutureInterfaceBase@@QEAAAEAVResultStoreBase@QtPrivate@@XZ
       6180 1823 00231000 ?resultStoreBase@QFutureInterfaceBase@@QEBAAEBVResultStoreBase@QtPrivate@@XZ
       6181 1824 001D4BD0 ?resultView@QCryptographicHash@@QEBA?AVQByteArrayView@@XZ
       6182 1825 001D4C80 ?resultView@QMessageAuthenticationCode@@QEBA?AVQByteArrayView@@XZ
       6183 1826 00234DD0 ?resultsReadyAt@QFutureWatcherBase@@QEAAXHH@Z
       6184 1827 001FCB90 ?resume@QAbstractAnimation@@QEAAXXZ
       6185 1828 00234E30 ?resume@QFutureWatcherBase@@QEAAXXZ
       6186 1829 0024E340 ?resume@QTimeLine@@QEAAXXZ
       6187 182A 001FCBE0 ?resumeAnimationTimer@QUnifiedTimer@@SAXPEAVQAbstractAnimationTimer@@@Z
       6188 182B 00234E50 ?resumed@QFutureWatcherBase@@QEAAXXZ
       6189 182C 0022F570 ?rethrowException@ExceptionStore@QtPrivate@@QEBAXXZ
       6190 182D 00232510 ?rethrowPossibleException@QFutureInterfaceBase@@IEAAXXZ
       6191 182E 000D8230 ?retrieveData@QMimeData@@MEBA?AVQVariant@@AEBVQString@@VQMetaType@@@Z
       6192 182F 000AFC10 ?returnMetaType@QMetaMethod@@QEBA?AVQMetaType@@XZ
       6193 1830 000AFD30 ?returnType@QMetaMethod@@QEBAHXZ
       6194 1831 000BACF0 ?returnType@QMetaMethodBuilder@@QEBA?AVQByteArray@@XZ
       6195 1832 000058E0 ?revert@QAbstractItemModel@@UEAAXXZ
       6196 1833 002D1390 ?revert@QAbstractProxyModel@@UEAAXXZ
       6197 1834 000AFD70 ?revision@QMetaMethod@@QEBAHXZ
       6198 1835 000BADE0 ?revision@QMetaMethodBuilder@@QEBAHXZ
       6199 1836 000AFDD0 ?revision@QMetaProperty@@QEBAHXZ
       6200 1837 000BAE80 ?revision@QMetaPropertyBuilder@@QEBAHXZ
       6201 1838 00021D30 ?rheight@QSize@@QEAAAEAHXZ
       6202 1839 0001C480 ?rheight@QSizeF@@QEAAAEANXZ
       6203 183A 00021D40 ?right@QByteArray@@QEBA?AV1@_J@Z
       6204 183B 000069F0 ?right@QByteArray@@QEGBA?AV1@_J@Z
       6205 183C 00006A50 ?right@QByteArray@@QEHAA?AV1@_J@Z
       6206 183D 00006AC0 ?right@QByteArrayView@@QEBA?AV1@_J@Z
       6207 183E 00021DA0 ?right@QItemSelectionRange@@QEBAHXZ
       6208 183F 00003850 ?right@QRect@@QEBAHXZ
       6209 1840 00021DB0 ?right@QRectF@@QEBANXZ
       6210 1841 00021DC0 ?right@QString@@QEBA?AV1@_J@Z
       6211 1842 00006B00 ?right@QString@@QEGBA?AV1@_J@Z
       6212 1843 00006B60 ?right@QString@@QEHAA?AV1@_J@Z
       6213 1844 001333F0 ?right@Qt@@YAAEAVQTextStream@@AEAV2@@Z
       6214 1845 0013AB80 ?rightJustified@QByteArray@@QEBA?AV1@_JD_N@Z
       6215 1846 00173710 ?rightJustified@QString@@QEBA?AV1@_JVQChar@@_N@Z
       6216 1847 00028FB0 ?rmdir@QAbstractFileEngine@@UEBA_NAEBVQString@@_N@Z
       6217 1848 000488F0 ?rmdir@QDir@@QEBA_NAEBVQString@@@Z
       6218 1849 0005F960 ?rmdir@QFSFileEngine@@UEBA_NAEBVQString@@_N@Z
       6219 184A 00048A10 ?rmpath@QDir@@QEBA_NAEBVQString@@@Z
       6220 184B 002BA2E0 ?roleNames@QAbstractItemModel@@UEBA?AV?$QHash@HVQByteArray@@@@XZ
       6221 184C 002D1400 ?roleNames@QAbstractProxyModel@@UEBA?AV?$QHash@HVQByteArray@@@@XZ
       6222 184D 0011B300 ?rollbackTransaction@QDataStream@@QEAAXXZ
       6223 184E 00064BF0 ?rollbackTransaction@QIODevice@@QEAAXXZ
       6224 184F 00021E30 ?root@QDir@@SA?AV1@XZ
       6225 1850 00079760 ?root@QStorageInfo@@SA?AV1@XZ
       6226 1851 00048B30 ?rootPath@QDir@@SA?AVQString@@XZ
       6227 1852 00048B30 ?rootPath@QFSFileEngine@@SA?AVQString@@XZ
       6228 1853 000469B0 ?rootPath@QStorageInfo@@QEBA?AVQString@@XZ
       6229 1854 003AC880 ?roundtable@qfloat16@@0QBIB
       6230 1855 00006BC0 ?row@QChar@@QEBAEXZ
       6231 1856 002BA320 ?row@QPersistentModelIndex@@QEBAHXZ
       6232 1857 002D5520 ?rowCount@QConcatenateTablesProxyModel@@UEBAHAEBVQModelIndex@@@Z
       6233 1858 002D87D0 ?rowCount@QIdentityProxyModel@@UEBAHAEBVQModelIndex@@@Z
       6234 1859 002F0870 ?rowCount@QSortFilterProxyModel@@UEBAHAEBVQModelIndex@@@Z
       6235 185A 002FAFA0 ?rowCount@QStringListModel@@UEBAHAEBVQModelIndex@@@Z
       6236 185B 002F7730 ?rowCount@QTransposeProxyModel@@UEBAHAEBVQModelIndex@@@Z
       6237 185C 002CA6E0 ?rowIntersectsSelection@QItemSelectionModel@@QEBA_NHAEBVQModelIndex@@@Z
       6238 185D 002BA340 ?rowsAboutToBeInserted@QAbstractItemModel@@QEAAXAEBVQModelIndex@@HHUQPrivateSignal@1@@Z
       6239 185E 002BA3B0 ?rowsAboutToBeInserted@QAbstractItemModelPrivate@@QEAAXAEBVQModelIndex@@HH@Z
       6240 185F 002BA820 ?rowsAboutToBeMoved@QAbstractItemModel@@QEAAXAEBVQModelIndex@@HH0HUQPrivateSignal@1@@Z
       6241 1860 002BA8A0 ?rowsAboutToBeRemoved@QAbstractItemModel@@QEAAXAEBVQModelIndex@@HHUQPrivateSignal@1@@Z
       6242 1861 002BA910 ?rowsAboutToBeRemoved@QAbstractItemModelPrivate@@QEAAXAEBVQModelIndex@@HH@Z
       6243 1862 002BAFA0 ?rowsInserted@QAbstractItemModel@@QEAAXAEBVQModelIndex@@HHUQPrivateSignal@1@@Z
       6244 1863 002BB010 ?rowsInserted@QAbstractItemModelPrivate@@QEAAXAEBVQModelIndex@@HH@Z
       6245 1864 002BB5C0 ?rowsMoved@QAbstractItemModel@@QEAAXAEBVQModelIndex@@HH0HUQPrivateSignal@1@@Z
       6246 1865 002BB640 ?rowsRemoved@QAbstractItemModel@@QEAAXAEBVQModelIndex@@HHUQPrivateSignal@1@@Z
       6247 1866 002BB6B0 ?rowsRemoved@QAbstractItemModelPrivate@@QEAAXAEBVQModelIndex@@HH@Z
       6248 1867 00183850 ?run@QGenericRunnable@QRunnable@@UEAAXXZ
       6249 1868 00185A40 ?run@QThread@@MEAAXXZ
       6250 1869 00232560 ?runContinuation@QFutureInterfaceBase@@IEBAXXZ
       6251 186A 001FCD70 ?runningAnimationCount@QUnifiedTimer@@QEAAHXZ
       6252 186B 000020C0 ?rwidth@QSize@@QEAAAEAHXZ
       6253 186C 000020C0 ?rwidth@QSizeF@@QEAAAEANXZ
       6254 186D 000D5710 ?save@QMetaType@@QEBA_NAEAVQDataStream@@PEBX@Z
       6255 186E 00006BD0 ?save@QMetaType@@SA_NAEAVQDataStream@@HPEBX@Z
       6256 186F 000FE090 ?save@QVariant@@QEBAXAEAVQDataStream@@@Z
       6257 1870 00021E80 ?scale@QSize@@QEAAXAEBV1@W4AspectRatioMode@Qt@@@Z
       6258 1871 00021EB0 ?scale@QSize@@QEAAXHHW4AspectRatioMode@Qt@@@Z
       6259 1872 00021EE0 ?scale@QSizeF@@QEAAXAEBV1@W4AspectRatioMode@Qt@@@Z
       6260 1873 00021F10 ?scale@QSizeF@@QEAAXNNW4AspectRatioMode@Qt@@@Z
       6261 1874 001DD8B0 ?scaled@QSize@@QEBA?AV1@AEBV1@W4AspectRatioMode@Qt@@@Z
       6262 1875 00021F40 ?scaled@QSize@@QEBA?AV1@HHW4AspectRatioMode@Qt@@@Z
       6263 1876 001DD960 ?scaled@QSizeF@@QEBA?AV1@AEBV1@W4AspectRatioMode@Qt@@@Z
       6264 1877 00021F70 ?scaled@QSizeF@@QEBA?AV1@NNW4AspectRatioMode@Qt@@@Z
       6265 1878 0026DD60 ?scanString@QDateTimeParser@@AEBA?AUStateNode@1@AEBVQDateTime@@_N@Z
       6266 1879 002D1480 ?scheduleHeaderUpdate@QAbstractProxyModelPrivate@@QEAAXW4Orientation@Qt@@@Z
       6267 187A 00021FA0 ?scheduleNotify@QPropertyBindingPrivate@@QEAAXXZ
       6268 187B 00082F60 ?scheme@QUrl@@QEBA?AVQString@@XZ
       6269 187C 00133410 ?scientific@Qt@@YAAEAVQTextStream@@AEAV2@@Z
       6270 187D 000AFDF0 ?scope@QMetaEnum@@QEBAPEBDXZ
       6271 187E 0029C4E0 ?scope@QSettings@@QEBA?AW4Scope@1@XZ
       6272 187F 00006C10 ?script@QChar@@QEBA?AW4Script@1@XZ
       6273 1880 001739F0 ?script@QChar@@SA?AW4Script@1@_U@Z
       6274 1881 00150880 ?script@QLocale@@QEBA?AW4Script@1@XZ
       6275 1882 00150890 ?scriptToCode@QLocale@@SA?AVQString@@W4Script@1@@Z
       6276 1883 00150920 ?scriptToString@QLocale@@SA?AVQString@@W4Script@1@@Z
       6277 1884 00048B50 ?searchPaths@QDir@@SA?AV?$QList@VQString@@@@AEBVQString@@@Z
       6278 1885 00191C30 ?second@QTime@@QEBAHXZ
       6279 1886 00191CA0 ?secsTo@QDateTime@@QEBA_JAEBV1@@Z
       6280 1887 000A4990 ?secsTo@QElapsedTimer@@QEBA_JAEBV1@@Z
       6281 1888 00191D20 ?secsTo@QTime@@QEBAHV1@@Z
       6282 1889 00173A60 ?section@QString@@QEBA?AV1@AEBV1@_J1V?$QFlags@W4SectionFlag@QString@@@@@Z
       6283 188A 00173F80 ?section@QString@@QEBA?AV1@AEBVQRegularExpression@@_J1V?$QFlags@W4SectionFlag@QString@@@@@Z
       6284 188B 00006C20 ?section@QString@@QEBA?AV1@VQChar@@_J1V?$QFlags@W4SectionFlag@QString@@@@@Z
       6285 188C 0026EEB0 ?sectionMaxSize@QDateTimeParser@@AEBAHW4Section@1@H@Z
       6286 188D 0026F300 ?sectionMaxSize@QDateTimeParser@@IEBAHH@Z
       6287 188E 0026F3E0 ?sectionNode@QDateTimeParser@@IEBAAEBUSectionNode@1@H@Z
       6288 188F 0026F470 ?sectionPos@QDateTimeParser@@IEBAHH@Z
       6289 1890 0026F620 ?sectionPos@QDateTimeParser@@IEBAHUSectionNode@1@@Z
       6290 1891 0026F720 ?sectionSize@QDateTimeParser@@IEBAHH@Z
       6291 1892 0026F8A0 ?sectionText@QDateTimeParser@@AEBA?AVQString@@AEBV2@HH@Z
       6292 1893 0026F8E0 ?sectionText@QDateTimeParser@@IEBA?AVQString@@H@Z
       6293 1894 0026F9F0 ?sectionType@QDateTimeParser@@IEBA?AW4Section@1@H@Z
       6294 1895 00031F60 ?securelySeeded@QRandomGenerator64@@SA?AV1@XZ
       6295 1896 00028FB0 ?seek@QAbstractFileEngine@@UEAA_N_J@Z
       6296 1897 0003AB30 ?seek@QBuffer@@UEAA_N_J@Z
       6297 1898 0005F9E0 ?seek@QFSFileEngine@@UEAA_N_J@Z
       6298 1899 000542C0 ?seek@QFileDevice@@UEAA_N_J@Z
       6299 189A 00064CA0 ?seek@QIODevice@@UEAA_N_J@Z
       6300 189B 00133430 ?seek@QTextStream@@QEAA_N_J@Z
       6301 189C 00064DD0 ?seekBuffer@QIODevicePrivate@@QEAAX_J@Z
       6302 189D 00021FB0 ?segmentCount@QOperatingSystemVersion@@QEBAHXZ
       6303 189E 001DF660 ?segments@QVersionNumber@@QEBA?AV?$QList@H@@XZ
       6304 189F 00059610 ?select@QFileSelector@@QEBA?AVQString@@AEBV2@@Z
       6305 18A0 00059630 ?select@QFileSelector@@QEBA?AVQUrl@@AEBV2@@Z
       6306 18A1 00059B20 ?select@QFileSelectorPrivate@@QEBA?AVQString@@AEBV2@@Z
       6307 18A2 002CC700 ?select@QItemSelection@@QEAAXAEBVQModelIndex@@0@Z
       6308 18A3 002CC970 ?select@QItemSelectionModel@@UEAAXAEBVQItemSelection@@V?$QFlags@W4SelectionFlag@QItemSelectionModel@@@@@Z
       6309 18A4 002CCDA0 ?select@QItemSelectionModel@@UEAAXAEBVQModelIndex@@V?$QFlags@W4SelectionFlag@QItemSelectionModel@@@@@Z
       6310 18A5 002CCE50 ?selectedColumns@QItemSelectionModel@@QEBA?AV?$QList@VQModelIndex@@@@H@Z
       6311 18A6 002CD1A0 ?selectedIndexes@QItemSelectionModel@@QEBA?AV?$QList@VQModelIndex@@@@XZ
       6312 18A7 002CD2B0 ?selectedRows@QItemSelectionModel@@QEBA?AV?$QList@VQModelIndex@@@@H@Z
       6313 18A8 002CD600 ?selection@QItemSelectionModel@@QEBA?BVQItemSelection@@XZ
       6314 18A9 002CD680 ?selectionChanged@QItemSelectionModel@@QEAAXAEBVQItemSelection@@0@Z
       6315 18AA 00059E10 ?selectionHelper@QFileSelectorPrivate@@SA?AVQString@@AEBV2@0AEBV?$QList@VQString@@@@VQChar@@@Z
       6316 18AB 005989B8 ?self@QCoreApplication@@0PEAV1@EA
       6317 18AC 000A0D50 ?sendEvent@QCoreApplication@@SA_NPEAVQObject@@PEAVQEvent@@@Z
       6318 18AD 000A0D60 ?sendPostedEvents@QCoreApplication@@SAXPEAVQObject@@H@Z
       6319 18AE 000A0D90 ?sendPostedEvents@QCoreApplicationPrivate@@SAXPEAVQObject@@HPEAVQThreadData@@@Z
       6320 18AF 002243C0 ?sendPostedEvents@QEventDispatcherWin32@@MEAAXXZ
       6321 18B0 000A1110 ?sendSpontaneousEvent@QCoreApplication@@CA_NPEAVQObject@@PEAVQEvent@@@Z
       6322 18B1 000A1120 ?sendThroughApplicationEventFilters@QCoreApplicationPrivate@@QEAA_NPEAVQObject@@PEAVQEvent@@@Z
       6323 18B2 000A1220 ?sendThroughObjectEventFilters@QCoreApplicationPrivate@@SA_NPEAVQObject@@PEAVQEvent@@@Z
       6324 18B3 00224410 ?sendTimerEvent@QEventDispatcherWin32Private@@QEAAXH@Z
       6325 18B4 00021FE0 ?sender@QAbstractMetaCallEvent@@QEBAPEBVQObject@@XZ
       6326 18B5 000E9110 ?sender@QObject@@IEBAPEAV1@XZ
       6327 18B6 000E91E0 ?senderSignalIndex@QObject@@IEBAHXZ
       6328 18B7 00174370 ?sentenceBreakClass@QUnicodeTables@@YA?AW4SentenceBreakClass@1@_U@Z
       6329 18B8 00021FF0 ?separator@QDir@@SA?AVQChar@@XZ
       6330 18B9 000EF810 ?set@QSequentialIterable@@QEAAX_JAEBVQVariant@@@Z
       6331 18BA 0022EC70 ?set@QThreadStorageData@@QEAAPEAPEAXPEAX@Z
       6332 18BB 00006CB0 ?setAccepted@QEvent@@UEAAX_N@Z
       6333 18BC 000BAEE0 ?setAccess@QMetaMethodBuilder@@QEAAXW4Access@QMetaMethod@@@Z
       6334 18BD 0031A170 ?setAccessMode@QCalendarPermission@@QEAAXW4AccessMode@1@@Z
       6335 18BE 0031A170 ?setAccessMode@QContactsPermission@@QEAAXW4AccessMode@1@@Z
       6336 18BF 0031A170 ?setAccuracy@QLocationPermission@@QEAAXW4Accuracy@1@@Z
       6337 18C0 000BAFA0 ?setAlias@QMetaPropertyBuilder@@QEAAX_N@Z
       6338 18C1 0024A740 ?setAmplitude@QEasingCurve@@QEAAXN@Z
       6339 18C2 001D7A40 ?setAngle@QLineF@@QEAAXN@Z
       6340 18C3 0023E410 ?setApplicationDescription@QCommandLineParser@@QEAAXAEBVQString@@@Z
       6341 18C4 000A1340 ?setApplicationFilePath@QCoreApplicationPrivate@@SAXAEBVQString@@@Z
       6342 18C5 000A13A0 ?setApplicationName@QCoreApplication@@SAXAEBVQString@@@Z
       6343 18C6 000A1750 ?setApplicationVersion@QCoreApplication@@SAXAEBVQString@@@Z
       6344 18C7 00284E70 ?setArguments@QProcess@@QEAAXAEBV?$QList@VQString@@@@@Z
       6345 18C8 001217A0 ?setArray@QJsonDocument@@QEAAXAEBVQJsonArray@@@Z
       6346 18C9 0029C750 ?setArrayIndex@QSettings@@QEAAXH@Z
       6347 18CA 0029C9C0 ?setAtomicSyncRequired@QSettings@@QEAAX_N@Z
       6348 18CB 000A1B00 ?setAttribute@QCoreApplication@@SAXW4ApplicationAttribute@Qt@@_N@Z
       6349 18CC 000BB010 ?setAttributes@QMetaMethodBuilder@@QEAAXH@Z
       6350 18CD 00082FB0 ?setAuthority@QUrl@@QEAAXAEBVQString@@W4ParsingMode@1@@Z
       6351 18CE 002F0930 ?setAutoAcceptChildRows@QSortFilterProxyModel@@QEAAX_N@Z
       6352 18CF 00022000 ?setAutoDelete@QRunnable@@QEAAX_N@Z
       6353 18D0 00133540 ?setAutoDetectUnicode@QTextStream@@QEAAX_N@Z
       6354 18D1 001F2CE0 ?setAutoFormatting@QXmlStreamWriter@@QEAAX_N@Z
       6355 18D2 001F2D00 ?setAutoFormattingIndent@QXmlStreamWriter@@QEAAXH@Z
       6356 18D3 00006CC0 ?setAutoInsertSpaces@QDebug@@QEAAX_N@Z
       6357 18D4 0007A540 ?setAutoRemove@QTemporaryDir@@QEAAX_N@Z
       6358 18D5 0007BD90 ?setAutoRemove@QTemporaryFile@@QEAAX_N@Z
       6359 18D6 0031A180 ?setAvailability@QLocationPermission@@QEAAXW4Availability@1@@Z
       6360 18D7 000BB0D0 ?setBindable@QMetaPropertyBuilder@@QEAAX_N@Z
       6361 18D8 000EE9A0 ?setBinding@PropertyAdaptorSlotObjectHelpers@QtPrivate@@YA?AVQUntypedPropertyBinding@@PEAVQUntypedPropertyData@@AEBV3@P6A_NVQMetaType@@0UQPropertyBindingFunction@2@@Z@Z
       6362 18D9 000EE9D0 ?setBinding@QPropertyBindingData@QtPrivate@@QEAA?AVQUntypedPropertyBinding@@AEBV3@PEAVQUntypedPropertyData@@P6AX1@ZP6A_NVQMetaType@@1UQPropertyBindingFunction@2@@Z@Z
       6363 18DA 000164E0 ?setBit@QBitArray@@QEAAX_J@Z
       6364 18DB 00016540 ?setBit@QBitArray@@QEAAX_J_N@Z
       6365 18DC 00022010 ?setBottom@QRect@@QEAAXH@Z
       6366 18DD 00022020 ?setBottom@QRectF@@QEAAXN@Z
       6367 18DE 00022030 ?setBottomLeft@QRect@@QEAAXAEBVQPoint@@@Z
       6368 18DF 00022040 ?setBottomLeft@QRectF@@QEAAXAEBVQPointF@@@Z
       6369 18E0 00022080 ?setBottomRight@QRect@@QEAAXAEBVQPoint@@@Z
       6370 18E1 00022090 ?setBottomRight@QRectF@@QEAAXAEBVQPointF@@@Z
       6371 18E2 0003AC30 ?setBuffer@QBuffer@@QEAAXPEAVQByteArray@@@Z
       6372 18E3 0011B380 ?setByteOrder@QDataStream@@QEAAXW4ByteOrder@1@@Z
       6373 18E4 00057A50 ?setCaching@QFileInfo@@QEAAX_N@Z
       6374 18E5 0026FA80 ?setCalendar@QDateTimeParser@@QEAAXVQCalendar@@@Z
       6375 18E6 0013F820 ?setCaseSensitivity@QCollator@@QEAAXW4CaseSensitivity@Qt@@@Z
       6376 18E7 0013FFB0 ?setCaseSensitivity@QLatin1StringMatcher@@QEAAXW4CaseSensitivity@Qt@@@Z
       6377 18E8 001743D0 ?setCaseSensitivity@QStringMatcher@@QEAAXW4CaseSensitivity@Qt@@@Z
       6378 18E9 00006CD0 ?setCell@QChar@@QEAAXE@Z
       6379 18EA 000BB140 ?setClassName@QMetaObjectBuilder@@QEAAXAEBVQByteArray@@@Z
       6380 18EB 000D8F50 ?setColorData@QMimeData@@QEAAXAEBVQVariant@@@Z
       6381 18EC 0031A190 ?setCommunicationModes@QBluetoothPermission@@QEAAXV?$QFlags@W4CommunicationMode@QBluetoothPermission@@@@@Z
       6382 18ED 000928E0 ?setCompressionPolicy@QZipWriter@@QEAAXW4CompressionPolicy@1@@Z
       6383 18EE 001FCDE0 ?setConsistentTiming@QUnifiedTimer@@QEAAX_N@Z
       6384 18EF 000BB150 ?setConst@QMetaMethodBuilder@@QEAAX_N@Z
       6385 18F0 000BB220 ?setConstant@QMetaPropertyBuilder@@QEAAX_N@Z
       6386 18F1 00232820 ?setContinuation@QFutureInterfaceBase@@IEAAXV?$function@$$A6AXAEBVQFutureInterfaceBase@@@Z@std@@@Z
       6387 18F2 00232900 ?setContinuation@QFutureInterfaceBase@@IEAAXV?$function@$$A6AXAEBVQFutureInterfaceBase@@@Z@std@@PEAVQFutureInterfaceBasePrivate@@@Z
       6388 18F3 000220B0 ?setCoords@QRect@@QEAAXHHHH@Z
       6389 18F4 000220D0 ?setCoords@QRectF@@QEAAXNNNN@Z
       6390 18F5 00284F70 ?setCreateProcessArgumentsModifier@QProcess@@QEAAXV?$function@$$A6AXPEAUCreateProcessArguments@QProcess@@@Z@std@@@Z
       6391 18F6 000928F0 ?setCreationPermissions@QZipWriter@@QEAAXV?$QFlags@W4Permission@QFileDevice@@@@@Z
       6392 18F7 00048CD0 ?setCurrent@QDir@@SA_NAEBVQString@@@Z
       6393 18F8 002CD6D0 ?setCurrentIndex@QItemSelectionModel@@UEAAXAEBVQModelIndex@@V?$QFlags@W4SelectionFlag@QItemSelectionModel@@@@@Z
       6394 18F9 00048CD0 ?setCurrentPath@QFSFileEngine@@SA_NAEBVQString@@@Z
       6395 18FA 00064E10 ?setCurrentReadChannel@QIODevice@@QEAAXH@Z
       6396 18FB 0003ACB0 ?setCurrentReadChannel@QIODevicePrivate@@QEAAXH@Z
       6397 18FC 001FCDF0 ?setCurrentTime@QAbstractAnimation@@QEAAXH@Z
       6398 18FD 001FD030 ?setCurrentTime@QAbstractAnimationPrivate@@QEAAXH@Z
       6399 18FE 0024E4B0 ?setCurrentTime@QTimeLine@@QEAAXH@Z
       6400 18FF 00064E70 ?setCurrentWriteChannel@QIODevice@@QEAAXH@Z
       6401 1900 0003ACF0 ?setCurrentWriteChannel@QIODevicePrivate@@QEAAXH@Z
       6402 1901 0024A780 ?setCustomType@QEasingCurve@@QEAAXP6ANN@Z@Z
       6403 1902 00028FB0 ?setData@QAbstractItemModel@@UEAA_NAEBVQModelIndex@@AEBVQVariant@@H@Z
       6404 1903 002D1570 ?setData@QAbstractProxyModel@@UEAA_NAEBVQModelIndex@@AEBVQVariant@@H@Z
       6405 1904 0003AD30 ?setData@QBuffer@@QEAAXAEBVQByteArray@@@Z
       6406 1905 00022100 ?setData@QBuffer@@QEAAXPEBDH@Z
       6407 1906 0003ADA0 ?setData@QBuffer@@QEAAXPEBD_J@Z
       6408 1907 002D5540 ?setData@QConcatenateTablesProxyModel@@UEAA_NAEBVQModelIndex@@AEBVQVariant@@H@Z
       6409 1908 000D8FB0 ?setData@QMimeData@@QEAAXAEBVQString@@AEBVQByteArray@@@Z
       6410 1909 002F0A50 ?setData@QSortFilterProxyModel@@UEAA_NAEBVQModelIndex@@AEBVQVariant@@H@Z
       6411 190A 002FAFC0 ?setData@QStringListModel@@UEAA_NAEBVQModelIndex@@AEBVQVariant@@H@Z
       6412 190B 00191D90 ?setDate@QDate@@QEAA_NHHH@Z
       6413 190C 00191DD0 ?setDate@QDate@@QEAA_NHHHVQCalendar@@@Z
       6414 190D 00022110 ?setDate@QDateTime@@QEAAXVQDate@@@Z
       6415 190E 00191E30 ?setDate@QDateTime@@QEAAXVQDate@@W4TransitionResolution@1@@Z
       6416 190F 000A4240 ?setDeadline@QDeadlineTimer@@QEAAX_JW4TimerType@Qt@@@Z
       6417 1910 001509B0 ?setDefault@QLocale@@SAXAEBV1@@Z
       6418 1911 0029C9D0 ?setDefaultFormat@QSettings@@SAXW4Format@1@@Z
       6419 1912 00150B10 ?setDefaultLocale@QDateTimeParser@@QEAAXAEBVQLocale@@@Z
       6420 1913 00237890 ?setDefaultValue@QCommandLineOption@@QEAAXAEBVQString@@@Z
       6421 1914 00237DA0 ?setDefaultValues@QCommandLineOption@@QEAAXAEBV?$QList@VQString@@@@@Z
       6422 1915 00237E50 ?setDescription@QCommandLineOption@@QEAAXAEBVQString@@@Z
       6423 1916 000BB290 ?setDesignable@QMetaPropertyBuilder@@QEAAX_N@Z
       6424 1917 000165D0 ?setDeterministicGlobalSeed@QHashSeed@@SAXXZ
       6425 1918 00304720 ?setDevice@QCborStreamReader@@QEAAXPEAVQIODevice@@@Z
       6426 1919 00305930 ?setDevice@QCborStreamWriter@@QEAAXPEAVQIODevice@@@Z
       6427 191A 0011B390 ?setDevice@QDataStream@@QEAAXPEAVQIODevice@@@Z
       6428 191B 00133550 ?setDevice@QTextStream@@QEAAXPEAVQIODevice@@@Z
       6429 191C 001F2D30 ?setDevice@QXmlStreamReader@@QEAAXPEAVQIODevice@@@Z
       6430 191D 001F2DA0 ?setDevice@QXmlStreamWriter@@QEAAXPEAVQIODevice@@@Z
       6431 191E 0026FA90 ?setDigit@QDateTimeParser@@IEBA_NAEAVQDateTime@@HH@Z
       6432 191F 00075F00 ?setDirectWriteFallback@QSaveFile@@QEAAX_N@Z
       6433 1920 001FD040 ?setDirection@QAbstractAnimation@@QEAAXW4Direction@1@@Z
       6434 1921 001FD3F0 ?setDirection@QAbstractAnimationPrivate@@QEAAXW4Direction@QAbstractAnimation@@@Z
       6435 1922 0024EA40 ?setDirection@QTimeLine@@QEAAXW4Direction@1@@Z
       6436 1923 002017B0 ?setDuration@QPauseAnimation@@QEAAXH@Z
       6437 1924 0024EB30 ?setDuration@QTimeLine@@QEAAXH@Z
       6438 1925 0020B5D0 ?setDuration@QVariantAnimation@@QEAAXH@Z
       6439 1926 002F0B30 ?setDynamicSortFilter@QSortFilterProxyModel@@QEAAX_N@Z
       6440 1927 0024EC00 ?setEasingCurve@QTimeLine@@QEAAXAEBVQEasingCurve@@@Z
       6441 1928 0020B6C0 ?setEasingCurve@QVariantAnimation@@QEAAXAEBVQEasingCurve@@@Z
       6442 1929 000683F0 ?setEnabled@QLoggingCategory@@QEAAXW4QtMsgType@@_N@Z
       6443 192A 000F3C70 ?setEnabled@QSocketNotifier@@QEAAX_N@Z
       6444 192B 00226770 ?setEnabled@QWinEventNotifier@@QEAAX_N@Z
       6445 192C 001336A0 ?setEncoding@QTextStream@@QEAAXW4Encoding@QStringConverter@@@Z
       6446 192D 0024ECC0 ?setEndFrame@QTimeLine@@QEAAXH@Z
       6447 192E 0020B870 ?setEndValue@QVariantAnimation@@QEAAXAEBVQVariant@@@Z
       6448 192F 001F2E00 ?setEntityExpansionLimit@QXmlStreamReader@@QEAAXH@Z
       6449 1930 001F2E10 ?setEntityResolver@QXmlStreamReader@@QEAAXPEAVQXmlStreamEntityResolver@@@Z
       6450 1931 000BB300 ?setEnumName@QMetaEnumBuilder@@QEAAXAEBVQByteArray@@@Z
       6451 1932 000BB360 ?setEnumOrFlag@QMetaPropertyBuilder@@QEAAX_N@Z
       6452 1933 00285040 ?setEnvironment@QProcess@@QEAAXAEBV?$QList@VQString@@@@@Z
       6453 1934 00039FD0 ?setError@QAbstractFileEngine@@IEAAXW4FileError@QFileDevice@@AEBVQString@@@Z
       6454 1935 00022120 ?setError@QPropertyBindingPrivate@@QEAAX$$QEAVQPropertyBindingError@@@Z
       6455 1936 00064EC0 ?setErrorString@QIODevice@@IEAAXAEBVQString@@@Z
       6456 1937 000A1BC0 ?setEventDispatcher@QCoreApplication@@SAXPEAVQAbstractEventDispatcher@@@Z
       6457 1938 00185AF0 ?setEventDispatcher@QThread@@QEAAXPEAVQAbstractEventDispatcher@@@Z
       6458 1939 0002E680 ?setEventSpontaneous@QCoreApplicationPrivate@@SAXPEAVQEvent@@_N@Z
       6459 193A 0022F5A0 ?setException@ExceptionStore@QtPrivate@@QEAAXAEBVQException@@@Z
       6460 193B 0022F5C0 ?setException@ExceptionStore@QtPrivate@@QEAAXVexception_ptr@std@@@Z
       6461 193C 00232BB0 ?setExpectedResultCount@QFutureInterfaceBase@@QEAAXH@Z
       6462 193D 0022D7B0 ?setExpiryTimeout@QThreadPool@@QEAAXH@Z
       6463 193E 00105340 ?setExtraSearchPath@QFactoryLoader@@QEAAXAEBVQString@@@Z
       6464 193F 0005A260 ?setExtraSelectors@QFileSelector@@QEAAXAEBV?$QList@VQString@@@@@Z
       6465 1940 0029C9E0 ?setFallbacksEnabled@QSettings@@QEAAX_N@Z
       6466 1941 00133840 ?setFieldAlignment@QTextStream@@QEAAXW4FieldAlignment@1@@Z
       6467 1942 00133850 ?setFieldWidth@QTextStream@@QEAAXH@Z
       6468 1943 00057AA0 ?setFile@QFileInfo@@QEAAXAEBVQDir@@AEBVQString@@@Z
       6469 1944 00057B80 ?setFile@QFileInfo@@QEAAXAEBVQFileDevice@@@Z
       6470 1945 00057C60 ?setFile@QFileInfo@@QEAAXAEBVQString@@@Z
       6471 1946 0005FB80 ?setFileEntry@QFSFileEngine@@QEAAX$$QEAVQFileSystemEntry@@@Z
       6472 1947 000058E0 ?setFileName@QAbstractFileEngine@@UEAAXAEBVQString@@@Z
       6473 1948 0005FC60 ?setFileName@QFSFileEngine@@UEAAXAEBVQString@@@Z
       6474 1949 00053010 ?setFileName@QFile@@QEAAXAEBVQString@@@Z
       6475 194A 002FEC60 ?setFileName@QLibrary@@QEAAXAEBVQString@@@Z
       6476 194B 00108BA0 ?setFileName@QPluginLoader@@QEAAXAEBVQString@@@Z
       6477 194C 00073F40 ?setFileName@QResource@@QEAAXAEBVQString@@@Z
       6478 194D 00075F10 ?setFileName@QSaveFile@@QEAAXAEBVQString@@@Z
       6479 194E 002FECF0 ?setFileNameAndVersion@QLibrary@@QEAAXAEBVQString@@0@Z
       6480 194F 002FED60 ?setFileNameAndVersion@QLibrary@@QEAAXAEBVQString@@H@Z
       6481 1950 0007BDD0 ?setFileTemplate@QTemporaryFile@@QEAAXAEBVQString@@@Z
       6482 1951 00028FB0 ?setFileTime@QAbstractFileEngine@@UEAA_NAEBVQDateTime@@W4FileTime@QFileDevice@@@Z
       6483 1952 00215FA0 ?setFileTime@QFSFileEngine@@UEAA_NAEBVQDateTime@@W4FileTime@QFileDevice@@@Z
       6484 1953 00054460 ?setFileTime@QFileDevice@@QEAA_NAEBVQDateTime@@W4FileTime@1@@Z
       6485 1954 00048D50 ?setFilter@QDir@@QEAAXV?$QFlags@W4Filter@QDir@@@@@Z
       6486 1955 002F0C20 ?setFilterCaseSensitivity@QSortFilterProxyModel@@QEAAXW4CaseSensitivity@Qt@@@Z
       6487 1956 002F0E50 ?setFilterFixedString@QSortFilterProxyModel@@QEAAXAEBVQString@@@Z
       6488 1957 002F1040 ?setFilterKeyColumn@QSortFilterProxyModel@@QEAAXH@Z
       6489 1958 00232BF0 ?setFilterMode@QFutureInterfaceBase@@QEAAX_N@Z
       6490 1959 00236D40 ?setFilterMode@ResultStoreBase@QtPrivate@@QEAAX_N@Z
       6491 195A 002F11C0 ?setFilterRegularExpression@QSortFilterProxyModel@@QEAAXAEBVQRegularExpression@@@Z
       6492 195B 002F13F0 ?setFilterRegularExpression@QSortFilterProxyModel@@QEAAXAEBVQString@@@Z
       6493 195C 002F15A0 ?setFilterRole@QSortFilterProxyModel@@QEAAXH@Z
       6494 195D 00068420 ?setFilterRules@QLoggingCategory@@SAXAEBVQString@@@Z
       6495 195E 002F1690 ?setFilterWildcard@QSortFilterProxyModel@@QEAAXAEBVQString@@@Z
       6496 195F 000BB3D0 ?setFinal@QMetaPropertyBuilder@@QEAAX_N@Z
       6497 1960 00237E70 ?setFlags@QCommandLineOption@@QEAAXV?$QFlags@W4Flag@QCommandLineOption@@@@@Z
       6498 1961 000BB440 ?setFlags@QMetaObjectBuilder@@QEAAXV?$QFlags@W4MetaObjectFlag@@@@@Z
       6499 1962 0011B3F0 ?setFloatingPointPrecision@QDataStream@@QEAAXW4FloatingPointPrecision@1@@Z
       6500 1963 000833E0 ?setFragment@QUrl@@QEAAXAEBVQString@@W4ParsingMode@1@@Z
       6501 1964 0024ECD0 ?setFrameRange@QTimeLine@@QEAAXHH@Z
       6502 1965 00133860 ?setGenerateByteOrderMark@QTextStream@@QEAAX_N@Z
       6503 1966 00192040 ?setHMS@QTime@@QEAA_NHHHH@Z
       6504 1967 00226870 ?setHandle@QWinEventNotifier@@QEAAXPEAX@Z
       6505 1968 0021AC20 ?setHandle@QWindowsPipeReader@@QEAAXPEAX@Z
       6506 1969 0021BE60 ?setHandle@QWindowsPipeWriter@@QEAAXPEAX@Z
       6507 196A 002D8880 ?setHandleSourceDataChanges@QIdentityProxyModel@@IEAAX_N@Z
       6508 196B 002D8890 ?setHandleSourceLayoutChanges@QIdentityProxyModel@@IEAAX_N@Z
       6509 196C 00028FB0 ?setHeaderData@QAbstractItemModel@@UEAA_NHW4Orientation@Qt@@AEBVQVariant@@H@Z
       6510 196D 002D1630 ?setHeaderData@QAbstractProxyModel@@UEAA_NHW4Orientation@Qt@@AEBVQVariant@@H@Z
       6511 196E 002F1880 ?setHeaderData@QSortFilterProxyModel@@UEAA_NHW4Orientation@Qt@@AEBVQVariant@@H@Z
       6512 196F 002F7810 ?setHeaderData@QTransposeProxyModel@@UEAA_NHW4Orientation@Qt@@AEBVQVariant@@H@Z
       6513 1970 00022130 ?setHeight@QRect@@QEAAXH@Z
       6514 1971 00022140 ?setHeight@QRectF@@QEAAXN@Z
       6515 1972 00022150 ?setHeight@QSize@@QEAAXH@Z
       6516 1973 00021230 ?setHeight@QSizeF@@QEAAXN@Z
       6517 1974 000837F0 ?setHost@QUrl@@QEAAXAEBVQString@@W4ParsingMode@1@@Z
       6518 1975 000D92B0 ?setHtml@QMimeData@@QEAAXAEBVQString@@@Z
       6519 1976 000893B0 ?setIdnWhitelist@QUrl@@SAXAEBV?$QList@VQString@@@@@Z
       6520 1977 0013F850 ?setIgnorePunctuation@QCollator@@QEAAX_N@Z
       6521 1978 000D9350 ?setImageData@QMimeData@@QEAAXAEBVQVariant@@@Z
       6522 1979 00189240 ?setIndex@QCalendarBackend@@AEAAX_K@Z
       6523 197A 002852E0 ?setInputChannelMode@QProcess@@QEAAXW4InputChannelMode@1@@Z
       6524 197B 00133920 ?setIntegerBase@QTextStream@@QEAAXH@Z
       6525 197C 00098A20 ?setInterval@QChronoTimer@@QEAAXV?$duration@_JU?$ratio@$00$0DLJKMKAA@@std@@@chrono@std@@@Z
       6526 197D 000F5A20 ?setInterval@QTimer@@QEAAXH@Z
       6527 197E 000F5A30 ?setInterval@QTimer@@QEAAXV?$duration@_JU?$ratio@$00$0DOI@@std@@@chrono@std@@@Z
       6528 197F 000BB450 ?setIsFlag@QMetaEnumBuilder@@QEAAX_N@Z
       6529 1980 000BB4B0 ?setIsScoped@QMetaEnumBuilder@@QEAAX_N@Z
       6530 1981 002BBFC0 ?setItemData@QAbstractItemModel@@UEAA_NAEBVQModelIndex@@AEBV?$QMap@HVQVariant@@@@@Z
       6531 1982 002D1760 ?setItemData@QAbstractProxyModel@@UEAA_NAEBVQModelIndex@@AEBV?$QMap@HVQVariant@@@@@Z
       6532 1983 002D5590 ?setItemData@QConcatenateTablesProxyModel@@UEAA_NAEBVQModelIndex@@AEBV?$QMap@HVQVariant@@@@@Z
       6533 1984 002FB1C0 ?setItemData@QStringListModel@@UEAA_NAEBVQModelIndex@@AEBV?$QMap@HVQVariant@@@@@Z
       6534 1985 002F7900 ?setItemData@QTransposeProxyModel@@UEAA_NAEBVQModelIndex@@AEBV?$QMap@HVQVariant@@@@@Z
       6535 1986 00022160 ?setKey@QMessageAuthenticationCode@@QEAAXAEBVQByteArray@@@Z
       6536 1987 001D4D20 ?setKey@QMessageAuthenticationCode@@QEAAXVQByteArrayView@@@Z
       6537 1988 00035A80 ?setKey@QSharedMemory@@QEAAXAEBVQString@@@Z
       6538 1989 00036780 ?setKey@QSystemSemaphore@@QEAAXAEBVQString@@HW4AccessMode@1@@Z
       6539 198A 0020B890 ?setKeyValueAt@QVariantAnimation@@QEAAXNAEBVQVariant@@@Z
       6540 198B 0020B8A0 ?setKeyValues@QVariantAnimation@@QEAAXAEBV?$QList@U?$pair@NVQVariant@@@std@@@@@Z
       6541 198C 00232C90 ?setLaunchAsync@QFutureInterfaceBase@@IEAAX_N@Z
       6542 198D 00022190 ?setLeft@QRect@@QEAAXH@Z
       6543 198E 000221A0 ?setLeft@QRectF@@QEAAXN@Z
       6544 198F 000221C0 ?setLength@QLineF@@QEAAXN@Z
       6545 1990 000A1BF0 ?setLibraryPaths@QCoreApplication@@SAXAEBV?$QList@VQString@@@@@Z
       6546 1991 00022230 ?setLine@QLine@@QEAAXHHHH@Z
       6547 1992 00022260 ?setLine@QLineF@@QEAAXNNNN@Z
       6548 1993 001DF7F0 ?setListData@SegmentStorage@QVersionNumber@@QEAAX$$QEAV?$QList@H@@@Z
       6549 1994 001DF840 ?setListData@SegmentStorage@QVersionNumber@@QEAAXAEBV?$QList@H@@@Z
       6550 1995 001DF890 ?setListData@SegmentStorage@QVersionNumber@@QEAAXPEBH0@Z
       6551 1996 002FEE60 ?setLoadHints@QLibrary@@QEAAXV?$QFlags@W4LoadHint@QLibrary@@@@@Z
       6552 1997 00108C80 ?setLoadHints@QPluginLoader@@QEAAXV?$QFlags@W4LoadHint@QLibrary@@@@@Z
       6553 1998 0013F880 ?setLocale@QCollator@@QEAAXAEBVQLocale@@@Z
       6554 1999 00073FB0 ?setLocale@QResource@@QEAAXAEBVQLocale@@@Z
       6555 199A 00133930 ?setLocale@QTextStream@@QEAAXAEBVQLocale@@@Z
       6556 199B 001FD400 ?setLoopCount@QAbstractAnimation@@QEAAXH@Z
       6557 199C 0024ECF0 ?setLoopCount@QTimeLine@@QEAAXH@Z
       6558 199D 00192090 ?setMSecsSinceEpoch@QDateTime@@QEAAX_J@Z
       6559 199E 00006CF0 ?setMappedAtIterator@QMetaAssociation@@QEBAXPEBX0@Z
       6560 199F 00006D20 ?setMappedAtKey@QMetaAssociation@@QEBAXPEAXPEBX1@Z
       6561 19A0 000F24B0 ?setMapping@QSignalMapper@@QEAAXPEAVQObject@@0@Z
       6562 19A1 000F2590 ?setMapping@QSignalMapper@@QEAAXPEAVQObject@@AEBVQString@@@Z
       6563 19A2 000F2660 ?setMapping@QSignalMapper@@QEAAXPEAVQObject@@H@Z
       6564 19A3 0021AC70 ?setMaxReadBufferSize@QWindowsPipeReader@@QEAAX_J@Z
       6565 19A4 0022D840 ?setMaxThreadCount@QThreadPool@@QEAAXH@Z
       6566 19A5 000BB510 ?setMetaType@QMetaEnumBuilder@@QEAAXVQMetaType@@@Z
       6567 19A6 002CD9A0 ?setModel@QItemSelectionModel@@QEAAXPEAVQAbstractItemModel@@@Z
       6568 19A7 002D1820 ?setModelForwarder@QAbstractProxyModelPrivate@@QEAAXPEAVQAbstractItemModel@@@Z
       6569 19A8 00048DE0 ?setNameFilters@QDir@@QEAAXAEBV?$QList@VQString@@@@@Z
       6570 19A9 001F2E20 ?setNamespaceProcessing@QXmlStreamReader@@QEAAX_N@Z
       6571 19AA 002852F0 ?setNativeArguments@QProcess@@QEAAXAEBVQString@@@Z
       6572 19AB 00035AF0 ?setNativeKey@QSharedMemory@@QEAAXAEBVQNativeIpcKey@@@Z
       6573 19AC 00022280 ?setNativeKey@QSharedMemory@@QEAAXAEBVQString@@@Z
       6574 19AD 00022300 ?setNativeKey@QSharedMemory@@QEAAXAEBVQString@@W4Type@QNativeIpcKey@@@Z
       6575 19AE 00036810 ?setNativeKey@QSystemSemaphore@@QEAAXAEBVQNativeIpcKey@@HW4AccessMode@1@@Z
       6576 19AF 00035D40 ?setNativeKey@QSystemSemaphore@@QEAAXAEBVQString@@HW4AccessMode@1@W4Type@QNativeIpcKey@@@Z
       6577 19B0 00037FC0 ?setNativeKey_internal@QNativeIpcKey@@AEAAXAEBVQString@@@Z
       6578 19B1 000BB570 ?setNotifySignal@QMetaPropertyBuilder@@QEAAXAEBVQMetaMethodBuilder@@@Z
       6579 19B2 00006D50 ?setNum@QByteArray@@QEAAAEAV1@FH@Z
       6580 19B3 00006D60 ?setNum@QByteArray@@QEAAAEAV1@GH@Z
       6581 19B4 00006D70 ?setNum@QByteArray@@QEAAAEAV1@HH@Z
       6582 19B5 00006D80 ?setNum@QByteArray@@QEAAAEAV1@IH@Z
       6583 19B6 00006D70 ?setNum@QByteArray@@QEAAAEAV1@JH@Z
       6584 19B7 00006D80 ?setNum@QByteArray@@QEAAAEAV1@KH@Z
       6585 19B8 00006D90 ?setNum@QByteArray@@QEAAAEAV1@MDH@Z
       6586 19B9 0013AE60 ?setNum@QByteArray@@QEAAAEAV1@NDH@Z
       6587 19BA 0013AF20 ?setNum@QByteArray@@QEAAAEAV1@_JH@Z
       6588 19BB 0013AFA0 ?setNum@QByteArray@@QEAAAEAV1@_KH@Z
       6589 19BC 00006DA0 ?setNum@QString@@QEAAAEAV1@FH@Z
       6590 19BD 00006DB0 ?setNum@QString@@QEAAAEAV1@GH@Z
       6591 19BE 00006DC0 ?setNum@QString@@QEAAAEAV1@HH@Z
       6592 19BF 00006DD0 ?setNum@QString@@QEAAAEAV1@IH@Z
       6593 19C0 00006DC0 ?setNum@QString@@QEAAAEAV1@JH@Z
       6594 19C1 00006DD0 ?setNum@QString@@QEAAAEAV1@KH@Z
       6595 19C2 00006DE0 ?setNum@QString@@QEAAAEAV1@MDH@Z
       6596 19C3 00174400 ?setNum@QString@@QEAAAEAV1@NDH@Z
       6597 19C4 001744C0 ?setNum@QString@@QEAAAEAV1@_JH@Z
       6598 19C5 00174550 ?setNum@QString@@QEAAAEAV1@_KH@Z
       6599 19C6 00133940 ?setNumberFlags@QTextStream@@QEAAXV?$QFlags@W4NumberFlag@QTextStream@@@@@Z
       6600 19C7 00150B60 ?setNumberOptions@QLocale@@QEAAXV?$QFlags@W4NumberOption@QLocale@@@@@Z
       6601 19C8 0013F8D0 ?setNumericMode@QCollator@@QEAAX_N@Z
       6602 19C9 001218F0 ?setObject@QJsonDocument@@QEAAXAEBVQJsonObject@@@Z
       6603 19CA 00022390 ?setObjectName@QObject@@QEAAXAEBVQString@@@Z
       6604 19CB 000E9300 ?setObjectName@QObject@@QEAAXVQAnyStringView@@@Z
       6605 19CC 000EF060 ?setObserver@PropertyAdaptorSlotObjectHelpers@QtPrivate@@YAXPEBVQUntypedPropertyData@@PEAVQPropertyObserver@@@Z
       6606 19CD 00192300 ?setOffsetFromUtc@QDateTime@@QEAAXH@Z
       6607 19CE 00064ED0 ?setOpenMode@QIODevice@@IEAAXV?$QFlags@W4OpenModeFlag@QIODeviceBase@@@@@Z
       6608 19CF 0023E420 ?setOptionsAfterPositionalArgumentsMode@QCommandLineParser@@QEAAXW4OptionsAfterPositionalArgumentsMode@1@@Z
       6609 19D0 000A2140 ?setOrganizationDomain@QCoreApplication@@SAXAEBVQString@@@Z
       6610 19D1 000A2360 ?setOrganizationName@QCoreApplication@@SAXAEBVQString@@@Z
       6611 19D2 0024A7E0 ?setOvershoot@QEasingCurve@@QEAAXN@Z
       6612 19D3 000223A0 ?setP1@QLine@@QEAAXAEBVQPoint@@@Z
       6613 19D4 000223B0 ?setP1@QLineF@@QEAAXAEBVQPointF@@@Z
       6614 19D5 000223C0 ?setP2@QLine@@QEAAXAEBVQPoint@@@Z
       6615 19D6 000223D0 ?setP2@QLineF@@QEAAXAEBVQPointF@@@Z
       6616 19D7 00133950 ?setPadChar@QTextStream@@QEAAXVQChar@@@Z
       6617 19D8 000BB5E0 ?setParameterNames@QMetaMethodBuilder@@QEAAXAEBV?$QList@VQByteArray@@@@@Z
       6618 19D9 000E94B0 ?setParent@QObject@@QEAAXPEAV1@@Z
       6619 19DA 000E94C0 ?setParent_helper@QObjectPrivate@@QEAAXPEAVQObject@@@Z
       6620 19DB 00083D90 ?setPassword@QUrl@@QEAAXAEBVQString@@W4ParsingMode@1@@Z
       6621 19DC 00048EF0 ?setPath@QDir@@QEAAXAEBVQString@@@Z
       6622 19DD 0029C9F0 ?setPath@QSettings@@SAXW4Format@1@W4Scope@1@AEBVQString@@@Z
       6623 19DE 000797A0 ?setPath@QStorageInfo@@QEAAXAEBVQString@@@Z
       6624 19DF 000841A0 ?setPath@QUrl@@QEAAXAEBVQString@@W4ParsingMode@1@@Z
       6625 19E0 0013EFD0 ?setPattern@QByteArrayMatcher@@QEAAXAEBVQByteArray@@@Z
       6626 19E1 0013FFC0 ?setPattern@QLatin1StringMatcher@@QEAAXVQLatin1String@@@Z
       6627 19E2 0025A870 ?setPattern@QRegularExpression@@QEAAXAEBVQString@@@Z
       6628 19E3 001745D0 ?setPattern@QStringMatcher@@QEAAXAEBVQString@@@Z
       6629 19E4 0025A8F0 ?setPatternOptions@QRegularExpression@@QEAAXV?$QFlags@W4PatternOption@QRegularExpression@@@@@Z
       6630 19E5 001FD480 ?setPaused@QAbstractAnimation@@QEAAX_N@Z
       6631 19E6 000A2570 ?setPaused@QFutureInterfaceBase@@QEAAX_N@Z
       6632 19E7 00235130 ?setPaused@QFutureWatcherBase@@QEAAX_N@Z
       6633 19E8 0024ED70 ?setPaused@QTimeLine@@QEAAX_N@Z
       6634 19E9 00235160 ?setPendingResultsLimit@QFutureWatcherBase@@QEAAXH@Z
       6635 19EA 0024A820 ?setPeriod@QEasingCurve@@QEAAXN@Z
       6636 19EB 00028FB0 ?setPermissions@QAbstractFileEngine@@UEAA_NI@Z
       6637 19EC 00216120 ?setPermissions@QFSFileEngine@@UEAA_NI@Z
       6638 19ED 00053110 ?setPermissions@QFile@@SA_NAEBVQString@@V?$QFlags@W4Permission@QFileDevice@@@@@Z
       6639 19EE 000531D0 ?setPermissions@QFile@@UEAA_NV?$QFlags@W4Permission@QFileDevice@@@@@Z
       6640 19EF 000545D0 ?setPermissions@QFileDevice@@UEAA_NV?$QFlags@W4Permission@QFileDevice@@@@@Z
       6641 19F0 000223E0 ?setPoints@QLine@@QEAAXAEBVQPoint@@0@Z
       6642 19F1 000223F0 ?setPoints@QLineF@@QEAAXAEBVQPointF@@0@Z
       6643 19F2 000845A0 ?setPort@QUrl@@QEAAXH@Z
       6644 19F3 001813E0 ?setPosition@QTextBoundaryFinder@@QEAAX_J@Z
       6645 19F4 000A42A0 ?setPreciseDeadline@QDeadlineTimer@@QEAAX_J0W4TimerType@Qt@@@Z
       6646 19F5 000A4330 ?setPreciseRemainingTime@QDeadlineTimer@@QEAAX_J0W4TimerType@Qt@@@Z
       6647 19F6 00185BB0 ?setPriority@QThread@@QEAAXW4Priority@1@@Z
       6648 19F7 00285300 ?setProcessChannelMode@QProcess@@QEAAXW4ProcessChannelMode@1@@Z
       6649 19F8 00285310 ?setProcessEnvironment@QProcess@@QEAAXAEBVQProcessEnvironment@@@Z
       6650 19F9 002853A0 ?setProcessState@QProcess@@IEAAXW4ProcessState@1@@Z
       6651 19FA 00285420 ?setProgram@QProcess@@QEAAXAEBVQString@@@Z
       6652 19FB 00232CA0 ?setProgressRange@QFutureInterfaceBase@@QEAAXHH@Z
       6653 19FC 00232E90 ?setProgressValue@QFutureInterfaceBase@@QEAAXH@Z
       6654 19FD 00232EE0 ?setProgressValueAndText@QFutureInterfaceBase@@QEAAXHAEBVQString@@@Z
       6655 19FE 00006DF0 ?setProperty@QObject@@QEAA_NPEBD$$QEAVQVariant@@@Z
       6656 19FF 00022400 ?setProperty@QObject@@QEAA_NPEBDAEBVQVariant@@@Z
       6657 1A00 00022410 ?setProperty@QPropertyBindingPrivate@@QEAAXPEAVQUntypedPropertyData@@@Z
       6658 1A01 00203B00 ?setPropertyName@QPropertyAnimation@@QEAAXAEBVQByteArray@@@Z
       6659 1A02 000058E0 ?setQObjectShared@ExternalRefCountData@QtSharedPointer@@QEAAXPEBVQObject@@_N@Z
       6660 1A03 0002ACF0 ?setQtconfManualPath@QLibraryInfoPrivate@@SAXPEBVQString@@@Z
       6661 1A04 00084710 ?setQuery@QUrl@@QEAAXAEBVQString@@W4ParsingMode@1@@Z
       6662 1A05 000849E0 ?setQuery@QUrl@@QEAAXAEBVQUrlQuery@@@Z
       6663 1A06 0008C1F0 ?setQuery@QUrlQuery@@QEAAXAEBVQString@@@Z
       6664 1A07 0008C700 ?setQueryDelimiters@QUrlQuery@@QEAAXVQChar@@0@Z
       6665 1A08 0008C750 ?setQueryItems@QUrlQuery@@QEAAXAEBV?$QList@U?$pair@VQString@@V1@@std@@@@@Z
       6666 1A09 000A2580 ?setQuitLockEnabled@QCoreApplication@@SAX_N@Z
       6667 1A0A 00006E00 ?setQuoteStrings@QDebug@@QEAAX_N@Z
       6668 1A0B 0013B000 ?setRawData@QByteArray@@QEAAAEAV1@PEBD_J@Z
       6669 1A0C 00174650 ?setRawData@QString@@QEAAAEAV1@PEBVQChar@@_J@Z
       6670 1A0D 00285480 ?setReadChannel@QProcess@@QEAAXW4ProcessChannel@1@@Z
       6671 1A0E 00064F60 ?setReadChannelCount@QIODevicePrivate@@QEAAXH@Z
       6672 1A0F 000BB730 ?setReadable@QMetaPropertyBuilder@@QEAAX_N@Z
       6673 1A10 00133960 ?setRealNumberNotation@QTextStream@@QEAAXW4RealNumberNotation@1@@Z
       6674 1A11 00133970 ?setRealNumberPrecision@QTextStream@@QEAAXH@Z
       6675 1A12 00022420 ?setRect@QRect@@QEAAXHHHH@Z
