LIBRARY Qt6Core
EXPORTS
"??$qbswap@$01@@YAPEAXPEBX_JPEAX@Z"
"??$qbswap@$03@@YAPEAXPEBX_JPEAX@Z"
"??$qbswap@$07@@YAPEAXPEBX_JPEAX@Z"
"??0?$QBaseIterator@VQMetaAssociation@@@@IEAA@$$QEAV0@@Z"
"??0?$QBaseIterator@VQMetaAssociation@@@@IEAA@AEBV0@@Z"
"??0?$QBaseIterator@VQMetaAssociation@@@@IEAA@PEAV?$QIterable@VQMetaAssociation@@@@PEAX@Z"
"??0?$QBaseIterator@VQMetaAssociation@@@@IEAA@PEBV?$QIterable@VQMetaAssociation@@@@PEAX@Z"
"??0?$QBaseIterator@VQMetaAssociation@@@@IEAA@XZ"
"??0?$QBaseIterator@VQMetaSequence@@@@IEAA@$$QEAV0@@Z"
"??0?$QBaseIterator@VQMetaSequence@@@@IEAA@AEBV0@@Z"
"??0?$QBaseIterator@VQMetaSequence@@@@IEAA@PEAV?$QIterable@VQMetaSequence@@@@PEAX@Z"
"??0?$QBaseIterator@VQMetaSequence@@@@IEAA@PEBV?$QIterable@VQMetaSequence@@@@PEAX@Z"
"??0?$QBaseIterator@VQMetaSequence@@@@IEAA@XZ"
"??0?$QConstIterator@VQMetaAssociation@@@@QEAA@AEBU0@@Z"
"??0?$QConstIterator@VQMetaAssociation@@@@QEAA@PEBV?$QIterable@VQMetaAssociation@@@@PEAX@Z"
"??0?$QConstIterator@VQMetaSequence@@@@QEAA@AEBU0@@Z"
"??0?$QConstIterator@VQMetaSequence@@@@QEAA@PEBV?$QIterable@VQMetaSequence@@@@PEAX@Z"
"??0?$QIterable@VQMetaAssociation@@@@QEAA@AEBVQMetaAssociation@@_JPEAX@Z"
"??0?$QIterable@VQMetaAssociation@@@@QEAA@AEBVQMetaAssociation@@_JPEBX@Z"
"??0?$QIterable@VQMetaSequence@@@@QEAA@AEBVQMetaSequence@@_JPEAX@Z"
"??0?$QIterable@VQMetaSequence@@@@QEAA@AEBVQMetaSequence@@_JPEBX@Z"
"??0?$QIterator@VQMetaAssociation@@@@QEAA@AEBU0@@Z"
"??0?$QIterator@VQMetaAssociation@@@@QEAA@PEAV?$QIterable@VQMetaAssociation@@@@PEAX@Z"
"??0?$QIterator@VQMetaSequence@@@@QEAA@AEBU0@@Z"
"??0?$QIterator@VQMetaSequence@@@@QEAA@PEAV?$QIterable@VQMetaSequence@@@@PEAX@Z"
"??0CompatPropertySafePoint@QtPrivate@@QEAA@PEAUQBindingStatus@@PEAVQUntypedPropertyData@@@Z"
"??0Connection@QMetaObject@@AEAA@PEAX@Z"
"??0Connection@QMetaObject@@QEAA@$$QEAV01@@Z"
"??0Connection@QMetaObject@@QEAA@AEBV01@@Z"
"??0Connection@QMetaObject@@QEAA@XZ"
"??0ExceptionStore@QtPrivate@@QEAA@$$QEAV01@@Z"
"??0ExceptionStore@QtPrivate@@QEAA@AEBV01@@Z"
"??0ExceptionStore@QtPrivate@@QEAA@XZ"
"??0QAbstractAnimation@@IEAA@AEAVQAbstractAnimationPrivate@@PEAVQObject@@@Z"
"??0QAbstractAnimation@@QEAA@PEAVQObject@@@Z"
"??0QAbstractAnimationPrivate@@QEAA@XZ"
"??0QAbstractAnimationTimer@@QEAA@XZ"
"??0QAbstractDynamicMetaObject@@QEAA@AEBU0@@Z"
"??0QAbstractDynamicMetaObject@@QEAA@XZ"
"??0QAbstractEventDispatcher@@IEAA@AEAVQAbstractEventDispatcherPrivate@@PEAVQObject@@@Z"
"??0QAbstractEventDispatcher@@QEAA@PEAVQObject@@@Z"
"??0QAbstractEventDispatcherPrivate@@QEAA@XZ"
"??0QAbstractEventDispatcherV2@@IEAA@AEAVQAbstractEventDispatcherPrivate@@PEAVQObject@@@Z"
"??0QAbstractEventDispatcherV2@@QEAA@PEAVQObject@@@Z"
"??0QAbstractFileEngine@@IEAA@AEAVQAbstractFileEnginePrivate@@@Z"
"??0QAbstractFileEngine@@IEAA@XZ"
"??0QAbstractFileEngineHandler@@QEAA@XZ"
"??0QAbstractFileEngineIterator@@QEAA@AEBVQString@@V?$QFlags@W4Filter@QDir@@@@AEBV?$QList@VQString@@@@@Z"
"??0QAbstractFileEngineIterator@@QEAA@AEBVQString@@V?$QFlags@W4IteratorFlag@QDirListing@@@@AEBV?$QList@VQString@@@@@Z"
"??0QAbstractItemModel@@IEAA@AEAVQAbstractItemModelPrivate@@PEAVQObject@@@Z"
"??0QAbstractItemModel@@QEAA@PEAVQObject@@@Z"
"??0QAbstractItemModelPrivate@@QEAA@XZ"
"??0QAbstractListModel@@IEAA@AEAVQAbstractItemModelPrivate@@PEAVQObject@@@Z"
"??0QAbstractListModel@@QEAA@PEAVQObject@@@Z"
"??0QAbstractMetaCallEvent@@QEAA@AEBV0@@Z"
"??0QAbstractMetaCallEvent@@QEAA@PEBVQObject@@HPEAVQSemaphore@@@Z"
"??0QAbstractNativeEventFilter@@QEAA@XZ"
"??0QAbstractProxyModel@@IEAA@AEAVQAbstractProxyModelPrivate@@PEAVQObject@@@Z"
"??0QAbstractProxyModel@@QEAA@PEAVQObject@@@Z"
"??0QAbstractProxyModelPrivate@@QEAA@XZ"
"??0QAbstractTableModel@@IEAA@AEAVQAbstractItemModelPrivate@@PEAVQObject@@@Z"
"??0QAbstractTableModel@@QEAA@PEAVQObject@@@Z"
"??0QAnimationDriver@@IEAA@AEAVQAnimationDriverPrivate@@PEAVQObject@@@Z"
"??0QAnimationDriver@@QEAA@PEAVQObject@@@Z"
"??0QAnimationDriverPrivate@@QEAA@XZ"
"??0QAnimationGroup@@IEAA@AEAVQAnimationGroupPrivate@@PEAVQObject@@@Z"
"??0QAnimationGroup@@QEAA@PEAVQObject@@@Z"
"??0QAssociativeConstIterator@@QEAA@$$QEAU?$QConstIterator@VQMetaAssociation@@@@@Z"
"??0QAssociativeConstIterator@@QEAA@$$QEAV0@@Z"
"??0QAssociativeConstIterator@@QEAA@AEBV0@@Z"
"??0QAssociativeIterable@@QEAA@$$QEAV?$QIterable@VQMetaAssociation@@@@@Z"
"??0QAssociativeIterable@@QEAA@AEBVQMetaAssociation@@AEBVQMetaType@@PEAX@Z"
"??0QAssociativeIterable@@QEAA@AEBVQMetaAssociation@@AEBVQMetaType@@PEBX@Z"
"??0QAssociativeIterable@@QEAA@XZ"
"??0QAssociativeIterator@@QEAA@$$QEAU?$QIterator@VQMetaAssociation@@@@@Z"
"??0QAssociativeIterator@@QEAA@$$QEAV0@@Z"
"??0QAssociativeIterator@@QEAA@AEBV0@@Z"
"??0QBasicMutex@@QEAA@XZ"
"??0QBasicTimer@@QEAA@$$QEAV0@@Z"
"??0QBasicTimer@@QEAA@XZ"
"??0QBindingStorage@@QEAA@XZ"
"??0QBitArray@@AEAA@$$QEAU?$QArrayDataPointer@D@@@Z"
"??0QBitArray@@QEAA@$$QEAV0@@Z"
"??0QBitArray@@QEAA@AEBV0@@Z"
"??0QBitArray@@QEAA@XZ"
"??0QBitArray@@QEAA@_J_N@Z"
"??0QBitRef@@AEAA@AEAVQBitArray@@_J@Z"
"??0QBluetoothPermission@@QEAA@AEBV0@@Z"
"??0QBluetoothPermission@@QEAA@XZ"
"??0QBuffer@@QEAA@PEAVQByteArray@@PEAVQObject@@@Z"
"??0QBuffer@@QEAA@PEAVQObject@@@Z"
"??0QByteArray@@QEAA@$$QEAU?$QArrayDataPointer@D@@@Z"
"??0QByteArray@@QEAA@$$QEAV0@@Z"
"??0QByteArray@@QEAA@AEBU?$QArrayDataPointer@D@@@Z"
"??0QByteArray@@QEAA@AEBV0@@Z"
"??0QByteArray@@QEAA@PEBD_J@Z"
"??0QByteArray@@QEAA@VQByteArrayView@@@Z"
"??0QByteArray@@QEAA@XZ"
"??0QByteArray@@QEAA@_JD@Z"
"??0QByteArray@@QEAA@_JW4Initialization@Qt@@@Z"
"??0QByteArrayMatcher@@QEAA@AEBV0@@Z"
"??0QByteArrayMatcher@@QEAA@AEBVQByteArray@@@Z"
"??0QByteArrayMatcher@@QEAA@PEBD_J@Z"
"??0QByteArrayMatcher@@QEAA@VQByteArrayView@@@Z"
"??0QByteArrayMatcher@@QEAA@XZ"
"??0QByteArrayView@@QEAA@$$T@Z"
"??0QByteArrayView@@QEAA@XZ"
"??0QCalendar@@QEAA@VQAnyStringView@@@Z"
"??0QCalendar@@QEAA@VQLatin1String@@@Z"
"??0QCalendar@@QEAA@VQStringView@@@Z"
"??0QCalendar@@QEAA@VSystemId@0@@Z"
"??0QCalendar@@QEAA@W4System@0@@Z"
"??0QCalendar@@QEAA@XZ"
"??0QCalendarBackend@@QEAA@XZ"
"??0QCalendarPermission@@QEAA@AEBV0@@Z"
"??0QCalendarPermission@@QEAA@XZ"
"??0QCameraPermission@@QEAA@AEBV0@@Z"
"??0QCameraPermission@@QEAA@XZ"
"??0QCborArray@@AEAA@AEAVQCborContainerPrivate@@@Z"
"??0QCborArray@@QEAA@AEBV0@@Z"
"??0QCborArray@@QEAA@V?$initializer_list@VQCborValue@@@std@@@Z"
"??0QCborArray@@QEAA@XZ"
"??0QCborMap@@AEAA@AEAVQCborContainerPrivate@@@Z"
"??0QCborMap@@QEAA@AEBV0@@Z"
"??0QCborMap@@QEAA@V?$initializer_list@U?$pair@VQCborValue@@V1@@std@@@std@@@Z"
"??0QCborMap@@QEAA@XZ"
"??0QCborStreamReader@@QEAA@AEBVQByteArray@@@Z"
"??0QCborStreamReader@@QEAA@PEAVQIODevice@@@Z"
"??0QCborStreamReader@@QEAA@PEBD_J@Z"
"??0QCborStreamReader@@QEAA@PEBE_J@Z"
"??0QCborStreamReader@@QEAA@XZ"
"??0QCborStreamWriter@@QEAA@PEAVQByteArray@@@Z"
"??0QCborStreamWriter@@QEAA@PEAVQIODevice@@@Z"
"??0QCborValue@@QEAA@$$QEAV0@@Z"
"??0QCborValue@@QEAA@$$QEAVQCborArray@@@Z"
"??0QCborValue@@QEAA@$$QEAVQCborMap@@@Z"
"??0QCborValue@@QEAA@$$T@Z"
"??0QCborValue@@QEAA@AEBV0@@Z"
"??0QCborValue@@QEAA@AEBVQByteArray@@@Z"
"??0QCborValue@@QEAA@AEBVQCborArray@@@Z"
"??0QCborValue@@QEAA@AEBVQCborMap@@@Z"
"??0QCborValue@@QEAA@AEBVQDateTime@@@Z"
"??0QCborValue@@QEAA@AEBVQRegularExpression@@@Z"
"??0QCborValue@@QEAA@AEBVQString@@@Z"
"??0QCborValue@@QEAA@AEBVQUrl@@@Z"
"??0QCborValue@@QEAA@AEBVQUuid@@@Z"
"??0QCborValue@@QEAA@H@Z"
"??0QCborValue@@QEAA@I@Z"
"??0QCborValue@@QEAA@N@Z"
"??0QCborValue@@QEAA@PEBD@Z"
"??0QCborValue@@QEAA@VQLatin1String@@@Z"
"??0QCborValue@@QEAA@VQStringView@@@Z"
"??0QCborValue@@QEAA@W4QCborKnownTags@@AEBV0@@Z"
"??0QCborValue@@QEAA@W4QCborSimpleType@@@Z"
"??0QCborValue@@QEAA@W4QCborTag@@AEBV0@@Z"
"??0QCborValue@@QEAA@W4Type@0@@Z"
"??0QCborValue@@QEAA@XZ"
"??0QCborValue@@QEAA@_J@Z"
"??0QCborValue@@QEAA@_N@Z"
"??0QCborValueRef@@AEAA@PEAVQCborContainerPrivate@@_J@Z"
"??0QCborValueRef@@AEAA@XZ"
"??0QCborValueRef@@QEAA@$$QEAV0@@Z"
"??0QCborValueRef@@QEAA@AEBV0@@Z"
"??0QChar@@QEAA@D@Z"
"??0QChar@@QEAA@E@Z"
"??0QChar@@QEAA@EE@Z"
"??0QChar@@QEAA@F@Z"
"??0QChar@@QEAA@G@Z"
"??0QChar@@QEAA@H@Z"
"??0QChar@@QEAA@I@Z"
"??0QChar@@QEAA@UQLatin1Char@@@Z"
"??0QChar@@QEAA@W4SpecialCharacter@0@@Z"
"??0QChar@@QEAA@XZ"
"??0QChar@@QEAA@_S@Z"
"??0QChar@@QEAA@_W@Z"
"??0QChildEvent@@IEAA@AEBV0@@Z"
"??0QChildEvent@@QEAA@W4Type@QEvent@@PEAVQObject@@@Z"
"??0QChronoTimer@@QEAA@PEAVQObject@@@Z"
"??0QChronoTimer@@QEAA@V?$duration@_JU?$ratio@$00$0DLJKMKAA@@std@@@chrono@std@@PEAVQObject@@@Z"
"??0QCollator@@QEAA@$$QEAV0@@Z"
"??0QCollator@@QEAA@AEBV0@@Z"
"??0QCollator@@QEAA@AEBVQLocale@@@Z"
"??0QCollator@@QEAA@XZ"
"??0QCollatorSortKey@@IEAA@PEAVQCollatorSortKeyPrivate@@@Z"
"??0QCollatorSortKey@@QEAA@$$QEAV0@@Z"
"??0QCollatorSortKey@@QEAA@AEBV0@@Z"
"??0QComHelper@@QEAA@W4tagCOINIT@@@Z"
"??0QCommandLineOption@@QEAA@AEBV0@@Z"
"??0QCommandLineOption@@QEAA@AEBV?$QList@VQString@@@@@Z"
"??0QCommandLineOption@@QEAA@AEBV?$QList@VQString@@@@AEBVQString@@11@Z"
"??0QCommandLineOption@@QEAA@AEBVQString@@000@Z"
"??0QCommandLineOption@@QEAA@AEBVQString@@@Z"
"??0QCommandLineParser@@QEAA@XZ"
"??0QConcatenateTablesProxyModel@@QEAA@PEAVQObject@@@Z"
"??0QContactsPermission@@QEAA@AEBV0@@Z"
"??0QContactsPermission@@QEAA@XZ"
"??0QContiguousCacheData@@QEAA@XZ"
"??0QCoreApplication@@IEAA@AEAVQCoreApplicationPrivate@@@Z"
"??0QCoreApplication@@QEAA@AEAHPEAPEADH@Z"
"??0QCoreApplicationPrivate@@QEAA@AEAHPEAPEAD@Z"
"??0QCryptographicHash@@QEAA@$$QEAV0@@Z"
"??0QCryptographicHash@@QEAA@W4Algorithm@0@@Z"
"??0QDaemonThread@@QEAA@PEAVQObject@@@Z"
"??0QDataStream@@QEAA@AEBVQByteArray@@@Z"
"??0QDataStream@@QEAA@PEAVQByteArray@@V?$QFlags@W4OpenModeFlag@QIODeviceBase@@@@@Z"
"??0QDataStream@@QEAA@PEAVQIODevice@@@Z"
"??0QDataStream@@QEAA@XZ"
"??0QDate@@AEAA@_J@Z"
"??0QDate@@QEAA@HHH@Z"
"??0QDate@@QEAA@HHHVQCalendar@@@Z"
"??0QDate@@QEAA@XZ"
"??0QDateTime@@QEAA@$$QEAV0@@Z"
"??0QDateTime@@QEAA@AEBV0@@Z"
"??0QDateTime@@QEAA@VQDate@@VQTime@@@Z"
"??0QDateTime@@QEAA@VQDate@@VQTime@@AEBVQTimeZone@@@Z"
"??0QDateTime@@QEAA@VQDate@@VQTime@@AEBVQTimeZone@@W4TransitionResolution@0@@Z"
"??0QDateTime@@QEAA@VQDate@@VQTime@@W4TimeSpec@Qt@@H@Z"
"??0QDateTime@@QEAA@VQDate@@VQTime@@W4TransitionResolution@0@@Z"
"??0QDateTime@@QEAA@XZ"
"??0QDateTimeParser@@QEAA@AEBV0@@Z"
"??0QDateTimeParser@@QEAA@W4Type@QMetaType@@W4Context@0@VQCalendar@@@Z"
"??0QDeadlineTimer@@QEAA@W4ForeverConstant@0@W4TimerType@Qt@@@Z"
"??0QDeadlineTimer@@QEAA@W4TimerType@Qt@@@Z"
"??0QDeadlineTimer@@QEAA@XZ"
"??0QDeadlineTimer@@QEAA@_JW4TimerType@Qt@@@Z"
"??0QDebug@@QEAA@$$QEAV0@@Z"
"??0QDebug@@QEAA@AEBV0@@Z"
"??0QDebug@@QEAA@PEAVQIODevice@@@Z"
"??0QDebug@@QEAA@PEAVQString@@@Z"
"??0QDebug@@QEAA@W4QtMsgType@@@Z"
"??0QDebugStateSaver@@QEAA@AEAVQDebug@@@Z"
"??0QDir@@IEAA@AEAVQDirPrivate@@@Z"
"??0QDir@@QEAA@AEBV0@@Z"
"??0QDir@@QEAA@AEBVQString@@0V?$QFlags@W4SortFlag@QDir@@@@V?$QFlags@W4Filter@QDir@@@@@Z"
"??0QDir@@QEAA@AEBVQString@@@Z"
"??0QDirIterator@@QEAA@AEBVQDir@@V?$QFlags@W4IteratorFlag@QDirIterator@@@@@Z"
"??0QDirIterator@@QEAA@AEBVQString@@AEBV?$QList@VQString@@@@V?$QFlags@W4Filter@QDir@@@@V?$QFlags@W4IteratorFlag@QDirIterator@@@@@Z"
"??0QDirIterator@@QEAA@AEBVQString@@V?$QFlags@W4Filter@QDir@@@@V?$QFlags@W4IteratorFlag@QDirIterator@@@@@Z"
"??0QDirIterator@@QEAA@AEBVQString@@V?$QFlags@W4IteratorFlag@QDirIterator@@@@@Z"
"??0QDirListing@@AEAA@AEBVQString@@AEBV?$QList@VQString@@@@II@Z"
"??0QDirListing@@QEAA@AEBVQString@@AEBV?$QList@VQString@@@@V?$QFlags@W4IteratorFlag@QDirListing@@@@@Z"
"??0QDirListing@@QEAA@AEBVQString@@V?$QFlags@W4IteratorFlag@QDirListing@@@@@Z"
"??0QDynamicMetaObjectData@@QEAA@AEBU0@@Z"
"??0QDynamicMetaObjectData@@QEAA@XZ"
"??0QDynamicPropertyChangeEvent@@IEAA@AEBV0@@Z"
"??0QDynamicPropertyChangeEvent@@QEAA@AEBVQByteArray@@@Z"
"??0QEasingCurve@@QEAA@$$QEAV0@@Z"
"??0QEasingCurve@@QEAA@AEBV0@@Z"
"??0QEasingCurve@@QEAA@W4Type@0@@Z"
"??0QElapsedTimer@@QEAA@XZ"
"??0QEvent@@IEAA@AEBV0@@Z"
"??0QEvent@@IEAA@W4Type@0@UInputEventTag@0@@Z"
"??0QEvent@@IEAA@W4Type@0@UPointerEventTag@0@@Z"
"??0QEvent@@IEAA@W4Type@0@USinglePointEventTag@0@@Z"
"??0QEvent@@QEAA@W4Type@0@@Z"
"??0QEventDispatcherWin32@@IEAA@AEAVQEventDispatcherWin32Private@@PEAVQObject@@@Z"
"??0QEventDispatcherWin32@@QEAA@PEAVQObject@@@Z"
"??0QEventDispatcherWin32Private@@QEAA@XZ"
"??0QEventLoop@@QEAA@PEAVQObject@@@Z"
"??0QEventLoopLocker@@QEAA@PEAVQEventLoop@@@Z"
"??0QEventLoopLocker@@QEAA@PEAVQThread@@@Z"
"??0QEventLoopLocker@@QEAA@XZ"
"??0QException@@QEAA@AEBV0@@Z"
"??0QException@@QEAA@XZ"
"??0QFSFileEngine@@IEAA@AEAVQFSFileEnginePrivate@@@Z"
"??0QFSFileEngine@@QEAA@AEBVQString@@@Z"
"??0QFSFileEngine@@QEAA@XZ"
"??0QFactoryInterface@@QEAA@AEBU0@@Z"
"??0QFactoryInterface@@QEAA@XZ"
"??0QFactoryLoader@@QEAA@PEBDAEBVQString@@W4CaseSensitivity@Qt@@@Z"
"??0QFile@@IEAA@AEAVQFilePrivate@@PEAVQObject@@@Z"
"??0QFile@@QEAA@AEBVQString@@@Z"
"??0QFile@@QEAA@AEBVQString@@PEAVQObject@@@Z"
"??0QFile@@QEAA@PEAVQObject@@@Z"
"??0QFile@@QEAA@XZ"
"??0QFileDevice@@IEAA@AEAVQFileDevicePrivate@@PEAVQObject@@@Z"
"??0QFileDevice@@IEAA@PEAVQObject@@@Z"
"??0QFileDevice@@IEAA@XZ"
"??0QFileInfo@@QEAA@AEBV0@@Z"
"??0QFileInfo@@QEAA@AEBVQDir@@AEBVQString@@@Z"
"??0QFileInfo@@QEAA@AEBVQFileDevice@@@Z"
"??0QFileInfo@@QEAA@AEBVQString@@@Z"
"??0QFileInfo@@QEAA@PEAVQFileInfoPrivate@@@Z"
"??0QFileInfo@@QEAA@XZ"
"??0QFileSelector@@QEAA@PEAVQObject@@@Z"
"??0QFileSelectorPrivate@@QEAA@XZ"
"??0QFileSystemWatcher@@QEAA@AEBV?$QList@VQString@@@@PEAVQObject@@@Z"
"??0QFileSystemWatcher@@QEAA@PEAVQObject@@@Z"
"??0QFutureCallOutEvent@@IEAA@AEBV0@@Z"
"??0QFutureCallOutEvent@@QEAA@W4CallOutType@0@H@Z"
"??0QFutureCallOutEvent@@QEAA@W4CallOutType@0@HAEBVQString@@@Z"
"??0QFutureCallOutEvent@@QEAA@W4CallOutType@0@HH@Z"
"??0QFutureCallOutEvent@@QEAA@XZ"
"??0QFutureCallOutInterface@@QEAA@AEBV0@@Z"
"??0QFutureCallOutInterface@@QEAA@XZ"
"??0QFutureInterfaceBase@@QEAA@$$QEAV0@@Z"
"??0QFutureInterfaceBase@@QEAA@AEBV0@@Z"
"??0QFutureInterfaceBase@@QEAA@W4State@0@@Z"
"??0QFutureWatcherBase@@QEAA@PEAVQObject@@@Z"
"??0QGenericArgument@@QEAA@PEBDPEBX@Z"
"??0QGenericReturnArgument@@QEAA@PEBDPEAX@Z"
"??0QGregorianCalendar@@QEAA@XZ"
"??0QHijriCalendar@@QEAA@XZ"
"??0QIODevice@@IEAA@AEAVQIODevicePrivate@@PEAVQObject@@@Z"
"??0QIODevice@@QEAA@PEAVQObject@@@Z"
"??0QIODevice@@QEAA@XZ"
"??0QIODevicePrivate@@QEAA@XZ"
"??0QIdentityProxyModel@@IEAA@AEAVQIdentityProxyModelPrivate@@PEAVQObject@@@Z"
"??0QIdentityProxyModel@@QEAA@PEAVQObject@@@Z"
"??0QIdentityProxyModelPrivate@@QEAA@XZ"
"??0QIslamicCivilCalendar@@QEAA@XZ"
"??0QItemSelection@@QEAA@AEBVQModelIndex@@0@Z"
"??0QItemSelectionModel@@IEAA@AEAVQItemSelectionModelPrivate@@PEAVQAbstractItemModel@@@Z"
"??0QItemSelectionModel@@QEAA@PEAVQAbstractItemModel@@@Z"
"??0QItemSelectionModel@@QEAA@PEAVQAbstractItemModel@@PEAVQObject@@@Z"
"??0QItemSelectionRange@@QEAA@$$QEAV0@@Z"
"??0QItemSelectionRange@@QEAA@AEBV0@@Z"
"??0QItemSelectionRange@@QEAA@AEBVQModelIndex@@0@Z"
"??0QItemSelectionRange@@QEAA@AEBVQModelIndex@@@Z"
"??0QItemSelectionRange@@QEAA@XZ"
"??0QJalaliCalendar@@QEAA@XZ"
"??0QJsonArray@@AEAA@PEAVQCborContainerPrivate@@@Z"
"??0QJsonArray@@QEAA@$$QEAV0@@Z"
"??0QJsonArray@@QEAA@AEBV0@@Z"
"??0QJsonArray@@QEAA@V?$initializer_list@VQJsonValue@@@std@@@Z"
"??0QJsonArray@@QEAA@XZ"
"??0QJsonDocument@@AEAA@AEBVQCborValue@@@Z"
"??0QJsonDocument@@QEAA@$$QEAV0@@Z"
"??0QJsonDocument@@QEAA@AEBV0@@Z"
"??0QJsonDocument@@QEAA@AEBVQJsonArray@@@Z"
"??0QJsonDocument@@QEAA@AEBVQJsonObject@@@Z"
"??0QJsonDocument@@QEAA@XZ"
"??0QJsonObject@@AEAA@PEAVQCborContainerPrivate@@@Z"
"??0QJsonObject@@QEAA@$$QEAV0@@Z"
"??0QJsonObject@@QEAA@AEBV0@@Z"
"??0QJsonObject@@QEAA@V?$initializer_list@U?$pair@VQString@@VQJsonValue@@@std@@@std@@@Z"
"??0QJsonObject@@QEAA@XZ"
"??0QJsonParseError@@QEAA@XZ"
"??0QJsonValue@@QEAA@$$QEAV0@@Z"
"??0QJsonValue@@QEAA@$$QEAVQJsonArray@@@Z"
"??0QJsonValue@@QEAA@$$QEAVQJsonObject@@@Z"
"??0QJsonValue@@QEAA@AEBV0@@Z"
"??0QJsonValue@@QEAA@AEBVQJsonArray@@@Z"
"??0QJsonValue@@QEAA@AEBVQJsonObject@@@Z"
"??0QJsonValue@@QEAA@AEBVQString@@@Z"
"??0QJsonValue@@QEAA@H@Z"
"??0QJsonValue@@QEAA@N@Z"
"??0QJsonValue@@QEAA@PEBD@Z"
"??0QJsonValue@@QEAA@VQLatin1String@@@Z"
"??0QJsonValue@@QEAA@W4Type@0@@Z"
"??0QJsonValue@@QEAA@_J@Z"
"??0QJsonValue@@QEAA@_N@Z"
"??0QJsonValueRef@@QEAA@AEBV0@@Z"
"??0QJsonValueRef@@QEAA@PEAVQJsonArray@@_J@Z"
"??0QJsonValueRef@@QEAA@PEAVQJsonObject@@_J@Z"
"??0QJulianCalendar@@QEAA@XZ"
"??0QLatin1StringMatcher@@QEAA@VQLatin1String@@W4CaseSensitivity@Qt@@@Z"
"??0QLatin1StringMatcher@@QEAA@XZ"
"??0QLibrary@@QEAA@AEBVQString@@0PEAVQObject@@@Z"
"??0QLibrary@@QEAA@AEBVQString@@HPEAVQObject@@@Z"
"??0QLibrary@@QEAA@AEBVQString@@PEAVQObject@@@Z"
"??0QLibrary@@QEAA@PEAVQObject@@@Z"
"??0QLibraryInfo@@AEAA@XZ"
"??0QLine@@QEAA@AEBVQPoint@@0@Z"
"??0QLine@@QEAA@HHHH@Z"
"??0QLine@@QEAA@XZ"
"??0QLineF@@QEAA@AEBVQLine@@@Z"
"??0QLineF@@QEAA@AEBVQPointF@@0@Z"
"??0QLineF@@QEAA@NNNN@Z"
"??0QLineF@@QEAA@XZ"
"??0QLocale@@AEAA@AEAVQLocalePrivate@@@Z"
"??0QLocale@@QEAA@AEBV0@@Z"
"??0QLocale@@QEAA@AEBVQString@@@Z"
"??0QLocale@@QEAA@VQStringView@@@Z"
"??0QLocale@@QEAA@W4Language@0@W4Country@0@@Z"
"??0QLocale@@QEAA@W4Language@0@W4Script@0@W4Country@0@@Z"
"??0QLocale@@QEAA@XZ"
"??0QLocationPermission@@QEAA@AEBV0@@Z"
"??0QLocationPermission@@QEAA@XZ"
"??0QLockFile@@QEAA@AEBVQString@@@Z"
"??0QLoggingCategory@@QEAA@PEBDW4QtMsgType@@@Z"
"??0QMessageAuthenticationCode@@QEAA@$$QEAV0@@Z"
"??0QMessageAuthenticationCode@@QEAA@W4Algorithm@QCryptographicHash@@AEBVQByteArray@@@Z"
"??0QMessageAuthenticationCode@@QEAA@W4Algorithm@QCryptographicHash@@VQByteArrayView@@@Z"
"??0QMessageLogger@@QEAA@PEBDH00@Z"
"??0QMessageLogger@@QEAA@PEBDH0@Z"
"??0QMessageLogger@@QEAA@XZ"
"??0QMetaAssociation@@QEAA@PEBVQMetaAssociationInterface@QtMetaContainerPrivate@@@Z"
"??0QMetaAssociation@@QEAA@XZ"
"??0QMetaCallEvent@@QEAA@GGP6AXPEAVQObject@@W4Call@QMetaObject@@HPEAPEAX@ZPEBV1@H2PEAVQSemaphore@@@Z"
"??0QMetaCallEvent@@QEAA@GGP6AXPEAVQObject@@W4Call@QMetaObject@@HPEAPEAX@ZPEBV1@HH@Z"
"??0QMetaCallEvent@@QEAA@PEAVQSlotObjectBase@QtPrivate@@PEBVQObject@@HH@Z"
"??0QMetaCallEvent@@QEAA@PEAVQSlotObjectBase@QtPrivate@@PEBVQObject@@HPEAPEAXPEAVQSemaphore@@@Z"
"??0QMetaCallEvent@@QEAA@V?$unique_ptr@VQSlotObjectBase@QtPrivate@@UDeleter@12@@std@@PEBVQObject@@HH@Z"
"??0QMetaCallEvent@@QEAA@V?$unique_ptr@VQSlotObjectBase@QtPrivate@@UDeleter@12@@std@@PEBVQObject@@HPEAPEAXPEAVQSemaphore@@@Z"
"??0QMetaClassInfo@@QEAA@XZ"
"??0QMetaContainer@@QEAA@PEBVQMetaContainerInterface@QtMetaContainerPrivate@@@Z"
"??0QMetaContainer@@QEAA@XZ"
"??0QMetaEnum@@AEAA@PEBUQMetaObject@@H@Z"
"??0QMetaEnum@@QEAA@XZ"
"??0QMetaEnumBuilder@@AEAA@PEBVQMetaObjectBuilder@@H@Z"
"??0QMetaEnumBuilder@@QEAA@XZ"
"??0QMetaMethod@@AEAA@PEBUQMetaObject@@AEBUData@0@@Z"
"??0QMetaMethod@@QEAA@XZ"
"??0QMetaMethodBuilder@@AEAA@PEBVQMetaObjectBuilder@@H@Z"
"??0QMetaMethodBuilder@@QEAA@XZ"
"??0QMetaObject@@QEAA@XZ"
"??0QMetaObjectBuilder@@QEAA@PEBUQMetaObject@@V?$QFlags@W4AddMember@QMetaObjectBuilder@@@@@Z"
"??0QMetaObjectBuilder@@QEAA@XZ"
"??0QMetaProperty@@AEAA@PEBUQMetaObject@@H@Z"
"??0QMetaProperty@@QEAA@XZ"
"??0QMetaPropertyBuilder@@AEAA@PEBVQMetaObjectBuilder@@H@Z"
"??0QMetaPropertyBuilder@@QEAA@XZ"
"??0QMetaSequence@@QEAA@PEBVQMetaSequenceInterface@QtMetaContainerPrivate@@@Z"
"??0QMetaSequence@@QEAA@XZ"
"??0QMetaStringTable@@QEAA@AEBVQByteArray@@@Z"
"??0QMetaType@@QEAA@H@Z"
"??0QMetaType@@QEAA@PEBVQMetaTypeInterface@QtPrivate@@@Z"
"??0QMetaType@@QEAA@XZ"
"??0QMetaTypeModuleHelper@@IEAA@XZ"
"??0QMicrophonePermission@@QEAA@AEBV0@@Z"
"??0QMicrophonePermission@@QEAA@XZ"
"??0QMilankovicCalendar@@QEAA@XZ"
"??0QMimeData@@QEAA@XZ"
"??0QMimeDatabase@@QEAA@XZ"
"??0QMimeType@@QEAA@AEBV0@@Z"
"??0QMimeType@@QEAA@AEBVQMimeTypePrivate@@@Z"
"??0QMimeType@@QEAA@XZ"
"??0QMutex@@QEAA@XZ"
"??0QNonContiguousByteDevice@@IEAA@XZ"
"??0QObject@@IEAA@AEAVQObjectPrivate@@PEAV0@@Z"
"??0QObject@@QEAA@PEAV0@@Z"
"??0QObjectCleanupHandler@@QEAA@XZ"
"??0QObjectData@@QEAA@XZ"
"??0QObjectPrivate@@QEAA@H@Z"
"??0QOperatingSystemVersion@@AEAA@XZ"
"??0QOperatingSystemVersion@@QEAA@AEBVQOperatingSystemVersionBase@@@Z"
"??0QOperatingSystemVersion@@QEAA@W4OSType@0@HHH@Z"
"??0QParallelAnimationGroup@@IEAA@AEAVQParallelAnimationGroupPrivate@@PEAVQObject@@@Z"
"??0QParallelAnimationGroup@@QEAA@PEAVQObject@@@Z"
"??0QPauseAnimation@@QEAA@HPEAVQObject@@@Z"
"??0QPauseAnimation@@QEAA@PEAVQObject@@@Z"
"??0QPermissionPlugin@@QEAA@XZ"
"??0QPersistentModelIndex@@QEAA@$$QEAV0@@Z"
"??0QPersistentModelIndex@@QEAA@AEBV0@@Z"
"??0QPersistentModelIndex@@QEAA@AEBVQModelIndex@@@Z"
"??0QPersistentModelIndex@@QEAA@XZ"
"??0QPluginLoader@@QEAA@AEBVQString@@PEAVQObject@@@Z"
"??0QPluginLoader@@QEAA@PEAVQObject@@@Z"
"??0QProcess@@QEAA@PEAVQObject@@@Z"
"??0QProcessEnvironment@@QEAA@AEBV0@@Z"
"??0QProcessEnvironment@@QEAA@W4Initialization@0@@Z"
"??0QProcessEnvironment@@QEAA@XZ"
"??0QPropertyAnimation@@QEAA@PEAVQObject@@@Z"
"??0QPropertyAnimation@@QEAA@PEAVQObject@@AEBVQByteArray@@0@Z"
"??0QPropertyBindingData@QtPrivate@@QEAA@$$QEAV01@@Z"
"??0QPropertyBindingData@QtPrivate@@QEAA@XZ"
"??0QPropertyBindingError@@QEAA@$$QEAV0@@Z"
"??0QPropertyBindingError@@QEAA@AEBV0@@Z"
"??0QPropertyBindingError@@QEAA@W4Type@0@AEBVQString@@@Z"
"??0QPropertyBindingError@@QEAA@XZ"
"??0QPropertyBindingPrivate@@QEAA@VQMetaType@@PEBUBindingFunctionVTable@QtPrivate@@AEBUQPropertyBindingSourceLocation@@_N@Z"
"??0QPropertyBindingSourceLocation@@QEAA@XZ"
"??0QPropertyObserver@@IEAA@P6AXPEAV0@PEAVQUntypedPropertyData@@@Z@Z"
"??0QPropertyObserver@@IEAA@PEAVQUntypedPropertyData@@@Z"
"??0QPropertyObserver@@QEAA@$$QEAV0@@Z"
"??0QPropertyObserver@@QEAA@XZ"
"??0QRandomGenerator@@QEAA@AEAVseed_seq@std@@@Z"
"??0QRandomGenerator@@QEAA@AEBV0@@Z"
"??0QRandomGenerator@@QEAA@PEBI0@Z"
"??0QReadLocker@@QEAA@PEAVQReadWriteLock@@@Z"
"??0QReadWriteLock@@QEAA@W4RecursionMode@0@@Z"
"??0QRect@@QEAA@AEBVQPoint@@0@Z"
"??0QRect@@QEAA@AEBVQPoint@@AEBVQSize@@@Z"
"??0QRect@@QEAA@HHHH@Z"
"??0QRect@@QEAA@XZ"
"??0QRectF@@QEAA@AEBVQPointF@@0@Z"
"??0QRectF@@QEAA@AEBVQPointF@@AEBVQSizeF@@@Z"
"??0QRectF@@QEAA@AEBVQRect@@@Z"
"??0QRectF@@QEAA@NNNN@Z"
"??0QRectF@@QEAA@XZ"
"??0QRecursiveMutex@@QEAA@XZ"
"??0QRegularExpression@@AEAA@AEAUQRegularExpressionPrivate@@@Z"
"??0QRegularExpression@@QEAA@$$QEAV0@@Z"
"??0QRegularExpression@@QEAA@AEBV0@@Z"
"??0QRegularExpression@@QEAA@AEBVQString@@V?$QFlags@W4PatternOption@QRegularExpression@@@@@Z"
"??0QRegularExpression@@QEAA@XZ"
"??0QRegularExpressionMatch@@AEAA@AEAUQRegularExpressionMatchPrivate@@@Z"
"??0QRegularExpressionMatch@@QEAA@$$QEAV0@@Z"
"??0QRegularExpressionMatch@@QEAA@AEBV0@@Z"
"??0QRegularExpressionMatch@@QEAA@XZ"
"??0QRegularExpressionMatchIterator@@AEAA@AEAUQRegularExpressionMatchIteratorPrivate@@@Z"
"??0QRegularExpressionMatchIterator@@QEAA@$$QEAV0@@Z"
"??0QRegularExpressionMatchIterator@@QEAA@AEBV0@@Z"
"??0QRegularExpressionMatchIterator@@QEAA@XZ"
"??0QResource@@QEAA@AEBVQString@@AEBVQLocale@@@Z"
"??0QRomanCalendar@@QEAA@XZ"
"??0QRunnable@@QEAA@XZ"
"??0QSaveFile@@QEAA@AEBVQString@@@Z"
"??0QSaveFile@@QEAA@AEBVQString@@PEAVQObject@@@Z"
"??0QSaveFile@@QEAA@PEAVQObject@@@Z"
"??0QSemaphore@@QEAA@H@Z"
"??0QSequentialAnimationGroup@@IEAA@AEAVQSequentialAnimationGroupPrivate@@PEAVQObject@@@Z"
"??0QSequentialAnimationGroup@@QEAA@PEAVQObject@@@Z"
"??0QSequentialConstIterator@@QEAA@$$QEAU?$QConstIterator@VQMetaSequence@@@@@Z"
"??0QSequentialConstIterator@@QEAA@$$QEAV0@@Z"
"??0QSequentialConstIterator@@QEAA@AEBV0@@Z"
"??0QSequentialIterable@@QEAA@$$QEAV?$QIterable@VQMetaSequence@@@@@Z"
"??0QSequentialIterable@@QEAA@AEBVQMetaSequence@@AEBVQMetaType@@PEAX@Z"
"??0QSequentialIterable@@QEAA@AEBVQMetaSequence@@AEBVQMetaType@@PEBX@Z"
"??0QSequentialIterable@@QEAA@XZ"
"??0QSequentialIterator@@QEAA@$$QEAU?$QIterator@VQMetaSequence@@@@@Z"
"??0QSequentialIterator@@QEAA@$$QEAV0@@Z"
"??0QSequentialIterator@@QEAA@AEBV0@@Z"
"??0QSettings@@QEAA@AEBVQString@@0PEAVQObject@@@Z"
"??0QSettings@@QEAA@AEBVQString@@W4Format@0@PEAVQObject@@@Z"
"??0QSettings@@QEAA@PEAVQObject@@@Z"
"??0QSettings@@QEAA@W4Format@0@W4Scope@0@AEBVQString@@2PEAVQObject@@@Z"
"??0QSettings@@QEAA@W4Scope@0@AEBVQString@@1PEAVQObject@@@Z"
"??0QSettings@@QEAA@W4Scope@0@PEAVQObject@@@Z"
"??0QSharedMemory@@QEAA@AEBVQNativeIpcKey@@PEAVQObject@@@Z"
"??0QSharedMemory@@QEAA@AEBVQString@@PEAVQObject@@@Z"
"??0QSharedMemory@@QEAA@PEAVQObject@@@Z"
"??0QSignalMapper@@QEAA@PEAVQObject@@@Z"
"??0QSize@@QEAA@HH@Z"
"??0QSize@@QEAA@XZ"
"??0QSizeF@@QEAA@AEBVQSize@@@Z"
"??0QSizeF@@QEAA@NN@Z"
"??0QSizeF@@QEAA@XZ"
"??0QSocketNotifier@@QEAA@W4Type@0@PEAVQObject@@@Z"
"??0QSocketNotifier@@QEAA@_JW4Type@0@PEAVQObject@@@Z"
"??0QSortFilterProxyModel@@QEAA@PEAVQObject@@@Z"
"??0QStaticPlugin@@QEAA@P6APEAVQObject@@XZP6A?AUQPluginMetaData@@XZ@Z"
"??0QStorageInfo@@AEAA@AEAVQStorageInfoPrivate@@@Z"
"??0QStorageInfo@@QEAA@AEBV0@@Z"
"??0QStorageInfo@@QEAA@AEBVQDir@@@Z"
"??0QStorageInfo@@QEAA@AEBVQString@@@Z"
"??0QStorageInfo@@QEAA@XZ"
"??0QString@@QEAA@$$QEAU?$QArrayDataPointer@_S@@@Z"
"??0QString@@QEAA@$$QEAV0@@Z"
"??0QString@@QEAA@AEBV0@@Z"
"??0QString@@QEAA@AEBVQByteArray@@@Z"
"??0QString@@QEAA@PEBD@Z"
"??0QString@@QEAA@PEBVQChar@@_J@Z"
"??0QString@@QEAA@VQChar@@@Z"
"??0QString@@QEAA@VQLatin1String@@@Z"
"??0QString@@QEAA@VQStringView@@@Z"
"??0QString@@QEAA@XZ"
"??0QString@@QEAA@_JVQChar@@@Z"
"??0QString@@QEAA@_JW4Initialization@Qt@@@Z"
"??0QStringConverter@@IEAA@PEBDV?$QFlags@W4Flag@QStringConverterBase@@@@@Z"
"??0QStringConverter@@IEAA@VQAnyStringView@@V?$QFlags@W4Flag@QStringConverterBase@@@@@Z"
"??0QStringListModel@@QEAA@AEBV?$QList@VQString@@@@PEAVQObject@@@Z"
"??0QStringListModel@@QEAA@PEAVQObject@@@Z"
"??0QStringMatcher@@QEAA@AEBV0@@Z"
"??0QStringMatcher@@QEAA@AEBVQString@@W4CaseSensitivity@Qt@@@Z"
"??0QStringMatcher@@QEAA@PEBVQChar@@_JW4CaseSensitivity@Qt@@@Z"
"??0QStringMatcher@@QEAA@VQStringView@@W4CaseSensitivity@Qt@@@Z"
"??0QStringMatcher@@QEAA@XZ"
"??0QSystemLocale@@QEAA@XZ"
"??0QSystemSemaphore@@QEAA@AEBVQNativeIpcKey@@HW4AccessMode@0@@Z"
"??0QSystemSemaphore@@QEAA@AEBVQString@@HW4AccessMode@0@@Z"
"??0QTemporaryDir@@QEAA@$$QEAV0@@Z"
"??0QTemporaryDir@@QEAA@AEBVQString@@@Z"
"??0QTemporaryDir@@QEAA@XZ"
"??0QTemporaryFile@@QEAA@AEBVQString@@@Z"
"??0QTemporaryFile@@QEAA@AEBVQString@@PEAVQObject@@@Z"
"??0QTemporaryFile@@QEAA@PEAVQObject@@@Z"
"??0QTemporaryFile@@QEAA@XZ"
"??0QTextBoundaryFinder@@QEAA@AEBV0@@Z"
"??0QTextBoundaryFinder@@QEAA@W4BoundaryType@0@AEBVQString@@@Z"
"??0QTextBoundaryFinder@@QEAA@W4BoundaryType@0@PEBVQChar@@_JPEAE2@Z"
"??0QTextBoundaryFinder@@QEAA@W4BoundaryType@0@VQStringView@@PEAE_J@Z"
"??0QTextBoundaryFinder@@QEAA@XZ"
"??0QTextStream@@QEAA@AEBVQByteArray@@V?$QFlags@W4OpenModeFlag@QIODeviceBase@@@@@Z"
"??0QTextStream@@QEAA@PEAU_iobuf@@V?$QFlags@W4OpenModeFlag@QIODeviceBase@@@@@Z"
"??0QTextStream@@QEAA@PEAVQByteArray@@V?$QFlags@W4OpenModeFlag@QIODeviceBase@@@@@Z"
"??0QTextStream@@QEAA@PEAVQIODevice@@@Z"
"??0QTextStream@@QEAA@PEAVQString@@V?$QFlags@W4OpenModeFlag@QIODeviceBase@@@@@Z"
"??0QTextStream@@QEAA@XZ"
"??0QTextStreamManipulator@@QEAA@P8QTextStream@@EAAXH@ZH@Z"
"??0QTextStreamManipulator@@QEAA@P8QTextStream@@EAAXVQChar@@@Z0@Z"
"??0QThread@@IEAA@AEAVQThreadPrivate@@PEAVQObject@@@Z"
"??0QThread@@QEAA@PEAVQObject@@@Z"
"??0QThreadPool@@QEAA@PEAVQObject@@@Z"
"??0QThreadPoolPrivate@@QEAA@XZ"
"??0QThreadStorageData@@QEAA@P6AXPEAX@Z@Z"
"??0QTime@@AEAA@H@Z"
"??0QTime@@QEAA@HHHH@Z"
"??0QTime@@QEAA@XZ"
"??0QTimeLine@@QEAA@HPEAVQObject@@@Z"
"??0QTimeZone@@AEAA@AEAVQTimeZonePrivate@@@Z"
"??0QTimeZone@@AEAA@UShortData@0@@Z"
"??0QTimeZone@@QEAA@$$QEAV0@@Z"
"??0QTimeZone@@QEAA@AEBV0@@Z"
"??0QTimeZone@@QEAA@AEBVQByteArray@@@Z"
"??0QTimeZone@@QEAA@AEBVQByteArray@@HAEBVQString@@1W4Country@QLocale@@1@Z"
"??0QTimeZone@@QEAA@H@Z"
"??0QTimeZone@@QEAA@W4Initialization@0@@Z"
"??0QTimeZone@@QEAA@XZ"
"??0QTimer@@QEAA@PEAVQObject@@@Z"
"??0QTimerEvent@@IEAA@AEBV0@@Z"
"??0QTimerEvent@@QEAA@H@Z"
"??0QTimerEvent@@QEAA@W4TimerId@Qt@@@Z"
"??0QTranslator@@QEAA@PEAVQObject@@@Z"
"??0QTransposeProxyModel@@IEAA@AEAVQTransposeProxyModelPrivate@@PEAVQObject@@@Z"
"??0QTransposeProxyModel@@QEAA@PEAVQObject@@@Z"
"??0QUnhandledException@@QEAA@$$QEAV0@@Z"
"??0QUnhandledException@@QEAA@AEBV0@@Z"
"??0QUnhandledException@@QEAA@Vexception_ptr@std@@@Z"
"??0QUnifiedTimer@@AEAA@XZ"
"??0QUntypedBindable@@IEAA@PEAVQObject@@AEBVQMetaProperty@@PEBUQBindableInterface@QtPrivate@@@Z"
"??0QUntypedBindable@@IEAA@PEAVQObject@@PEBDPEBUQBindableInterface@QtPrivate@@@Z"
"??0QUntypedPropertyBinding@@QEAA@$$QEAV0@@Z"
"??0QUntypedPropertyBinding@@QEAA@AEBV0@@Z"
"??0QUntypedPropertyBinding@@QEAA@PEAVQPropertyBindingPrivate@@@Z"
"??0QUntypedPropertyBinding@@QEAA@VQMetaType@@PEBUBindingFunctionVTable@QtPrivate@@PEAXAEBUQPropertyBindingSourceLocation@@@Z"
"??0QUntypedPropertyBinding@@QEAA@XZ"
"??0QUrl@@QEAA@$$QEAV0@@Z"
"??0QUrl@@QEAA@AEBV0@@Z"
"??0QUrl@@QEAA@AEBVQString@@W4ParsingMode@0@@Z"
"??0QUrl@@QEAA@XZ"
"??0QUrlQuery@@QEAA@$$QEAV0@@Z"
"??0QUrlQuery@@QEAA@AEBV0@@Z"
"??0QUrlQuery@@QEAA@AEBVQString@@@Z"
"??0QUrlQuery@@QEAA@AEBVQUrl@@@Z"
"??0QUrlQuery@@QEAA@V?$initializer_list@U?$pair@VQString@@V1@@std@@@std@@@Z"
"??0QUrlQuery@@QEAA@XZ"
"??0QUuid@@AEAA@W4Initialization@Qt@@@Z"
"??0QUuid@@QEAA@AEBU_GUID@@@Z"
"??0QUuid@@QEAA@AEBVQByteArray@@@Z"
"??0QUuid@@QEAA@AEBVQString@@@Z"
"??0QUuid@@QEAA@IGGEEEEEEEE@Z"
"??0QUuid@@QEAA@PEBD@Z"
"??0QUuid@@QEAA@TId128Bytes@0@W4Endian@QSysInfo@@@Z"
"??0QUuid@@QEAA@VQAnyStringView@@@Z"
"??0QUuid@@QEAA@XZ"
"??0QVariant@@AEAA@Uin_place_t@std@@VQMetaType@@@Z"
"??0QVariant@@QEAA@$$QEAV0@@Z"
"??0QVariant@@QEAA@AEBV0@@Z"
"??0QVariant@@QEAA@AEBV?$QHash@VQString@@VQVariant@@@@@Z"
"??0QVariant@@QEAA@AEBV?$QList@VQString@@@@@Z"
"??0QVariant@@QEAA@AEBV?$QList@VQVariant@@@@@Z"
"??0QVariant@@QEAA@AEBV?$QMap@VQString@@VQVariant@@@@@Z"
"??0QVariant@@QEAA@AEBVQBitArray@@@Z"
"??0QVariant@@QEAA@AEBVQByteArray@@@Z"
"??0QVariant@@QEAA@AEBVQDateTime@@@Z"
"??0QVariant@@QEAA@AEBVQEasingCurve@@@Z"
"??0QVariant@@QEAA@AEBVQJsonArray@@@Z"
"??0QVariant@@QEAA@AEBVQJsonDocument@@@Z"
"??0QVariant@@QEAA@AEBVQJsonObject@@@Z"
"??0QVariant@@QEAA@AEBVQJsonValue@@@Z"
"??0QVariant@@QEAA@AEBVQLine@@@Z"
"??0QVariant@@QEAA@AEBVQLineF@@@Z"
"??0QVariant@@QEAA@AEBVQLocale@@@Z"
"??0QVariant@@QEAA@AEBVQModelIndex@@@Z"
"??0QVariant@@QEAA@AEBVQPersistentModelIndex@@@Z"
"??0QVariant@@QEAA@AEBVQPoint@@@Z"
"??0QVariant@@QEAA@AEBVQPointF@@@Z"
"??0QVariant@@QEAA@AEBVQRect@@@Z"
"??0QVariant@@QEAA@AEBVQRectF@@@Z"
"??0QVariant@@QEAA@AEBVQRegularExpression@@@Z"
"??0QVariant@@QEAA@AEBVQSize@@@Z"
"??0QVariant@@QEAA@AEBVQSizeF@@@Z"
"??0QVariant@@QEAA@AEBVQString@@@Z"
"??0QVariant@@QEAA@AEBVQUrl@@@Z"
"??0QVariant@@QEAA@AEBVQUuid@@@Z"
"??0QVariant@@QEAA@H@Z"
"??0QVariant@@QEAA@I@Z"
"??0QVariant@@QEAA@M@Z"
"??0QVariant@@QEAA@N@Z"
"??0QVariant@@QEAA@PEBD@Z"
"??0QVariant@@QEAA@VQChar@@@Z"
"??0QVariant@@QEAA@VQDate@@@Z"
"??0QVariant@@QEAA@VQLatin1String@@@Z"
"??0QVariant@@QEAA@VQLine@@@Z"
"??0QVariant@@QEAA@VQLineF@@@Z"
"??0QVariant@@QEAA@VQMetaType@@PEBX@Z"
"??0QVariant@@QEAA@VQPoint@@@Z"
"??0QVariant@@QEAA@VQPointF@@@Z"
"??0QVariant@@QEAA@VQRect@@@Z"
"??0QVariant@@QEAA@VQRectF@@@Z"
"??0QVariant@@QEAA@VQSize@@@Z"
"??0QVariant@@QEAA@VQSizeF@@@Z"
"??0QVariant@@QEAA@VQTime@@@Z"
"??0QVariant@@QEAA@VQUuid@@@Z"
"??0QVariant@@QEAA@W4Type@0@@Z"
"??0QVariant@@QEAA@XZ"
"??0QVariant@@QEAA@_J@Z"
"??0QVariant@@QEAA@_K@Z"
"??0QVariant@@QEAA@_N@Z"
"??0QVariantAnimation@@IEAA@AEAVQVariantAnimationPrivate@@PEAVQObject@@@Z"
"??0QVariantAnimation@@QEAA@PEAVQObject@@@Z"
"??0QVariantConstPointer@@QEAA@$$QEAV0@@Z"
"??0QVariantConstPointer@@QEAA@AEBV0@@Z"
"??0QVariantConstPointer@@QEAA@VQVariant@@@Z"
"??0QVariantTypeCoercer@QtPrivate@@QEAA@$$QEAV01@@Z"
"??0QVariantTypeCoercer@QtPrivate@@QEAA@AEBV01@@Z"
"??0QVariantTypeCoercer@QtPrivate@@QEAA@XZ"
"??0QWaitCondition@@QEAA@XZ"
"??0QWinEventNotifier@@QEAA@PEAVQObject@@@Z"
"??0QWinEventNotifier@@QEAA@PEAXPEAVQObject@@@Z"
"??0QWinRTFactoryCacheRegistration@detail@@QEAA@P6AXXZ@Z"
"??0QWinRegistryKey@@QEAA@$$QEAV0@@Z"
"??0QWinRegistryKey@@QEAA@PEAUHKEY__@@VQStringView@@KK@Z"
"??0QWinRegistryKey@@QEAA@XZ"
"??0QWindowsPipeReader@@QEAA@PEAVQObject@@@Z"
"??0QWindowsPipeWriter@@QEAA@PEAXPEAVQObject@@@Z"
"??0QWriteLocker@@QEAA@PEAVQReadWriteLock@@@Z"
"??0QXmlStreamAttribute@@QEAA@$$QEAV0@@Z"
"??0QXmlStreamAttribute@@QEAA@AEBV0@@Z"
"??0QXmlStreamAttribute@@QEAA@AEBVQString@@00@Z"
"??0QXmlStreamAttribute@@QEAA@AEBVQString@@0@Z"
"??0QXmlStreamAttribute@@QEAA@XZ"
"??0QXmlStreamEntityDeclaration@@QEAA@$$QEAV0@@Z"
"??0QXmlStreamEntityDeclaration@@QEAA@AEBV0@@Z"
"??0QXmlStreamEntityDeclaration@@QEAA@XZ"
"??0QXmlStreamEntityResolver@@QEAA@XZ"
"??0QXmlStreamNamespaceDeclaration@@QEAA@$$QEAV0@@Z"
"??0QXmlStreamNamespaceDeclaration@@QEAA@AEBV0@@Z"
"??0QXmlStreamNamespaceDeclaration@@QEAA@AEBVQString@@0@Z"
"??0QXmlStreamNamespaceDeclaration@@QEAA@XZ"
"??0QXmlStreamNotationDeclaration@@QEAA@$$QEAV0@@Z"
"??0QXmlStreamNotationDeclaration@@QEAA@AEBV0@@Z"
"??0QXmlStreamNotationDeclaration@@QEAA@XZ"
"??0QXmlStreamReader@@AEAA@AEBVQByteArray@@UPrivateConstructorTag@0@@Z"
"??0QXmlStreamReader@@QEAA@AEBVQByteArray@@@Z"
"??0QXmlStreamReader@@QEAA@AEBVQString@@@Z"
"??0QXmlStreamReader@@QEAA@PEAVQIODevice@@@Z"
"??0QXmlStreamReader@@QEAA@PEBD@Z"
"??0QXmlStreamReader@@QEAA@VQAnyStringView@@@Z"
"??0QXmlStreamReader@@QEAA@XZ"
"??0QXmlStreamWriter@@QEAA@PEAVQByteArray@@@Z"
"??0QXmlStreamWriter@@QEAA@PEAVQIODevice@@@Z"
"??0QXmlStreamWriter@@QEAA@PEAVQString@@@Z"
"??0QXmlStreamWriter@@QEAA@XZ"
"??0QZipReader@@QEAA@AEBVQString@@V?$QFlags@W4OpenModeFlag@QIODeviceBase@@@@@Z"
"??0QZipReader@@QEAA@PEAVQIODevice@@@Z"
"??0QZipWriter@@QEAA@AEBVQString@@V?$QFlags@W4OpenModeFlag@QIODeviceBase@@@@@Z"
"??0QZipWriter@@QEAA@PEAVQIODevice@@@Z"
"??0ResultIteratorBase@QtPrivate@@QEAA@Vconst_iterator@?$QMap@HVResultItem@QtPrivate@@@@H@Z"
"??0ResultIteratorBase@QtPrivate@@QEAA@XZ"
"??0ResultStoreBase@QtPrivate@@QEAA@AEBV01@@Z"
"??0ResultStoreBase@QtPrivate@@QEAA@XZ"
"??1?$QBaseIterator@VQMetaAssociation@@@@IEAA@XZ"
"??1?$QBaseIterator@VQMetaSequence@@@@IEAA@XZ"
"??1?$QConstIterator@VQMetaAssociation@@@@QEAA@XZ"
"??1?$QConstIterator@VQMetaSequence@@@@QEAA@XZ"
"??1?$QExplicitlySharedDataPointer@UQRegularExpressionMatchIteratorPrivate@@@@QEAA@XZ"
"??1?$QExplicitlySharedDataPointer@UQRegularExpressionMatchPrivate@@@@QEAA@XZ"
"??1?$QExplicitlySharedDataPointer@UQRegularExpressionPrivate@@@@QEAA@XZ"
"??1?$QIterator@VQMetaAssociation@@@@QEAA@XZ"
"??1?$QIterator@VQMetaSequence@@@@QEAA@XZ"
"??1Connection@QMetaObject@@QEAA@XZ"
"??1ExceptionStore@QtPrivate@@QEAA@XZ"
"??1QAbstractAnimation@@UEAA@XZ"
"??1QAbstractAnimationPrivate@@UEAA@XZ"
"??1QAbstractAnimationTimer@@UEAA@XZ"
"??1QAbstractDynamicMetaObject@@UEAA@XZ"
"??1QAbstractEventDispatcher@@UEAA@XZ"
"??1QAbstractEventDispatcherPrivate@@UEAA@XZ"
"??1QAbstractEventDispatcherV2@@UEAA@XZ"
"??1QAbstractFileEngine@@UEAA@XZ"
"??1QAbstractFileEngineHandler@@UEAA@XZ"
"??1QAbstractFileEngineIterator@@UEAA@XZ"
"??1QAbstractItemModel@@UEAA@XZ"
"??1QAbstractItemModelPrivate@@UEAA@XZ"
"??1QAbstractListModel@@UEAA@XZ"
"??1QAbstractMetaCallEvent@@UEAA@XZ"
"??1QAbstractNativeEventFilter@@UEAA@XZ"
"??1QAbstractProxyModel@@UEAA@XZ"
"??1QAbstractProxyModelPrivate@@UEAA@XZ"
"??1QAbstractTableModel@@UEAA@XZ"
"??1QAnimationDriver@@UEAA@XZ"
"??1QAnimationDriverPrivate@@UEAA@XZ"
"??1QAnimationGroup@@UEAA@XZ"
"??1QAssociativeConstIterator@@QEAA@XZ"
"??1QAssociativeIterator@@QEAA@XZ"
"??1QBasicTimer@@QEAA@XZ"
"??1QBindingStorage@@QEAA@XZ"
"??1QBitArray@@QEAA@XZ"
"??1QBluetoothPermission@@QEAA@XZ"
"??1QBuffer@@UEAA@XZ"
"??1QByteArray@@QEAA@XZ"
"??1QByteArrayMatcher@@QEAA@XZ"
"??1QCalendarBackend@@UEAA@XZ"
"??1QCalendarPermission@@QEAA@XZ"
"??1QCameraPermission@@QEAA@XZ"
"??1QCborArray@@QEAA@XZ"
"??1QCborMap@@QEAA@XZ"
"??1QCborStreamReader@@QEAA@XZ"
"??1QCborStreamWriter@@QEAA@XZ"
"??1QCborValue@@QEAA@XZ"
"??1QChildEvent@@UEAA@XZ"
"??1QChronoTimer@@UEAA@XZ"
"??1QCollator@@QEAA@XZ"
"??1QCollatorSortKey@@QEAA@XZ"
"??1QComHelper@@QEAA@XZ"
"??1QCommandLineOption@@QEAA@XZ"
"??1QCommandLineParser@@QEAA@XZ"
"??1QConcatenateTablesProxyModel@@UEAA@XZ"
"??1QContactsPermission@@QEAA@XZ"
"??1QCoreApplication@@UEAA@XZ"
"??1QCoreApplicationPrivate@@UEAA@XZ"
"??1QCryptographicHash@@QEAA@XZ"
"??1QDaemonThread@@UEAA@XZ"
"??1QDataStream@@QEAA@XZ"
"??1QDateTime@@QEAA@XZ"
"??1QDateTimeParser@@UEAA@XZ"
"??1QDebug@@QEAA@XZ"
"??1QDebugStateSaver@@QEAA@XZ"
"??1QDir@@QEAA@XZ"
"??1QDirIterator@@QEAA@XZ"
"??1QDirListing@@QEAA@XZ"
"??1QDynamicMetaObjectData@@UEAA@XZ"
"??1QDynamicPropertyChangeEvent@@UEAA@XZ"
"??1QEasingCurve@@QEAA@XZ"
"??1QEvent@@UEAA@XZ"
"??1QEventDispatcherWin32@@UEAA@XZ"
"??1QEventDispatcherWin32Private@@UEAA@XZ"
"??1QEventLoop@@UEAA@XZ"
"??1QEventLoopLocker@@QEAA@XZ"
"??1QException@@UEAA@XZ"
"??1QFSFileEngine@@UEAA@XZ"
"??1QFactoryInterface@@UEAA@XZ"
"??1QFactoryLoader@@UEAA@XZ"
"??1QFile@@UEAA@XZ"
"??1QFileDevice@@UEAA@XZ"
"??1QFileInfo@@QEAA@XZ"
"??1QFileSelector@@UEAA@XZ"
"??1QFileSelectorPrivate@@UEAA@XZ"
"??1QFileSystemWatcher@@UEAA@XZ"
"??1QFutureCallOutEvent@@UEAA@XZ"
"??1QFutureCallOutInterface@@UEAA@XZ"
"??1QFutureInterfaceBase@@UEAA@XZ"
"??1QFutureWatcherBase@@UEAA@XZ"
"??1QGenericRunnable@QRunnable@@UEAA@XZ"
"??1QGregorianCalendar@@UEAA@XZ"
"??1QHijriCalendar@@UEAA@XZ"
"??1QIODevice@@UEAA@XZ"
"??1QIODevicePrivate@@UEAA@XZ"
"??1QIdentityProxyModel@@UEAA@XZ"
"??1QIdentityProxyModelPrivate@@UEAA@XZ"
"??1QIslamicCivilCalendar@@UEAA@XZ"
"??1QItemSelectionModel@@UEAA@XZ"
"??1QItemSelectionRange@@QEAA@XZ"
"??1QJalaliCalendar@@UEAA@XZ"
"??1QJsonArray@@QEAA@XZ"
"??1QJsonDocument@@QEAA@XZ"
"??1QJsonObject@@QEAA@XZ"
"??1QJsonValue@@QEAA@XZ"
"??1QJulianCalendar@@UEAA@XZ"
"??1QLatin1StringMatcher@@QEAA@XZ"
"??1QLibrary@@UEAA@XZ"
"??1QLocale@@QEAA@XZ"
"??1QLocationPermission@@QEAA@XZ"
"??1QLockFile@@QEAA@XZ"
"??1QLoggingCategory@@QEAA@XZ"
"??1QMessageAuthenticationCode@@QEAA@XZ"
"??1QMetaCallEvent@@UEAA@XZ"
"??1QMetaObjectBuilder@@UEAA@XZ"
"??1QMetaStringTable@@QEAA@XZ"
"??1QMicrophonePermission@@QEAA@XZ"
"??1QMilankovicCalendar@@UEAA@XZ"
"??1QMimeData@@UEAA@XZ"
"??1QMimeDatabase@@QEAA@XZ"
"??1QMimeType@@QEAA@XZ"
"??1QMutex@@QEAA@XZ"
"??1QNonContiguousByteDevice@@UEAA@XZ"
"??1QObject@@UEAA@XZ"
"??1QObjectCleanupHandler@@UEAA@XZ"
"??1QObjectData@@UEAA@XZ"
"??1QObjectPrivate@@UEAA@XZ"
"??1QParallelAnimationGroup@@UEAA@XZ"
"??1QPauseAnimation@@UEAA@XZ"
"??1QPermissionPlugin@@UEAA@XZ"
"??1QPersistentModelIndex@@QEAA@XZ"
"??1QPluginLoader@@UEAA@XZ"
"??1QProcess@@UEAA@XZ"
"??1QProcessEnvironment@@QEAA@XZ"
"??1QPropertyAnimation@@UEAA@XZ"
"??1QPropertyBindingData@QtPrivate@@QEAA@XZ"
"??1QPropertyBindingError@@QEAA@XZ"
"??1QPropertyBindingPrivate@@QEAA@XZ"
"??1QPropertyObserver@@QEAA@XZ"
"??1QReadLocker@@QEAA@XZ"
"??1QReadWriteLock@@QEAA@XZ"
"??1QRecursiveMutex@@QEAA@XZ"
"??1QRegularExpression@@QEAA@XZ"
"??1QRegularExpressionMatch@@QEAA@XZ"
"??1QRegularExpressionMatchIterator@@QEAA@XZ"
"??1QResource@@QEAA@XZ"
"??1QRomanCalendar@@UEAA@XZ"
"??1QRunnable@@UEAA@XZ"
"??1QSaveFile@@UEAA@XZ"
"??1QSemaphore@@QEAA@XZ"
"??1QSequentialAnimationGroup@@UEAA@XZ"
"??1QSequentialConstIterator@@QEAA@XZ"
"??1QSequentialIterator@@QEAA@XZ"
"??1QSettings@@UEAA@XZ"
"??1QSharedMemory@@UEAA@XZ"
"??1QSignalMapper@@UEAA@XZ"
"??1QSocketNotifier@@UEAA@XZ"
"??1QSortFilterProxyModel@@UEAA@XZ"
"??1QStorageInfo@@QEAA@XZ"
"??1QString@@QEAA@XZ"
"??1QStringListModel@@UEAA@XZ"
"??1QStringMatcher@@QEAA@XZ"
"??1QSystemLocale@@UEAA@XZ"
"??1QSystemSemaphore@@QEAA@XZ"
"??1QTemporaryDir@@QEAA@XZ"
"??1QTemporaryFile@@UEAA@XZ"
"??1QTextBoundaryFinder@@QEAA@XZ"
"??1QTextStream@@UEAA@XZ"
"??1QThread@@UEAA@XZ"
"??1QThreadPool@@UEAA@XZ"
"??1QThreadPoolPrivate@@UEAA@XZ"
"??1QThreadStorageData@@QEAA@XZ"
"??1QTimeLine@@UEAA@XZ"
"??1QTimeZone@@QEAA@XZ"
"??1QTimer@@UEAA@XZ"
"??1QTimerEvent@@UEAA@XZ"
"??1QTranslator@@UEAA@XZ"
"??1QTransposeProxyModel@@UEAA@XZ"
"??1QUnhandledException@@UEAA@XZ"
"??1QUnifiedTimer@@UEAA@XZ"
"??1QUntypedPropertyBinding@@QEAA@XZ"
"??1QUrl@@QEAA@XZ"
"??1QUrlQuery@@QEAA@XZ"
"??1QVariant@@QEAA@XZ"
"??1QVariantAnimation@@UEAA@XZ"
"??1QVariantConstPointer@@QEAA@XZ"
"??1QVariantTypeCoercer@QtPrivate@@QEAA@XZ"
"??1QWaitCondition@@QEAA@XZ"
"??1QWinEventNotifier@@UEAA@XZ"
"??1QWinRTFactoryCacheRegistration@detail@@QEAA@XZ"
"??1QWinRegistryKey@@QEAA@XZ"
"??1QWindowsPipeReader@@UEAA@XZ"
"??1QWindowsPipeWriter@@UEAA@XZ"
"??1QWriteLocker@@QEAA@XZ"
"??1QXmlStreamAttribute@@QEAA@XZ"
"??1QXmlStreamEntityDeclaration@@QEAA@XZ"
"??1QXmlStreamEntityResolver@@UEAA@XZ"
"??1QXmlStreamNamespaceDeclaration@@QEAA@XZ"
"??1QXmlStreamNotationDeclaration@@QEAA@XZ"
"??1QXmlStreamReader@@QEAA@XZ"
"??1QXmlStreamWriter@@QEAA@XZ"
"??1QZipReader@@QEAA@XZ"
"??1QZipWriter@@QEAA@XZ"
"??1ResultStoreBase@QtPrivate@@UEAA@XZ"
"??4?$QBaseIterator@VQMetaAssociation@@@@IEAAAEAV0@$$QEAV0@@Z"
"??4?$QBaseIterator@VQMetaAssociation@@@@IEAAAEAV0@AEBV0@@Z"
"??4?$QBaseIterator@VQMetaSequence@@@@IEAAAEAV0@$$QEAV0@@Z"
"??4?$QBaseIterator@VQMetaSequence@@@@IEAAAEAV0@AEBV0@@Z"
"??4?$QConstIterator@VQMetaAssociation@@@@QEAAAEAU0@$$QEAU0@@Z"
"??4?$QConstIterator@VQMetaAssociation@@@@QEAAAEAU0@AEBU0@@Z"
"??4?$QConstIterator@VQMetaSequence@@@@QEAAAEAU0@$$QEAU0@@Z"
"??4?$QConstIterator@VQMetaSequence@@@@QEAAAEAU0@AEBU0@@Z"
"??4?$QIterable@VQMetaAssociation@@@@QEAAAEAV0@$$QEAV0@@Z"
"??4?$QIterable@VQMetaAssociation@@@@QEAAAEAV0@AEBV0@@Z"
"??4?$QIterable@VQMetaSequence@@@@QEAAAEAV0@$$QEAV0@@Z"
"??4?$QIterable@VQMetaSequence@@@@QEAAAEAV0@AEBV0@@Z"
"??4?$QIterator@VQMetaAssociation@@@@QEAAAEAU0@$$QEAU0@@Z"
"??4?$QIterator@VQMetaAssociation@@@@QEAAAEAU0@AEBU0@@Z"
"??4?$QIterator@VQMetaSequence@@@@QEAAAEAU0@$$QEAU0@@Z"
"??4?$QIterator@VQMetaSequence@@@@QEAAAEAU0@AEBU0@@Z"
"??4Connection@QMetaObject@@QEAAAEAV01@$$QEAV01@@Z"
"??4Connection@QMetaObject@@QEAAAEAV01@AEBV01@@Z"
"??4ExceptionStore@QtPrivate@@QEAAAEAV01@$$QEAV01@@Z"
"??4ExceptionStore@QtPrivate@@QEAAAEAV01@AEBV01@@Z"
"??4QAbstractConcatenable@@QEAAAEAU0@$$QEAU0@@Z"
"??4QAbstractConcatenable@@QEAAAEAU0@AEBU0@@Z"
"??4QAbstractDeclarativeData@@QEAAAEAV0@$$QEAV0@@Z"
"??4QAbstractDeclarativeData@@QEAAAEAV0@AEBV0@@Z"
"??4QAbstractDynamicMetaObject@@QEAAAEAU0@AEBU0@@Z"
"??4QAbstractMetaCallEvent@@QEAAAEAV0@AEBV0@@Z"
"??4QAssociativeConstIterator@@QEAAAEAV0@$$QEAV0@@Z"
"??4QAssociativeConstIterator@@QEAAAEAV0@AEBV0@@Z"
"??4QAssociativeIterable@@QEAAAEAV0@$$QEAV0@@Z"
"??4QAssociativeIterable@@QEAAAEAV0@$$QEAV?$QIterable@VQMetaAssociation@@@@@Z"
"??4QAssociativeIterable@@QEAAAEAV0@AEBV0@@Z"
"??4QAssociativeIterator@@QEAAAEAV0@$$QEAV0@@Z"
"??4QAssociativeIterator@@QEAAAEAV0@AEBV0@@Z"
"??4QBasicTimer@@QEAAAEAV0@$$QEAV0@@Z"
"??4QBindingStorage@@QEAAAEAV0@AEBV0@@Z"
"??4QBitArray@@QEAAAEAV0@$$QEAV0@@Z"
"??4QBitArray@@QEAAAEAV0@AEBV0@@Z"
"??4QBitRef@@QEAAAEAV0@AEBV0@@Z"
"??4QBitRef@@QEAAAEAV0@_N@Z"
"??4QBluetoothPermission@@QEAAAEAV0@AEBV0@@Z"
"??4QByteArray@@QEAAAEAV0@$$QEAV0@@Z"
"??4QByteArray@@QEAAAEAV0@AEBV0@@Z"
"??4QByteArray@@QEAAAEAV0@PEBD@Z"
"??4QByteArrayMatcher@@QEAAAEAV0@AEBV0@@Z"
"??4QByteArrayView@@QEAAAEAV0@$$QEAV0@@Z"
"??4QByteArrayView@@QEAAAEAV0@AEBV0@@Z"
"??4QCalendar@@QEAAAEAV0@$$QEAV0@@Z"
"??4QCalendar@@QEAAAEAV0@AEBV0@@Z"
"??4QCalendarPermission@@QEAAAEAV0@AEBV0@@Z"
"??4QCameraPermission@@QEAAAEAV0@AEBV0@@Z"
"??4QCborArray@@QEAAAEAV0@AEBV0@@Z"
"??4QCborError@@QEAAAEAU0@$$QEAU0@@Z"
"??4QCborError@@QEAAAEAU0@AEBU0@@Z"
"??4QCborMap@@QEAAAEAV0@AEBV0@@Z"
"??4QCborValue@@QEAAAEAV0@$$QEAV0@@Z"
"??4QCborValue@@QEAAAEAV0@AEBV0@@Z"
"??4QCborValueRef@@QEAAAEAV0@$$QEAVQCborValue@@@Z"
"??4QCborValueRef@@QEAAAEAV0@AEBV0@@Z"
"??4QCborValueRef@@QEAAAEAV0@AEBVQCborValue@@@Z"
"??4QChar@@QEAAAEAV0@$$QEAV0@@Z"
"??4QChar@@QEAAAEAV0@AEBV0@@Z"
"??4QChildEvent@@IEAAAEAV0@AEBV0@@Z"
"??4QCollator@@QEAAAEAV0@$$QEAV0@@Z"
"??4QCollator@@QEAAAEAV0@AEBV0@@Z"
"??4QCollatorSortKey@@QEAAAEAV0@$$QEAV0@@Z"
"??4QCollatorSortKey@@QEAAAEAV0@AEBV0@@Z"
"??4QCommandLineOption@@QEAAAEAV0@$$QEAV0@@Z"
"??4QCommandLineOption@@QEAAAEAV0@AEBV0@@Z"
"??4QContactsPermission@@QEAAAEAV0@AEBV0@@Z"
"??4QContainerImplHelper@QtPrivate@@QEAAAEAU01@$$QEAU01@@Z"
"??4QContainerImplHelper@QtPrivate@@QEAAAEAU01@AEBU01@@Z"
"??4QCryptographicHash@@QEAAAEAV0@$$QEAV0@@Z"
"??4QDate@@QEAAAEAV0@$$QEAV0@@Z"
"??4QDate@@QEAAAEAV0@AEBV0@@Z"
"??4QDateTime@@QEAAAEAV0@$$QEAV0@@Z"
"??4QDateTime@@QEAAAEAV0@AEBV0@@Z"
"??4QDateTimeParser@@QEAAAEAV0@AEBV0@@Z"
"??4QDeadlineTimer@@QEAAAEAV0@$$QEAV0@@Z"
"??4QDeadlineTimer@@QEAAAEAV0@AEBV0@@Z"
"??4QDebug@@QEAAAEAV0@$$QEAV0@@Z"
"??4QDebug@@QEAAAEAV0@AEBV0@@Z"
"??4QDir@@QEAAAEAV0@$$QEAV0@@Z"
"??4QDir@@QEAAAEAV0@AEBV0@@Z"
"??4QDynamicMetaObjectData@@QEAAAEAU0@AEBU0@@Z"
"??4QDynamicPropertyChangeEvent@@IEAAAEAV0@AEBV0@@Z"
"??4QEasingCurve@@QEAAAEAV0@$$QEAV0@@Z"
"??4QEasingCurve@@QEAAAEAV0@AEBV0@@Z"
"??4QElapsedTimer@@QEAAAEAV0@$$QEAV0@@Z"
"??4QElapsedTimer@@QEAAAEAV0@AEBV0@@Z"
"??4QEvent@@IEAAAEAV0@AEBV0@@Z"
"??4QException@@QEAAAEAV0@AEBV0@@Z"
"??4QFactoryInterface@@QEAAAEAU0@AEBU0@@Z"
"??4QFileInfo@@QEAAAEAV0@$$QEAV0@@Z"
"??4QFileInfo@@QEAAAEAV0@AEBV0@@Z"
"??4QFutureCallOutEvent@@IEAAAEAV0@AEBV0@@Z"
"??4QFutureCallOutInterface@@QEAAAEAV0@AEBV0@@Z"
"??4QFutureInterfaceBase@@QEAAAEAV0@$$QEAV0@@Z"
"??4QFutureInterfaceBase@@QEAAAEAV0@AEBV0@@Z"
"??4QGenericArgument@@QEAAAEAV0@$$QEAV0@@Z"
"??4QGenericArgument@@QEAAAEAV0@AEBV0@@Z"
"??4QGenericReturnArgument@@QEAAAEAV0@$$QEAV0@@Z"
"??4QGenericReturnArgument@@QEAAAEAV0@AEBV0@@Z"
"??4QInternal@@QEAAAEAV0@$$QEAV0@@Z"
"??4QInternal@@QEAAAEAV0@AEBV0@@Z"
"??4QItemSelectionRange@@QEAAAEAV0@$$QEAV0@@Z"
"??4QItemSelectionRange@@QEAAAEAV0@AEBV0@@Z"
"??4QJsonArray@@QEAAAEAV0@$$QEAV0@@Z"
"??4QJsonArray@@QEAAAEAV0@AEBV0@@Z"
"??4QJsonDocument@@QEAAAEAV0@$$QEAV0@@Z"
"??4QJsonDocument@@QEAAAEAV0@AEBV0@@Z"
"??4QJsonObject@@QEAAAEAV0@$$QEAV0@@Z"
"??4QJsonObject@@QEAAAEAV0@AEBV0@@Z"
"??4QJsonParseError@@QEAAAEAU0@$$QEAU0@@Z"
"??4QJsonParseError@@QEAAAEAU0@AEBU0@@Z"
"??4QJsonValue@@QEAAAEAV0@$$QEAV0@@Z"
"??4QJsonValue@@QEAAAEAV0@AEBV0@@Z"
"??4QJsonValueRef@@QEAAAEAV0@AEBV0@@Z"
"??4QJsonValueRef@@QEAAAEAV0@AEBVQJsonValue@@@Z"
"??4QLibraryInfo@@QEAAAEAV0@$$QEAV0@@Z"
"??4QLibraryInfo@@QEAAAEAV0@AEBV0@@Z"
"??4QLibraryInfoPrivate@@QEAAAEAV0@$$QEAV0@@Z"
"??4QLibraryInfoPrivate@@QEAAAEAV0@AEBV0@@Z"
"??4QLine@@QEAAAEAV0@$$QEAV0@@Z"
"??4QLine@@QEAAAEAV0@AEBV0@@Z"
"??4QLineF@@QEAAAEAV0@$$QEAV0@@Z"
"??4QLineF@@QEAAAEAV0@AEBV0@@Z"
"??4QLocal8Bit@@QEAAAEAU0@$$QEAU0@@Z"
"??4QLocal8Bit@@QEAAAEAU0@AEBU0@@Z"
"??4QLocale@@QEAAAEAV0@$$QEAV0@@Z"
"??4QLocale@@QEAAAEAV0@AEBV0@@Z"
"??4QLocationPermission@@QEAAAEAV0@AEBV0@@Z"
"??4QMessageAuthenticationCode@@QEAAAEAV0@$$QEAV0@@Z"
"??4QMetaAssociation@@QEAAAEAV0@$$QEAV0@@Z"
"??4QMetaAssociation@@QEAAAEAV0@AEBV0@@Z"
"??4QMetaClassInfo@@QEAAAEAV0@$$QEAV0@@Z"
"??4QMetaClassInfo@@QEAAAEAV0@AEBV0@@Z"
"??4QMetaContainer@@QEAAAEAV0@$$QEAV0@@Z"
"??4QMetaContainer@@QEAAAEAV0@AEBV0@@Z"
"??4QMetaEnum@@QEAAAEAV0@$$QEAV0@@Z"
"??4QMetaEnum@@QEAAAEAV0@AEBV0@@Z"
"??4QMetaEnumBuilder@@QEAAAEAV0@$$QEAV0@@Z"
"??4QMetaEnumBuilder@@QEAAAEAV0@AEBV0@@Z"
"??4QMetaMethod@@QEAAAEAV0@$$QEAV0@@Z"
"??4QMetaMethod@@QEAAAEAV0@AEBV0@@Z"
"??4QMetaMethodBuilder@@QEAAAEAV0@$$QEAV0@@Z"
"??4QMetaMethodBuilder@@QEAAAEAV0@AEBV0@@Z"
"??4QMetaObject@@QEAAAEAU0@$$QEAU0@@Z"
"??4QMetaObject@@QEAAAEAU0@AEBU0@@Z"
"??4QMetaProperty@@QEAAAEAV0@$$QEAV0@@Z"
"??4QMetaProperty@@QEAAAEAV0@AEBV0@@Z"
"??4QMetaPropertyBuilder@@QEAAAEAV0@$$QEAV0@@Z"
"??4QMetaPropertyBuilder@@QEAAAEAV0@AEBV0@@Z"
"??4QMetaSequence@@QEAAAEAV0@$$QEAV0@@Z"
"??4QMetaSequence@@QEAAAEAV0@AEBV0@@Z"
"??4QMetaType@@QEAAAEAV0@$$QEAV0@@Z"
"??4QMetaType@@QEAAAEAV0@AEBV0@@Z"
"??4QMicrophonePermission@@QEAAAEAV0@AEBV0@@Z"
"??4QMimeType@@QEAAAEAV0@$$QEAV0@@Z"
"??4QMimeType@@QEAAAEAV0@AEBV0@@Z"
"??4QNonContiguousByteDeviceFactory@@QEAAAEAV0@$$QEAV0@@Z"
"??4QNonContiguousByteDeviceFactory@@QEAAAEAV0@AEBV0@@Z"
"??4QOperatingSystemVersion@@QEAAAEAV0@$$QEAV0@@Z"
"??4QOperatingSystemVersion@@QEAAAEAV0@AEBV0@@Z"
"??4QPersistentModelIndex@@QEAAAEAV0@$$QEAV0@@Z"
"??4QPersistentModelIndex@@QEAAAEAV0@AEBV0@@Z"
"??4QPersistentModelIndex@@QEAAAEAV0@AEBVQModelIndex@@@Z"
"??4QProcessEnvironment@@QEAAAEAV0@$$QEAV0@@Z"
"??4QProcessEnvironment@@QEAAAEAV0@AEBV0@@Z"
"??4QPropertyBindingError@@QEAAAEAV0@$$QEAV0@@Z"
"??4QPropertyBindingError@@QEAAAEAV0@AEBV0@@Z"
"??4QPropertyBindingSourceLocation@@QEAAAEAU0@$$QEAU0@@Z"
"??4QPropertyBindingSourceLocation@@QEAAAEAU0@AEBU0@@Z"
"??4QPropertyObserver@@QEAAAEAV0@$$QEAV0@@Z"
"??4QRandomGenerator@@QEAAAEAV0@AEBV0@@Z"
"??4QRect@@QEAAAEAV0@$$QEAV0@@Z"
"??4QRect@@QEAAAEAV0@AEBV0@@Z"
"??4QRectF@@QEAAAEAV0@$$QEAV0@@Z"
"??4QRectF@@QEAAAEAV0@AEBV0@@Z"
"??4QRegularExpression@@QEAAAEAV0@$$QEAV0@@Z"
"??4QRegularExpression@@QEAAAEAV0@AEBV0@@Z"
"??4QRegularExpressionMatch@@QEAAAEAV0@$$QEAV0@@Z"
"??4QRegularExpressionMatch@@QEAAAEAV0@AEBV0@@Z"
"??4QRegularExpressionMatchIterator@@QEAAAEAV0@$$QEAV0@@Z"
"??4QRegularExpressionMatchIterator@@QEAAAEAV0@AEBV0@@Z"
"??4QSequentialConstIterator@@QEAAAEAV0@$$QEAV0@@Z"
"??4QSequentialConstIterator@@QEAAAEAV0@AEBV0@@Z"
"??4QSequentialIterable@@QEAAAEAV0@$$QEAV0@@Z"
"??4QSequentialIterable@@QEAAAEAV0@$$QEAV?$QIterable@VQMetaSequence@@@@@Z"
"??4QSequentialIterable@@QEAAAEAV0@AEBV0@@Z"
"??4QSequentialIterator@@QEAAAEAV0@$$QEAV0@@Z"
"??4QSequentialIterator@@QEAAAEAV0@AEBV0@@Z"
"??4QSize@@QEAAAEAV0@$$QEAV0@@Z"
"??4QSize@@QEAAAEAV0@AEBV0@@Z"
"??4QSizeF@@QEAAAEAV0@$$QEAV0@@Z"
"??4QSizeF@@QEAAAEAV0@AEBV0@@Z"
"??4QStandardPaths@@QEAAAEAV0@AEBV0@@Z"
"??4QStaticPlugin@@QEAAAEAU0@$$QEAU0@@Z"
"??4QStaticPlugin@@QEAAAEAU0@AEBU0@@Z"
"??4QStorageInfo@@QEAAAEAV0@$$QEAV0@@Z"
"??4QStorageInfo@@QEAAAEAV0@AEBV0@@Z"
"??4QString@@QEAAAEAV0@$$QEAV0@@Z"
"??4QString@@QEAAAEAV0@AEBV0@@Z"
"??4QString@@QEAAAEAV0@AEBVQByteArray@@@Z"
"??4QString@@QEAAAEAV0@PEBD@Z"
"??4QString@@QEAAAEAV0@VQChar@@@Z"
"??4QString@@QEAAAEAV0@VQLatin1String@@@Z"
"??4QStringMatcher@@QEAAAEAV0@AEBV0@@Z"
"??4QSysInfo@@QEAAAEAV0@$$QEAV0@@Z"
"??4QSysInfo@@QEAAAEAV0@AEBV0@@Z"
"??4QTemporaryDir@@QEAAAEAV0@$$QEAV0@@Z"
"??4QTextBoundaryFinder@@QEAAAEAV0@AEBV0@@Z"
"??4QTextStreamManipulator@@QEAAAEAV0@$$QEAV0@@Z"
"??4QTextStreamManipulator@@QEAAAEAV0@AEBV0@@Z"
"??4QThreadStorageData@@QEAAAEAV0@AEBV0@@Z"
"??4QTime@@QEAAAEAV0@$$QEAV0@@Z"
"??4QTime@@QEAAAEAV0@AEBV0@@Z"
"??4QTimeZone@@QEAAAEAV0@$$QEAV0@@Z"
"??4QTimeZone@@QEAAAEAV0@AEBV0@@Z"
"??4QTimerEvent@@IEAAAEAV0@AEBV0@@Z"
"??4QUnhandledException@@QEAAAEAV0@$$QEAV0@@Z"
"??4QUnhandledException@@QEAAAEAV0@AEBV0@@Z"
"??4QUntypedPropertyBinding@@QEAAAEAV0@$$QEAV0@@Z"
"??4QUntypedPropertyBinding@@QEAAAEAV0@AEBV0@@Z"
"??4QUrl@@QEAAAEAV0@$$QEAV0@@Z"
"??4QUrl@@QEAAAEAV0@AEBV0@@Z"
"??4QUrl@@QEAAAEAV0@AEBVQString@@@Z"
"??4QUrlQuery@@QEAAAEAV0@$$QEAV0@@Z"
"??4QUrlQuery@@QEAAAEAV0@AEBV0@@Z"
"??4QUuid@@QEAAAEAV0@$$QEAV0@@Z"
"??4QUuid@@QEAAAEAV0@AEBU_GUID@@@Z"
"??4QUuid@@QEAAAEAV0@AEBV0@@Z"
"??4QVariant@@QEAAAEAV0@$$QEAV0@@Z"
"??4QVariant@@QEAAAEAV0@AEBV0@@Z"
"??4QVariantConstPointer@@QEAAAEAV0@$$QEAV0@@Z"
"??4QVariantConstPointer@@QEAAAEAV0@AEBV0@@Z"
"??4QVariantTypeCoercer@QtPrivate@@QEAAAEAV01@$$QEAV01@@Z"
"??4QVariantTypeCoercer@QtPrivate@@QEAAAEAV01@AEBV01@@Z"
"??4QWinRegistryKey@@QEAAAEAV0@$$QEAV0@@Z"
"??4QXmlStreamAttribute@@QEAAAEAV0@$$QEAV0@@Z"
"??4QXmlStreamAttribute@@QEAAAEAV0@AEBV0@@Z"
"??4QXmlStreamEntityDeclaration@@QEAAAEAV0@$$QEAV0@@Z"
"??4QXmlStreamEntityDeclaration@@QEAAAEAV0@AEBV0@@Z"
"??4QXmlStreamNamespaceDeclaration@@QEAAAEAV0@$$QEAV0@@Z"
"??4QXmlStreamNamespaceDeclaration@@QEAAAEAV0@AEBV0@@Z"
"??4QXmlStreamNotationDeclaration@@QEAAAEAV0@$$QEAV0@@Z"
"??4QXmlStreamNotationDeclaration@@QEAAAEAV0@AEBV0@@Z"
"??4QXmlUtils@@QEAAAEAV0@$$QEAV0@@Z"
"??4QXmlUtils@@QEAAAEAV0@AEBV0@@Z"
"??4ResultIteratorBase@QtPrivate@@QEAAAEAV01@$$QEAV01@@Z"
"??4ResultIteratorBase@QtPrivate@@QEAAAEAV01@AEBV01@@Z"
"??4ResultStoreBase@QtPrivate@@QEAAAEAV01@AEBV01@@Z"
"??4SectionNode@QDateTimeParser@@QEAAAEAU01@$$QEAU01@@Z"
"??4SectionNode@QDateTimeParser@@QEAAAEAU01@AEBU01@@Z"
"??5@YAAEAVQDataStream@@AEAV0@AEAVQBitArray@@@Z"
"??5@YAAEAVQDataStream@@AEAV0@AEAVQByteArray@@@Z"
"??5@YAAEAVQDataStream@@AEAV0@AEAVQCborArray@@@Z"
"??5@YAAEAVQDataStream@@AEAV0@AEAVQCborMap@@@Z"
"??5@YAAEAVQDataStream@@AEAV0@AEAVQCborValue@@@Z"
"??5@YAAEAVQDataStream@@AEAV0@AEAVQChar@@@Z"
"??5@YAAEAVQDataStream@@AEAV0@AEAVQDate@@@Z"
"??5@YAAEAVQDataStream@@AEAV0@AEAVQDateTime@@@Z"
"??5@YAAEAVQDataStream@@AEAV0@AEAVQEasingCurve@@@Z"
"??5@YAAEAVQDataStream@@AEAV0@AEAVQJsonArray@@@Z"
"??5@YAAEAVQDataStream@@AEAV0@AEAVQJsonDocument@@@Z"
"??5@YAAEAVQDataStream@@AEAV0@AEAVQJsonObject@@@Z"
"??5@YAAEAVQDataStream@@AEAV0@AEAVQJsonValue@@@Z"
"??5@YAAEAVQDataStream@@AEAV0@AEAVQLine@@@Z"
"??5@YAAEAVQDataStream@@AEAV0@AEAVQLineF@@@Z"
"??5@YAAEAVQDataStream@@AEAV0@AEAVQLocale@@@Z"
"??5@YAAEAVQDataStream@@AEAV0@AEAVQMargins@@@Z"
"??5@YAAEAVQDataStream@@AEAV0@AEAVQMarginsF@@@Z"
"??5@YAAEAVQDataStream@@AEAV0@AEAVQPoint@@@Z"
"??5@YAAEAVQDataStream@@AEAV0@AEAVQPointF@@@Z"
"??5@YAAEAVQDataStream@@AEAV0@AEAVQRect@@@Z"
"??5@YAAEAVQDataStream@@AEAV0@AEAVQRectF@@@Z"
"??5@YAAEAVQDataStream@@AEAV0@AEAVQRegularExpression@@@Z"
"??5@YAAEAVQDataStream@@AEAV0@AEAVQSize@@@Z"
"??5@YAAEAVQDataStream@@AEAV0@AEAVQSizeF@@@Z"
"??5@YAAEAVQDataStream@@AEAV0@AEAVQString@@@Z"
"??5@YAAEAVQDataStream@@AEAV0@AEAVQTime@@@Z"
"??5@YAAEAVQDataStream@@AEAV0@AEAVQTimeZone@@@Z"
"??5@YAAEAVQDataStream@@AEAV0@AEAVQTypeRevision@@@Z"
"??5@YAAEAVQDataStream@@AEAV0@AEAVQUrl@@@Z"
"??5@YAAEAVQDataStream@@AEAV0@AEAVQUuid@@@Z"
"??5@YAAEAVQDataStream@@AEAV0@AEAVQVariant@@@Z"
"??5@YAAEAVQDataStream@@AEAV0@AEAVQVersionNumber@@@Z"
"??5@YAAEAVQDataStream@@AEAV0@AEAVqfloat16@@@Z"
"??5@YAAEAVQDataStream@@AEAV0@AEAW4QCborSimpleType@@@Z"
"??5@YAAEAVQTextStream@@AEAV0@AEAVqfloat16@@@Z"
"??5QDataStream@@QEAAAEAV0@AEA$$T@Z"
"??5QDataStream@@QEAAAEAV0@AEAC@Z"
"??5QDataStream@@QEAAAEAV0@AEAD@Z"
"??5QDataStream@@QEAAAEAV0@AEAE@Z"
"??5QDataStream@@QEAAAEAV0@AEAF@Z"
"??5QDataStream@@QEAAAEAV0@AEAG@Z"
"??5QDataStream@@QEAAAEAV0@AEAH@Z"
"??5QDataStream@@QEAAAEAV0@AEAI@Z"
"??5QDataStream@@QEAAAEAV0@AEAM@Z"
"??5QDataStream@@QEAAAEAV0@AEAN@Z"
"??5QDataStream@@QEAAAEAV0@AEAPEAD@Z"
"??5QDataStream@@QEAAAEAV0@AEAVqfloat16@@@Z"
"??5QDataStream@@QEAAAEAV0@AEA_J@Z"
"??5QDataStream@@QEAAAEAV0@AEA_K@Z"
"??5QDataStream@@QEAAAEAV0@AEA_N@Z"
"??5QDataStream@@QEAAAEAV0@AEA_S@Z"
"??5QDataStream@@QEAAAEAV0@AEA_U@Z"
"??5QTextStream@@QEAAAEAV0@AEAD@Z"
"??5QTextStream@@QEAAAEAV0@AEAF@Z"
"??5QTextStream@@QEAAAEAV0@AEAG@Z"
"??5QTextStream@@QEAAAEAV0@AEAH@Z"
"??5QTextStream@@QEAAAEAV0@AEAI@Z"
"??5QTextStream@@QEAAAEAV0@AEAJ@Z"
"??5QTextStream@@QEAAAEAV0@AEAK@Z"
"??5QTextStream@@QEAAAEAV0@AEAM@Z"
"??5QTextStream@@QEAAAEAV0@AEAN@Z"
"??5QTextStream@@QEAAAEAV0@AEAVQByteArray@@@Z"
"??5QTextStream@@QEAAAEAV0@AEAVQChar@@@Z"
"??5QTextStream@@QEAAAEAV0@AEAVQString@@@Z"
"??5QTextStream@@QEAAAEAV0@AEA_J@Z"
"??5QTextStream@@QEAAAEAV0@AEA_K@Z"
"??5QTextStream@@QEAAAEAV0@AEA_S@Z"
"??5QTextStream@@QEAAAEAV0@PEAD@Z"
"??6@YA?AVQDebug@@V0@AEBUtagMSG@@@Z"
"??6@YA?AVQDebug@@V0@AEBVQBitArray@@@Z"
"??6@YA?AVQDebug@@V0@AEBVQCborArray@@@Z"
"??6@YA?AVQDebug@@V0@AEBVQCborMap@@@Z"
"??6@YA?AVQDebug@@V0@AEBVQCborValue@@@Z"
"??6@YA?AVQDebug@@V0@AEBVQDateTime@@@Z"
"??6@YA?AVQDebug@@V0@AEBVQDir@@@Z"
"??6@YA?AVQDebug@@V0@AEBVQEasingCurve@@@Z"
"??6@YA?AVQDebug@@V0@AEBVQFileInfo@@@Z"
"??6@YA?AVQDebug@@V0@AEBVQItemSelectionRange@@@Z"
"??6@YA?AVQDebug@@V0@AEBVQJsonArray@@@Z"
"??6@YA?AVQDebug@@V0@AEBVQJsonDocument@@@Z"
"??6@YA?AVQDebug@@V0@AEBVQJsonObject@@@Z"
"??6@YA?AVQDebug@@V0@AEBVQJsonValue@@@Z"
"??6@YA?AVQDebug@@V0@AEBVQLine@@@Z"
"??6@YA?AVQDebug@@V0@AEBVQLineF@@@Z"
"??6@YA?AVQDebug@@V0@AEBVQLocale@@@Z"
"??6@YA?AVQDebug@@V0@AEBVQMargins@@@Z"
"??6@YA?AVQDebug@@V0@AEBVQMarginsF@@@Z"
"??6@YA?AVQDebug@@V0@AEBVQMimeType@@@Z"
"??6@YA?AVQDebug@@V0@AEBVQModelIndex@@@Z"
"??6@YA?AVQDebug@@V0@AEBVQOperatingSystemVersion@@@Z"
"??6@YA?AVQDebug@@V0@AEBVQPermission@@@Z"
"??6@YA?AVQDebug@@V0@AEBVQPersistentModelIndex@@@Z"
"??6@YA?AVQDebug@@V0@AEBVQPoint@@@Z"
"??6@YA?AVQDebug@@V0@AEBVQPointF@@@Z"
"??6@YA?AVQDebug@@V0@AEBVQRect@@@Z"
"??6@YA?AVQDebug@@V0@AEBVQRectF@@@Z"
"??6@YA?AVQDebug@@V0@AEBVQRegularExpression@@@Z"
"??6@YA?AVQDebug@@V0@AEBVQRegularExpressionMatch@@@Z"
"??6@YA?AVQDebug@@V0@AEBVQSize@@@Z"
"??6@YA?AVQDebug@@V0@AEBVQSizeF@@@Z"
"??6@YA?AVQDebug@@V0@AEBVQStorageInfo@@@Z"
"??6@YA?AVQDebug@@V0@AEBVQTimeZone@@@Z"
"??6@YA?AVQDebug@@V0@AEBVQTypeRevision@@@Z"
"??6@YA?AVQDebug@@V0@AEBVQUrl@@@Z"
"??6@YA?AVQDebug@@V0@AEBVQUuid@@@Z"
"??6@YA?AVQDebug@@V0@AEBVQVersionNumber@@@Z"
"??6@YA?AVQDebug@@V0@PEBVQObject@@@Z"
"??6@YA?AVQDebug@@V0@V?$QFlags@W4Filter@QDir@@@@@Z"
"??6@YA?AVQDebug@@V0@V?$QFlags@W4OpenModeFlag@QIODeviceBase@@@@@Z"
"??6@YA?AVQDebug@@V0@V?$QFlags@W4PatternOption@QRegularExpression@@@@@Z"
"??6@YA?AVQDebug@@V0@VQAnyStringView@@@Z"
"??6@YA?AVQDebug@@V0@VQDate@@@Z"
"??6@YA?AVQDebug@@V0@VQMetaType@@@Z"
"??6@YA?AVQDebug@@V0@VQTime@@@Z"
"??6@YA?AVQDebug@@V0@W4QCborKnownTags@@@Z"
"??6@YA?AVQDebug@@V0@W4QCborSimpleType@@@Z"
"??6@YA?AVQDebug@@V0@W4QCborTag@@@Z"
"??6@YA?AVQDebug@@V0@W4Type@QVariant@@@Z"
"??6@YAAEAVQDataStream@@AEAV0@AEBVQBitArray@@@Z"
"??6@YAAEAVQDataStream@@AEAV0@AEBVQByteArray@@@Z"
"??6@YAAEAVQDataStream@@AEAV0@AEBVQCborArray@@@Z"
"??6@YAAEAVQDataStream@@AEAV0@AEBVQCborMap@@@Z"
"??6@YAAEAVQDataStream@@AEAV0@AEBVQCborValue@@@Z"
"??6@YAAEAVQDataStream@@AEAV0@AEBVQDateTime@@@Z"
"??6@YAAEAVQDataStream@@AEAV0@AEBVQEasingCurve@@@Z"
"??6@YAAEAVQDataStream@@AEAV0@AEBVQJsonArray@@@Z"
"??6@YAAEAVQDataStream@@AEAV0@AEBVQJsonDocument@@@Z"
"??6@YAAEAVQDataStream@@AEAV0@AEBVQJsonObject@@@Z"
"??6@YAAEAVQDataStream@@AEAV0@AEBVQJsonValue@@@Z"
"??6@YAAEAVQDataStream@@AEAV0@AEBVQLine@@@Z"
"??6@YAAEAVQDataStream@@AEAV0@AEBVQLineF@@@Z"
"??6@YAAEAVQDataStream@@AEAV0@AEBVQLocale@@@Z"
"??6@YAAEAVQDataStream@@AEAV0@AEBVQMargins@@@Z"
"??6@YAAEAVQDataStream@@AEAV0@AEBVQMarginsF@@@Z"
"??6@YAAEAVQDataStream@@AEAV0@AEBVQPoint@@@Z"
"??6@YAAEAVQDataStream@@AEAV0@AEBVQPointF@@@Z"
"??6@YAAEAVQDataStream@@AEAV0@AEBVQRect@@@Z"
"??6@YAAEAVQDataStream@@AEAV0@AEBVQRectF@@@Z"
"??6@YAAEAVQDataStream@@AEAV0@AEBVQRegularExpression@@@Z"
"??6@YAAEAVQDataStream@@AEAV0@AEBVQSize@@@Z"
"??6@YAAEAVQDataStream@@AEAV0@AEBVQSizeF@@@Z"
"??6@YAAEAVQDataStream@@AEAV0@AEBVQString@@@Z"
"??6@YAAEAVQDataStream@@AEAV0@AEBVQTimeZone@@@Z"
"??6@YAAEAVQDataStream@@AEAV0@AEBVQTypeRevision@@@Z"
"??6@YAAEAVQDataStream@@AEAV0@AEBVQUrl@@@Z"
"??6@YAAEAVQDataStream@@AEAV0@AEBVQUuid@@@Z"
"??6@YAAEAVQDataStream@@AEAV0@AEBVQVariant@@@Z"
"??6@YAAEAVQDataStream@@AEAV0@AEBVQVersionNumber@@@Z"
"??6@YAAEAVQDataStream@@AEAV0@VQChar@@@Z"
"??6@YAAEAVQDataStream@@AEAV0@VQDate@@@Z"
"??6@YAAEAVQDataStream@@AEAV0@VQTime@@@Z"
"??6@YAAEAVQDataStream@@AEAV0@Vqfloat16@@@Z"
"??6@YAAEAVQDataStream@@AEAV0@W4QCborSimpleType@@@Z"
"??6@YAAEAVQTextStream@@AEAV0@Vqfloat16@@@Z"
"??6QCborArray@@QEAAAEAV0@AEBVQCborValue@@@Z"
"??6QDataStream@@QEAAAEAV0@$$T@Z"
"??6QDataStream@@QEAAAEAV0@C@Z"
"??6QDataStream@@QEAAAEAV0@D@Z"
"??6QDataStream@@QEAAAEAV0@E@Z"
"??6QDataStream@@QEAAAEAV0@F@Z"
"??6QDataStream@@QEAAAEAV0@G@Z"
"??6QDataStream@@QEAAAEAV0@H@Z"
"??6QDataStream@@QEAAAEAV0@I@Z"
"??6QDataStream@@QEAAAEAV0@M@Z"
"??6QDataStream@@QEAAAEAV0@N@Z"
"??6QDataStream@@QEAAAEAV0@PEBD@Z"
"??6QDataStream@@QEAAAEAV0@Vqfloat16@@@Z"
"??6QDataStream@@QEAAAEAV0@_J@Z"
"??6QDataStream@@QEAAAEAV0@_K@Z"
"??6QDataStream@@QEAAAEAV0@_N@Z"
"??6QDataStream@@QEAAAEAV0@_S@Z"
"??6QDataStream@@QEAAAEAV0@_U@Z"
"??6QDebug@@QEAAAEAV0@$$T@Z"
"??6QDebug@@QEAAAEAV0@AEBVQByteArray@@@Z"
"??6QDebug@@QEAAAEAV0@AEBVQString@@@Z"
"??6QDebug@@QEAAAEAV0@D@Z"
"??6QDebug@@QEAAAEAV0@F@Z"
"??6QDebug@@QEAAAEAV0@G@Z"
"??6QDebug@@QEAAAEAV0@H@Z"
"??6QDebug@@QEAAAEAV0@I@Z"
"??6QDebug@@QEAAAEAV0@J@Z"
"??6QDebug@@QEAAAEAV0@K@Z"
"??6QDebug@@QEAAAEAV0@M@Z"
"??6QDebug@@QEAAAEAV0@N@Z"
"??6QDebug@@QEAAAEAV0@P6AAEAVQTextStream@@AEAV1@@Z@Z"
"??6QDebug@@QEAAAEAV0@PEBD@Z"
"??6QDebug@@QEAAAEAV0@PEBX@Z"
"??6QDebug@@QEAAAEAV0@PEB_S@Z"
"??6QDebug@@QEAAAEAV0@Unullopt_t@std@@@Z"
"??6QDebug@@QEAAAEAV0@V?$QBasicUtf8StringView@$0A@@@@Z"
"??6QDebug@@QEAAAEAV0@VQByteArrayView@@@Z"
"??6QDebug@@QEAAAEAV0@VQChar@@@Z"
"??6QDebug@@QEAAAEAV0@VQLatin1String@@@Z"
"??6QDebug@@QEAAAEAV0@VQStringView@@@Z"
"??6QDebug@@QEAAAEAV0@VQTextStreamManipulator@@@Z"
"??6QDebug@@QEAAAEAV0@Vqfloat16@@@Z"
"??6QDebug@@QEAAAEAV0@_J@Z"
"??6QDebug@@QEAAAEAV0@_K@Z"
"??6QDebug@@QEAAAEAV0@_N@Z"
"??6QDebug@@QEAAAEAV0@_S@Z"
"??6QDebug@@QEAAAEAV0@_U@Z"
"??6QJsonArray@@QEAAAEAV0@AEBVQJsonValue@@@Z"
"??6QTextStream@@QEAAAEAV0@AEBVQByteArray@@@Z"
"??6QTextStream@@QEAAAEAV0@AEBVQString@@@Z"
"??6QTextStream@@QEAAAEAV0@D@Z"
"??6QTextStream@@QEAAAEAV0@F@Z"
"??6QTextStream@@QEAAAEAV0@G@Z"
"??6QTextStream@@QEAAAEAV0@H@Z"
"??6QTextStream@@QEAAAEAV0@I@Z"
"??6QTextStream@@QEAAAEAV0@J@Z"
"??6QTextStream@@QEAAAEAV0@K@Z"
"??6QTextStream@@QEAAAEAV0@M@Z"
"??6QTextStream@@QEAAAEAV0@N@Z"
"??6QTextStream@@QEAAAEAV0@PEBD@Z"
"??6QTextStream@@QEAAAEAV0@PEBX@Z"
"??6QTextStream@@QEAAAEAV0@VQChar@@@Z"
"??6QTextStream@@QEAAAEAV0@VQLatin1String@@@Z"
"??6QTextStream@@QEAAAEAV0@VQStringView@@@Z"
"??6QTextStream@@QEAAAEAV0@_J@Z"
"??6QTextStream@@QEAAAEAV0@_K@Z"
"??6QTextStream@@QEAAAEAV0@_S@Z"
"??7QBitRef@@QEBA_NXZ"
"??8?$QConstIterator@VQMetaAssociation@@@@QEBA_NAEBU0@@Z"
"??8?$QConstIterator@VQMetaSequence@@@@QEBA_NAEBU0@@Z"
"??8?$QIterator@VQMetaAssociation@@@@QEBA_NAEBU0@@Z"
"??8?$QIterator@VQMetaSequence@@@@QEBA_NAEBU0@@Z"
"??8@YA_NAEBVQRandomGenerator@@0@Z"
"??8@YA_NUSectionNode@QDateTimeParser@@0@Z"
"??8QBitArray@@QEBA_NAEBV0@@Z"
"??8QByteArray@@QEBA_NAEBVQString@@@Z"
"??8QCborArray@@QEBA_NAEBV0@@Z"
"??8QCborMap@@QEBA_NAEBV0@@Z"
"??8QCborValue@@QEBA_NAEBV0@@Z"
"??8QCborValueRef@@QEBA_NAEBVQCborValue@@@Z"
"??8QDir@@QEBA_NAEBV0@@Z"
"??8QEasingCurve@@QEBA_NAEBV0@@Z"
"??8QFileInfo@@QEBA_NAEBV0@@Z"
"??8QFutureInterfaceBase@@QEBA_NAEBV0@@Z"
"??8QItemSelectionRange@@QEBA_NAEBV0@@Z"
"??8QJsonArray@@QEBA_NAEBV0@@Z"
"??8QJsonDocument@@QEBA_NAEBV0@@Z"
"??8QJsonObject@@QEBA_NAEBV0@@Z"
"??8QJsonValue@@QEBA_NAEBV0@@Z"
"??8QJsonValueRef@@QEBA_NAEBVQJsonValue@@@Z"
"??8QLine@@QEBA_NAEBV0@@Z"
"??8QLineF@@QEBA_NAEBV0@@Z"
"??8QMimeType@@QEBA_NAEBV0@@Z"
"??8QPersistentModelIndex@@QEBA_NAEBV0@@Z"
"??8QPersistentModelIndex@@QEBA_NAEBVQModelIndex@@@Z"
"??8QProcessEnvironment@@QEBA_NAEBV0@@Z"
"??8QRegularExpression@@QEBA_NAEBV0@@Z"
"??8QString@@QEBA_NAEBVQByteArray@@@Z"
"??8QString@@QEBA_NPEBD@Z"
"??8QTimeZone@@QEBA_NAEBV0@@Z"
"??8QUrl@@QEBA_NAEBV0@@Z"
"??8QUrlQuery@@QEBA_NAEBV0@@Z"
"??8QUuid@@QEBA_NAEBU_GUID@@@Z"
"??8QUuid@@QEBA_NAEBV0@@Z"
"??8QXmlStreamAttribute@@QEBA_NAEBV0@@Z"
"??8QXmlStreamEntityDeclaration@@QEBA_NAEBV0@@Z"
"??8QXmlStreamNamespaceDeclaration@@QEBA_NAEBV0@@Z"
"??8QXmlStreamNotationDeclaration@@QEBA_NAEBV0@@Z"
"??8ResultIteratorBase@QtPrivate@@QEBA_NAEBV01@@Z"
"??9?$QConstIterator@VQMetaAssociation@@@@QEBA_NAEBU0@@Z"
"??9?$QConstIterator@VQMetaSequence@@@@QEBA_NAEBU0@@Z"
"??9?$QIterator@VQMetaAssociation@@@@QEBA_NAEBU0@@Z"
"??9?$QIterator@VQMetaSequence@@@@QEBA_NAEBU0@@Z"
"??9QBitArray@@QEBA_NAEBV0@@Z"
"??9QByteArray@@QEBA_NAEBVQString@@@Z"
"??9QCborArray@@QEBA_NAEBV0@@Z"
"??9QCborMap@@QEBA_NAEBV0@@Z"
"??9QCborValue@@QEBA_NAEBV0@@Z"
"??9QCborValueRef@@QEBA_NAEBVQCborValue@@@Z"
"??9QDir@@QEBA_NAEBV0@@Z"
"??9QEasingCurve@@QEBA_NAEBV0@@Z"
"??9QFileInfo@@QEBA_NAEBV0@@Z"
"??9QFutureInterfaceBase@@QEBA_NAEBV0@@Z"
"??9QItemSelectionRange@@QEBA_NAEBV0@@Z"
"??9QJsonArray@@QEBA_NAEBV0@@Z"
"??9QJsonDocument@@QEBA_NAEBV0@@Z"
"??9QJsonObject@@QEBA_NAEBV0@@Z"
"??9QJsonValue@@QEBA_NAEBV0@@Z"
"??9QJsonValueRef@@QEBA_NAEBVQJsonValue@@@Z"
"??9QLine@@QEBA_NAEBV0@@Z"
"??9QLineF@@QEBA_NAEBV0@@Z"
"??9QMimeType@@QEBA_NAEBV0@@Z"
"??9QPersistentModelIndex@@QEBA_NAEBV0@@Z"
"??9QPersistentModelIndex@@QEBA_NAEBVQModelIndex@@@Z"
"??9QProcessEnvironment@@QEBA_NAEBV0@@Z"
"??9QRegularExpression@@QEBA_NAEBV0@@Z"
"??9QString@@QEBA_NAEBVQByteArray@@@Z"
"??9QString@@QEBA_NPEBD@Z"
"??9QTimeZone@@QEBA_NAEBV0@@Z"
"??9QUrl@@QEBA_NAEBV0@@Z"
"??9QUrlQuery@@QEBA_NAEBV0@@Z"
"??9QUuid@@QEBA_NAEBU_GUID@@@Z"
"??9QUuid@@QEBA_NAEBV0@@Z"
"??9QXmlStreamAttribute@@QEBA_NAEBV0@@Z"
"??9QXmlStreamEntityDeclaration@@QEBA_NAEBV0@@Z"
"??9QXmlStreamNamespaceDeclaration@@QEBA_NAEBV0@@Z"
"??9QXmlStreamNotationDeclaration@@QEBA_NAEBV0@@Z"
"??9ResultIteratorBase@QtPrivate@@QEBA_NAEBV01@@Z"
"??AQBitArray@@QEAA?AVQBitRef@@_J@Z"
"??AQBitArray@@QEBA_N_J@Z"
"??AQByteArray@@QEAAAEAD_J@Z"
"??AQByteArray@@QEBAD_J@Z"
"??AQByteArrayView@@QEBAD_J@Z"
"??AQCborArray@@QEAA?AVQCborValueRef@@_J@Z"
"??AQCborArray@@QEBA?BVQCborValue@@_J@Z"
"??AQCborMap@@QEAA?AVQCborValueRef@@AEBVQCborValue@@@Z"
"??AQCborMap@@QEAA?AVQCborValueRef@@AEBVQString@@@Z"
"??AQCborMap@@QEAA?AVQCborValueRef@@VQLatin1String@@@Z"
"??AQCborMap@@QEAA?AVQCborValueRef@@_J@Z"
"??AQCborMap@@QEBA?BVQCborValue@@AEBV1@@Z"
"??AQCborMap@@QEBA?BVQCborValue@@AEBVQString@@@Z"
"??AQCborMap@@QEBA?BVQCborValue@@VQLatin1String@@@Z"
"??AQCborMap@@QEBA?BVQCborValue@@_J@Z"
"??AQCborValue@@QEAA?AVQCborValueRef@@AEBVQString@@@Z"
"??AQCborValue@@QEAA?AVQCborValueRef@@VQLatin1String@@@Z"
"??AQCborValue@@QEAA?AVQCborValueRef@@_J@Z"
"??AQCborValue@@QEBA?BV0@AEBVQString@@@Z"
"??AQCborValue@@QEBA?BV0@VQLatin1String@@@Z"
"??AQCborValue@@QEBA?BV0@_J@Z"
"??AQCborValueConstRef@@QEBA?BVQCborValue@@AEBVQString@@@Z"
"??AQCborValueConstRef@@QEBA?BVQCborValue@@VQLatin1String@@@Z"
"??AQCborValueConstRef@@QEBA?BVQCborValue@@_J@Z"
"??AQCborValueRef@@QEAA?AV0@AEBVQString@@@Z"
"??AQCborValueRef@@QEAA?AV0@VQLatin1String@@@Z"
"??AQCborValueRef@@QEAA?AV0@_J@Z"
"??AQCborValueRef@@QEBA?BVQCborValue@@AEBVQString@@@Z"
"??AQCborValueRef@@QEBA?BVQCborValue@@VQLatin1String@@@Z"
"??AQCborValueRef@@QEBA?BVQCborValue@@_J@Z"
"??AQDir@@QEBA?AVQString@@H@Z"
"??AQDir@@QEBA?AVQString@@_J@Z"
"??AQJsonArray@@QEAA?AVQJsonValueRef@@_J@Z"
"??AQJsonArray@@QEBA?AVQJsonValue@@_J@Z"
"??AQJsonDocument@@QEBA?BVQJsonValue@@AEBVQString@@@Z"
"??AQJsonDocument@@QEBA?BVQJsonValue@@VQLatin1String@@@Z"
"??AQJsonDocument@@QEBA?BVQJsonValue@@VQStringView@@@Z"
"??AQJsonDocument@@QEBA?BVQJsonValue@@_J@Z"
"??AQJsonObject@@QEAA?AVQJsonValueRef@@AEBVQString@@@Z"
"??AQJsonObject@@QEAA?AVQJsonValueRef@@VQLatin1String@@@Z"
"??AQJsonObject@@QEAA?AVQJsonValueRef@@VQStringView@@@Z"
"??AQJsonObject@@QEBA?AVQJsonValue@@AEBVQString@@@Z"
"??AQJsonObject@@QEBA?AVQJsonValue@@VQLatin1String@@@Z"
"??AQJsonObject@@QEBA?AVQJsonValue@@VQStringView@@@Z"
"??AQJsonValue@@QEBA?BV0@AEBVQString@@@Z"
"??AQJsonValue@@QEBA?BV0@VQLatin1String@@@Z"
"??AQJsonValue@@QEBA?BV0@VQStringView@@@Z"
"??AQJsonValue@@QEBA?BV0@_J@Z"
"??AQJsonValueRef@@QEBA?BVQJsonValue@@VQLatin1String@@@Z"
"??AQJsonValueRef@@QEBA?BVQJsonValue@@VQStringView@@@Z"
"??AQJsonValueRef@@QEBA?BVQJsonValue@@_J@Z"
"??AQString@@QEAAAEAVQChar@@_J@Z"
"??AQString@@QEBA?BVQChar@@_J@Z"
"??BConnection@QMetaObject@@QEBAPEQ01@PEAXXZ"
"??BQBitRef@@QEBA_NXZ"
"??BQByteArray@@QEBAPEBDXZ"
"??BQByteArray@@QEBAPEBXXZ"
"??BQByteArrayView@@QEBA?AV?$basic_string_view@DU?$char_traits@D@std@@@std@@XZ"
"??BQCborError@@QEBA?AW4Code@0@XZ"
"??BQCborValueRef@@QEBA?AVQCborValue@@XZ"
"??BQComHelper@@QEBA_NXZ"
"??BQJsonValueRef@@QEBA?AVQJsonValue@@XZ"
"??BQPersistentModelIndex@@QEBA?AVQModelIndex@@XZ"
"??BQString@@QEBA?AV?$basic_string_view@_SU?$char_traits@_S@std@@@std@@XZ"
"??BQUuid@@QEBA?AU_GUID@@XZ"
"??BQWinRegistryKey@@QEBAPEAUHKEY__@@XZ"
"??CQAssociativeConstIterator@@QEBA?AVQVariantConstPointer@@XZ"
"??CQAssociativeIterator@@QEBA?AV?$QVariantPointer@VQAssociativeIterator@@@@XZ"
"??CQSequentialConstIterator@@QEBA?AVQVariantConstPointer@@XZ"
"??CQSequentialIterator@@QEBA?AV?$QVariantPointer@VQSequentialIterator@@@@XZ"
"??CQVariantConstPointer@@QEBAPEBVQVariant@@XZ"
"??DQAssociativeConstIterator@@QEBA?AVQVariant@@XZ"
"??DQAssociativeIterator@@QEBA?AV?$QVariantRef@VQAssociativeIterator@@@@XZ"
"??DQSequentialConstIterator@@QEBA?AVQVariant@@XZ"
"??DQSequentialIterator@@QEBA?AV?$QVariantRef@VQSequentialIterator@@@@XZ"
"??DQVariantConstPointer@@QEBA?AVQVariant@@XZ"
"??E?$QConstIterator@VQMetaAssociation@@@@QEAA?AU0@H@Z"
"??E?$QConstIterator@VQMetaAssociation@@@@QEAAAEAU0@XZ"
"??E?$QConstIterator@VQMetaSequence@@@@QEAA?AU0@H@Z"
"??E?$QConstIterator@VQMetaSequence@@@@QEAAAEAU0@XZ"
"??E?$QIterator@VQMetaAssociation@@@@QEAA?AU0@H@Z"
"??E?$QIterator@VQMetaAssociation@@@@QEAAAEAU0@XZ"
"??E?$QIterator@VQMetaSequence@@@@QEAA?AU0@H@Z"
"??E?$QIterator@VQMetaSequence@@@@QEAAAEAU0@XZ"
"??EResultIteratorBase@QtPrivate@@QEAA?AV01@XZ"
"??F?$QConstIterator@VQMetaAssociation@@@@QEAA?AU0@H@Z"
"??F?$QConstIterator@VQMetaAssociation@@@@QEAAAEAU0@XZ"
"??F?$QConstIterator@VQMetaSequence@@@@QEAA?AU0@H@Z"
"??F?$QConstIterator@VQMetaSequence@@@@QEAAAEAU0@XZ"
"??F?$QIterator@VQMetaAssociation@@@@QEAA?AU0@H@Z"
"??F?$QIterator@VQMetaAssociation@@@@QEAAAEAU0@XZ"
"??F?$QIterator@VQMetaSequence@@@@QEAA?AU0@H@Z"
"??F?$QIterator@VQMetaSequence@@@@QEAAAEAU0@XZ"
"??G?$QConstIterator@VQMetaAssociation@@@@QEBA?AU0@_J@Z"
"??G?$QConstIterator@VQMetaAssociation@@@@QEBA_JAEBU0@@Z"
"??G?$QConstIterator@VQMetaSequence@@@@QEBA?AU0@_J@Z"
"??G?$QConstIterator@VQMetaSequence@@@@QEBA_JAEBU0@@Z"
"??G?$QIterator@VQMetaAssociation@@@@QEBA?AU0@_J@Z"
"??G?$QIterator@VQMetaAssociation@@@@QEBA_JAEBU0@@Z"
"??G?$QIterator@VQMetaSequence@@@@QEBA?AU0@_J@Z"
"??G?$QIterator@VQMetaSequence@@@@QEBA_JAEBU0@@Z"
"??H?$QConstIterator@VQMetaAssociation@@@@QEBA?AU0@_J@Z"
"??H?$QConstIterator@VQMetaSequence@@@@QEBA?AU0@_J@Z"
"??H?$QIterator@VQMetaAssociation@@@@QEBA?AU0@_J@Z"
"??H?$QIterator@VQMetaSequence@@@@QEBA?AU0@_J@Z"
"??H@YA?AVQDeadlineTimer@@V0@_J@Z"
"??HQCborArray@@QEBA?AV0@AEBVQCborValue@@@Z"
"??HQJsonArray@@QEBA?AV0@AEBVQJsonValue@@@Z"
"??I@YA?AVQBitArray@@AEBV0@0@Z"
"??IQRect@@QEBA?AV0@AEBV0@@Z"
"??IQRectF@@QEBA?AV0@AEBV0@@Z"
"??M@YA_NAEBVQElapsedTimer@@0@Z"
"??MQByteArray@@QEBA_NAEBVQString@@@Z"
"??MQCborArray@@QEBA_NAEBV0@@Z"
"??MQCborMap@@QEBA_NAEBV0@@Z"
"??MQCborValue@@QEBA_NAEBV0@@Z"
"??MQCborValueRef@@QEBA_NAEBVQCborValue@@@Z"
"??MQPersistentModelIndex@@QEBA_NAEBV0@@Z"
"??MQString@@QEBA_NAEBVQByteArray@@@Z"
"??MQString@@QEBA_NPEBD@Z"
"??MQUrl@@QEBA_NAEBV0@@Z"
"??MQUuid@@QEBA_NAEBV0@@Z"
"??NQByteArray@@QEBA_NAEBVQString@@@Z"
"??NQString@@QEBA_NAEBVQByteArray@@@Z"
"??NQString@@QEBA_NPEBD@Z"
"??OQByteArray@@QEBA_NAEBVQString@@@Z"
"??OQString@@QEBA_NAEBVQByteArray@@@Z"
"??OQString@@QEBA_NPEBD@Z"
"??OQUuid@@QEBA_NAEBV0@@Z"
"??PQByteArray@@QEBA_NAEBVQString@@@Z"
"??PQString@@QEBA_NAEBVQByteArray@@@Z"
"??PQString@@QEBA_NPEBD@Z"
"??RQCollator@@QEBA_NAEBVQString@@0@Z"
"??RQCollator@@QEBA_NVQStringView@@0@Z"
"??RQLoggingCategory@@QEAAAEAV0@XZ"
"??RQLoggingCategory@@QEBAAEBV0@XZ"
"??SQBitArray@@QEBA?AV0@XZ"
"??T@YA?AVQBitArray@@AEBV0@0@Z"
"??U@YA?AVQBitArray@@AEBV0@0@Z"
"??UQRect@@QEBA?AV0@AEBV0@@Z"
"??UQRectF@@QEBA?AV0@AEBV0@@Z"
"??XQSize@@QEAAAEAV0@N@Z"
"??XQSizeF@@QEAAAEAV0@N@Z"
"??Y?$QConstIterator@VQMetaAssociation@@@@QEAAAEAU0@_J@Z"
"??Y?$QConstIterator@VQMetaSequence@@@@QEAAAEAU0@_J@Z"
"??Y?$QIterator@VQMetaAssociation@@@@QEAAAEAU0@_J@Z"
"??Y?$QIterator@VQMetaSequence@@@@QEAAAEAU0@_J@Z"
"??YQByteArray@@QEAAAEAV0@AEBV0@@Z"
"??YQByteArray@@QEAAAEAV0@D@Z"
"??YQByteArray@@QEAAAEAV0@PEBD@Z"
"??YQByteArray@@QEAAAEAV0@VQByteArrayView@@@Z"
"??YQCborArray@@QEAAAEAV0@AEBVQCborValue@@@Z"
"??YQDateTime@@QEAAAEAV0@V?$duration@_JU?$ratio@$00$0DOI@@std@@@chrono@std@@@Z"
"??YQDeadlineTimer@@QEAAAEAV0@_J@Z"
"??YQJsonArray@@QEAAAEAV0@AEBVQJsonValue@@@Z"
"??YQRect@@QEAAAEAV0@AEBVQMargins@@@Z"
"??YQRectF@@QEAAAEAV0@AEBVQMarginsF@@@Z"
"??YQSize@@QEAAAEAV0@AEBV0@@Z"
"??YQSizeF@@QEAAAEAV0@AEBV0@@Z"
"??YQString@@QEAAAEAV0@AEBV0@@Z"
"??YQString@@QEAAAEAV0@AEBVQByteArray@@@Z"
"??YQString@@QEAAAEAV0@PEBD@Z"
"??YQString@@QEAAAEAV0@V?$QBasicUtf8StringView@$0A@@@@Z"
"??YQString@@QEAAAEAV0@VQChar@@@Z"
"??YQString@@QEAAAEAV0@VQLatin1String@@@Z"
"??YQString@@QEAAAEAV0@VQStringView@@@Z"
"??Z?$QConstIterator@VQMetaAssociation@@@@QEAAAEAU0@_J@Z"
"??Z?$QConstIterator@VQMetaSequence@@@@QEAAAEAU0@_J@Z"
"??Z?$QIterator@VQMetaAssociation@@@@QEAAAEAU0@_J@Z"
"??Z?$QIterator@VQMetaSequence@@@@QEAAAEAU0@_J@Z"
"??ZQDateTime@@QEAAAEAV0@V?$duration@_JU?$ratio@$00$0DOI@@std@@@chrono@std@@@Z"
"??ZQDeadlineTimer@@QEAAAEAV0@_J@Z"
"??ZQRect@@QEAAAEAV0@AEBVQMargins@@@Z"
"??ZQRectF@@QEAAAEAV0@AEBVQMarginsF@@@Z"
"??ZQSize@@QEAAAEAV0@AEBV0@@Z"
"??ZQSizeF@@QEAAAEAV0@AEBV0@@Z"
"??_0QSize@@QEAAAEAV0@N@Z"
"??_0QSizeF@@QEAAAEAV0@N@Z"
"??_4QBitArray@@QEAAAEAV0@$$QEAV0@@Z"
"??_4QBitArray@@QEAAAEAV0@AEBV0@@Z"
"??_4QRect@@QEAAAEAV0@AEBV0@@Z"
"??_4QRectF@@QEAAAEAV0@AEBV0@@Z"
"??_5QBitArray@@QEAAAEAV0@$$QEAV0@@Z"
"??_5QBitArray@@QEAAAEAV0@AEBV0@@Z"
"??_5QRect@@QEAAAEAV0@AEBV0@@Z"
"??_5QRectF@@QEAAAEAV0@AEBV0@@Z"
"??_6QBitArray@@QEAAAEAV0@$$QEAV0@@Z"
"??_6QBitArray@@QEAAAEAV0@AEBV0@@Z"
"??_7QAbstractAnimation@@6B@"
"??_7QAbstractAnimationPrivate@@6B@"
"??_7QAbstractAnimationTimer@@6B@"
"??_7QAbstractDynamicMetaObject@@6B@"
"??_7QAbstractEventDispatcher@@6B@"
"??_7QAbstractEventDispatcherPrivate@@6B@"
"??_7QAbstractEventDispatcherV2@@6B@"
"??_7QAbstractFileEngine@@6B@"
"??_7QAbstractFileEngineHandler@@6B@"
"??_7QAbstractFileEngineIterator@@6B@"
"??_7QAbstractItemModel@@6B@"
"??_7QAbstractItemModelPrivate@@6B@"
"??_7QAbstractListModel@@6B@"
"??_7QAbstractMetaCallEvent@@6B@"
"??_7QAbstractNativeEventFilter@@6B@"
"??_7QAbstractProxyModel@@6B@"
"??_7QAbstractProxyModelPrivate@@6B@"
"??_7QAbstractTableModel@@6B@"
"??_7QAnimationDriver@@6B@"
"??_7QAnimationDriverPrivate@@6B@"
"??_7QAnimationGroup@@6B@"
"??_7QBuffer@@6B@"
"??_7QCalendarBackend@@6B@"
"??_7QChildEvent@@6B@"
"??_7QChronoTimer@@6B@"
"??_7QConcatenateTablesProxyModel@@6B@"
"??_7QCoreApplication@@6B@"
"??_7QCoreApplicationPrivate@@6B@"
"??_7QDaemonThread@@6B@"
"??_7QDateTimeParser@@6B@"
"??_7QDynamicMetaObjectData@@6B@"
"??_7QDynamicPropertyChangeEvent@@6B@"
"??_7QEvent@@6B@"
"??_7QEventDispatcherWin32@@6B@"
"??_7QEventDispatcherWin32Private@@6B@"
"??_7QEventLoop@@6B@"
"??_7QException@@6B@"
"??_7QFSFileEngine@@6B@"
"??_7QFactoryInterface@@6B@"
"??_7QFactoryLoader@@6B@"
"??_7QFile@@6B@"
"??_7QFileDevice@@6B@"
"??_7QFileSelector@@6B@"
"??_7QFileSelectorPrivate@@6B@"
"??_7QFileSystemWatcher@@6B@"
"??_7QFutureCallOutEvent@@6B@"
"??_7QFutureCallOutInterface@@6B@"
"??_7QFutureInterfaceBase@@6B@"
"??_7QFutureWatcherBase@@6B@"
"??_7QGenericRunnable@QRunnable@@6B@"
"??_7QGregorianCalendar@@6B@"
"??_7QHijriCalendar@@6B@"
"??_7QIODevice@@6B@"
"??_7QIODevicePrivate@@6B@"
"??_7QIdentityProxyModel@@6B@"
"??_7QIdentityProxyModelPrivate@@6B@"
"??_7QIslamicCivilCalendar@@6B@"
"??_7QItemSelectionModel@@6B@"
"??_7QJalaliCalendar@@6B@"
"??_7QJulianCalendar@@6B@"
"??_7QLibrary@@6B@"
"??_7QMetaCallEvent@@6B@"
"??_7QMetaObjectBuilder@@6B@"
"??_7QMetaTypeModuleHelper@@6B@"
"??_7QMilankovicCalendar@@6B@"
"??_7QMimeData@@6B@"
"??_7QNonContiguousByteDevice@@6B@"
"??_7QObject@@6B@"
"??_7QObjectCleanupHandler@@6B@"
"??_7QObjectData@@6B@"
"??_7QObjectPrivate@@6B@"
"??_7QParallelAnimationGroup@@6B@"
"??_7QPauseAnimation@@6B@"
"??_7QPermissionPlugin@@6B@"
"??_7QPluginLoader@@6B@"
"??_7QProcess@@6B@"
"??_7QPropertyAnimation@@6B@"
"??_7QRomanCalendar@@6B@"
"??_7QRunnable@@6B@"
"??_7QSaveFile@@6B@"
"??_7QSequentialAnimationGroup@@6B@"
"??_7QSettings@@6B@"
"??_7QSharedMemory@@6B@"
"??_7QSignalMapper@@6B@"
"??_7QSocketNotifier@@6B@"
"??_7QSortFilterProxyModel@@6B@"
"??_7QStringListModel@@6B@"
"??_7QSystemLocale@@6B@"
"??_7QTemporaryFile@@6B@"
"??_7QTextStream@@6B@"
"??_7QThread@@6B@"
"??_7QThreadPool@@6B@"
"??_7QThreadPoolPrivate@@6B@"
"??_7QTimeLine@@6B@"
"??_7QTimer@@6B@"
"??_7QTimerEvent@@6B@"
"??_7QTranslator@@6B@"
"??_7QTransposeProxyModel@@6B@"
"??_7QUnhandledException@@6B@"
"??_7QUnifiedTimer@@6B@"
"??_7QVariantAnimation@@6B@"
"??_7QWinEventNotifier@@6B@"
"??_7QWindowsPipeReader@@6B@"
"??_7QWindowsPipeWriter@@6B@"
"??_7QXmlStreamEntityResolver@@6B@"
"??_7ResultStoreBase@QtPrivate@@6B@"
"??_FQAbstractAnimation@@QEAAXXZ"
"??_FQAbstractEventDispatcher@@QEAAXXZ"
"??_FQAbstractEventDispatcherV2@@QEAAXXZ"
"??_FQAbstractItemModel@@QEAAXXZ"
"??_FQAbstractListModel@@QEAAXXZ"
"??_FQAbstractProxyModel@@QEAAXXZ"
"??_FQAbstractTableModel@@QEAAXXZ"
"??_FQAnimationDriver@@QEAAXXZ"
"??_FQAnimationGroup@@QEAAXXZ"
"??_FQBuffer@@QEAAXXZ"
"??_FQChronoTimer@@QEAAXXZ"
"??_FQComHelper@@QEAAXXZ"
"??_FQConcatenateTablesProxyModel@@QEAAXXZ"
"??_FQDaemonThread@@QEAAXXZ"
"??_FQDir@@QEAAXXZ"
"??_FQEasingCurve@@QEAAXXZ"
"??_FQEventDispatcherWin32@@QEAAXXZ"
"??_FQEventLoop@@QEAAXXZ"
"??_FQFileSelector@@QEAAXXZ"
"??_FQFileSystemWatcher@@QEAAXXZ"
"??_FQFutureInterfaceBase@@QEAAXXZ"
"??_FQFutureWatcherBase@@QEAAXXZ"
"??_FQGenericArgument@@QEAAXXZ"
"??_FQGenericReturnArgument@@QEAAXXZ"
"??_FQIdentityProxyModel@@QEAAXXZ"
"??_FQItemSelectionModel@@QEAAXXZ"
"??_FQJsonValue@@QEAAXXZ"
"??_FQLibrary@@QEAAXXZ"
"??_FQObject@@QEAAXXZ"
"??_FQObjectPrivate@@QEAAXXZ"
"??_FQParallelAnimationGroup@@QEAAXXZ"
"??_FQPauseAnimation@@QEAAXXZ"
"??_FQPluginLoader@@QEAAXXZ"
"??_FQProcess@@QEAAXXZ"
"??_FQPropertyAnimation@@QEAAXXZ"
"??_FQReadWriteLock@@QEAAXXZ"
"??_FQResource@@QEAAXXZ"
"??_FQSaveFile@@QEAAXXZ"
"??_FQSemaphore@@QEAAXXZ"
"??_FQSequentialAnimationGroup@@QEAAXXZ"
"??_FQSettings@@QEAAXXZ"
"??_FQSharedMemory@@QEAAXXZ"
"??_FQSignalMapper@@QEAAXXZ"
"??_FQSortFilterProxyModel@@QEAAXXZ"
"??_FQStringListModel@@QEAAXXZ"
"??_FQThread@@QEAAXXZ"
"??_FQThreadPool@@QEAAXXZ"
"??_FQTimeLine@@QEAAXXZ"
"??_FQTimer@@QEAAXXZ"
"??_FQTranslator@@QEAAXXZ"
"??_FQTransposeProxyModel@@QEAAXXZ"
"??_FQUnhandledException@@QEAAXXZ"
"??_FQVariantAnimation@@QEAAXXZ"
"??_FQWinEventNotifier@@QEAAXXZ"
"??_FQWindowsPipeReader@@QEAAXXZ"
"?Android10@QOperatingSystemVersion@@2V1@B"
"?Android11@QOperatingSystemVersion@@2V1@B"
"?Android12@QOperatingSystemVersion@@2VQOperatingSystemVersionBase@@B"
"?Android12L@QOperatingSystemVersion@@2VQOperatingSystemVersionBase@@B"
"?Android13@QOperatingSystemVersion@@2VQOperatingSystemVersionBase@@B"
"?AndroidJellyBean@QOperatingSystemVersion@@2V1@B"
"?AndroidJellyBean_MR1@QOperatingSystemVersion@@2V1@B"
"?AndroidJellyBean_MR2@QOperatingSystemVersion@@2V1@B"
"?AndroidKitKat@QOperatingSystemVersion@@2V1@B"
"?AndroidLollipop@QOperatingSystemVersion@@2V1@B"
"?AndroidLollipop_MR1@QOperatingSystemVersion@@2V1@B"
"?AndroidMarshmallow@QOperatingSystemVersion@@2V1@B"
"?AndroidNougat@QOperatingSystemVersion@@2V1@B"
"?AndroidNougat_MR1@QOperatingSystemVersion@@2V1@B"
"?AndroidOreo@QOperatingSystemVersion@@2V1@B"
"?AndroidOreo_MR1@QOperatingSystemVersion@@2V1@B"
"?AndroidPie@QOperatingSystemVersion@@2V1@B"
"?BinaryFormatTag@QJsonDocument@@2IB"
"?BindingBit@QPropertyBindingData@QtPrivate@@2_KB"
"?DefaultTwoDigitBaseYear@QLocale@@2HB"
"?DelayedNotificationBit@QPropertyBindingData@QtPrivate@@2_KB"
"?ExtendedSize@QDataStream@@0IB"
"?FirstSectionIndex@QDateTimeParser@@2HB"
"?Forever@QDeadlineTimer@@2W4ForeverConstant@1@B"
"?LastSectionIndex@QDateTimeParser@@2HB"
"?MacOSBigSur@QOperatingSystemVersion@@2V1@B"
"?MacOSCatalina@QOperatingSystemVersion@@2V1@B"
"?MacOSHighSierra@QOperatingSystemVersion@@2V1@B"
"?MacOSMojave@QOperatingSystemVersion@@2V1@B"
"?MacOSMonterey@QOperatingSystemVersion@@2V1@B"
"?MacOSSierra@QOperatingSystemVersion@@2V1@B"
"?MacOSVentura@QOperatingSystemVersion@@2VQOperatingSystemVersionBase@@B"
"?MaxUtcOffsetSecs@QTimeZone@@2HB"
"?MinUtcOffsetSecs@QTimeZone@@2HB"
"?NoSectionIndex@QDateTimeParser@@2HB"
"?NullCode@QDataStream@@0IB"
"?OSXElCapitan@QOperatingSystemVersion@@2V1@B"
"?OSXMavericks@QOperatingSystemVersion@@2V1@B"
"?OSXYosemite@QOperatingSystemVersion@@2V1@B"
"?QByteArrayList_join@QtPrivate@@YA?AVQByteArray@@PEBV?$QList@VQByteArray@@@@PEBDH@Z"
"?QByteArrayList_join@QtPrivate@@YA?AVQByteArray@@PEBV?$QList@VQByteArray@@@@PEBD_J@Z"
"?QStringList_contains@QtPrivate@@YA_NPEBV?$QList@VQString@@@@VQLatin1String@@W4CaseSensitivity@Qt@@@Z"
"?QStringList_contains@QtPrivate@@YA_NPEBV?$QList@VQString@@@@VQStringView@@W4CaseSensitivity@Qt@@@Z"
"?QStringList_filter@QtPrivate@@YA?AV?$QList@VQString@@@@AEBV2@AEBVQStringMatcher@@@Z"
"?QStringList_filter@QtPrivate@@YA?AV?$QList@VQString@@@@AEBV2@VQLatin1String@@W4CaseSensitivity@Qt@@@Z"
"?QStringList_filter@QtPrivate@@YA?AV?$QList@VQString@@@@PEBV2@AEBVQRegularExpression@@@Z"
"?QStringList_filter@QtPrivate@@YA?AV?$QList@VQString@@@@PEBV2@VQStringView@@W4CaseSensitivity@Qt@@@Z"
"?QStringList_indexOf@QtPrivate@@YA_JAEBV?$QList@VQString@@@@VQLatin1String@@_JW4CaseSensitivity@Qt@@@Z"
"?QStringList_indexOf@QtPrivate@@YA_JAEBV?$QList@VQString@@@@VQStringView@@_JW4CaseSensitivity@Qt@@@Z"
"?QStringList_indexOf@QtPrivate@@YA_JPEBV?$QList@VQString@@@@AEBVQRegularExpression@@_J@Z"
"?QStringList_join@QtPrivate@@YA?AVQString@@AEBV?$QList@VQString@@@@VQLatin1String@@@Z"
"?QStringList_join@QtPrivate@@YA?AVQString@@PEBV?$QList@VQString@@@@PEBVQChar@@_J@Z"
"?QStringList_join@QtPrivate@@YA?AVQString@@PEBV?$QList@VQString@@@@VQStringView@@@Z"
"?QStringList_lastIndexOf@QtPrivate@@YA_JAEBV?$QList@VQString@@@@VQLatin1String@@_JW4CaseSensitivity@Qt@@@Z"
"?QStringList_lastIndexOf@QtPrivate@@YA_JAEBV?$QList@VQString@@@@VQStringView@@_JW4CaseSensitivity@Qt@@@Z"
"?QStringList_lastIndexOf@QtPrivate@@YA_JPEBV?$QList@VQString@@@@AEBVQRegularExpression@@_J@Z"
"?QStringList_removeDuplicates@QtPrivate@@YA_JPEAV?$QList@VQString@@@@@Z"
"?QStringList_replaceInStrings@QtPrivate@@YAXPEAV?$QList@VQString@@@@AEBVQRegularExpression@@AEBVQString@@@Z"
"?QStringList_replaceInStrings@QtPrivate@@YAXPEAV?$QList@VQString@@@@VQStringView@@1W4CaseSensitivity@Qt@@@Z"
"?QStringList_sort@QtPrivate@@YAXPEAV?$QList@VQString@@@@W4CaseSensitivity@Qt@@@Z"
"?Windows10@QOperatingSystemVersion@@2V1@B"
"?Windows10_1809@QOperatingSystemVersion@@2VQOperatingSystemVersionBase@@B"
"?Windows10_1903@QOperatingSystemVersion@@2VQOperatingSystemVersionBase@@B"
"?Windows10_1909@QOperatingSystemVersion@@2VQOperatingSystemVersionBase@@B"
"?Windows10_2004@QOperatingSystemVersion@@2VQOperatingSystemVersionBase@@B"
"?Windows10_20H2@QOperatingSystemVersion@@2VQOperatingSystemVersionBase@@B"
"?Windows10_21H1@QOperatingSystemVersion@@2VQOperatingSystemVersionBase@@B"
"?Windows10_21H2@QOperatingSystemVersion@@2VQOperatingSystemVersionBase@@B"
"?Windows10_22H2@QOperatingSystemVersion@@2VQOperatingSystemVersionBase@@B"
"?Windows11@QOperatingSystemVersion@@2VQOperatingSystemVersionBase@@B"
"?Windows11_21H2@QOperatingSystemVersion@@2VQOperatingSystemVersionBase@@B"
"?Windows11_22H2@QOperatingSystemVersion@@2VQOperatingSystemVersionBase@@B"
"?Windows7@QOperatingSystemVersion@@2V1@B"
"?Windows8@QOperatingSystemVersion@@2V1@B"
"?Windows8_1@QOperatingSystemVersion@@2V1@B"
"?_currentStringChunkSize@QCborStreamReader@@AEBA_JXZ"
"?_empty@QByteArray@@0DB"
"?_empty@QString@@0_SB"
"?_enterContainer_helper@QCborStreamReader@@AEAA_NXZ"
"?_fillRange@QRandomGenerator@@AEAA_KPEAX_J@Z"
"?_q_sourceModelColumnsAboutToBeInserted@QAbstractProxyModelPrivate@@QEAAXAEBVQModelIndex@@HH@Z"
"?_q_sourceModelColumnsInserted@QAbstractProxyModelPrivate@@QEAAXAEBVQModelIndex@@HH@Z"
"?_q_sourceModelColumnsRemoved@QAbstractProxyModelPrivate@@QEAAXAEBVQModelIndex@@HH@Z"
"?_q_sourceModelDestroyed@QAbstractProxyModelPrivate@@UEAAXXZ"
"?_q_sourceModelRowsAboutToBeInserted@QAbstractProxyModelPrivate@@QEAAXAEBVQModelIndex@@HH@Z"
"?_q_sourceModelRowsInserted@QAbstractProxyModelPrivate@@QEAAXAEBVQModelIndex@@HH@Z"
"?_q_sourceModelRowsRemoved@QAbstractProxyModelPrivate@@QEAAXAEBVQModelIndex@@HH@Z"
"?_qt_property_currentLoop_offset@QAbstractAnimationPrivate@@SA_KXZ"
"?_qt_property_direction_offset@QAbstractAnimationPrivate@@SA_KXZ"
"?_qt_property_loopCount_offset@QAbstractAnimationPrivate@@SA_KXZ"
"?_qt_property_model_offset@QAbstractProxyModelPrivate@@SA_KXZ"
"?_qt_property_state_offset@QAbstractAnimationPrivate@@SA_KXZ"
"?_qt_property_totalCurrentTime_offset@QAbstractAnimationPrivate@@SA_KXZ"
"?_readAndAppendToByteArray_helper@QCborStreamReader@@AEAA_NAEAVQByteArray@@@Z"
"?_readAndAppendToString_helper@QCborStreamReader@@AEAA_NAEAVQString@@@Z"
"?_readAndAppendToUtf8String_helper@QCborStreamReader@@AEAA_NAEAVQByteArray@@@Z"
"?_readByteArray_helper@QCborStreamReader@@AEAA?AU?$StringResult@VQByteArray@@@1@XZ"
"?_readString_helper@QCborStreamReader@@AEAA?AU?$StringResult@VQString@@@1@XZ"
"?_readUtf8String_helper@QCborStreamReader@@AEAA?AU?$StringResult@VQByteArray@@@1@XZ"
"?abbreviation@QTimeZone@@QEBA?AVQString@@AEBVQDateTime@@@Z"
"?abortTransaction@QDataStream@@QEAAXXZ"
"?aboutToBlock@QAbstractEventDispatcher@@QEAAXXZ"
"?aboutToClose@QIODevice@@QEAAXXZ"
"?aboutToQuit@QCoreApplication@@QEAAXUQPrivateSignal@1@@Z"
"?absoluteDir@QFileInfo@@QEBA?AVQDir@@XZ"
"?absoluteFilePath@DirEntry@QDirListing@@QEBA?AVQString@@XZ"
"?absoluteFilePath@QDir@@QEBA?AVQString@@AEBV2@@Z"
"?absoluteFilePath@QFileInfo@@QEBA?AVQString@@XZ"
"?absoluteFilePath@QResource@@QEBA?AVQString@@XZ"
"?absoluteMax@QDateTimeParser@@IEBAHHAEBVQDateTime@@@Z"
"?absoluteMin@QDateTimeParser@@IEBAHH@Z"
"?absolutePath@DirEntry@QDirListing@@QEBA?AVQString@@XZ"
"?absolutePath@QDir@@QEBA?AVQString@@XZ"
"?absolutePath@QFileInfo@@QEBA?AVQString@@XZ"
"?absoluteSignalCount@QMetaObjectPrivate@@SAHPEBUQMetaObject@@@Z"
"?accept@QEvent@@QEAAXXZ"
"?access@QMetaMethod@@QEBA?AW4Access@1@XZ"
"?access@QMetaMethodBuilder@@QEBA?AW4Access@QMetaMethod@@XZ"
"?accessMode@QCalendarPermission@@QEBA?AW4AccessMode@1@XZ"
"?accessMode@QContactsPermission@@QEBA?AW4AccessMode@1@XZ"
"?accuracy@QLocationPermission@@QEBA?AW4Accuracy@1@XZ"
"?acquire@QSemaphore@@QEAAXH@Z"
"?acquire@QSystemSemaphore@@QEAA_NXZ"
"?activate@QMetaObject@@SAXPEAVQObject@@HHPEAPEAX@Z"
"?activate@QMetaObject@@SAXPEAVQObject@@HPEAPEAX@Z"
"?activate@QMetaObject@@SAXPEAVQObject@@PEBU1@HPEAPEAX@Z"
"?activateCallbacks@QInternal@@SA_NW4Callback@1@PEAPEAX@Z"
"?activated@QSocketNotifier@@QEAAXHUQPrivateSignal@1@@Z"
"?activated@QSocketNotifier@@QEAAXVQSocketDescriptor@@W4Type@1@UQPrivateSignal@1@@Z"
"?activated@QWinEventNotifier@@QEAAXPEAXUQPrivateSignal@1@@Z"
"?activeThreadCount@QThreadPool@@QEBAHXZ"
"?activeThreadCount@QThreadPoolPrivate@@QEBAHXZ"
"?add@QObjectCleanupHandler@@QEAAPEAVQObject@@PEAV2@@Z"
"?addAnimation@QAnimationGroup@@QEAAXPEAVQAbstractAnimation@@@Z"
"?addCanceledResult@ResultStoreBase@QtPrivate@@QEAAHH@Z"
"?addClassInfo@QMetaObjectBuilder@@QEAAHAEBVQByteArray@@0@Z"
"?addConnection@QObjectPrivate@@QEAAXHPEAUConnection@1@@Z"
"?addConstructor@QMetaObjectBuilder@@QEAA?AVQMetaMethodBuilder@@AEBVQByteArray@@@Z"
"?addConstructor@QMetaObjectBuilder@@QEAA?AVQMetaMethodBuilder@@AEBVQMetaMethod@@@Z"
"?addCubicBezierSegment@QEasingCurve@@QEAAXAEBVQPointF@@00@Z"
"?addData@QCborStreamReader@@QEAAXAEBVQByteArray@@@Z"
"?addData@QCborStreamReader@@QEAAXPEBD_J@Z"
"?addData@QCborStreamReader@@QEAAXPEBE_J@Z"
"?addData@QCryptographicHash@@QEAAXAEBVQByteArray@@@Z"
"?addData@QCryptographicHash@@QEAAXPEBD_J@Z"
"?addData@QCryptographicHash@@QEAAXVQByteArrayView@@@Z"
"?addData@QCryptographicHash@@QEAA_NPEAVQIODevice@@@Z"
"?addData@QMessageAuthenticationCode@@QEAAXAEBVQByteArray@@@Z"
"?addData@QMessageAuthenticationCode@@QEAAXPEBD_J@Z"
"?addData@QMessageAuthenticationCode@@QEAAXVQByteArrayView@@@Z"
"?addData@QMessageAuthenticationCode@@QEAA_NPEAVQIODevice@@@Z"
"?addData@QXmlStreamReader@@QEAAXAEBVQByteArray@@@Z"
"?addData@QXmlStreamReader@@QEAAXAEBVQString@@@Z"
"?addData@QXmlStreamReader@@QEAAXPEBD@Z"
"?addData@QXmlStreamReader@@QEAAXVQAnyStringView@@@Z"
"?addDataImpl@QXmlStreamReader@@AEAAXAEBVQByteArray@@@Z"
"?addDays@QDate@@QEBA?AV1@_J@Z"
"?addDays@QDateTime@@QEBA?AV1@_J@Z"
"?addDirectory@QZipWriter@@QEAAXAEBVQString@@@Z"
"?addDuration@QDateTime@@QEBA?AV1@V?$duration@_JU?$ratio@$00$0DOI@@std@@@chrono@std@@@Z"
"?addEnumerator@QMetaObjectBuilder@@QEAA?AVQMetaEnumBuilder@@AEBVQByteArray@@@Z"
"?addEnumerator@QMetaObjectBuilder@@QEAA?AVQMetaEnumBuilder@@AEBVQMetaEnum@@@Z"
"?addExtraNamespaceDeclaration@QXmlStreamReader@@QEAAXAEBVQXmlStreamNamespaceDeclaration@@@Z"
"?addExtraNamespaceDeclarations@QXmlStreamReader@@QEAAXAEBV?$QList@VQXmlStreamNamespaceDeclaration@@@@@Z"
"?addFile@QZipWriter@@QEAAXAEBVQString@@AEBVQByteArray@@@Z"
"?addFile@QZipWriter@@QEAAXAEBVQString@@PEAVQIODevice@@@Z"
"?addHelpOption@QCommandLineParser@@QEAA?AVQCommandLineOption@@XZ"
"?addKey@QMetaEnumBuilder@@QEAAHAEBVQByteArray@@H@Z"
"?addLibraryPath@QCoreApplication@@SAXAEBVQString@@@Z"
"?addMSecs@QDateTime@@QEBA?AV1@_J@Z"
"?addMSecs@QTime@@QEBA?AV1@H@Z"
"?addMetaObject@QMetaObjectBuilder@@QEAAXPEBUQMetaObject@@V?$QFlags@W4AddMember@QMetaObjectBuilder@@@@@Z"
"?addMethod@QMetaObjectBuilder@@QEAA?AVQMetaMethodBuilder@@AEBVQByteArray@@0@Z"
"?addMethod@QMetaObjectBuilder@@QEAA?AVQMetaMethodBuilder@@AEBVQByteArray@@@Z"
"?addMethod@QMetaObjectBuilder@@QEAA?AVQMetaMethodBuilder@@AEBVQMetaMethod@@@Z"
"?addMonths@QDate@@QEBA?AV1@H@Z"
"?addMonths@QDate@@QEBA?AV1@HVQCalendar@@@Z"
"?addMonths@QDateTime@@QEBA?AV1@H@Z"
"?addNSecs@QDeadlineTimer@@SA?AV1@V1@_J@Z"
"?addOption@QCommandLineParser@@QEAA_NAEBVQCommandLineOption@@@Z"
"?addOptions@QCommandLineParser@@QEAA_NAEBV?$QList@VQCommandLineOption@@@@@Z"
"?addPath@QFileSystemWatcher@@QEAA_NAEBVQString@@@Z"
"?addPaths@QFileSystemWatcher@@QEAA?AV?$QList@VQString@@@@AEBV2@@Z"
"?addPause@QSequentialAnimationGroup@@QEAAPEAVQPauseAnimation@@H@Z"
"?addPositionalArgument@QCommandLineParser@@QEAAXAEBVQString@@00@Z"
"?addProperty@QMetaObjectBuilder@@QEAA?AVQMetaPropertyBuilder@@AEBVQByteArray@@0H@Z"
"?addProperty@QMetaObjectBuilder@@QEAA?AVQMetaPropertyBuilder@@AEBVQByteArray@@0VQMetaType@@H@Z"
"?addProperty@QMetaObjectBuilder@@QEAA?AVQMetaPropertyBuilder@@AEBVQMetaProperty@@@Z"
"?addQtOptions@QCoreApplicationPrivate@@UEAAXPEAV?$QList@VQCommandLineOption@@@@@Z"
"?addQueryItem@QUrlQuery@@QEAAXAEBVQString@@0@Z"
"?addRelatedMetaObject@QMetaObjectBuilder@@QEAAHPEBUQMetaObject@@@Z"
"?addResult@ResultStoreBase@QtPrivate@@QEAAHHPEBX@Z"
"?addResults@ResultStoreBase@QtPrivate@@QEAAHHPEBXHH@Z"
"?addSearchPath@QDir@@SAXAEBVQString@@0@Z"
"?addSecs@QDateTime@@QEBA?AV1@_J@Z"
"?addSecs@QTime@@QEBA?AV1@H@Z"
"?addSignal@QMetaObjectBuilder@@QEAA?AVQMetaMethodBuilder@@AEBVQByteArray@@@Z"
"?addSlot@QMetaObjectBuilder@@QEAA?AVQMetaMethodBuilder@@AEBVQByteArray@@@Z"
"?addSourceModel@QConcatenateTablesProxyModel@@QEAAXPEAVQAbstractItemModel@@@Z"
"?addStatics@QFileSelectorPrivate@@SAXAEBV?$QList@VQString@@@@@Z"
"?addSymLink@QZipWriter@@QEAAXAEBVQString@@0@Z"
"?addTCBSegment@QEasingCurve@@QEAAXAEBVQPointF@@NNN@Z"
"?addValue@QMetaSequence@@QEBAXPEAXPEBX@Z"
"?addValue@QSequentialIterable@@QEAAXAEBVQVariant@@W4Position@1@@Z"
"?addValueAtBegin@QMetaSequence@@QEBAXPEAXPEBX@Z"
"?addValueAtEnd@QMetaSequence@@QEBAXPEAXPEBX@Z"
"?addVersionOption@QCommandLineParser@@QEAA?AVQCommandLineOption@@XZ"
"?addYears@QDate@@QEBA?AV1@H@Z"
"?addYears@QDate@@QEBA?AV1@HVQCalendar@@@Z"
"?addYears@QDateTime@@QEBA?AV1@H@Z"
"?added@QChildEvent@@QEBA_NXZ"
"?adjust@QRect@@QEAAXHHHH@Z"
"?adjust@QRectF@@QEAAXNNNN@Z"
"?adjusted@QRect@@QEBA?AV1@HHHH@Z"
"?adjusted@QRectF@@QEBA?AV1@NNNN@Z"
"?adjusted@QUrl@@QEBA?AV1@V?$QUrlTwoFlags@W4UrlFormattingOption@QUrl@@W4ComponentFormattingOption@2@@@@Z"
"?advance@QAnimationDriver@@UEAAXXZ"
"?advanceAnimation@QAnimationDriver@@IEAAXXZ"
"?advanceConstIterator@QMetaContainer@@QEBAXPEAX_J@Z"
"?advanceIterator@QMetaContainer@@QEBAXPEAX_J@Z"
"?algorithm@QCryptographicHash@@QEBA?AW4Algorithm@1@XZ"
"?aliasedProperty@QPropertyObserver@@IEBAPEAVQUntypedPropertyData@@XZ"
"?aliases@QMimeType@@QEBA?AV?$QList@VQString@@@@XZ"
"?alignOf@QMetaType@@QEBA_JXZ"
"?allAncestors@QMimeType@@QEBA?AV?$QList@VQString@@@@XZ"
"?allKeys@QSettings@@QEBA?AV?$QList@VQString@@@@XZ"
"?allMimeTypes@QMimeDatabase@@QEBA?AV?$QList@VQMimeType@@@@XZ"
"?allQueryItemValues@QUrlQuery@@QEBA?AV?$QList@VQString@@@@AEBVQString@@V?$QFlags@W4ComponentFormattingOption@QUrl@@@@@Z"
"?allSelectors@QFileSelector@@QEBA?AV?$QList@VQString@@@@XZ"
"?allWriteBuffersEmpty@QIODevicePrivate@@QEBA_NXZ"
"?allocArgs@QMetaCallEvent@@AEAAXXZ"
"?allocate1@QArrayData@@SAPEAXPEAPEAU1@_JW4AllocationOption@1@@Z"
"?allocate2@QArrayData@@SAPEAXPEAPEAU1@_JW4AllocationOption@1@@Z"
"?allocate@QArrayData@@SAPEAXPEAPEAU1@_J11W4AllocationOption@1@@Z"
"?allocateData@QContiguousCacheData@@SAPEAU1@_J0@Z"
"?allocateTimerId@QAbstractEventDispatcherPrivate@@SAHXZ"
"?allowMove@QAbstractItemModelPrivate@@QEAA_NAEBVQModelIndex@@HH0HW4Orientation@Qt@@@Z"
"?amText@QLocale@@QEBA?AVQString@@XZ"
"?amplitude@QEasingCurve@@QEBANXZ"
"?anchoredPattern@QRegularExpression@@SA?AVQString@@AEBV2@@Z"
"?anchoredPattern@QRegularExpression@@SA?AVQString@@VQStringView@@@Z"
"?angle@QLineF@@QEBANXZ"
"?angleTo@QLineF@@QEBANAEBV1@@Z"
"?animationAt@QAnimationGroup@@QEBAPEAVQAbstractAnimation@@H@Z"
"?animationCount@QAnimationGroup@@QEBAHXZ"
"?appName@QCoreApplicationPrivate@@QEBA?AVQString@@XZ"
"?appVersion@QCoreApplicationPrivate@@QEBA?AVQString@@XZ"
"?append@QByteArray@@QEAAAEAV1@AEBV1@@Z"
"?append@QByteArray@@QEAAAEAV1@D@Z"
"?append@QByteArray@@QEAAAEAV1@PEBD@Z"
"?append@QByteArray@@QEAAAEAV1@PEBD_J@Z"
"?append@QByteArray@@QEAAAEAV1@VQByteArrayView@@@Z"
"?append@QByteArray@@QEAAAEAV1@_JD@Z"
"?append@QCborArray@@QEAAX$$QEAVQCborValue@@@Z"
"?append@QCborArray@@QEAAXAEBVQCborValue@@@Z"
"?append@QCborStreamWriter@@QEAAX$$T@Z"
"?append@QCborStreamWriter@@QEAAXAEBVQByteArray@@@Z"
"?append@QCborStreamWriter@@QEAAXH@Z"
"?append@QCborStreamWriter@@QEAAXI@Z"
"?append@QCborStreamWriter@@QEAAXM@Z"
"?append@QCborStreamWriter@@QEAAXN@Z"
"?append@QCborStreamWriter@@QEAAXPEBD_J@Z"
"?append@QCborStreamWriter@@QEAAXVQLatin1String@@@Z"
"?append@QCborStreamWriter@@QEAAXVQStringView@@@Z"
"?append@QCborStreamWriter@@QEAAXVqfloat16@@@Z"
"?append@QCborStreamWriter@@QEAAXW4QCborKnownTags@@@Z"
"?append@QCborStreamWriter@@QEAAXW4QCborNegativeInteger@@@Z"
"?append@QCborStreamWriter@@QEAAXW4QCborSimpleType@@@Z"
"?append@QCborStreamWriter@@QEAAXW4QCborTag@@@Z"
"?append@QCborStreamWriter@@QEAAX_J@Z"
"?append@QCborStreamWriter@@QEAAX_K@Z"
"?append@QCborStreamWriter@@QEAAX_N@Z"
"?append@QJsonArray@@QEAAXAEBVQJsonValue@@@Z"
"?append@QRingBuffer@@QEAAX$$QEAVQByteArray@@@Z"
"?append@QRingBuffer@@QEAAXAEBVQByteArray@@@Z"
"?append@QRingBuffer@@QEAAXPEBD_J@Z"
"?append@QString@@QEAAAEAV1@AEBV1@@Z"
"?append@QString@@QEAAAEAV1@AEBVQByteArray@@@Z"
"?append@QString@@QEAAAEAV1@PEBD@Z"
"?append@QString@@QEAAAEAV1@PEBVQChar@@_J@Z"
"?append@QString@@QEAAAEAV1@V?$QBasicUtf8StringView@$0A@@@@Z"
"?append@QString@@QEAAAEAV1@VQChar@@@Z"
"?append@QString@@QEAAAEAV1@VQLatin1String@@@Z"
"?append@QString@@QEAAAEAV1@VQStringView@@@Z"
"?append@QXmlStreamAttributes@@QEAAXAEBVQString@@00@Z"
"?append@QXmlStreamAttributes@@QEAAXAEBVQString@@0@Z"
"?appendApplicationPathToLibraryPaths@QCoreApplicationPrivate@@QEAAXXZ"
"?appendByteString@QCborStreamWriter@@QEAAXPEBD_J@Z"
"?appendLatin1To@QAbstractConcatenable@@KAXVQLatin1String@@PEAVQChar@@@Z"
"?appendNull@QCborStreamWriter@@QEAAXXZ"
"?appendTextString@QCborStreamWriter@@QEAAXPEBD_J@Z"
"?appendUndefined@QCborStreamWriter@@QEAAXXZ"
"?applicationDescription@QCommandLineParser@@QEBA?AVQString@@XZ"
"?applicationDirPath@QCoreApplication@@SA?AVQString@@XZ"
"?applicationFilePath@QCoreApplication@@SA?AVQString@@XZ"
"?applicationName@QCoreApplication@@SA?AVQString@@XZ"
"?applicationName@QSettings@@QEBA?AVQString@@XZ"
"?applicationNameChanged@QCoreApplication@@QEAAXXZ"
"?applicationPid@QCoreApplication@@SA_JXZ"
"?applicationVersion@QCoreApplication@@SA?AVQString@@XZ"
"?applicationVersionChanged@QCoreApplication@@QEAAXXZ"
"?areAllThreadsActive@QThreadPoolPrivate@@QEBA_NXZ"
"?arg@QString@@QEBA?AV1@AEBV1@HVQChar@@@Z"
"?arg@QString@@QEBA?AV1@DHVQChar@@@Z"
"?arg@QString@@QEBA?AV1@FHHVQChar@@@Z"
"?arg@QString@@QEBA?AV1@GHHVQChar@@@Z"
"?arg@QString@@QEBA?AV1@HHHVQChar@@@Z"
"?arg@QString@@QEBA?AV1@IHHVQChar@@@Z"
"?arg@QString@@QEBA?AV1@JHHVQChar@@@Z"
"?arg@QString@@QEBA?AV1@KHHVQChar@@@Z"
"?arg@QString@@QEBA?AV1@NHDHVQChar@@@Z"
"?arg@QString@@QEBA?AV1@VQChar@@H0@Z"
"?arg@QString@@QEBA?AV1@VQLatin1String@@HVQChar@@@Z"
"?arg@QString@@QEBA?AV1@VQStringView@@HVQChar@@@Z"
"?arg@QString@@QEBA?AV1@_JHHVQChar@@@Z"
"?arg@QString@@QEBA?AV1@_KHHVQChar@@@Z"
"?argToQString@QtPrivate@@YA?AVQString@@VQLatin1String@@_KPEAPEBUArgBase@1@@Z"
"?argToQString@QtPrivate@@YA?AVQString@@VQStringView@@_KPEAPEBUArgBase@1@@Z"
"?args@QMetaCallEvent@@QEAAPEAPEAXXZ"
"?args@QMetaCallEvent@@QEBAPEBQEBXXZ"
"?arguments@QCoreApplication@@SA?AV?$QList@VQString@@@@XZ"
"?arguments@QProcess@@QEBA?AV?$QList@VQString@@@@XZ"
"?array@QJsonDocument@@QEBA?AVQJsonArray@@XZ"
"?asBackendZone@QTimeZone@@QEBA?AV1@XZ"
"?asprintf@QString@@SA?AV1@PEBDZZ"
"?assign@QByteArray@@QEAAAEAV1@VQByteArrayView@@@Z"
"?assign@QByteArray@@QEAAAEAV1@_JD@Z"
"?assign@QCborValueRef@@CAXV1@$$QEAVQCborValue@@@Z"
"?assign@QCborValueRef@@CAXV1@AEBVQCborValue@@@Z"
"?assign@QCborValueRef@@CAXV1@V1@@Z"
"?assign@QString@@QEAAAEAV1@VQAnyStringView@@@Z"
"?assign@QString@@QEAAAEAV1@_JVQChar@@@Z"
"?assign_helper@QString@@AEAAAEAV1@PEB_U_J@Z"
"?assign_internal@QNativeIpcKey@@AEAAAEAV1@AEBV1@@Z"
"?at@QBitArray@@QEBA_N_J@Z"
"?at@QByteArray@@QEBAD_J@Z"
"?at@QByteArrayView@@QEBAD_J@Z"
"?at@QCborArray@@QEBA?AVQCborValue@@_J@Z"
"?at@QJsonArray@@QEBA?AVQJsonValue@@_J@Z"
"?at@QSequentialIterable@@QEBA?AVQVariant@@_J@Z"
"?at@QString@@QEBA?BVQChar@@_J@Z"
"?atEnd@QAbstractFileEngine@@QEBA_NXZ"
"?atEnd@QBuffer@@UEBA_NXZ"
"?atEnd@QDataStream@@QEBA_NXZ"
"?atEnd@QFileDevice@@UEBA_NXZ"
"?atEnd@QIODevice@@UEBA_NXZ"
"?atEnd@QTextStream@@QEBA_NXZ"
"?atEnd@QXmlStreamReader@@QEBA_NXZ"
"?attach@QSharedMemory@@QEAA_NW4AccessMode@1@@Z"
"?attribs@QCoreApplicationPrivate@@2IA"
"?attributes@QMetaMethod@@QEBAHXZ"
"?attributes@QMetaMethodBuilder@@QEBAHXZ"
"?attributes@QXmlStreamReader@@QEBA?AVQXmlStreamAttributes@@XZ"
"?authority@QUrl@@QEBA?AVQString@@V?$QFlags@W4ComponentFormattingOption@QUrl@@@@@Z"
"?autoAcceptChildRows@QSortFilterProxyModel@@QEBA_NXZ"
"?autoAcceptChildRowsChanged@QSortFilterProxyModel@@QEAAX_N@Z"
"?autoDelete@QRunnable@@QEBA_NXZ"
"?autoDetectUnicode@QTextStream@@QEBA_NXZ"
"?autoFormatting@QXmlStreamWriter@@QEBA_NXZ"
"?autoFormattingIndent@QXmlStreamWriter@@QEBAHXZ"
"?autoInsertSpaces@QDebug@@QEBA_NXZ"
"?autoRemove@QTemporaryDir@@QEBA_NXZ"
"?autoRemove@QTemporaryFile@@QEBA_NXZ"
"?availability@QLocationPermission@@QEBA?AW4Availability@1@XZ"
"?available@QSemaphore@@QEBAHXZ"
"?availableCalendars@QCalendar@@SA?AV?$QList@VQString@@@@XZ"
"?availableCalendars@QCalendarBackend@@SA?AV?$QList@VQString@@@@XZ"
"?availableCodecs@QStringConverter@@SA?AV?$QList@VQString@@@@XZ"
"?availableTimeZoneIds@QTimeZone@@SA?AV?$QList@VQByteArray@@@@H@Z"
"?availableTimeZoneIds@QTimeZone@@SA?AV?$QList@VQByteArray@@@@W4Country@QLocale@@@Z"
"?availableTimeZoneIds@QTimeZone@@SA?AV?$QList@VQByteArray@@@@XZ"
"?awake@QAbstractEventDispatcher@@QEAAXXZ"
"?back@QByteArray@@QEAAAEADXZ"
"?back@QByteArray@@QEBADXZ"
"?back@QByteArrayView@@QEBADXZ"
"?back@QString@@QEAAAEAVQChar@@XZ"
"?back@QString@@QEBA?AVQChar@@XZ"
"?baseDate@QDateTimeParser@@AEBA?AVQDateTime@@AEBVQTimeZone@@@Z"
"?baseName@DirEntry@QDirListing@@QEBA?AVQString@@XZ"
"?baseName@QFileInfo@@QEBA?AVQString@@XZ"
"?basetable@qfloat16@@0QBGB"
"?batchSize@ResultIteratorBase@QtPrivate@@QEBAHXZ"
"?batchedAdvance@ResultIteratorBase@QtPrivate@@QEAAXXZ"
"?bcp47Name@QLocale@@QEBA?AVQString@@W4TagSeparator@1@@Z"
"?bcp47Name@QLocale@@QEBA?AVQString@@XZ"
"?begin@@YA?AVQRegularExpressionMatchIteratorRangeBasedForIterator@QtPrivate@@AEBVQRegularExpressionMatchIterator@@@Z"
"?begin@QAssociativeIterable@@QEBA?AV?$QTaggedIterator@VQAssociativeConstIterator@@X@@XZ"
"?begin@QByteArray@@QEAAPEADXZ"
"?begin@QByteArray@@QEBAPEBDXZ"
"?begin@QByteArrayView@@QEBAPEBDXZ"
"?begin@QCborArray@@QEAA?AVIterator@1@XZ"
"?begin@QCborArray@@QEBA?AVConstIterator@1@XZ"
"?begin@QCborMap@@QEAA?AVIterator@1@XZ"
"?begin@QCborMap@@QEBA?AVConstIterator@1@XZ"
"?begin@QDirListing@@QEBA?AVconst_iterator@1@XZ"
"?begin@QJsonArray@@QEAA?AViterator@1@XZ"
"?begin@QJsonArray@@QEBA?AVconst_iterator@1@XZ"
"?begin@QJsonObject@@QEAA?AViterator@1@XZ"
"?begin@QJsonObject@@QEBA?AVconst_iterator@1@XZ"
"?begin@QMetaContainer@@QEBAPEAXPEAX@Z"
"?begin@QSequentialIterable@@QEBA?AV?$QTaggedIterator@VQSequentialConstIterator@@X@@XZ"
"?begin@QString@@QEAAPEAVQChar@@XZ"
"?begin@QString@@QEBAPEBVQChar@@XZ"
"?begin@ResultStoreBase@QtPrivate@@QEBA?AVResultIteratorBase@2@XZ"
"?beginEntryList@QAbstractFileEngine@@UEAA?AV?$unique_ptr@VQAbstractFileEngineIterator@@U?$default_delete@VQAbstractFileEngineIterator@@@std@@@std@@AEBVQString@@V?$QFlags@W4IteratorFlag@QDirListing@@@@AEBV?$QList@VQString@@@@@Z"
"?beginEntryList@QFSFileEngine@@UEAA?AV?$unique_ptr@VQAbstractFileEngineIterator@@U?$default_delete@VQAbstractFileEngineIterator@@@std@@@std@@AEBVQString@@V?$QFlags@W4IteratorFlag@QDirListing@@@@AEBV?$QList@VQString@@@@@Z"
"?beginGroup@QSettings@@QEAAXAEBVQString@@@Z"
"?beginGroup@QSettings@@QEAAXVQAnyStringView@@@Z"
"?beginInsertColumns@QAbstractItemModel@@IEAAXAEBVQModelIndex@@HH@Z"
"?beginInsertRows@QAbstractItemModel@@IEAAXAEBVQModelIndex@@HH@Z"
"?beginMoveColumns@QAbstractItemModel@@IEAA_NAEBVQModelIndex@@HH0H@Z"
"?beginMoveRows@QAbstractItemModel@@IEAA_NAEBVQModelIndex@@HH0H@Z"
"?beginPropertyUpdateGroup@Qt@@YAXXZ"
"?beginReadArray@QSettings@@QEAAHAEBVQString@@@Z"
"?beginReadArray@QSettings@@QEAAHVQAnyStringView@@@Z"
"?beginRemoveColumns@QAbstractItemModel@@IEAAXAEBVQModelIndex@@HH@Z"
"?beginRemoveRows@QAbstractItemModel@@IEAAXAEBVQModelIndex@@HH@Z"
"?beginResetModel@QAbstractItemModel@@IEAAXXZ"
"?beginWriteArray@QSettings@@QEAAXAEBVQString@@H@Z"
"?beginWriteArray@QSettings@@QEAAXVQAnyStringView@@H@Z"
"?bin@Qt@@YAAEAVQTextStream@@AEAV2@@Z"
"?bindable@QMetaProperty@@QEBA?AVQUntypedBindable@@PEAVQObject@@@Z"
"?bindableActive@QChronoTimer@@QEAA?AV?$QBindable@_N@@XZ"
"?bindableActive@QTimer@@QEAA?AV?$QBindable@_N@@XZ"
"?bindableAutoAcceptChildRows@QSortFilterProxyModel@@QEAA?AV?$QBindable@_N@@XZ"
"?bindableCurrentAnimation@QSequentialAnimationGroup@@QEBA?AV?$QBindable@PEAVQAbstractAnimation@@@@XZ"
"?bindableCurrentLoop@QAbstractAnimation@@QEBA?AV?$QBindable@H@@XZ"
"?bindableCurrentTime@QAbstractAnimation@@QEAA?AV?$QBindable@H@@XZ"
"?bindableCurrentTime@QTimeLine@@QEAA?AV?$QBindable@H@@XZ"
"?bindableDirection@QAbstractAnimation@@QEAA?AV?$QBindable@W4Direction@QAbstractAnimation@@@@XZ"
"?bindableDirection@QTimeLine@@QEAA?AV?$QBindable@W4Direction@QTimeLine@@@@XZ"
"?bindableDuration@QPauseAnimation@@QEAA?AV?$QBindable@H@@XZ"
"?bindableDuration@QTimeLine@@QEAA?AV?$QBindable@H@@XZ"
"?bindableDuration@QVariantAnimation@@QEAA?AV?$QBindable@H@@XZ"
"?bindableDynamicSortFilter@QSortFilterProxyModel@@QEAA?AV?$QBindable@_N@@XZ"
"?bindableEasingCurve@QTimeLine@@QEAA?AV?$QBindable@VQEasingCurve@@@@XZ"
"?bindableEasingCurve@QVariantAnimation@@QEAA?AV?$QBindable@VQEasingCurve@@@@XZ"
"?bindableFilterCaseSensitivity@QSortFilterProxyModel@@QEAA?AV?$QBindable@W4CaseSensitivity@Qt@@@@XZ"
"?bindableFilterKeyColumn@QSortFilterProxyModel@@QEAA?AV?$QBindable@H@@XZ"
"?bindableFilterRegularExpression@QSortFilterProxyModel@@QEAA?AV?$QBindable@VQRegularExpression@@@@XZ"
"?bindableFilterRole@QSortFilterProxyModel@@QEAA?AV?$QBindable@H@@XZ"
"?bindableInterval@QChronoTimer@@QEAA?AV?$QBindable@V?$duration@_JU?$ratio@$00$0DLJKMKAA@@std@@@chrono@std@@@@XZ"
"?bindableInterval@QTimer@@QEAA?AV?$QBindable@H@@XZ"
"?bindableIsSortLocaleAware@QSortFilterProxyModel@@QEAA?AV?$QBindable@_N@@XZ"
"?bindableLoopCount@QAbstractAnimation@@QEAA?AV?$QBindable@H@@XZ"
"?bindableLoopCount@QTimeLine@@QEAA?AV?$QBindable@H@@XZ"
"?bindableModel@QItemSelectionModel@@QEAA?AV?$QBindable@PEAVQAbstractItemModel@@@@XZ"
"?bindableObjectName@QObject@@QEAA?AV?$QBindable@VQString@@@@XZ"
"?bindablePropertyName@QPropertyAnimation@@QEAA?AV?$QBindable@VQByteArray@@@@XZ"
"?bindableRecursiveFilteringEnabled@QSortFilterProxyModel@@QEAA?AV?$QBindable@_N@@XZ"
"?bindableSingleShot@QChronoTimer@@QEAA?AV?$QBindable@_N@@XZ"
"?bindableSingleShot@QTimer@@QEAA?AV?$QBindable@_N@@XZ"
"?bindableSortCaseSensitivity@QSortFilterProxyModel@@QEAA?AV?$QBindable@W4CaseSensitivity@Qt@@@@XZ"
"?bindableSortRole@QSortFilterProxyModel@@QEAA?AV?$QBindable@H@@XZ"
"?bindableSourceModel@QAbstractProxyModel@@QEAA?AV?$QBindable@PEAVQAbstractItemModel@@@@XZ"
"?bindableState@QAbstractAnimation@@QEBA?AV?$QBindable@W4State@QAbstractAnimation@@@@XZ"
"?bindableTargetObject@QPropertyAnimation@@QEAA?AV?$QBindable@PEAVQObject@@@@XZ"
"?bindableTimerType@QChronoTimer@@QEAA?AV?$QBindable@W4TimerType@Qt@@@@XZ"
"?bindableTimerType@QTimer@@QEAA?AV?$QBindable@W4TimerType@Qt@@@@XZ"
"?bindableUpdateInterval@QTimeLine@@QEAA?AV?$QBindable@H@@XZ"
"?binding@QPropertyBindingData@QtPrivate@@QEBAPEAVQPropertyBindingPrivate@@XZ"
"?bindingData@QBindingStorage@@QEAAPEAVQPropertyBindingData@QtPrivate@@PEAVQUntypedPropertyData@@_N@Z"
"?bindingData@QBindingStorage@@QEBAPEAVQPropertyBindingData@QtPrivate@@PEBVQUntypedPropertyData@@@Z"
"?bindingData_helper@QBindingStorage@@AEAAPEAVQPropertyBindingData@QtPrivate@@PEAVQUntypedPropertyData@@_N@Z"
"?bindingData_helper@QBindingStorage@@AEBAPEAVQPropertyBindingData@QtPrivate@@PEBVQUntypedPropertyData@@@Z"
"?bindingError@QPropertyBindingPrivate@@QEBA?AVQPropertyBindingError@@XZ"
"?bindingStorage@QObject@@QEAAPEAVQBindingStorage@@XZ"
"?bindingStorage@QObject@@QEBAPEBVQBindingStorage@@XZ"
"?bindingWrapper@PropertyAdaptorSlotObjectHelpers@QtPrivate@@YA_NVQMetaType@@PEAVQUntypedPropertyData@@UQPropertyBindingFunction@2@1PEAX@Z"
"?birthTime@QFileInfo@@QEBA?AVQDateTime@@AEBVQTimeZone@@@Z"
"?birthTime@QFileInfo@@QEBA?AVQDateTime@@XZ"
"?bits@QBitArray@@QEBAPEBDXZ"
"?blobSize@QMetaStringTable@@QEBAHXZ"
"?blockSignals@QObject@@QEAA_N_N@Z"
"?blockSize@QStorageInfo@@QEBAHXZ"
"?bom@Qt@@YAAEAVQTextStream@@AEAV2@@Z"
"?bootUniqueId@QSysInfo@@SA?AVQByteArray@@XZ"
"?bottom@QItemSelectionRange@@QEBAHXZ"
"?bottom@QRect@@QEBAHXZ"
"?bottom@QRectF@@QEBANXZ"
"?bottomLeft@QRect@@QEBA?AVQPoint@@XZ"
"?bottomLeft@QRectF@@QEBA?AVQPointF@@XZ"
"?bottomRight@QItemSelectionRange@@QEBAAEBVQPersistentModelIndex@@XZ"
"?bottomRight@QRect@@QEBA?AVQPoint@@XZ"
"?bottomRight@QRectF@@QEBA?AVQPointF@@XZ"
"?boundaryReasons@QTextBoundaryFinder@@QEBA?AV?$QFlags@W4BoundaryReason@QTextBoundaryFinder@@@@XZ"
"?boundedTo@QSize@@QEBA?AV1@AEBV1@@Z"
"?boundedTo@QSizeF@@QEBA?AV1@AEBV1@@Z"
"?buddy@QAbstractItemModel@@UEBA?AVQModelIndex@@AEBV2@@Z"
"?buddy@QAbstractProxyModel@@UEBA?AVQModelIndex@@AEBV2@@Z"
"?buddy@QSortFilterProxyModel@@UEBA?AVQModelIndex@@AEBV2@@Z"
"?buffer@QBuffer@@QEAAAEAVQByteArray@@XZ"
"?buffer@QBuffer@@QEBAAEBVQByteArray@@XZ"
"?build@QLibraryInfo@@SAPEBDXZ"
"?buildAbi@QSysInfo@@SA?AVQString@@XZ"
"?buildCpuArchitecture@QSysInfo@@SA?AVQString@@XZ"
"?bundleName@DirEntry@QDirListing@@QEBA?AVQString@@XZ"
"?bundleName@QFileInfo@@QEBA?AVQString@@XZ"
"?byteOrder@QDataStream@@QEBA?AW4ByteOrder@1@XZ"
"?bytearrayToLongLong@QLocaleData@@SA?AU?$QSimpleParsedNumber@_J@@VQByteArrayView@@H@Z"
"?bytesAvailable@QIODevice@@UEBA_JXZ"
"?bytesAvailable@QStorageInfo@@QEBA_JXZ"
"?bytesAvailable@QWindowsPipeReader@@QEBA_JXZ"
"?bytesFree@QStorageInfo@@QEBA_JXZ"
"?bytesToWrite@QIODevice@@UEBA_JXZ"
"?bytesToWrite@QProcess@@UEBA_JXZ"
"?bytesToWrite@QWindowsPipeWriter@@QEBA_JXZ"
"?bytesTotal@QStorageInfo@@QEBA_JXZ"
"?bytesWritten@QIODevice@@QEAAX_J@Z"
"?bytesWritten@QWindowsPipeWriter@@QEAAX_J@Z"
"?c@QLocale@@SA?AV1@XZ"
"?cachedApplicationFilePath@QCoreApplicationPrivate@@2PEAVQString@@EA"
"?caching@QFileInfo@@QEBA_NXZ"
"?calendarId@QCalendarBackend@@QEBA?AVSystemId@QCalendar@@XZ"
"?calendarSystem@QCalendarBackend@@QEBA?AW4System@QCalendar@@XZ"
"?canAddValue@QMetaSequence@@QEBA_NXZ"
"?canAddValueAtBegin@QMetaSequence@@QEBA_NXZ"
"?canAddValueAtEnd@QMetaSequence@@QEBA_NXZ"
"?canClear@QMetaContainer@@QEBA_NXZ"
"?canContainsKey@QMetaAssociation@@QEBA_NXZ"
"?canConvert@QMetaType@@SA_NV1@0@Z"
"?canConvert@QVariant@@QEBA_NH@Z"
"?canConvert@QVariant@@QEBA_NVQMetaType@@@Z"
"?canCreateConstIteratorAtKey@QMetaAssociation@@QEBA_NXZ"
"?canCreateIteratorAtKey@QMetaAssociation@@QEBA_NXZ"
"?canDropMimeData@QAbstractItemModel@@UEBA_NPEBVQMimeData@@W4DropAction@Qt@@HHAEBVQModelIndex@@@Z"
"?canDropMimeData@QAbstractProxyModel@@UEBA_NPEBVQMimeData@@W4DropAction@Qt@@HHAEBVQModelIndex@@@Z"
"?canDropMimeData@QConcatenateTablesProxyModel@@UEBA_NPEBVQMimeData@@W4DropAction@Qt@@HHAEBVQModelIndex@@@Z"
"?canEraseRangeAtIterator@QMetaSequence@@QEBA_NXZ"
"?canEraseValueAtIterator@QMetaSequence@@QEBA_NXZ"
"?canFetchMore@QAbstractItemModel@@UEBA_NAEBVQModelIndex@@@Z"
"?canFetchMore@QAbstractProxyModel@@UEBA_NAEBVQModelIndex@@@Z"
"?canFetchMore@QSortFilterProxyModel@@UEBA_NAEBVQModelIndex@@@Z"
"?canForwardIterate@?$QIterable@VQMetaAssociation@@@@QEBA_NXZ"
"?canForwardIterate@?$QIterable@VQMetaSequence@@@@QEBA_NXZ"
"?canGetKeyAtConstIterator@QMetaAssociation@@QEBA_NXZ"
"?canGetKeyAtIterator@QMetaAssociation@@QEBA_NXZ"
"?canGetMappedAtConstIterator@QMetaAssociation@@QEBA_NXZ"
"?canGetMappedAtIterator@QMetaAssociation@@QEBA_NXZ"
"?canGetMappedAtKey@QMetaAssociation@@QEBA_NXZ"
"?canGetValueAtConstIterator@QMetaSequence@@QEBA_NXZ"
"?canGetValueAtIndex@QMetaSequence@@QEBA_NXZ"
"?canGetValueAtIterator@QMetaSequence@@QEBA_NXZ"
"?canIncrementVectorIndex@ResultIteratorBase@QtPrivate@@QEBA_NXZ"
"?canInputIterate@?$QIterable@VQMetaAssociation@@@@QEBA_NXZ"
"?canInputIterate@?$QIterable@VQMetaSequence@@@@QEBA_NXZ"
"?canInsertKey@QMetaAssociation@@QEBA_NXZ"
"?canInsertValueAtIterator@QMetaSequence@@QEBA_NXZ"
"?canQuitAutomatically@QCoreApplicationPrivate@@UEAA_NXZ"
"?canRandomAccessIterate@?$QIterable@VQMetaAssociation@@@@QEBA_NXZ"
"?canRandomAccessIterate@?$QIterable@VQMetaSequence@@@@QEBA_NXZ"
"?canReadLine@QBuffer@@UEBA_NXZ"
"?canReadLine@QIODevice@@UEBA_NXZ"
"?canReadLine@QWindowsPipeReader@@QEBA_NXZ"
"?canRemoveKey@QMetaAssociation@@QEBA_NXZ"
"?canRemoveValue@QMetaSequence@@QEBA_NXZ"
"?canRemoveValueAtBegin@QMetaSequence@@QEBA_NXZ"
"?canRemoveValueAtEnd@QMetaSequence@@QEBA_NXZ"
"?canReverseIterate@?$QIterable@VQMetaAssociation@@@@QEBA_NXZ"
"?canReverseIterate@?$QIterable@VQMetaSequence@@@@QEBA_NXZ"
"?canSetMappedAtIterator@QMetaAssociation@@QEBA_NXZ"
"?canSetMappedAtKey@QMetaAssociation@@QEBA_NXZ"
"?canSetValueAtIndex@QMetaSequence@@QEBA_NXZ"
"?canSetValueAtIterator@QMetaSequence@@QEBA_NXZ"
"?canUninstallAnimationDriver@QUnifiedTimer@@QEAA_NPEAVQAnimationDriver@@@Z"
"?canView@QMetaType@@SA_NV1@0@Z"
"?canView@QVariant@@QEBA_NVQMetaType@@@Z"
"?cancel@QFutureInterfaceBase@@IEAAXW4CancelMode@1@@Z"
"?cancel@QFutureInterfaceBase@@QEAAXXZ"
"?cancel@QFutureWatcherBase@@QEAAXXZ"
"?cancelAndFinish@QFutureInterfaceBase@@QEAAXXZ"
"?cancelAsyncRead@QWindowsPipeReader@@AEAAXW4State@1@@Z"
"?cancelWriting@QSaveFile@@QEAAXXZ"
"?canceled@QFutureWatcherBase@@QEAAXXZ"
"?canonicalFilePath@DirEntry@QDirListing@@QEBA?AVQString@@XZ"
"?canonicalFilePath@QFileInfo@@QEBA?AVQString@@XZ"
"?canonicalPath@QDir@@QEBA?AVQString@@XZ"
"?canonicalPath@QFileInfo@@QEBA?AVQString@@XZ"
"?capacity@QByteArray@@QEBA_JXZ"
"?capacity@QString@@QEBA_JXZ"
"?captureCount@QRegularExpression@@QEBAHXZ"
"?captured@QRegularExpressionMatch@@QEBA?AVQString@@AEBV2@@Z"
"?captured@QRegularExpressionMatch@@QEBA?AVQString@@H@Z"
"?captured@QRegularExpressionMatch@@QEBA?AVQString@@VQAnyStringView@@@Z"
"?captured@QRegularExpressionMatch@@QEBA?AVQString@@VQStringView@@@Z"
"?capturedEnd@QRegularExpressionMatch@@QEBA_JAEBVQString@@@Z"
"?capturedEnd@QRegularExpressionMatch@@QEBA_JH@Z"
"?capturedEnd@QRegularExpressionMatch@@QEBA_JVQAnyStringView@@@Z"
"?capturedEnd@QRegularExpressionMatch@@QEBA_JVQStringView@@@Z"
"?capturedLength@QRegularExpressionMatch@@QEBA_JAEBVQString@@@Z"
"?capturedLength@QRegularExpressionMatch@@QEBA_JH@Z"
"?capturedLength@QRegularExpressionMatch@@QEBA_JVQAnyStringView@@@Z"
"?capturedLength@QRegularExpressionMatch@@QEBA_JVQStringView@@@Z"
"?capturedStart@QRegularExpressionMatch@@QEBA_JAEBVQString@@@Z"
"?capturedStart@QRegularExpressionMatch@@QEBA_JH@Z"
"?capturedStart@QRegularExpressionMatch@@QEBA_JVQAnyStringView@@@Z"
"?capturedStart@QRegularExpressionMatch@@QEBA_JVQStringView@@@Z"
"?capturedTexts@QRegularExpressionMatch@@QEBA?AV?$QList@VQString@@@@XZ"
"?capturedView@QRegularExpressionMatch@@QEBA?AVQStringView@@H@Z"
"?capturedView@QRegularExpressionMatch@@QEBA?AVQStringView@@V2@@Z"
"?capturedView@QRegularExpressionMatch@@QEBA?AVQStringView@@VQAnyStringView@@@Z"
"?caseSensitive@QAbstractFileEngine@@UEBA_NXZ"
"?caseSensitive@QFSFileEngine@@UEBA_NXZ"
"?caseSensitivity@QCollator@@QEBA?AW4CaseSensitivity@Qt@@XZ"
"?caseSensitivity@QLatin1StringMatcher@@QEBA?AW4CaseSensitivity@Qt@@XZ"
"?caseSensitivity@QStringMatcher@@QEBA?AW4CaseSensitivity@Qt@@XZ"
"?cast@QMetaObject@@QEBAPEAVQObject@@PEAV2@@Z"
"?cast@QMetaObject@@QEBAPEBVQObject@@PEBV2@@Z"
"?castHelper@QByteArrayView@@CAPEBDPEBD@Z"
"?category@QChar@@QEBA?AW4Category@1@XZ"
"?category@QChar@@SA?AW4Category@1@_U@Z"
"?categoryName@QLoggingCategory@@QEBAPEBDXZ"
"?cbegin@QByteArray@@QEBAPEBDXZ"
"?cbegin@QByteArrayView@@QEBAPEBDXZ"
"?cbegin@QCborArray@@QEBA?AVConstIterator@1@XZ"
"?cbegin@QCborMap@@QEBA?AVConstIterator@1@XZ"
"?cbegin@QJsonArray@@QEBA?AVconst_iterator@1@XZ"
"?cbegin@QString@@QEBAPEBVQChar@@XZ"
"?cd@QDir@@QEAA_NAEBVQString@@@Z"
"?cdUp@QDir@@QEAA_NXZ"
"?cell@QChar@@QEBAEXZ"
"?cend@QByteArray@@QEBAPEBDXZ"
"?cend@QByteArrayView@@QEBAPEBDXZ"
"?cend@QCborArray@@QEBA?AVConstIterator@1@XZ"
"?cend@QCborMap@@QEBA?AVConstIterator@1@XZ"
"?cend@QJsonArray@@QEBA?AVconst_iterator@1@XZ"
"?cend@QString@@QEBAPEBVQChar@@XZ"
"?center@QLine@@QEBA?AVQPoint@@XZ"
"?center@QLineF@@QEBA?AVQPointF@@XZ"
"?center@QRect@@QEBA?AVQPoint@@XZ"
"?center@QRectF@@QEBA?AVQPointF@@XZ"
"?center@Qt@@YAAEAVQTextStream@@AEAV2@@Z"
"?changePersistentIndex@QAbstractItemModel@@IEAAXAEBVQModelIndex@@0@Z"
"?changePersistentIndexList@QAbstractItemModel@@IEAAXAEBV?$QList@VQModelIndex@@@@0@Z"
"?channelBytesWritten@QIODevice@@QEAAXH_J@Z"
"?channelReadyRead@QIODevice@@QEAAXH@Z"
"?characterOffset@QXmlStreamReader@@QEBA_JXZ"
"?checkConnectArgs@QMetaObject@@SA_NAEBVQMetaMethod@@0@Z"
"?checkConnectArgs@QMetaObject@@SA_NPEBD0@Z"
"?checkForIncompatibleLibraryVersion@QObjectPrivate@@QEBAXH@Z"
"?checkForReadyRead@QWindowsPipeReader@@QEAA_NXZ"
"?checkForWrite@QWindowsPipeWriter@@QEAA_NXZ"
"?checkIndex@QAbstractItemModel@@QEBA_NAEBVQModelIndex@@V?$QFlags@W4CheckIndexOption@QAbstractItemModel@@@@@Z"
"?checkInstance@QCoreApplicationPrivate@@SA_NPEBD@Z"
"?checkPermission@QCoreApplication@@QEAA?AW4PermissionStatus@Qt@@AEBVQPermission@@@Z"
"?checkPipeState@QWindowsPipeReader@@QEAAKXZ"
"?checkQObjectShared@ExternalRefCountData@QtSharedPointer@@QEAAXPEBVQObject@@@Z"
"?checkReceiverThread@QCoreApplicationPrivate@@SAXPEAVQObject@@@Z"
"?checkUtf8@QLocal8Bit@@SAHXZ"
"?child@QChildEvent@@QEBAPEAVQObject@@XZ"
"?childEvent@QObject@@MEAAXPEAVQChildEvent@@@Z"
"?childGroups@QSettings@@QEBA?AV?$QList@VQString@@@@XZ"
"?childKeys@QSettings@@QEBA?AV?$QList@VQString@@@@XZ"
"?children@QObject@@QEBAAEBV?$QList@PEAVQObject@@@@XZ"
"?children@QResource@@IEBA?AV?$QList@VQString@@@@XZ"
"?chop@QByteArray@@QEAAX_J@Z"
"?chop@QByteArrayView@@QEAAX_J@Z"
"?chop@QRingBuffer@@QEAAX_J@Z"
"?chop@QString@@QEAAX_J@Z"
"?chopped@QByteArray@@QEBA?AV1@_J@Z"
"?chopped@QByteArray@@QEGBA?AV1@_J@Z"
"?chopped@QByteArray@@QEHAA?AV1@_J@Z"
"?chopped@QByteArrayView@@QEBA?AV1@_J@Z"
"?chopped@QString@@QEBA?AV1@_J@Z"
"?chopped@QString@@QEGBA?AV1@_J@Z"
"?chopped@QString@@QEHAA?AV1@_J@Z"
"?classInfo@QMetaObject@@QEBA?AVQMetaClassInfo@@H@Z"
"?classInfoCount@QMetaObject@@QEBAHXZ"
"?classInfoCount@QMetaObjectBuilder@@QEBAHXZ"
"?classInfoName@QMetaObjectBuilder@@QEBA?AVQByteArray@@H@Z"
"?classInfoOffset@QMetaObject@@QEBAHXZ"
"?classInfoValue@QMetaObjectBuilder@@QEBA?AVQByteArray@@H@Z"
"?className@QMetaObject@@QEBAPEBDXZ"
"?className@QMetaObjectBuilder@@QEBA?AVQByteArray@@XZ"
"?cleanContinuation@QFutureInterfaceBase@@IEAAXXZ"
"?cleanPath@QDir@@SA?AVQString@@AEBV2@@Z"
"?cleanupThreadData@QCoreApplicationPrivate@@QEAAXXZ"
"?clear@QAnimationGroup@@QEAAXXZ"
"?clear@QBindingStorage@@AEAAXXZ"
"?clear@QBitArray@@QEAAXXZ"
"?clear@QByteArray@@QEAAXXZ"
"?clear@QCborArray@@QEAAXXZ"
"?clear@QCborMap@@QEAAXXZ"
"?clear@QCborStreamReader@@QEAAXXZ"
"?clear@QItemSelectionModel@@UEAAXXZ"
"?clear@QMetaContainer@@QEBAXPEAX@Z"
"?clear@QMimeData@@QEAAXXZ"
"?clear@QObjectCleanupHandler@@QEAAXXZ"
"?clear@QProcessEnvironment@@QEAAXXZ"
"?clear@QRingBuffer@@QEAAXXZ"
"?clear@QSettings@@QEAAXXZ"
"?clear@QString@@QEAAXXZ"
"?clear@QThreadPool@@QEAAXXZ"
"?clear@QThreadPoolPrivate@@QEAAXXZ"
"?clear@QUrl@@QEAAXXZ"
"?clear@QUrlQuery@@QEAAXXZ"
"?clear@QVariant@@QEAAXXZ"
"?clear@QXmlStreamReader@@QEAAXXZ"
"?clear@State@QStringConverterBase@@QEAAXXZ"
"?clearAllCaches@QWinRTFactoryCacheRegistration@detail@@SAXXZ"
"?clearApplicationFilePath@QCoreApplicationPrivate@@SAXXZ"
"?clearBindingStorage@QObjectPrivate@@QEAAXXZ"
"?clearBit@QBitArray@@QEAAX_J@Z"
"?clearCurrentIndex@QItemSelectionModel@@UEAAXXZ"
"?clearItemData@QAbstractItemModel@@UEAA_NAEBVQModelIndex@@@Z"
"?clearItemData@QAbstractProxyModel@@UEAA_NAEBVQModelIndex@@@Z"
"?clearItemData@QStringListModel@@UEAA_NAEBVQModelIndex@@@Z"
"?clearIterator@?$QBaseIterator@VQMetaAssociation@@@@IEAAXXZ"
"?clearIterator@?$QBaseIterator@VQMetaSequence@@@@IEAAXXZ"
"?clearPositionalArguments@QCommandLineParser@@QEAAXXZ"
"?clearSelection@QItemSelectionModel@@QEAAXXZ"
"?clockType@QElapsedTimer@@SA?AW4ClockType@1@XZ"
"?clone@QChildEvent@@UEBAPEAV1@XZ"
"?clone@QDynamicPropertyChangeEvent@@UEBAPEAV1@XZ"
"?clone@QEvent@@UEBAPEAV1@XZ"
"?clone@QException@@UEBAPEAV1@XZ"
"?clone@QFutureCallOutEvent@@UEBAPEAV1@XZ"
"?clone@QTimerEvent@@UEBAPEAV1@XZ"
"?clone@QUnhandledException@@UEBAPEAV1@XZ"
"?cloneTo@QAbstractFileEngine@@UEAA_NPEAV1@@Z"
"?cloneTo@QFSFileEngine@@UEAA_NPEAVQAbstractFileEngine@@@Z"
"?close@FILEHandleTraits@QtUniqueHandleTraits@@SA_NPEAU_iobuf@@@Z"
"?close@FileDescriptorHandleTraits@QtUniqueHandleTraits@@SA_NH@Z"
"?close@InvalidHandleTraits@QtUniqueHandleTraits@@SA_NPEAX@Z"
"?close@NullHandleTraits@QtUniqueHandleTraits@@SA_NPEAX@Z"
"?close@QAbstractFileEngine@@UEAA_NXZ"
"?close@QBuffer@@UEAAXXZ"
"?close@QFSFileEngine@@UEAA_NXZ"
"?close@QFileDevice@@UEAAXXZ"
"?close@QIODevice@@UEAAXXZ"
"?close@QProcess@@UEAAXXZ"
"?close@QSaveFile@@EEAAXXZ"
"?close@QWinRegistryKey@@QEAAXXZ"
"?close@QZipReader@@QEAAXXZ"
"?close@QZipWriter@@QEAAXXZ"
"?closeReadChannel@QProcess@@QEAAXW4ProcessChannel@1@@Z"
"?closeWriteChannel@QProcess@@QEAAXXZ"
"?closestPausedAnimationTimerTimeToFinish@QUnifiedTimer@@AEAAHXZ"
"?closingDown@QAbstractEventDispatcher@@UEAAXXZ"
"?closingDown@QCoreApplication@@SA_NXZ"
"?closingDown@QEventDispatcherWin32@@UEAAXXZ"
"?codeToCountry@QLocale@@SA?AW4Country@1@VQStringView@@@Z"
"?codeToLanguage@QLocale@@SA?AW4Language@1@VQStringView@@@Z"
"?codeToLanguage@QLocale@@SA?AW4Language@1@VQStringView@@V?$QFlags@W4LanguageCodeType@QLocale@@@@@Z"
"?codeToScript@QLocale@@SA?AW4Script@1@VQStringView@@@Z"
"?codeToTerritory@QLocale@@SA?AW4Country@1@VQStringView@@@Z"
"?coerce@QVariantTypeCoercer@QtPrivate@@QEAAPEBXAEBVQVariant@@AEBVQMetaType@@@Z"
"?collation@QLocale@@QEBA?AV1@XZ"
"?colorData@QMimeData@@QEBA?AVQVariant@@XZ"
"?column@QPersistentModelIndex@@QEBAHXZ"
"?columnCount@QAbstractListModel@@EEBAHAEBVQModelIndex@@@Z"
"?columnCount@QConcatenateTablesProxyModel@@UEBAHAEBVQModelIndex@@@Z"
"?columnCount@QIdentityProxyModel@@UEBAHAEBVQModelIndex@@@Z"
"?columnCount@QSortFilterProxyModel@@UEBAHAEBVQModelIndex@@@Z"
"?columnCount@QTransposeProxyModel@@UEBAHAEBVQModelIndex@@@Z"
"?columnIntersectsSelection@QItemSelectionModel@@QEBA_NHAEBVQModelIndex@@@Z"
"?columnNumber@QXmlStreamReader@@QEBA_JXZ"
"?columnsAboutToBeInserted@QAbstractItemModel@@QEAAXAEBVQModelIndex@@HHUQPrivateSignal@1@@Z"
"?columnsAboutToBeInserted@QAbstractItemModelPrivate@@QEAAXAEBVQModelIndex@@HH@Z"
"?columnsAboutToBeMoved@QAbstractItemModel@@QEAAXAEBVQModelIndex@@HH0HUQPrivateSignal@1@@Z"
"?columnsAboutToBeRemoved@QAbstractItemModel@@QEAAXAEBVQModelIndex@@HHUQPrivateSignal@1@@Z"
"?columnsAboutToBeRemoved@QAbstractItemModelPrivate@@QEAAXAEBVQModelIndex@@HH@Z"
"?columnsInserted@QAbstractItemModel@@QEAAXAEBVQModelIndex@@HHUQPrivateSignal@1@@Z"
"?columnsInserted@QAbstractItemModelPrivate@@QEAAXAEBVQModelIndex@@HH@Z"
"?columnsMoved@QAbstractItemModel@@QEAAXAEBVQModelIndex@@HH0HUQPrivateSignal@1@@Z"
"?columnsRemoved@QAbstractItemModel@@QEAAXAEBVQModelIndex@@HHUQPrivateSignal@1@@Z"
"?columnsRemoved@QAbstractItemModelPrivate@@QEAAXAEBVQModelIndex@@HH@Z"
"?combiningClass@QChar@@QEBAEXZ"
"?combiningClass@QChar@@SAE_U@Z"
"?comment@QMimeType@@QEBA?AVQString@@XZ"
"?comment@QTimeZone@@QEBA?AVQString@@XZ"
"?commit@QSaveFile@@QEAA_NXZ"
"?commitTransaction@QDataStream@@QEAA_NXZ"
"?commitTransaction@QIODevice@@QEAAXXZ"
"?commonPrefix@QVersionNumber@@SA?AV1@AEBV1@0@Z"
"?communicationModes@QBluetoothPermission@@QEBA?AV?$QFlags@W4CommunicationMode@QBluetoothPermission@@@@XZ"
"?compare@QAnyStringView@@SAHV1@0W4CaseSensitivity@Qt@@@Z"
"?compare@QByteArray@@QEBAHVQByteArrayView@@W4CaseSensitivity@Qt@@@Z"
"?compare@QByteArrayView@@QEBAHV1@W4CaseSensitivity@Qt@@@Z"
"?compare@QCborArray@@QEBAHAEBV1@@Z"
"?compare@QCborMap@@QEBAHAEBV1@@Z"
"?compare@QCborValue@@QEBAHAEBV1@@Z"
"?compare@QCborValueRef@@QEBAHAEBVQCborValue@@@Z"
"?compare@QCollator@@QEBAHAEBVQString@@0@Z"
"?compare@QCollator@@QEBAHPEBVQChar@@H0H@Z"
"?compare@QCollator@@QEBAHPEBVQChar@@_J01@Z"
"?compare@QCollator@@QEBAHVQStringView@@0@Z"
"?compare@QCollatorSortKey@@QEBAHAEBV1@@Z"
"?compare@QMetaType@@QEBA?AVQPartialOrdering@@PEBX0@Z"
"?compare@QMetaType@@SA_NPEBX0HPEAH@Z"
"?compare@QOperatingSystemVersion@@CAHAEBV1@0@Z"
"?compare@QOperatingSystemVersionBase@@KAHV1@0@Z"
"?compare@QString@@QEBAHAEBV1@W4CaseSensitivity@Qt@@@Z"
"?compare@QString@@QEBAHVQChar@@W4CaseSensitivity@Qt@@@Z"
"?compare@QString@@QEBAHVQLatin1String@@W4CaseSensitivity@Qt@@@Z"
"?compare@QString@@QEBAHVQStringView@@W4CaseSensitivity@Qt@@@Z"
"?compare@QString@@SAHAEBV1@0W4CaseSensitivity@Qt@@@Z"
"?compare@QString@@SAHAEBV1@VQLatin1String@@W4CaseSensitivity@Qt@@@Z"
"?compare@QString@@SAHAEBV1@VQStringView@@W4CaseSensitivity@Qt@@@Z"
"?compare@QString@@SAHVQLatin1String@@AEBV1@W4CaseSensitivity@Qt@@@Z"
"?compare@QString@@SAHVQStringView@@AEBV1@W4CaseSensitivity@Qt@@@Z"
"?compare@QVariant@@SA?AVQPartialOrdering@@AEBV1@0@Z"
"?compare@QVersionNumber@@SAHAEBV1@0@Z"
"?compareConstIterator@QMetaContainer@@QEBA_NPEBX0@Z"
"?compareIterator@QMetaContainer@@QEBA_NPEBX0@Z"
"?compareMemory@QtPrivate@@YAHVQByteArrayView@@0@Z"
"?compareStrings@QtPrivate@@YAHV?$QBasicUtf8StringView@$0A@@@0W4CaseSensitivity@Qt@@@Z"
"?compareStrings@QtPrivate@@YAHV?$QBasicUtf8StringView@$0A@@@VQLatin1String@@W4CaseSensitivity@Qt@@@Z"
"?compareStrings@QtPrivate@@YAHV?$QBasicUtf8StringView@$0A@@@VQStringView@@W4CaseSensitivity@Qt@@@Z"
"?compareStrings@QtPrivate@@YAHVQLatin1String@@0W4CaseSensitivity@Qt@@@Z"
"?compareStrings@QtPrivate@@YAHVQLatin1String@@V?$QBasicUtf8StringView@$0A@@@W4CaseSensitivity@Qt@@@Z"
"?compareStrings@QtPrivate@@YAHVQLatin1String@@VQStringView@@W4CaseSensitivity@Qt@@@Z"
"?compareStrings@QtPrivate@@YAHVQStringView@@0W4CaseSensitivity@Qt@@@Z"
"?compareStrings@QtPrivate@@YAHVQStringView@@V?$QBasicUtf8StringView@$0A@@@W4CaseSensitivity@Qt@@@Z"
"?compareStrings@QtPrivate@@YAHVQStringView@@VQLatin1String@@W4CaseSensitivity@Qt@@@Z"
"?compareThreeWay@@YA?AVstrong_ordering@Qt@@AEBVQByteArray@@AEBVQChar@@@Z"
"?compareThreeWay@@YA?AVstrong_ordering@Qt@@AEBVQByteArray@@_S@Z"
"?compareThreeWay@@YA?AVstrong_ordering@Qt@@AEBVQByteArrayView@@AEBVQChar@@@Z"
"?compareThreeWay@@YA?AVstrong_ordering@Qt@@AEBVQByteArrayView@@_S@Z"
"?compareThreeWay@@YA?AVstrong_ordering@Qt@@AEBVQPersistentModelIndex@@0@Z"
"?compareThreeWay@@YA?AVstrong_ordering@Qt@@AEBVQPersistentModelIndex@@AEBVQModelIndex@@@Z"
"?compareThreeWay@@YA?AVweak_ordering@Qt@@AEBVQDateTime@@0@Z"
"?compareThreeWay@@YA?AVweak_ordering@Qt@@AEBVQUrl@@0@Z"
"?compareThreeWay_helper@QCborArray@@CA?AVstrong_ordering@Qt@@AEBV1@AEBVQCborValue@@@Z"
"?compareThreeWay_helper@QCborArray@@CA?AVstrong_ordering@Qt@@AEBV1@VQCborValueConstRef@@@Z"
"?compareThreeWay_helper@QCborMap@@CA?AVstrong_ordering@Qt@@AEBV1@AEBVQCborValue@@@Z"
"?compareThreeWay_helper@QCborMap@@CA?AVstrong_ordering@Qt@@AEBV1@VQCborValueConstRef@@@Z"
"?compareThreeWay_helper@QCborValueConstRef@@KA?AVstrong_ordering@Qt@@V1@0@Z"
"?compareThreeWay_helper@QCborValueConstRef@@KA?AVstrong_ordering@Qt@@V1@AEBVQCborValue@@@Z"
"?compareThreeWay_helper@QUuid@@CA?AVstrong_ordering@Qt@@AEBV1@0@Z"
"?compare_helper@QChar@@CAHV1@PEBD@Z"
"?compare_helper@QLatin1String@@CAHAEBV1@PEBD_J@Z"
"?compare_helper@QLatin1String@@CAHPEBVQChar@@_JV1@W4CaseSensitivity@Qt@@@Z"
"?compare_helper@QString@@CAHPEBVQChar@@_J01W4CaseSensitivity@Qt@@@Z"
"?compare_helper@QString@@CAHPEBVQChar@@_JPEBD1W4CaseSensitivity@Qt@@@Z"
"?compare_helper@QStringView@@CAHV1@PEBD_J@Z"
"?compare_internal@QNativeIpcKey@@CAHAEBV1@0@Z"
"?comparesEqual@@YA_NAEBVQByteArray@@AEBVQChar@@@Z"
"?comparesEqual@@YA_NAEBVQByteArray@@_S@Z"
"?comparesEqual@@YA_NAEBVQByteArrayView@@AEBVQChar@@@Z"
"?comparesEqual@@YA_NAEBVQByteArrayView@@_S@Z"
"?comparesEqual@@YA_NAEBVQCborArray@@0@Z"
"?comparesEqual@@YA_NAEBVQCborMap@@0@Z"
"?comparesEqual@@YA_NAEBVQCborValue@@0@Z"
"?comparesEqual@@YA_NAEBVQDir@@0@Z"
"?comparesEqual@@YA_NAEBVQEasingCurve@@0@Z"
"?comparesEqual@@YA_NAEBVQFileInfo@@0@Z"
"?comparesEqual@@YA_NAEBVQJsonArray@@0@Z"
"?comparesEqual@@YA_NAEBVQJsonArray@@AEBVQJsonValue@@@Z"
"?comparesEqual@@YA_NAEBVQJsonDocument@@0@Z"
"?comparesEqual@@YA_NAEBVQJsonObject@@0@Z"
"?comparesEqual@@YA_NAEBVQJsonValue@@0@Z"
"?comparesEqual@@YA_NAEBVQLocale@@W4Language@1@@Z"
"?comparesEqual@@YA_NAEBVQMimeType@@0@Z"
"?comparesEqual@@YA_NAEBVQPersistentModelIndex@@0@Z"
"?comparesEqual@@YA_NAEBVQPersistentModelIndex@@AEBVQModelIndex@@@Z"
"?comparesEqual@@YA_NAEBVQProcessEnvironment@@0@Z"
"?comparesEqual@@YA_NAEBVQRegularExpression@@0@Z"
"?comparesEqual@@YA_NAEBVQStorageInfo@@0@Z"
"?comparesEqual@@YA_NAEBVQTimeZone@@0@Z"
"?comparesEqual@@YA_NAEBVQUrl@@0@Z"
"?comparesEqual@@YA_NAEBVQUrlQuery@@0@Z"
"?comparesEqual_helper@QCborArray@@CA_NAEBV1@AEBVQCborValue@@@Z"
"?comparesEqual_helper@QCborArray@@CA_NAEBV1@VQCborValueConstRef@@@Z"
"?comparesEqual_helper@QCborMap@@CA_NAEBV1@AEBVQCborValue@@@Z"
"?comparesEqual_helper@QCborMap@@CA_NAEBV1@VQCborValueConstRef@@@Z"
"?comparesEqual_helper@QCborValueConstRef@@KA_NV1@0@Z"
"?comparesEqual_helper@QCborValueConstRef@@KA_NV1@AEBVQCborValue@@@Z"
"?completeBaseName@DirEntry@QDirListing@@QEBA?AVQString@@XZ"
"?completeBaseName@QFileInfo@@QEBA?AVQString@@XZ"
"?completeSuffix@DirEntry@QDirListing@@QEBA?AVQString@@XZ"
"?completeSuffix@QFileInfo@@QEBA?AVQString@@XZ"
"?compressEvent@QCoreApplication@@MEAA_NPEAVQEvent@@PEAVQObject@@PEAVQPostEventList@@@Z"
"?compressionAlgorithm@QResource@@QEBA?AW4Compression@1@XZ"
"?compressionPolicy@QZipWriter@@QEBA?AW4CompressionPolicy@1@XZ"
"?concrete@QCborValueConstRef@@KA?AVQCborValue@@V1@@Z"
"?concrete@QCborValueRef@@AEBA?AVQCborValue@@XZ"
"?concrete@QCborValueRef@@CA?AVQCborValue@@V1@@Z"
"?concrete@QJsonValueConstRef@@KA?AVQJsonValue@@V1@@Z"
"?concreteBool@QJsonValueConstRef@@KA_NV1@_N@Z"
"?concreteBoolean@QCborValueConstRef@@KA_NV1@_N@Z"
"?concreteByteArray@QCborValueConstRef@@KA?AVQByteArray@@V1@AEBV2@@Z"
"?concreteDouble@QCborValueConstRef@@KANV1@N@Z"
"?concreteDouble@QJsonValueConstRef@@KANV1@N@Z"
"?concreteInt@QJsonValueConstRef@@KA_JV1@_J_N@Z"
"?concreteIntegral@QCborValueConstRef@@KA_JV1@_J@Z"
"?concreteString@QCborValueConstRef@@KA?AVQString@@V1@AEBV2@@Z"
"?concreteString@QJsonValueConstRef@@KA?AVQString@@V1@AEBV2@@Z"
"?concreteType@QCborValueConstRef@@KA?AW4Type@QCborValue@@V1@@Z"
"?concreteType@QCborValueRef@@AEBA?AW4Type@QCborValue@@XZ"
"?concreteType@QCborValueRef@@CA?AW4Type@QCborValue@@V1@@Z"
"?concreteType@QJsonValueConstRef@@KA?AW4Type@QJsonValue@@V1@@Z"
"?configuration@QLibraryInfoPrivate@@SAPEAVQSettings@@XZ"
"?connect@QMetaObject@@SA?AVConnection@1@PEBVQObject@@H0HHPEAH@Z"
"?connect@QObject@@QEBA?AVConnection@QMetaObject@@PEBV1@PEBD1W4ConnectionType@Qt@@@Z"
"?connect@QObject@@SA?AVConnection@QMetaObject@@PEBV1@AEBVQMetaMethod@@01W4ConnectionType@Qt@@@Z"
"?connect@QObject@@SA?AVConnection@QMetaObject@@PEBV1@PEBD01W4ConnectionType@Qt@@@Z"
"?connect@QObjectPrivate@@SA?AVConnection@QMetaObject@@PEBVQObject@@H0PEAVQSlotObjectBase@QtPrivate@@W4ConnectionType@Qt@@@Z"
"?connect@QObjectPrivate@@SA?AVConnection@QMetaObject@@PEBVQObject@@HPEAVQSlotObjectBase@QtPrivate@@W4ConnectionType@Qt@@@Z"
"?connectImpl@QObject@@CA?AVConnection@QMetaObject@@PEBV1@PEAPEAX01PEAVQSlotObjectBase@QtPrivate@@W4ConnectionType@Qt@@PEBHPEBU3@@Z"
"?connectImpl@QObjectPrivate@@SA?AVConnection@QMetaObject@@PEBVQObject@@H0PEAPEAXPEAVQSlotObjectBase@QtPrivate@@HPEBHPEBU3@@Z"
"?connectNotify@QBuffer@@MEAAXAEBVQMetaMethod@@@Z"
"?connectNotify@QFutureWatcherBase@@MEAAXAEBVQMetaMethod@@@Z"
"?connectNotify@QObject@@MEAAXAEBVQMetaMethod@@@Z"
"?connectNotify@QObjectPrivate@@QEAAXAEBVQMetaMethod@@@Z"
"?connectOutputInterface@QFutureWatcherBase@@IEAAXXZ"
"?connectSlotsByName@QMetaObject@@SAXPEAVQObject@@@Z"
"?constBegin@?$QIterable@VQMetaAssociation@@@@QEBA?AU?$QConstIterator@VQMetaAssociation@@@@XZ"
"?constBegin@?$QIterable@VQMetaSequence@@@@QEBA?AU?$QConstIterator@VQMetaSequence@@@@XZ"
"?constBegin@QAssociativeIterable@@QEBA?AV?$QTaggedIterator@VQAssociativeConstIterator@@X@@XZ"
"?constBegin@QByteArray@@QEBAPEBDXZ"
"?constBegin@QCborArray@@QEBA?AVConstIterator@1@XZ"
"?constBegin@QCborMap@@QEBA?AVConstIterator@1@XZ"
"?constBegin@QJsonArray@@QEBA?AVconst_iterator@1@XZ"
"?constBegin@QJsonObject@@QEBA?AVconst_iterator@1@XZ"
"?constBegin@QMetaContainer@@QEBAPEAXPEBX@Z"
"?constBegin@QSequentialIterable@@QEBA?AV?$QTaggedIterator@VQSequentialConstIterator@@X@@XZ"
"?constBegin@QString@@QEBAPEBVQChar@@XZ"
"?constData@QByteArray@@QEBAPEBDXZ"
"?constData@QByteArrayView@@QEBAPEBDXZ"
"?constData@QSharedMemory@@QEBAPEBXXZ"
"?constData@QString@@QEBAPEBVQChar@@XZ"
"?constData@QVariant@@QEBAPEBXXZ"
"?constEnd@?$QIterable@VQMetaAssociation@@@@QEBA?AU?$QConstIterator@VQMetaAssociation@@@@XZ"
"?constEnd@?$QIterable@VQMetaSequence@@@@QEBA?AU?$QConstIterator@VQMetaSequence@@@@XZ"
"?constEnd@QAssociativeIterable@@QEBA?AV?$QTaggedIterator@VQAssociativeConstIterator@@X@@XZ"
"?constEnd@QByteArray@@QEBAPEBDXZ"
"?constEnd@QCborArray@@QEBA?AVConstIterator@1@XZ"
"?constEnd@QCborMap@@QEBA?AVConstIterator@1@XZ"
"?constEnd@QJsonArray@@QEBA?AVconst_iterator@1@XZ"
"?constEnd@QJsonObject@@QEBA?AVconst_iterator@1@XZ"
"?constEnd@QMetaContainer@@QEBAPEAXPEBX@Z"
"?constEnd@QSequentialIterable@@QEBA?AV?$QTaggedIterator@VQSequentialConstIterator@@X@@XZ"
"?constEnd@QString@@QEBAPEBVQChar@@XZ"
"?constFind@QAssociativeIterable@@QEBA?AV?$QTaggedIterator@VQAssociativeConstIterator@@X@@AEBVQVariant@@@Z"
"?constFind@QCborMap@@QEBA?AVConstIterator@1@AEBVQCborValue@@@Z"
"?constFind@QCborMap@@QEBA?AVConstIterator@1@AEBVQString@@@Z"
"?constFind@QCborMap@@QEBA?AVConstIterator@1@VQLatin1String@@@Z"
"?constFind@QCborMap@@QEBA?AVConstIterator@1@_J@Z"
"?constFind@QJsonObject@@QEBA?AVconst_iterator@1@AEBVQString@@@Z"
"?constFind@QJsonObject@@QEBA?AVconst_iterator@1@VQLatin1String@@@Z"
"?constFind@QJsonObject@@QEBA?AVconst_iterator@1@VQStringView@@@Z"
"?constInternalPointer@QPersistentModelIndex@@QEBAPEBXXZ"
"?constIterable@?$QBaseIterator@VQMetaAssociation@@@@IEBAPEBV?$QIterable@VQMetaAssociation@@@@XZ"
"?constIterable@?$QBaseIterator@VQMetaSequence@@@@IEBAPEBV?$QIterable@VQMetaSequence@@@@XZ"
"?constIterable@?$QIterable@VQMetaAssociation@@@@QEBAPEBXXZ"
"?constIterable@?$QIterable@VQMetaSequence@@@@QEBAPEBXXZ"
"?constIterator@?$QBaseIterator@VQMetaAssociation@@@@QEBAPEBXXZ"
"?constIterator@?$QBaseIterator@VQMetaSequence@@@@QEBAPEBXXZ"
"?construct@QMetaType@@QEBAPEAXPEAXPEBX@Z"
"?construct@QMetaType@@SAPEAXHPEAXPEBX@Z"
"?constructor@QMetaObject@@QEBA?AVQMetaMethod@@H@Z"
"?constructor@QMetaObjectBuilder@@QEBA?AVQMetaMethodBuilder@@H@Z"
"?constructorCount@QMetaObject@@QEBAHXZ"
"?constructorCount@QMetaObjectBuilder@@QEBAHXZ"
"?consumePending@QWindowsPipeReader@@AEAA_NXZ"
"?consumePendingAndEmit@QWindowsPipeReader@@AEAA_N_N@Z"
"?consumePendingAndEmit@QWindowsPipeWriter@@AEAA_N_N@Z"
"?containerDepth@QCborStreamReader@@QEBAHXZ"
"?contains@QByteArray@@QEBA_ND@Z"
"?contains@QByteArray@@QEBA_NVQByteArrayView@@@Z"
"?contains@QByteArrayView@@QEBA_ND@Z"
"?contains@QByteArrayView@@QEBA_NV1@@Z"
"?contains@QCborArray@@QEBA_NAEBVQCborValue@@@Z"
"?contains@QCborMap@@QEBA_NAEBVQCborValue@@@Z"
"?contains@QCborMap@@QEBA_NAEBVQString@@@Z"
"?contains@QCborMap@@QEBA_NVQLatin1String@@@Z"
"?contains@QCborMap@@QEBA_N_J@Z"
"?contains@QItemSelection@@QEBA_NAEBVQModelIndex@@@Z"
"?contains@QItemSelectionRange@@QEBA_NAEBVQModelIndex@@@Z"
"?contains@QItemSelectionRange@@QEBA_NHHAEBVQModelIndex@@@Z"
"?contains@QJsonArray@@QEBA_NAEBVQJsonValue@@@Z"
"?contains@QJsonObject@@QEBA_NAEBVQString@@@Z"
"?contains@QJsonObject@@QEBA_NVQLatin1String@@@Z"
"?contains@QJsonObject@@QEBA_NVQStringView@@@Z"
"?contains@QProcessEnvironment@@QEBA_NAEBVQString@@@Z"
"?contains@QRect@@QEBA_NAEBV1@_N@Z"
"?contains@QRect@@QEBA_NAEBVQPoint@@_N@Z"
"?contains@QRect@@QEBA_NHH@Z"
"?contains@QRect@@QEBA_NHH_N@Z"
"?contains@QRectF@@QEBA_NAEBV1@@Z"
"?contains@QRectF@@QEBA_NAEBVQPointF@@@Z"
"?contains@QRectF@@QEBA_NNN@Z"
"?contains@QSettings@@QEBA_NAEBVQString@@@Z"
"?contains@QSettings@@QEBA_NVQAnyStringView@@@Z"
"?contains@QString@@QEBA_NAEBV1@W4CaseSensitivity@Qt@@@Z"
"?contains@QString@@QEBA_NAEBVQRegularExpression@@PEAVQRegularExpressionMatch@@@Z"
"?contains@QString@@QEBA_NVQChar@@W4CaseSensitivity@Qt@@@Z"
"?contains@QString@@QEBA_NVQLatin1String@@W4CaseSensitivity@Qt@@@Z"
"?contains@QString@@QEBA_NVQStringView@@W4CaseSensitivity@Qt@@@Z"
"?contains@QThreadPool@@QEBA_NPEBVQThread@@@Z"
"?contains@QtPrivate@@YA_NVQStringView@@AEBVQRegularExpression@@PEAVQRegularExpressionMatch@@@Z"
"?contains@ResultStoreBase@QtPrivate@@QEBA_NH@Z"
"?containsKey@QAssociativeIterable@@QEAA_NAEBVQVariant@@@Z"
"?containsKey@QMetaAssociation@@QEBA_NPEBX0@Z"
"?containsValidResultItem@ResultStoreBase@QtPrivate@@IEBA_NH@Z"
"?convert@QMetaType@@SA_NPEBXHPEAXH@Z"
"?convert@QMetaType@@SA_NV1@PEBX0PEAX@Z"
"?convert@QMetaTypeModuleHelper@@UEBA_NPEBXHPEAXH@Z"
"?convert@QVariant@@IEBA_NHPEAX@Z"
"?convert@QVariant@@QEAA_NH@Z"
"?convert@QVariant@@QEAA_NVQMetaType@@@Z"
"?convert@QVariantTypeCoercer@QtPrivate@@QEAAPEBXAEBVQVariant@@AEBVQMetaType@@@Z"
"?convertFromAscii@QAbstractConcatenable@@KAXDAEAPEAVQChar@@@Z"
"?convertFromLatin1@QUtf8@@SAPEADPEADVQLatin1String@@@Z"
"?convertFromUnicode@QLatin1@@SAPEADPEADVQStringView@@@Z"
"?convertFromUnicode@QLocal8Bit@@SA?AVQByteArray@@VQStringView@@PEAUState@QStringConverterBase@@@Z"
"?convertFromUnicode@QUtf16@@SA?AVQByteArray@@VQStringView@@PEAUState@QStringConverterBase@@W4DataEndianness@@@Z"
"?convertFromUnicode@QUtf32@@SA?AVQByteArray@@VQStringView@@PEAUState@QStringConverterBase@@W4DataEndianness@@@Z"
"?convertFromUnicode@QUtf8@@SA?AVQByteArray@@VQStringView@@@Z"
"?convertFromUnicode@QUtf8@@SA?AVQByteArray@@VQStringView@@PEAUState@QStringConverterBase@@@Z"
"?convertFromUnicode_sys@QLocal8Bit@@SA?AVQByteArray@@VQStringView@@IPEAUState@QStringConverterBase@@@Z"
"?convertFromUnicode_sys@QLocal8Bit@@SA?AVQByteArray@@VQStringView@@PEAUState@QStringConverterBase@@@Z"
"?convertFromUtf8@QAbstractConcatenable@@KAXVQByteArrayView@@AEAPEAVQChar@@@Z"
"?convertToLatin1@QtPrivate@@YA?AVQByteArray@@VQStringView@@@Z"
"?convertToLocal8Bit@QtPrivate@@YA?AVQByteArray@@VQStringView@@@Z"
"?convertToQString@QtPrivate@@YA?AVQString@@VQAnyStringView@@@Z"
"?convertToUcs4@QtPrivate@@YA?AV?$QList@I@@VQStringView@@@Z"
"?convertToUnicode@QLocal8Bit@@SA?AVQString@@VQByteArrayView@@PEAUState@QStringConverterBase@@@Z"
"?convertToUnicode@QUtf16@@SA?AVQString@@VQByteArrayView@@PEAUState@QStringConverterBase@@W4DataEndianness@@@Z"
"?convertToUnicode@QUtf32@@SA?AVQString@@VQByteArrayView@@PEAUState@QStringConverterBase@@W4DataEndianness@@@Z"
"?convertToUnicode@QUtf8@@SA?AVQString@@VQByteArrayView@@PEAUState@QStringConverterBase@@@Z"
"?convertToUnicode@QUtf8@@SAPEA_SPEA_SVQByteArrayView@@@Z"
"?convertToUnicode_sys@QLocal8Bit@@SA?AVQString@@VQByteArrayView@@IPEAUState@QStringConverterBase@@@Z"
"?convertToUnicode_sys@QLocal8Bit@@SA?AVQString@@VQByteArrayView@@PEAUState@QStringConverterBase@@@Z"
"?convertToUtf8@QtPrivate@@YA?AVQByteArray@@VQStringView@@@Z"
"?copy@QAbstractFileEngine@@UEAA_NAEBVQString@@@Z"
"?copy@QFSFileEngine@@UEAA_NAEBVQString@@@Z"
"?copy@QFile@@QEAA_NAEBVQString@@@Z"
"?copy@QFile@@SA_NAEBVQString@@0@Z"
"?copyConstIterator@QMetaContainer@@QEBAXPEAXPEBX@Z"
"?copyConstruct@QVariant@@CA?AV1@VQMetaType@@PEBX@Z"
"?copyIterator@QMetaContainer@@QEBAXPEAXPEBX@Z"
"?copy_internal@QNativeIpcKey@@AEAAXAEBV1@@Z"
"?count@QBitArray@@QEBA_JXZ"
"?count@QBitArray@@QEBA_J_N@Z"
"?count@QByteArray@@QEBA_JD@Z"
"?count@QByteArray@@QEBA_JVQByteArrayView@@@Z"
"?count@QByteArray@@QEBA_JXZ"
"?count@QByteArrayView@@QEBA_JD@Z"
"?count@QByteArrayView@@QEBA_JV1@@Z"
"?count@QDir@@QEBAIXZ"
"?count@QDir@@QEBA_JUDisambiguated_t@Qt@@@Z"
"?count@QJsonArray@@QEBA_JXZ"
"?count@QJsonObject@@QEBA_JXZ"
"?count@QString@@QEBA_JAEBV1@W4CaseSensitivity@Qt@@@Z"
"?count@QString@@QEBA_JAEBVQRegularExpression@@@Z"
"?count@QString@@QEBA_JVQChar@@W4CaseSensitivity@Qt@@@Z"
"?count@QString@@QEBA_JVQStringView@@W4CaseSensitivity@Qt@@@Z"
"?count@QString@@QEBA_JXZ"
"?count@QZipReader@@QEBAHXZ"
"?count@QtPrivate@@YA_JVQByteArrayView@@0@Z"
"?count@QtPrivate@@YA_JVQLatin1String@@0W4CaseSensitivity@Qt@@@Z"
"?count@QtPrivate@@YA_JVQLatin1String@@VQChar@@W4CaseSensitivity@Qt@@@Z"
"?count@QtPrivate@@YA_JVQLatin1String@@VQStringView@@W4CaseSensitivity@Qt@@@Z"
"?count@QtPrivate@@YA_JVQStringView@@0W4CaseSensitivity@Qt@@@Z"
"?count@QtPrivate@@YA_JVQStringView@@AEBVQRegularExpression@@@Z"
"?count@QtPrivate@@YA_JVQStringView@@VQChar@@W4CaseSensitivity@Qt@@@Z"
"?count@QtPrivate@@YA_JVQStringView@@VQLatin1String@@W4CaseSensitivity@Qt@@@Z"
"?count@ResultStoreBase@QtPrivate@@QEBAHXZ"
"?countriesForLanguage@QLocale@@SA?AV?$QList@W4Country@QLocale@@@@W4Language@1@@Z"
"?country@QLocale@@QEBA?AW4Country@1@XZ"
"?country@QTimeZone@@QEBA?AW4Country@QLocale@@XZ"
"?countryToCode@QLocale@@SA?AVQString@@W4Country@1@@Z"
"?countryToString@QLocale@@SA?AVQString@@W4Country@1@@Z"
"?crbegin@QByteArray@@QEBA?AV?$reverse_iterator@PEBD@std@@XZ"
"?crbegin@QByteArrayView@@QEBA?AV?$reverse_iterator@PEBD@std@@XZ"
"?crbegin@QString@@QEBA?AV?$reverse_iterator@PEBVQChar@@@std@@XZ"
"?create@QAbstractFileEngine@@SA?AV?$unique_ptr@VQAbstractFileEngine@@U?$default_delete@VQAbstractFileEngine@@@std@@@std@@AEBVQString@@@Z"
"?create@QMetaType@@QEBAPEAXPEBX@Z"
"?create@QMetaType@@SAPEAXHPEBX@Z"
"?create@QNonContiguousByteDeviceFactory@@SAPEAVQNonContiguousByteDevice@@AEBVQByteArray@@@Z"
"?create@QNonContiguousByteDeviceFactory@@SAPEAVQNonContiguousByteDevice@@PEAVQIODevice@@@Z"
"?create@QNonContiguousByteDeviceFactory@@SAPEAVQNonContiguousByteDevice@@V?$shared_ptr@VQRingBuffer@@@std@@@Z"
"?create@QRunnable@@SAPEAV1@V?$function@$$A6AXXZ@std@@@Z"
"?create@QSharedMemory@@QEAA_N_JW4AccessMode@1@@Z"
"?create@QVariant@@IEAAXHPEBX@Z"
"?create@QVariant@@IEAAXVQMetaType@@PEBX@Z"
"?createConstIteratorAtKey@QMetaAssociation@@QEBAPEAXPEBX0@Z"
"?createEventDispatcher@QCoreApplicationPrivate@@UEAAXXZ"
"?createIndex@QAbstractItemModel@@IEBA?AVQModelIndex@@HHPEBX@Z"
"?createIndex@QAbstractItemModel@@IEBA?AVQModelIndex@@HH_K@Z"
"?createIndex@QAbstractItemModelPrivate@@QEBA?AVQModelIndex@@HHH@Z"
"?createIndex@QAbstractItemModelPrivate@@QEBA?AVQModelIndex@@HHPEAX@Z"
"?createIteratorAtKey@QMetaAssociation@@QEBAPEAXPEAXPEBX@Z"
"?createNativeFile@QTemporaryFile@@SAPEAV1@AEAVQFile@@@Z"
"?createNativeFile@QTemporaryFile@@SAPEAV1@AEBVQString@@@Z"
"?createProcessArgumentsModifier@QProcess@@QEBA?AV?$function@$$A6AXPEAUCreateProcessArguments@QProcess@@@Z@std@@XZ"
"?createProperty@QAbstractDynamicMetaObject@@UEAAHPEBD0@Z"
"?createSeparatedList@QLocale@@QEBA?AVQString@@AEBV?$QList@VQString@@@@@Z"
"?createShared@QNonContiguousByteDeviceFactory@@SA?AV?$shared_ptr@VQNonContiguousByteDevice@@@std@@AEBVQByteArray@@@Z"
"?createShared@QNonContiguousByteDeviceFactory@@SA?AV?$shared_ptr@VQNonContiguousByteDevice@@@std@@PEAVQIODevice@@@Z"
"?createShared@QNonContiguousByteDeviceFactory@@SA?AV?$shared_ptr@VQNonContiguousByteDevice@@@std@@V?$shared_ptr@VQRingBuffer@@@3@@Z"
"?createSourceIndex@QAbstractProxyModel@@IEBA?AVQModelIndex@@HHPEAX@Z"
"?createThreadImpl@QThread@@CAPEAV1@$$QEAV?$future@X@std@@@Z"
"?createUuid@QUuid@@SA?AV1@XZ"
"?createUuidV3@QUuid@@SA?AV1@AEBV1@AEBVQByteArray@@@Z"
"?createUuidV3@QUuid@@SA?AV1@AEBV1@AEBVQString@@@Z"
"?createUuidV3@QUuid@@SA?AV1@V1@VQByteArrayView@@@Z"
"?createUuidV5@QUuid@@SA?AV1@AEBV1@AEBVQByteArray@@@Z"
"?createUuidV5@QUuid@@SA?AV1@AEBV1@AEBVQString@@@Z"
"?createUuidV5@QUuid@@SA?AV1@V1@VQByteArrayView@@@Z"
"?create_impl@QMetaCallEvent@@CAPEAV1@PEAVQSlotObjectBase@QtPrivate@@PEBVQObject@@H_KQEBQEBXQEBVQMetaType@@@Z"
"?create_impl@QMetaCallEvent@@CAPEAV1@V?$unique_ptr@VQSlotObjectBase@QtPrivate@@UDeleter@12@@std@@PEBVQObject@@H_KQEBQEBXQEBVQMetaType@@@Z"
"?creationPermissions@QZipWriter@@QEBA?AV?$QFlags@W4Permission@QFileDevice@@@@XZ"
"?crend@QByteArray@@QEBA?AV?$reverse_iterator@PEBD@std@@XZ"
"?crend@QByteArrayView@@QEBA?AV?$reverse_iterator@PEBD@std@@XZ"
"?crend@QString@@QEBA?AV?$reverse_iterator@PEBVQChar@@@std@@XZ"
"?critical@QMessageLogger@@QEBA?AVQDebug@@AEBVQLoggingCategory@@@Z"
"?critical@QMessageLogger@@QEBA?AVQDebug@@P6AAEBVQLoggingCategory@@XZ@Z"
"?critical@QMessageLogger@@QEBA?AVQDebug@@XZ"
"?critical@QMessageLogger@@QEBAXAEBVQLoggingCategory@@PEBDZZ"
"?critical@QMessageLogger@@QEBAXP6AAEBVQLoggingCategory@@XZPEBDZZ"
"?critical@QMessageLogger@@QEBAXPEBDZZ"
"?currencySymbol@QLocale@@QEBA?AVQString@@W4CurrencySymbolFormat@1@@Z"
"?current@QDeadlineTimer@@SA?AV1@W4TimerType@Qt@@@Z"
"?current@QDir@@SA?AV1@XZ"
"?current@QOperatingSystemVersion@@SA?AV1@XZ"
"?current@QOperatingSystemVersionBase@@SA?AV1@XZ"
"?currentAnimation@QSequentialAnimationGroup@@QEBAPEAVQAbstractAnimation@@XZ"
"?currentAnimationChanged@QSequentialAnimationGroup@@QEAAXPEAVQAbstractAnimation@@@Z"
"?currentChanged@QItemSelectionModel@@QEAAXAEBVQModelIndex@@0@Z"
"?currentColumnChanged@QItemSelectionModel@@QEAAXAEBVQModelIndex@@0@Z"
"?currentCpuArchitecture@QSysInfo@@SA?AVQString@@XZ"
"?currentDate@QDate@@SA?AV1@XZ"
"?currentDateTime@QDateTime@@SA?AV1@AEBVQTimeZone@@@Z"
"?currentDateTime@QDateTime@@SA?AV1@XZ"
"?currentDateTimeUtc@QDateTime@@SA?AV1@XZ"
"?currentFileInfo@QAbstractFileEngineIterator@@UEBA?AVQFileInfo@@XZ"
"?currentFilePath@QAbstractFileEngineIterator@@UEBA?AVQString@@XZ"
"?currentFrame@QTimeLine@@QEBAHXZ"
"?currentIndex@QItemSelectionModel@@QEBA?AVQModelIndex@@XZ"
"?currentLoop@QAbstractAnimation@@QEBAHXZ"
"?currentLoopChanged@QAbstractAnimation@@QEAAXH@Z"
"?currentLoopTime@QAbstractAnimation@@QEBAHXZ"
"?currentMSecsSinceEpoch@QDateTime@@SA_JXZ"
"?currentOffset@QCborStreamReader@@QEBA_JXZ"
"?currentPath@QDir@@SA?AVQString@@XZ"
"?currentPath@QFSFileEngine@@SA?AVQString@@AEBV2@@Z"
"?currentReadChannel@QIODevice@@QEBAHXZ"
"?currentRowChanged@QItemSelectionModel@@QEAAXAEBVQModelIndex@@0@Z"
"?currentSecsSinceEpoch@QDateTime@@SA_JXZ"
"?currentStringChunkSize@QCborStreamReader@@QEBA_JXZ"
"?currentThread@QThread@@SAPEAV1@XZ"
"?currentThreadId@QThread@@SAPEAXXZ"
"?currentThreadIdImpl@QThread@@CAPEAXXZ"
"?currentTime@QAbstractAnimation@@QEBAHXZ"
"?currentTime@QTime@@SA?AV1@XZ"
"?currentTime@QTimeLine@@QEBAHXZ"
"?currentType@QOperatingSystemVersion@@SA?AW4OSType@1@XZ"
"?currentUnicodeVersion@QChar@@SA?AW4UnicodeVersion@1@XZ"
"?currentValue@QTimeLine@@QEBANXZ"
"?currentValue@QVariantAnimation@@QEBA?AVQVariant@@XZ"
"?currentWriteChannel@QIODevice@@QEBAHXZ"
"?currentlyEvaluatingBinding@QPropertyBindingPrivate@@SAPEAV1@XZ"
"?cursorPosition@QDateTimeParser@@MEBAHXZ"
"?customEvent@QObject@@MEAAXPEAVQEvent@@@Z"
"?customType@QEasingCurve@@QEBAP6ANN@ZXZ"
"?d@QMetaAssociation@@AEBAPEBVQMetaAssociationInterface@QtMetaContainerPrivate@@XZ"
"?d@QMetaSequence@@AEBAPEBVQMetaSequenceInterface@QtMetaContainerPrivate@@XZ"
"?d@QPropertyBindingData@QtPrivate@@AEBA_KXZ"
"?d_func@QAbstractAnimation@@AEAAPEAVQAbstractAnimationPrivate@@XZ"
"?d_func@QAbstractAnimation@@AEBAPEBVQAbstractAnimationPrivate@@XZ"
"?d_func@QAbstractEventDispatcher@@AEAAPEAVQAbstractEventDispatcherPrivate@@XZ"
"?d_func@QAbstractEventDispatcher@@AEBAPEBVQAbstractEventDispatcherPrivate@@XZ"
"?d_func@QAbstractEventDispatcherV2@@AEAAPEAVQAbstractEventDispatcherPrivate@@XZ"
"?d_func@QAbstractEventDispatcherV2@@AEBAPEBVQAbstractEventDispatcherPrivate@@XZ"
"?d_func@QAbstractFileEngine@@AEAAPEAVQAbstractFileEnginePrivate@@XZ"
"?d_func@QAbstractFileEngine@@AEBAPEBVQAbstractFileEnginePrivate@@XZ"
"?d_func@QAbstractItemModel@@AEAAPEAVQAbstractItemModelPrivate@@XZ"
"?d_func@QAbstractItemModel@@AEBAPEBVQAbstractItemModelPrivate@@XZ"
"?d_func@QAbstractProxyModel@@AEAAPEAVQAbstractProxyModelPrivate@@XZ"
"?d_func@QAbstractProxyModel@@AEBAPEBVQAbstractProxyModelPrivate@@XZ"
"?d_func@QAnimationDriver@@AEAAPEAVQAnimationDriverPrivate@@XZ"
"?d_func@QAnimationDriver@@AEBAPEBVQAnimationDriverPrivate@@XZ"
"?d_func@QAnimationGroup@@AEAAPEAVQAnimationGroupPrivate@@XZ"
"?d_func@QAnimationGroup@@AEBAPEBVQAnimationGroupPrivate@@XZ"
"?d_func@QBuffer@@AEAAPEAVQBufferPrivate@@XZ"
"?d_func@QBuffer@@AEBAPEBVQBufferPrivate@@XZ"
"?d_func@QChronoTimer@@AEAAPEAVQTimerPrivate@@XZ"
"?d_func@QChronoTimer@@AEBAPEBVQTimerPrivate@@XZ"
"?d_func@QConcatenateTablesProxyModel@@AEAAPEAVQConcatenateTablesProxyModelPrivate@@XZ"
"?d_func@QConcatenateTablesProxyModel@@AEBAPEBVQConcatenateTablesProxyModelPrivate@@XZ"
"?d_func@QCoreApplication@@AEAAPEAVQCoreApplicationPrivate@@XZ"
"?d_func@QCoreApplication@@AEBAPEBVQCoreApplicationPrivate@@XZ"
"?d_func@QDir@@AEAAPEAVQDirPrivate@@XZ"
"?d_func@QDir@@AEBAPEBVQDirPrivate@@XZ"
"?d_func@QEventDispatcherWin32@@AEAAPEAVQEventDispatcherWin32Private@@XZ"
"?d_func@QEventDispatcherWin32@@AEBAPEBVQEventDispatcherWin32Private@@XZ"
"?d_func@QEventLoop@@AEAAPEAVQEventLoopPrivate@@XZ"
"?d_func@QEventLoop@@AEBAPEBVQEventLoopPrivate@@XZ"
"?d_func@QFSFileEngine@@AEAAPEAVQFSFileEnginePrivate@@XZ"
"?d_func@QFSFileEngine@@AEBAPEBVQFSFileEnginePrivate@@XZ"
"?d_func@QFactoryLoader@@AEAAPEAVQFactoryLoaderPrivate@@XZ"
"?d_func@QFactoryLoader@@AEBAPEBVQFactoryLoaderPrivate@@XZ"
"?d_func@QFile@@AEAAPEAVQFilePrivate@@XZ"
"?d_func@QFile@@AEBAPEBVQFilePrivate@@XZ"
"?d_func@QFileDevice@@AEAAPEAVQFileDevicePrivate@@XZ"
"?d_func@QFileDevice@@AEBAPEBVQFileDevicePrivate@@XZ"
"?d_func@QFileInfo@@AEAAPEAVQFileInfoPrivate@@XZ"
"?d_func@QFileInfo@@AEBAPEBVQFileInfoPrivate@@XZ"
"?d_func@QFileSelector@@AEAAPEAVQFileSelectorPrivate@@XZ"
"?d_func@QFileSelector@@AEBAPEBVQFileSelectorPrivate@@XZ"
"?d_func@QFileSystemWatcher@@AEAAPEAVQFileSystemWatcherPrivate@@XZ"
"?d_func@QFileSystemWatcher@@AEBAPEBVQFileSystemWatcherPrivate@@XZ"
"?d_func@QFutureWatcherBase@@AEAAPEAVQFutureWatcherBasePrivate@@XZ"
"?d_func@QFutureWatcherBase@@AEBAPEBVQFutureWatcherBasePrivate@@XZ"
"?d_func@QIODevice@@AEAAPEAVQIODevicePrivate@@XZ"
"?d_func@QIODevice@@AEBAPEBVQIODevicePrivate@@XZ"
"?d_func@QIdentityProxyModel@@AEAAPEAVQIdentityProxyModelPrivate@@XZ"
"?d_func@QIdentityProxyModel@@AEBAPEBVQIdentityProxyModelPrivate@@XZ"
"?d_func@QItemSelectionModel@@AEAAPEAVQItemSelectionModelPrivate@@XZ"
"?d_func@QItemSelectionModel@@AEBAPEBVQItemSelectionModelPrivate@@XZ"
"?d_func@QLockFile@@AEAAPEAVQLockFilePrivate@@XZ"
"?d_func@QLockFile@@AEBAPEBVQLockFilePrivate@@XZ"
"?d_func@QMetaEnumBuilder@@AEBAPEAVQMetaEnumBuilderPrivate@@XZ"
"?d_func@QMetaMethodBuilder@@AEBAPEAVQMetaMethodBuilderPrivate@@XZ"
"?d_func@QMetaPropertyBuilder@@AEBAPEAVQMetaPropertyBuilderPrivate@@XZ"
"?d_func@QMimeData@@AEAAPEAVQMimeDataPrivate@@XZ"
"?d_func@QMimeData@@AEBAPEBVQMimeDataPrivate@@XZ"
"?d_func@QObject@@AEAAPEAVQObjectPrivate@@XZ"
"?d_func@QObject@@AEBAPEBVQObjectPrivate@@XZ"
"?d_func@QParallelAnimationGroup@@AEAAPEAVQParallelAnimationGroupPrivate@@XZ"
"?d_func@QParallelAnimationGroup@@AEBAPEBVQParallelAnimationGroupPrivate@@XZ"
"?d_func@QPauseAnimation@@AEAAPEAVQPauseAnimationPrivate@@XZ"
"?d_func@QPauseAnimation@@AEBAPEBVQPauseAnimationPrivate@@XZ"
"?d_func@QProcess@@AEAAPEAVQProcessPrivate@@XZ"
"?d_func@QProcess@@AEBAPEBVQProcessPrivate@@XZ"
"?d_func@QPropertyAnimation@@AEAAPEAVQPropertyAnimationPrivate@@XZ"
"?d_func@QPropertyAnimation@@AEBAPEBVQPropertyAnimationPrivate@@XZ"
"?d_func@QResource@@AEAAPEAVQResourcePrivate@@XZ"
"?d_func@QResource@@AEBAPEBVQResourcePrivate@@XZ"
"?d_func@QSaveFile@@AEAAPEAVQSaveFilePrivate@@XZ"
"?d_func@QSaveFile@@AEBAPEBVQSaveFilePrivate@@XZ"
"?d_func@QSequentialAnimationGroup@@AEAAPEAVQSequentialAnimationGroupPrivate@@XZ"
"?d_func@QSequentialAnimationGroup@@AEBAPEBVQSequentialAnimationGroupPrivate@@XZ"
"?d_func@QSettings@@AEAAPEAVQSettingsPrivate@@XZ"
"?d_func@QSettings@@AEBAPEBVQSettingsPrivate@@XZ"
"?d_func@QSharedMemory@@AEAAPEAVQSharedMemoryPrivate@@XZ"
"?d_func@QSharedMemory@@AEBAPEBVQSharedMemoryPrivate@@XZ"
"?d_func@QSignalMapper@@AEAAPEAVQSignalMapperPrivate@@XZ"
"?d_func@QSignalMapper@@AEBAPEBVQSignalMapperPrivate@@XZ"
"?d_func@QSocketNotifier@@AEAAPEAVQSocketNotifierPrivate@@XZ"
"?d_func@QSocketNotifier@@AEBAPEBVQSocketNotifierPrivate@@XZ"
"?d_func@QSortFilterProxyModel@@AEAAPEAVQSortFilterProxyModelPrivate@@XZ"
"?d_func@QSortFilterProxyModel@@AEBAPEBVQSortFilterProxyModelPrivate@@XZ"
"?d_func@QTemporaryFile@@AEAAPEAVQTemporaryFilePrivate@@XZ"
"?d_func@QTemporaryFile@@AEBAPEBVQTemporaryFilePrivate@@XZ"
"?d_func@QTextStream@@AEAAPEAVQTextStreamPrivate@@XZ"
"?d_func@QTextStream@@AEBAPEBVQTextStreamPrivate@@XZ"
"?d_func@QThread@@AEAAPEAVQThreadPrivate@@XZ"
"?d_func@QThread@@AEBAPEBVQThreadPrivate@@XZ"
"?d_func@QThreadPool@@AEAAPEAVQThreadPoolPrivate@@XZ"
"?d_func@QThreadPool@@AEBAPEBVQThreadPoolPrivate@@XZ"
"?d_func@QTimeLine@@AEAAPEAVQTimeLinePrivate@@XZ"
"?d_func@QTimeLine@@AEBAPEBVQTimeLinePrivate@@XZ"
"?d_func@QTimer@@AEAAPEAVQTimerPrivate@@XZ"
"?d_func@QTimer@@AEBAPEBVQTimerPrivate@@XZ"
"?d_func@QTranslator@@AEAAPEAVQTranslatorPrivate@@XZ"
"?d_func@QTranslator@@AEBAPEBVQTranslatorPrivate@@XZ"
"?d_func@QTransposeProxyModel@@AEAAPEAVQTransposeProxyModelPrivate@@XZ"
"?d_func@QTransposeProxyModel@@AEBAPEBVQTransposeProxyModelPrivate@@XZ"
"?d_func@QVariantAnimation@@AEAAPEAVQVariantAnimationPrivate@@XZ"
"?d_func@QVariantAnimation@@AEBAPEBVQVariantAnimationPrivate@@XZ"
"?d_func@QWinEventNotifier@@AEAAPEAVQWinEventNotifierPrivate@@XZ"
"?d_func@QWinEventNotifier@@AEBAPEBVQWinEventNotifierPrivate@@XZ"
"?d_func@QXmlStreamReader@@AEAAPEAVQXmlStreamReaderPrivate@@XZ"
"?d_func@QXmlStreamReader@@AEBAPEBVQXmlStreamReaderPrivate@@XZ"
"?d_func@QXmlStreamWriter@@AEAAPEAVQXmlStreamWriterPrivate@@XZ"
"?d_func@QXmlStreamWriter@@AEBAPEBVQXmlStreamWriterPrivate@@XZ"
"?d_ref@QPropertyBindingData@QtPrivate@@AEBAAEA_KXZ"
"?data@QAbstractProxyModel@@UEBA?AVQVariant@@AEBVQModelIndex@@H@Z"
"?data@QBuffer@@QEBAAEBVQByteArray@@XZ"
"?data@QByteArray@@QEAAPEADXZ"
"?data@QByteArray@@QEBAPEBDXZ"
"?data@QByteArrayView@@QEBAPEBDXZ"
"?data@QConcatenateTablesProxyModel@@UEBA?AVQVariant@@AEBVQModelIndex@@H@Z"
"?data@QGenericArgument@@QEBAPEAXXZ"
"?data@QMimeData@@QEBA?AVQByteArray@@AEBVQString@@@Z"
"?data@QPermission@@AEBAPEBXVQMetaType@@@Z"
"?data@QPersistentModelIndex@@QEBA?AVQVariant@@H@Z"
"?data@QResource@@QEBAPEBEXZ"
"?data@QSharedMemory@@QEAAPEAXXZ"
"?data@QSharedMemory@@QEBAPEBXXZ"
"?data@QSortFilterProxyModel@@UEBA?AVQVariant@@AEBVQModelIndex@@H@Z"
"?data@QString@@QEAAPEAVQChar@@XZ"
"?data@QString@@QEBAPEBVQChar@@XZ"
"?data@QStringListModel@@UEBA?AVQVariant@@AEBVQModelIndex@@H@Z"
"?data@QVariant@@QEAAPEAXXZ"
"?data@QVariant@@QEBAPEBXXZ"
"?dataChanged@QAbstractItemModel@@QEAAXAEBVQModelIndex@@0AEBV?$QList@H@@@Z"
"?data_ptr@QBitArray@@QEAAAEAU?$QArrayDataPointer@D@@XZ"
"?data_ptr@QBitArray@@QEBAAEBU?$QArrayDataPointer@D@@XZ"
"?data_ptr@QByteArray@@QEAAAEAU?$QArrayDataPointer@D@@XZ"
"?data_ptr@QByteArray@@QEBAAEBU?$QArrayDataPointer@D@@XZ"
"?data_ptr@QString@@QEAAAEAU?$QArrayDataPointer@_S@@XZ"
"?data_ptr@QString@@QEBAAEBU?$QArrayDataPointer@_S@@XZ"
"?data_ptr@QUrl@@QEAAAEAPEAVQUrlPrivate@@XZ"
"?data_ptr@QUrlQuery@@QEAAAEAV?$QSharedDataPointer@VQUrlQueryPrivate@@@@XZ"
"?data_ptr@QVariant@@QEAAAEAUPrivate@1@XZ"
"?data_ptr@QVariant@@QEBAAEBUPrivate@1@XZ"
"?date@QDateTime@@QEBA?AVQDate@@XZ"
"?dateFormat@QLocale@@QEBA?AVQString@@W4FormatType@1@@Z"
"?dateFromParts@QCalendar@@QEBA?AVQDate@@AEBUYearMonthDay@1@@Z"
"?dateFromParts@QCalendar@@QEBA?AVQDate@@HHH@Z"
"?dateTimeFormat@QLocale@@QEBA?AVQString@@W4FormatType@1@@Z"
"?dateTimeToString@QCalendar@@QEBA?AVQString@@VQStringView@@AEBVQDateTime@@VQDate@@VQTime@@AEBVQLocale@@@Z"
"?dateTimeToString@QCalendarBackend@@UEBA?AVQString@@VQStringView@@AEBVQDateTime@@VQDate@@VQTime@@AEBVQLocale@@@Z"
"?dateToJulianDay@QGregorianCalendar@@UEBA_NHHHPEA_J@Z"
"?dateToJulianDay@QIslamicCivilCalendar@@UEBA_NHHHPEA_J@Z"
"?dateToJulianDay@QJalaliCalendar@@UEBA_NHHHPEA_J@Z"
"?dateToJulianDay@QJulianCalendar@@UEBA_NHHHPEA_J@Z"
"?dateToJulianDay@QMilankovicCalendar@@UEBA_NHHHPEA_J@Z"
"?day@QDate@@QEBAHVQCalendar@@@Z"
"?day@QDate@@QEBAHXZ"
"?dayName@QLocale@@QEBA?AVQString@@HW4FormatType@1@@Z"
"?dayOfWeek@QCalendar@@QEBAHVQDate@@@Z"
"?dayOfWeek@QCalendarBackend@@UEBAH_J@Z"
"?dayOfWeek@QDate@@QEBAHVQCalendar@@@Z"
"?dayOfWeek@QDate@@QEBAHXZ"
"?dayOfYear@QDate@@QEBAHVQCalendar@@@Z"
"?dayOfYear@QDate@@QEBAHXZ"
"?daylightTimeOffset@QTimeZone@@QEBAHAEBVQDateTime@@@Z"
"?daysInMonth@QCalendar@@QEBAHHH@Z"
"?daysInMonth@QDate@@QEBAHVQCalendar@@@Z"
"?daysInMonth@QDate@@QEBAHXZ"
"?daysInMonth@QHijriCalendar@@UEBAHHH@Z"
"?daysInMonth@QJalaliCalendar@@UEBAHHH@Z"
"?daysInMonth@QRomanCalendar@@UEBAHHH@Z"
"?daysInYear@QCalendar@@QEBAHH@Z"
"?daysInYear@QCalendarBackend@@UEBAHH@Z"
"?daysInYear@QDate@@QEBAHVQCalendar@@@Z"
"?daysInYear@QDate@@QEBAHXZ"
"?daysInYear@QHijriCalendar@@UEBAHH@Z"
"?daysTo@QDate@@QEBA_JV1@@Z"
"?daysTo@QDateTime@@QEBA_JAEBV1@@Z"
"?deadline@QDeadlineTimer@@QEBA_JXZ"
"?deadlineNSecs@QDeadlineTimer@@QEBA_JXZ"
"?deallocate@QArrayData@@SAXPEAU1@_J1@Z"
"?debug@QMessageLogger@@QEBA?AVQDebug@@AEBVQLoggingCategory@@@Z"
"?debug@QMessageLogger@@QEBA?AVQDebug@@P6AAEBVQLoggingCategory@@XZ@Z"
"?debug@QMessageLogger@@QEBA?AVQDebug@@XZ"
"?debug@QMessageLogger@@QEBAXAEBVQLoggingCategory@@PEBDZZ"
"?debug@QMessageLogger@@QEBAXP6AAEBVQLoggingCategory@@XZPEBDZZ"
"?debug@QMessageLogger@@QEBAXPEBDZZ"
"?debugStream@QMetaType@@QEAA_NAEAVQDebug@@PEBX@Z"
"?debugStream@QMetaType@@SA_NAEAVQDebug@@PEBXH@Z"
"?dec@Qt@@YAAEAVQTextStream@@AEAV2@@Z"
"?decimalPoint@QLocale@@QEBA?AVQString@@XZ"
"?decodeData@QAbstractItemModel@@IEAA_NHHAEBVQModelIndex@@AEAVQDataStream@@@Z"
"?decodeMSG@@YA?AVQString@@AEBUtagMSG@@@Z"
"?decodeName@QFile@@SA?AVQString@@AEBVQByteArray@@@Z"
"?decodeName@QFile@@SA?AVQString@@PEBD@Z"
"?decoderForHtml@QStringDecoder@@SA?AV1@VQByteArrayView@@@Z"
"?decomposition@QChar@@QEBA?AVQString@@XZ"
"?decomposition@QChar@@SA?AVQString@@_U@Z"
"?decompositionTag@QChar@@QEBA?AW4Decomposition@1@XZ"
"?decompositionTag@QChar@@SA?AW4Decomposition@1@_U@Z"
"?defaultCategory@QLoggingCategory@@SAPEAV1@XZ"
"?defaultCompare@QCollator@@SAHVQStringView@@0@Z"
"?defaultFormat@QSettings@@SA?AW4Format@1@XZ"
"?defaultQueryPairDelimiter@QUrlQuery@@SA_SXZ"
"?defaultQueryValueDelimiter@QUrlQuery@@SA_SXZ"
"?defaultRoleNames@QAbstractItemModelPrivate@@SAAEBV?$QHash@HVQByteArray@@@@XZ"
"?defaultSortKey@QCollator@@SA?AVQCollatorSortKey@@VQStringView@@@Z"
"?defaultTypeFor@QTimer@@CA?AW4TimerType@Qt@@H@Z"
"?defaultTypeFor@QTimer@@CA?AW4TimerType@Qt@@V?$duration@_JU?$ratio@$00$0DLJKMKAA@@std@@@chrono@std@@@Z"
"?defaultValues@QCommandLineOption@@QEBA?AV?$QList@VQString@@@@XZ"
"?deleteChildren@QObjectPrivate@@QEAAXXZ"
"?deleteLater@QObject@@QEAAXXZ"
"?deref@QCoreApplicationPrivate@@QEAAXXZ"
"?derefT@QFutureInterfaceBase@@IEBA_NXZ"
"?description@QCommandLineOption@@QEBA?AVQString@@XZ"
"?description@QPropertyBindingError@@QEBA?AVQString@@XZ"
"?destroy@QMetaType@@QEBAXPEAX@Z"
"?destroy@QMetaType@@SAXHPEAX@Z"
"?destroyAndFreeMemory@QPropertyBindingPrivate@@SAXPEAV1@@Z"
"?destroyAndFreeMemory@QPropertyBindingPrivatePtr@@QEAAXXZ"
"?destroyConstIterator@QMetaContainer@@QEBAXPEBX@Z"
"?destroyInternal@QBasicMutex@@AEAAXPEAVQMutexPrivate@@@Z"
"?destroyIterator@QMetaContainer@@QEBAXPEBX@Z"
"?destroyRecursive@QReadWriteLock@@CAXPEAVQReadWriteLockPrivate@@@Z"
"?destroy_internal@QNativeIpcKey@@AEAAXXZ"
"?destroyed@QAbstractDeclarativeData@@2P6AXPEAV1@PEAVQObject@@@ZEA"
"?destroyed@QObject@@QEAAXPEAV1@@Z"
"?destruct@QMetaType@@QEBAXPEAX@Z"
"?destruct@QMetaType@@SAXHPEAX@Z"
"?detach@QBitArray@@QEAAXXZ"
"?detach@QByteArray@@QEAAXXZ"
"?detach@QCborArray@@AEAAX_J@Z"
"?detach@QCborMap@@AEAAX_J@Z"
"?detach@QCollator@@AEAAXXZ"
"?detach@QJsonArray@@AEAA_N_J@Z"
"?detach@QJsonObject@@AEAA_N_J@Z"
"?detach@QJsonValueRef@@AEAAXXZ"
"?detach@QRingChunk@@QEAAXXZ"
"?detach@QSharedMemory@@QEAA_NXZ"
"?detach@QString@@QEAAXXZ"
"?detach@QUrl@@QEAAXXZ"
"?detach@QVariant@@QEAAXXZ"
"?detachFromProperty@QPropertyBindingPrivate@@QEAAXXZ"
"?device@QCborStreamReader@@QEBAPEAVQIODevice@@XZ"
"?device@QCborStreamWriter@@QEBAPEAVQIODevice@@XZ"
"?device@QDataStream@@QEBAPEAVQIODevice@@XZ"
"?device@QStorageInfo@@QEBA?AVQByteArray@@XZ"
"?device@QTextStream@@QEBAPEAVQIODevice@@XZ"
"?device@QXmlStreamReader@@QEBAPEAVQIODevice@@XZ"
"?device@QXmlStreamWriter@@QEBAPEAVQIODevice@@XZ"
"?device@QZipReader@@QEBAPEAVQIODevice@@XZ"
"?device@QZipWriter@@QEBAPEAVQIODevice@@XZ"
"?diffConstIterator@QMetaContainer@@QEBA_JPEBX0@Z"
"?diffIterator@QMetaContainer@@QEBA_JPEBX0@Z"
"?digitValue@QChar@@QEBAHXZ"
"?digitValue@QChar@@SAH_U@Z"
"?dir@QFileInfo@@QEBA?AVQDir@@XZ"
"?dirName@QDir@@QEBA?AVQString@@XZ"
"?directWriteFallback@QSaveFile@@QEBA_NXZ"
"?direction@QAbstractAnimation@@QEBA?AW4Direction@1@XZ"
"?direction@QChar@@QEBA?AW4Direction@1@XZ"
"?direction@QChar@@SA?AW4Direction@1@_U@Z"
"?direction@QTimeLine@@QEBA?AW4Direction@1@XZ"
"?directionChanged@QAbstractAnimation@@QEAAXW4Direction@1@@Z"
"?directories@QFileSystemWatcher@@QEBA?AV?$QList@VQString@@@@XZ"
"?directoryChanged@QFileSystemWatcher@@QEAAXAEBVQString@@UQPrivateSignal@1@@Z"
"?discard@QRandomGenerator@@QEAAX_K@Z"
"?disconnect@QMetaObject@@SA_NPEBVQObject@@H0H@Z"
"?disconnect@QObject@@QEBA_NPEBDPEBV1@0@Z"
"?disconnect@QObject@@QEBA_NPEBV1@PEBD@Z"
"?disconnect@QObject@@SA_NAEBVConnection@QMetaObject@@@Z"
"?disconnect@QObject@@SA_NPEBV1@AEBVQMetaMethod@@01@Z"
"?disconnect@QObject@@SA_NPEBV1@PEBD01@Z"
"?disconnect@QObjectPrivate@@SA_NPEBVQObject@@H0PEAPEAX@Z"
"?disconnect@QObjectPrivate@@SA_NPEBVQObject@@HPEAPEAX@Z"
"?disconnectImpl@QObject@@CA_NPEBV1@PEAPEAX01PEBUQMetaObject@@@Z"
"?disconnectNotify@QBuffer@@MEAAXAEBVQMetaMethod@@@Z"
"?disconnectNotify@QFutureWatcherBase@@MEAAXAEBVQMetaMethod@@@Z"
"?disconnectNotify@QObject@@MEAAXAEBVQMetaMethod@@@Z"
"?disconnectNotify@QObjectPrivate@@QEAAXAEBVQMetaMethod@@@Z"
"?disconnectOne@QMetaObject@@SA_NPEBVQObject@@H0H@Z"
"?disconnectOutputInterface@QFutureWatcherBase@@IEAAX_N@Z"
"?displayName@QStandardPaths@@SA?AVQString@@W4StandardLocation@1@@Z"
"?displayName@QStorageInfo@@QEBA?AVQString@@XZ"
"?displayName@QTimeZone@@QEBA?AVQString@@AEBVQDateTime@@W4NameType@1@AEBVQLocale@@@Z"
"?displayName@QTimeZone@@QEBA?AVQString@@W4TimeType@1@W4NameType@1@AEBVQLocale@@@Z"
"?displayText@QDateTimeParser@@UEBA?AVQString@@XZ"
"?dispose@QCborValue@@AEAAXXZ"
"?doSetObjectName@QObject@@AEAAXAEBVQString@@@Z"
"?doSetProperty@QObject@@AEAA_NPEBDPEBVQVariant@@PEAV2@@Z"
"?doUnregisterSocketNotifier@QEventDispatcherWin32@@IEAAXPEAVQSocketNotifier@@@Z"
"?doWsaAsyncSelect@QEventDispatcherWin32Private@@QEAAX_JJ@Z"
"?documentEncoding@QXmlStreamReader@@QEBA?AVQStringView@@XZ"
"?documentVersion@QXmlStreamReader@@QEBA?AVQStringView@@XZ"
"?drainAndStop@QWindowsPipeReader@@QEAAXXZ"
"?drives@QDir@@SA?AV?$QList@VQFileInfo@@@@XZ"
"?drives@QFSFileEngine@@SA?AV?$QList@VQFileInfo@@@@XZ"
"?dropMimeData@QAbstractItemModel@@UEAA_NPEBVQMimeData@@W4DropAction@Qt@@HHAEBVQModelIndex@@@Z"
"?dropMimeData@QAbstractListModel@@UEAA_NPEBVQMimeData@@W4DropAction@Qt@@HHAEBVQModelIndex@@@Z"
"?dropMimeData@QAbstractProxyModel@@UEAA_NPEBVQMimeData@@W4DropAction@Qt@@HHAEBVQModelIndex@@@Z"
"?dropMimeData@QAbstractTableModel@@UEAA_NPEBVQMimeData@@W4DropAction@Qt@@HHAEBVQModelIndex@@@Z"
"?dropMimeData@QConcatenateTablesProxyModel@@UEAA_NPEBVQMimeData@@W4DropAction@Qt@@HHAEBVQModelIndex@@@Z"
"?dropMimeData@QIdentityProxyModel@@UEAA_NPEBVQMimeData@@W4DropAction@Qt@@HHAEBVQModelIndex@@@Z"
"?dropMimeData@QSortFilterProxyModel@@UEAA_NPEBVQMimeData@@W4DropAction@Qt@@HHAEBVQModelIndex@@@Z"
"?ds@QTime@@AEBAHXZ"
"?dtdName@QXmlStreamReader@@QEBA?AVQStringView@@XZ"
"?dtdPublicId@QXmlStreamReader@@QEBA?AVQStringView@@XZ"
"?dtdSystemId@QXmlStreamReader@@QEBA?AVQStringView@@XZ"
"?dummyLocked@QBasicMutex@@CAPEAVQMutexPrivate@@XZ"
"?dumpObjectInfo@QObject@@QEBAXXZ"
"?dumpObjectTree@QObject@@QEBAXXZ"
"?duration@QParallelAnimationGroup@@UEBAHXZ"
"?duration@QPauseAnimation@@UEBAHXZ"
"?duration@QSequentialAnimationGroup@@UEBAHXZ"
"?duration@QTimeLine@@QEBAHXZ"
"?duration@QVariantAnimation@@UEBAHXZ"
"?durationElapsed@QElapsedTimer@@QEBA?AV?$duration@_JU?$ratio@$00$0DLJKMKAA@@std@@@chrono@std@@XZ"
"?durationTo@QElapsedTimer@@QEBA?AV?$duration@_JU?$ratio@$00$0DLJKMKAA@@std@@@chrono@std@@AEBV1@@Z"
"?dx@QLine@@QEBAHXZ"
"?dx@QLineF@@QEBANXZ"
"?dy@QLine@@QEBAHXZ"
"?dy@QLineF@@QEBANXZ"
"?dynamicMetaObject@QObjectData@@QEBAPEAUQMetaObject@@XZ"
"?dynamicPropertyNames@QObject@@QEBA?AV?$QList@VQByteArray@@@@XZ"
"?dynamicSortFilter@QSortFilterProxyModel@@QEBA_NXZ"
"?dynamicSortFilterChanged@QSortFilterProxyModel@@QEAAX_N@Z"
"?easingCurve@QTimeLine@@QEBA?AVQEasingCurve@@XZ"
"?easingCurve@QVariantAnimation@@QEBA?AVQEasingCurve@@XZ"
"?eastAsianWidth@QUnicodeTables@@YA?AW4EastAsianWidth@1@_U@Z"
"?elapsed@QAnimationDriver@@UEBA_JXZ"
"?elapsed@QElapsedTimer@@QEBA_JXZ"
"?elapsed@QUnifiedTimer@@QEBA_JXZ"
"?emitCurrentLoopChanged@QAbstractAnimationPrivate@@QEAAXXZ"
"?emitDirectionChanged@QAbstractAnimationPrivate@@QEAAXXZ"
"?emitHeaderDataChanged@QAbstractProxyModelPrivate@@QEAAXXZ"
"?emitSelectionChanged@QItemSelectionModel@@IEAAXAEBVQItemSelection@@0@Z"
"?empty@QByteArrayView@@QEBA_NXZ"
"?empty@QCborArray@@QEBA_NXZ"
"?empty@QCborMap@@QEBA_NXZ"
"?empty@QJsonArray@@QEBA_NXZ"
"?empty@QJsonObject@@QEBA_NXZ"
"?enclosingMetaObject@QMetaClassInfo@@QEBAPEBUQMetaObject@@XZ"
"?enclosingMetaObject@QMetaEnum@@QEBAPEBUQMetaObject@@XZ"
"?enclosingMetaObject@QMetaMethod@@QEBAPEBUQMetaObject@@XZ"
"?enclosingMetaObject@QMetaProperty@@QEBAPEBUQMetaObject@@XZ"
"?encodeData@QAbstractItemModel@@IEBAXAEBV?$QList@VQModelIndex@@@@AEAVQDataStream@@@Z"
"?encodeName@QFile@@SA?AVQByteArray@@AEBVQString@@@Z"
"?encoding@QTextStream@@QEBA?AW4Encoding@QStringConverter@@XZ"
"?encodingForData@QStringConverter@@SA?AV?$optional@W4Encoding@QStringConverter@@@std@@VQByteArrayView@@_S@Z"
"?encodingForHtml@QStringConverter@@SA?AV?$optional@W4Encoding@QStringConverter@@@std@@VQByteArrayView@@@Z"
"?encodingForName@QStringConverter@@SA?AV?$optional@W4Encoding@QStringConverter@@@std@@PEBD@Z"
"?encodingForName@QStringConverter@@SA?AV?$optional@W4Encoding@QStringConverter@@@std@@VQAnyStringView@@@Z"
"?encodingInterfaces@QStringConverter@@0QBUInterface@1@B"
"?end@QAssociativeIterable@@QEBA?AV?$QTaggedIterator@VQAssociativeConstIterator@@X@@XZ"
"?end@QByteArray@@QEAAPEADXZ"
"?end@QByteArray@@QEBAPEBDXZ"
"?end@QByteArrayView@@QEBAPEBDXZ"
"?end@QCborArray@@QEAA?AVIterator@1@XZ"
"?end@QCborArray@@QEBA?AVConstIterator@1@XZ"
"?end@QCborMap@@QEAA?AVIterator@1@XZ"
"?end@QCborMap@@QEBA?AVConstIterator@1@XZ"
"?end@QJsonArray@@QEAA?AViterator@1@XZ"
"?end@QJsonArray@@QEBA?AVconst_iterator@1@XZ"
"?end@QJsonObject@@QEAA?AViterator@1@XZ"
"?end@QJsonObject@@QEBA?AVconst_iterator@1@XZ"
"?end@QMetaContainer@@QEBAPEAXPEAX@Z"
"?end@QSequentialIterable@@QEBA?AV?$QTaggedIterator@VQSequentialConstIterator@@X@@XZ"
"?end@QString@@QEAAPEAVQChar@@XZ"
"?end@QString@@QEBAPEBVQChar@@XZ"
"?end@ResultStoreBase@QtPrivate@@QEBA?AVResultIteratorBase@2@XZ"
"?endArray@QCborStreamWriter@@QEAA_NXZ"
"?endArray@QSettings@@QEAAXXZ"
"?endEntryList@QAbstractFileEngine@@UEAA?AV?$unique_ptr@VQAbstractFileEngineIterator@@U?$default_delete@VQAbstractFileEngineIterator@@@std@@@std@@XZ"
"?endFrame@QTimeLine@@QEBAHXZ"
"?endGroup@QSettings@@QEAAXXZ"
"?endInsertColumns@QAbstractItemModel@@IEAAXXZ"
"?endInsertRows@QAbstractItemModel@@IEAAXXZ"
"?endMap@QCborStreamWriter@@QEAA_NXZ"
"?endMoveColumns@QAbstractItemModel@@IEAAXXZ"
"?endMoveRows@QAbstractItemModel@@IEAAXXZ"
"?endOfDay@QDate@@QEBA?AVQDateTime@@AEBVQTimeZone@@@Z"
"?endOfDay@QDate@@QEBA?AVQDateTime@@W4TimeSpec@Qt@@H@Z"
"?endOfDay@QDate@@QEBA?AVQDateTime@@XZ"
"?endPropertyUpdateGroup@Qt@@YAXXZ"
"?endRemoveColumns@QAbstractItemModel@@IEAAXXZ"
"?endRemoveRows@QAbstractItemModel@@IEAAXXZ"
"?endResetModel@QAbstractItemModel@@IEAAXXZ"
"?endValue@QVariantAnimation@@QEBA?AVQVariant@@XZ"
"?endl@Qt@@YAAEAVQTextStream@@AEAV2@@Z"
"?endsWith@QByteArray@@QEBA_ND@Z"
"?endsWith@QByteArray@@QEBA_NVQByteArrayView@@@Z"
"?endsWith@QByteArrayView@@QEBA_ND@Z"
"?endsWith@QByteArrayView@@QEBA_NV1@@Z"
"?endsWith@QString@@QEBA_NAEBV1@W4CaseSensitivity@Qt@@@Z"
"?endsWith@QString@@QEBA_NVQChar@@W4CaseSensitivity@Qt@@@Z"
"?endsWith@QString@@QEBA_NVQLatin1String@@W4CaseSensitivity@Qt@@@Z"
"?endsWith@QString@@QEBA_NVQStringView@@W4CaseSensitivity@Qt@@@Z"
"?endsWith@QtPrivate@@YA_NVQByteArrayView@@0@Z"
"?endsWith@QtPrivate@@YA_NVQLatin1String@@0W4CaseSensitivity@Qt@@@Z"
"?endsWith@QtPrivate@@YA_NVQLatin1String@@VQStringView@@W4CaseSensitivity@Qt@@@Z"
"?endsWith@QtPrivate@@YA_NVQStringView@@0W4CaseSensitivity@Qt@@@Z"
"?endsWith@QtPrivate@@YA_NVQStringView@@VQLatin1String@@W4CaseSensitivity@Qt@@@Z"
"?enqueueTask@QThreadPoolPrivate@@QEAAXPEAVQRunnable@@H@Z"
"?ensureConnectionData@QObjectPrivate@@QEAAXXZ"
"?ensureExtraData@QObjectPrivate@@QEAAXXZ"
"?enter@QMetaStringTable@@QEAAHAEBVQByteArray@@@Z"
"?enterContainer@QCborStreamReader@@QEAA_NXZ"
"?entityDeclarations@QXmlStreamReader@@QEBA?AV?$QList@VQXmlStreamEntityDeclaration@@@@XZ"
"?entityExpansionLimit@QXmlStreamReader@@QEBAHXZ"
"?entityResolver@QXmlStreamReader@@QEBAPEAVQXmlStreamEntityResolver@@XZ"
"?entryInfoAt@QZipReader@@QEBA?AUFileInfo@1@H@Z"
"?entryInfoList@QDir@@QEBA?AV?$QList@VQFileInfo@@@@AEBV?$QList@VQString@@@@V?$QFlags@W4Filter@QDir@@@@V?$QFlags@W4SortFlag@QDir@@@@@Z"
"?entryInfoList@QDir@@QEBA?AV?$QList@VQFileInfo@@@@V?$QFlags@W4Filter@QDir@@@@V?$QFlags@W4SortFlag@QDir@@@@@Z"
"?entryList@QAbstractFileEngine@@UEBA?AV?$QList@VQString@@@@V?$QFlags@W4Filter@QDir@@@@AEBV2@@Z"
"?entryList@QAbstractFileEngine@@UEBA?AV?$QList@VQString@@@@V?$QFlags@W4IteratorFlag@QDirListing@@@@AEBV2@@Z"
"?entryList@QDir@@QEBA?AV?$QList@VQString@@@@AEBV2@V?$QFlags@W4Filter@QDir@@@@V?$QFlags@W4SortFlag@QDir@@@@@Z"
"?entryList@QDir@@QEBA?AV?$QList@VQString@@@@V?$QFlags@W4Filter@QDir@@@@V?$QFlags@W4SortFlag@QDir@@@@@Z"
"?enumName@QMetaEnum@@QEBAPEBDXZ"
"?enumName@QMetaEnumBuilder@@QEBA?AVQByteArray@@XZ"
"?enumerator@QMetaObject@@QEBA?AVQMetaEnum@@H@Z"
"?enumerator@QMetaObjectBuilder@@QEBA?AVQMetaEnumBuilder@@H@Z"
"?enumerator@QMetaProperty@@QEBA?AVQMetaEnum@@XZ"
"?enumeratorCount@QMetaObject@@QEBAHXZ"
"?enumeratorCount@QMetaObjectBuilder@@QEBAHXZ"
"?enumeratorOffset@QMetaObject@@QEBAHXZ"
"?environment@QProcess@@QEBA?AV?$QList@VQString@@@@XZ"
"?equal@QAnyStringView@@SA_NV1@0@Z"
"?equalStrings@QtPrivate@@YA_NV?$QBasicUtf8StringView@$0A@@@0@Z"
"?equalStrings@QtPrivate@@YA_NV?$QBasicUtf8StringView@$0A@@@VQLatin1String@@@Z"
"?equalStrings@QtPrivate@@YA_NV?$QBasicUtf8StringView@$0A@@@VQStringView@@@Z"
"?equalStrings@QtPrivate@@YA_NVQLatin1String@@0@Z"
"?equalStrings@QtPrivate@@YA_NVQLatin1String@@V?$QBasicUtf8StringView@$0A@@@@Z"
"?equalStrings@QtPrivate@@YA_NVQLatin1String@@VQStringView@@@Z"
"?equalStrings@QtPrivate@@YA_NVQStringView@@0@Z"
"?equalStrings@QtPrivate@@YA_NVQStringView@@V?$QBasicUtf8StringView@$0A@@@@Z"
"?equalStrings@QtPrivate@@YA_NVQStringView@@VQLatin1String@@@Z"
"?equal_helper@QChar@@CA_NV1@PEBD@Z"
"?equal_helper@QLatin1String@@CA_NV1@PEBD_J@Z"
"?equal_helper@QStringView@@CA_NV1@PEBD_J@Z"
"?equals@QDateTime@@AEBA_NAEBV1@@Z"
"?equals@QLocale@@AEBA_NAEBV1@@Z"
"?equals@QMetaType@@QEBA_NPEBX0@Z"
"?equals@QMetaType@@SA_NPEBX0HPEAH@Z"
"?equals@QVariant@@IEBA_NAEBV1@@Z"
"?erase@QByteArray@@QEAAPEADPEBD0@Z"
"?erase@QByteArray@@QEAAPEADPEBD@Z"
"?erase@QCborArray@@QEAA?AVIterator@1@V21@@Z"
"?erase@QCborArray@@QEAA?AVIterator@1@VConstIterator@1@@Z"
"?erase@QCborMap@@QEAA?AVIterator@1@V21@@Z"
"?erase@QCborMap@@QEAA?AVIterator@1@VConstIterator@1@@Z"
"?erase@QJsonArray@@QEAA?AViterator@1@V21@@Z"
"?erase@QJsonObject@@QEAA?AViterator@1@V21@@Z"
"?erase@QString@@QEAAPEAVQChar@@PEBV2@0@Z"
"?erase@QString@@QEAAPEAVQChar@@PEBV2@@Z"
"?eraseRangeAtIterator@QMetaSequence@@QEBAXPEAXPEBX1@Z"
"?eraseValueAtIterator@QMetaSequence@@QEBAXPEAXPEBX@Z"
"?error@QAbstractFileEngine@@QEBA?AW4FileError@QFileDevice@@XZ"
"?error@QFileDevice@@QEBA?AW4FileError@1@XZ"
"?error@QLockFile@@QEBA?AW4LockError@1@XZ"
"?error@QProcess@@QEBA?AW4ProcessError@1@XZ"
"?error@QSharedMemory@@QEBA?AW4SharedMemoryError@1@XZ"
"?error@QSystemSemaphore@@QEBA?AW4SystemSemaphoreError@1@XZ"
"?error@QUntypedPropertyBinding@@QEBA?AVQPropertyBindingError@@XZ"
"?error@QXmlStreamReader@@QEBA?AW4Error@1@XZ"
"?errorOccurred@QProcess@@QEAAXW4ProcessError@1@@Z"
"?errorString@QAbstractFileEngine@@QEBA?AVQString@@XZ"
"?errorString@QIODevice@@QEBA?AVQString@@XZ"
"?errorString@QJsonParseError@@QEBA?AVQString@@XZ"
"?errorString@QLibrary@@QEBA?AVQString@@XZ"
"?errorString@QPluginLoader@@QEBA?AVQString@@XZ"
"?errorString@QRegularExpression@@QEBA?AVQString@@XZ"
"?errorString@QSharedMemory@@QEBA?AVQString@@XZ"
"?errorString@QSystemSemaphore@@QEBA?AVQString@@XZ"
"?errorString@QTemporaryDir@@QEBA?AVQString@@XZ"
"?errorString@QUrl@@QEBA?AVQString@@XZ"
"?errorString@QXmlStreamReader@@QEBA?AVQString@@XZ"
"?errorText@QCommandLineParser@@QEBA?AVQString@@XZ"
"?escape@QRegularExpression@@SA?AVQString@@AEBV2@@Z"
"?escape@QRegularExpression@@SA?AVQString@@VQStringView@@@Z"
"?evaluateIfDirty@QPropertyBindingData@QtPrivate@@QEBAXPEBVQUntypedPropertyData@@@Z"
"?evaluateRecursive@QPropertyBindingPrivate@@QEAA_NAEAV?$QVarLengthArray@VQPropertyBindingPrivatePtr@@$0BAA@@@PEAUQBindingStatus@@@Z"
"?evaluateRecursive_inline@QPropertyBindingPrivate@@QEAA_NAEAV?$QVarLengthArray@VQPropertyBindingPrivatePtr@@$0BAA@@@PEAUQBindingStatus@@@Z"
"?event@QAbstractAnimation@@MEAA_NPEAVQEvent@@@Z"
"?event@QAnimationGroup@@MEAA_NPEAVQEvent@@@Z"
"?event@QCoreApplication@@MEAA_NPEAVQEvent@@@Z"
"?event@QEventDispatcherWin32@@UEAA_NPEAVQEvent@@@Z"
"?event@QEventLoop@@UEAA_NPEAVQEvent@@@Z"
"?event@QFutureWatcherBase@@UEAA_NPEAVQEvent@@@Z"
"?event@QObject@@UEAA_NPEAVQEvent@@@Z"
"?event@QParallelAnimationGroup@@MEAA_NPEAVQEvent@@@Z"
"?event@QPauseAnimation@@MEAA_NPEAVQEvent@@@Z"
"?event@QPropertyAnimation@@MEAA_NPEAVQEvent@@@Z"
"?event@QSequentialAnimationGroup@@MEAA_NPEAVQEvent@@@Z"
"?event@QSettings@@MEAA_NPEAVQEvent@@@Z"
"?event@QSocketNotifier@@MEAA_NPEAVQEvent@@@Z"
"?event@QThread@@UEAA_NPEAVQEvent@@@Z"
"?event@QVariantAnimation@@MEAA_NPEAVQEvent@@@Z"
"?event@QWinEventNotifier@@MEAA_NPEAVQEvent@@@Z"
"?event@QWindowsPipeReader@@MEAA_NPEAVQEvent@@@Z"
"?event@QWindowsPipeWriter@@MEAA_NPEAVQEvent@@@Z"
"?eventDispatcher@QCoreApplication@@SAPEAVQAbstractEventDispatcher@@XZ"
"?eventDispatcher@QCoreApplicationPrivate@@2PEAVQAbstractEventDispatcher@@EA"
"?eventDispatcher@QThread@@QEBAPEAVQAbstractEventDispatcher@@XZ"
"?eventDispatcherReady@QCoreApplicationPrivate@@UEAAXXZ"
"?eventFilter@QObject@@UEAA_NPEAV1@PEAVQEvent@@@Z"
"?exception@ExceptionStore@QtPrivate@@QEBA?AVexception_ptr@std@@XZ"
"?exception@QUnhandledException@@QEBA?AVexception_ptr@std@@XZ"
"?exceptionStore@QFutureInterfaceBase@@QEAAAEAVExceptionStore@QtPrivate@@XZ"
"?exec@QCoreApplication@@SAHXZ"
"?exec@QEventLoop@@QEAAHV?$QFlags@W4ProcessEventsFlag@QEventLoop@@@@@Z"
"?exec@QTextStreamManipulator@@QEAAXAEAVQTextStream@@@Z"
"?exec@QThread@@IEAAHXZ"
"?execCleanup@QCoreApplicationPrivate@@QEAAXXZ"
"?execute@QProcess@@SAHAEBVQString@@AEBV?$QList@VQString@@@@@Z"
"?executePendingOperations@QAbstractItemModelPrivate@@UEBAXXZ"
"?exists@DirEntry@QDirListing@@QEBA_NXZ"
"?exists@QDir@@QEBA_NAEBVQString@@@Z"
"?exists@QDir@@QEBA_NXZ"
"?exists@QFile@@QEBA_NXZ"
"?exists@QFile@@SA_NAEBVQString@@@Z"
"?exists@QFileInfo@@QEBA_NXZ"
"?exists@QFileInfo@@SA_NAEBVQString@@@Z"
"?exists@QZipReader@@QEBA_NXZ"
"?exists@QZipWriter@@QEBA_NXZ"
"?exit@QCoreApplication@@SAXH@Z"
"?exit@QEventLoop@@QEAAXH@Z"
"?exit@QThread@@QEAAXH@Z"
"?exitCode@QProcess@@QEBAHXZ"
"?exitStatus@QProcess@@QEBA?AW4ExitStatus@1@XZ"
"?expand@QByteArray@@AEAAX_J@Z"
"?expandedTo@QSize@@QEBA?AV1@AEBV1@@Z"
"?expandedTo@QSizeF@@QEBA?AV1@AEBV1@@Z"
"?expectedResultCount@QFutureInterfaceBase@@QEAAHXZ"
"?expiryTimeout@QThreadPool@@QEBAHXZ"
"?exponential@QLocale@@QEBA?AVQString@@XZ"
"?exponenttable@qfloat16@@0QBIB"
"?extension@QAbstractFileEngine@@UEAA_NW4Extension@1@PEBVExtensionOption@1@PEAVExtensionReturn@1@@Z"
"?extension@QFSFileEngine@@UEAA_NW4Extension@QAbstractFileEngine@@PEBVExtensionOption@3@PEAVExtensionReturn@3@@Z"
"?extraSelectors@QFileSelector@@QEBA?AV?$QList@VQString@@@@XZ"
"?extract@QCborArray@@QEAA?AVQCborValue@@VConstIterator@1@@Z"
"?extract@QCborArray@@QEAA?AVQCborValue@@VIterator@1@@Z"
"?extract@QCborMap@@QEAA?AVQCborValue@@VConstIterator@1@@Z"
"?extract@QCborMap@@QEAA?AVQCborValue@@VIterator@1@@Z"
"?extractAll@QZipReader@@QEBA_NAEBVQString@@@Z"
"?fallbackLocale@QSystemLocale@@UEBA?AVQLocale@@XZ"
"?fallbackLocaleIndex@QSystemLocale@@QEBA_JXZ"
"?fallbacksEnabled@QSettings@@QEBA_NXZ"
"?fastTryLock@QBasicMutex@@AEAA_NXZ"
"?fastTryUnlock@QBasicMutex@@AEAA_NXZ"
"?fatal@QMessageLogger@@QEBA?AVQDebug@@AEBVQLoggingCategory@@@Z"
"?fatal@QMessageLogger@@QEBA?AVQDebug@@P6AAEBVQLoggingCategory@@XZ@Z"
"?fatal@QMessageLogger@@QEBA?AVQDebug@@XZ"
"?fatal@QMessageLogger@@QEBAXAEBVQLoggingCategory@@PEBDZZ"
"?fatal@QMessageLogger@@QEBAXP6AAEBVQLoggingCategory@@XZPEBDZZ"
"?fatal@QMessageLogger@@QEBAXPEBDZZ"
"?fetchMore@QAbstractItemModel@@UEAAXAEBVQModelIndex@@@Z"
"?fetchMore@QAbstractProxyModel@@UEAAXAEBVQModelIndex@@@Z"
"?fetchMore@QSortFilterProxyModel@@UEAAXAEBVQModelIndex@@@Z"
"?fieldAlignment@QTextStream@@QEBA?AW4FieldAlignment@1@XZ"
"?fieldInfo@QDateTimeParser@@QEBA?AV?$QFlags@W4FieldInfoFlag@QDateTimeParser@@@@H@Z"
"?fieldWidth@QTextStream@@QEBAHXZ"
"?fileChanged@QFileSystemWatcher@@QEAAXAEBVQString@@UQPrivateSignal@1@@Z"
"?fileData@QZipReader@@QEBA?AVQByteArray@@AEBVQString@@@Z"
"?fileFlags@QAbstractFileEngine@@UEBA?AV?$QFlags@W4FileFlag@QAbstractFileEngine@@@@V2@@Z"
"?fileFlags@QFSFileEngine@@UEBA?AV?$QFlags@W4FileFlag@QAbstractFileEngine@@@@V2@@Z"
"?fileInfo@DirEntry@QDirListing@@QEBA?AVQFileInfo@@XZ"
"?fileInfo@QDirIterator@@QEBA?AVQFileInfo@@XZ"
"?fileInfoList@QZipReader@@QEBA?AV?$QList@UFileInfo@QZipReader@@@@XZ"
"?fileName@DirEntry@QDirListing@@QEBA?AVQString@@XZ"
"?fileName@QAbstractFileEngine@@UEBA?AVQString@@W4FileName@1@@Z"
"?fileName@QDirIterator@@QEBA?AVQString@@XZ"
"?fileName@QFSFileEngine@@UEBA?AVQString@@W4FileName@QAbstractFileEngine@@@Z"
"?fileName@QFile@@UEBA?AVQString@@XZ"
"?fileName@QFileDevice@@UEBA?AVQString@@XZ"
"?fileName@QFileInfo@@QEBA?AVQString@@XZ"
"?fileName@QLibrary@@QEBA?AVQString@@XZ"
"?fileName@QLockFile@@QEBA?AVQString@@XZ"
"?fileName@QPluginLoader@@QEBA?AVQString@@XZ"
"?fileName@QResource@@QEBA?AVQString@@XZ"
"?fileName@QSaveFile@@UEBA?AVQString@@XZ"
"?fileName@QSettings@@QEBA?AVQString@@XZ"
"?fileName@QTemporaryFile@@UEBA?AVQString@@XZ"
"?fileName@QUrl@@QEBA?AVQString@@V?$QFlags@W4ComponentFormattingOption@QUrl@@@@@Z"
"?filePath@DirEntry@QDirListing@@QEBA?AVQString@@XZ"
"?filePath@QDir@@QEBA?AVQString@@AEBV2@@Z"
"?filePath@QDirIterator@@QEBA?AVQString@@XZ"
"?filePath@QFileInfo@@QEBA?AVQString@@XZ"
"?filePath@QTemporaryDir@@QEBA?AVQString@@AEBV2@@Z"
"?filePath@QTranslator@@QEBA?AVQString@@XZ"
"?fileSystemType@QStorageInfo@@QEBA?AVQByteArray@@XZ"
"?fileTemplate@QTemporaryFile@@QEBA?AVQString@@XZ"
"?fileTime@DirEntry@QDirListing@@QEBA?AVQDateTime@@W4FileTime@QFileDevice@@AEBVQTimeZone@@@Z"
"?fileTime@QAbstractFileEngine@@UEBA?AVQDateTime@@W4FileTime@QFileDevice@@@Z"
"?fileTime@QFSFileEngine@@UEBA?AVQDateTime@@W4FileTime@QFileDevice@@@Z"
"?fileTime@QFileDevice@@QEBA?AVQDateTime@@W4FileTime@1@@Z"
"?fileTime@QFileInfo@@QEBA?AVQDateTime@@W4FileTime@QFileDevice@@@Z"
"?fileTime@QFileInfo@@QEBA?AVQDateTime@@W4FileTime@QFileDevice@@AEBVQTimeZone@@@Z"
"?files@QFileSystemWatcher@@QEBA?AV?$QList@VQString@@@@XZ"
"?filesystemAbsoluteFilePath@QFileInfo@@QEBA?AVpath@filesystem@std@@XZ"
"?filesystemAbsolutePath@QDir@@QEBA?AVpath@filesystem@std@@XZ"
"?filesystemAbsolutePath@QFileInfo@@QEBA?AVpath@filesystem@std@@XZ"
"?filesystemCanonicalFilePath@QFileInfo@@QEBA?AVpath@filesystem@std@@XZ"
"?filesystemCanonicalPath@QDir@@QEBA?AVpath@filesystem@std@@XZ"
"?filesystemCanonicalPath@QFileInfo@@QEBA?AVpath@filesystem@std@@XZ"
"?filesystemFileName@QFile@@QEBA?AVpath@filesystem@std@@XZ"
"?filesystemFilePath@QFileInfo@@QEBA?AVpath@filesystem@std@@XZ"
"?filesystemJunctionTarget@QFileInfo@@QEBA?AVpath@filesystem@std@@XZ"
"?filesystemPath@QDir@@QEBA?AVpath@filesystem@std@@XZ"
"?filesystemPath@QFileInfo@@QEBA?AVpath@filesystem@std@@XZ"
"?filesystemReadSymLink@QFileInfo@@QEBA?AVpath@filesystem@std@@XZ"
"?filesystemSymLinkTarget@QFile@@QEBA?AVpath@filesystem@std@@XZ"
"?filesystemSymLinkTarget@QFileInfo@@QEBA?AVpath@filesystem@std@@XZ"
"?fill@QBitArray@@QEAAX_N_J1@Z"
"?fill@QBitArray@@QEAA_N_N_J@Z"
"?fill@QByteArray@@QEAAAEAV1@D_J@Z"
"?fill@QString@@QEAAAEAV1@VQChar@@_J@Z"
"?filter@QDir@@QEBA?AV?$QFlags@W4Filter@QDir@@@@XZ"
"?filterAcceptsColumn@QSortFilterProxyModel@@MEBA_NHAEBVQModelIndex@@@Z"
"?filterAcceptsRow@QSortFilterProxyModel@@MEBA_NHAEBVQModelIndex@@@Z"
"?filterCaseSensitivity@QSortFilterProxyModel@@QEBA?AW4CaseSensitivity@Qt@@XZ"
"?filterCaseSensitivityChanged@QSortFilterProxyModel@@QEAAXW4CaseSensitivity@Qt@@@Z"
"?filterKeyColumn@QSortFilterProxyModel@@QEBAHXZ"
"?filterMode@ResultStoreBase@QtPrivate@@QEBA_NXZ"
"?filterNativeEvent@QAbstractEventDispatcher@@QEAA_NAEBVQByteArray@@PEAXPEA_J@Z"
"?filterRegularExpression@QSortFilterProxyModel@@QEBA?AVQRegularExpression@@XZ"
"?filterRole@QSortFilterProxyModel@@QEBAHXZ"
"?filterRoleChanged@QSortFilterProxyModel@@QEAAXH@Z"
"?filterString@QMimeType@@QEBA?AVQString@@XZ"
"?filters@QAbstractFileEngineIterator@@QEBA?AV?$QFlags@W4Filter@QDir@@@@XZ"
"?find@QAssociativeIterable@@QEBA?AV?$QTaggedIterator@VQAssociativeConstIterator@@X@@AEBVQVariant@@@Z"
"?find@QCborMap@@QEAA?AVIterator@1@AEBVQCborValue@@@Z"
"?find@QCborMap@@QEAA?AVIterator@1@AEBVQString@@@Z"
"?find@QCborMap@@QEAA?AVIterator@1@VQLatin1String@@@Z"
"?find@QCborMap@@QEAA?AVIterator@1@_J@Z"
"?find@QCborMap@@QEBA?AVConstIterator@1@AEBVQCborValue@@@Z"
"?find@QCborMap@@QEBA?AVConstIterator@1@AEBVQString@@@Z"
"?find@QCborMap@@QEBA?AVConstIterator@1@VQLatin1String@@@Z"
"?find@QCborMap@@QEBA?AVConstIterator@1@_J@Z"
"?find@QJsonObject@@QEAA?AViterator@1@AEBVQString@@@Z"
"?find@QJsonObject@@QEAA?AViterator@1@VQLatin1String@@@Z"
"?find@QJsonObject@@QEAA?AViterator@1@VQStringView@@@Z"
"?find@QJsonObject@@QEBA?AVconst_iterator@1@AEBVQString@@@Z"
"?find@QJsonObject@@QEBA?AVconst_iterator@1@VQLatin1String@@@Z"
"?find@QJsonObject@@QEBA?AVconst_iterator@1@VQStringView@@@Z"
"?findAmPm@QDateTimeParser@@AEBA?AW4AmPmFinder@1@AEAVQString@@HPEAH@Z"
"?findByteArray@QtPrivate@@YA_JVQByteArrayView@@_J0@Z"
"?findDay@QDateTimeParser@@AEBAHVQStringView@@HHPEAVQString@@PEAH@Z"
"?findExecutable@QStandardPaths@@SA?AVQString@@AEBV2@AEBV?$QList@VQString@@@@@Z"
"?findMonth@QDateTimeParser@@AEBAHVQStringView@@HHHPEAVQString@@PEAH@Z"
"?findString@QtPrivate@@YA_JVQLatin1String@@_J0W4CaseSensitivity@Qt@@@Z"
"?findString@QtPrivate@@YA_JVQLatin1String@@_JVQStringView@@W4CaseSensitivity@Qt@@@Z"
"?findString@QtPrivate@@YA_JVQStringView@@_J0W4CaseSensitivity@Qt@@@Z"
"?findString@QtPrivate@@YA_JVQStringView@@_JVQLatin1String@@W4CaseSensitivity@Qt@@@Z"
"?findTimeZone@QDateTimeParser@@AEBA?AUParsedSection@1@VQStringView@@AEBVQDateTime@@HHH@Z"
"?findTimeZoneName@QDateTimeParser@@AEBA?AUParsedSection@1@VQStringView@@AEBVQDateTime@@@Z"
"?findUtcOffset@QDateTimeParser@@AEBA?AUParsedSection@1@VQStringView@@H@Z"
"?finish@QThreadStorageData@@SAXPEAPEAX@Z"
"?finished@QAbstractAnimation@@QEAAXXZ"
"?finished@QFutureWatcherBase@@QEAAXXZ"
"?finished@QProcess@@QEAAXHW4ExitStatus@1@@Z"
"?finished@QThread@@QEAAXUQPrivateSignal@1@@Z"
"?finished@QTimeLine@@QEAAXUQPrivateSignal@1@@Z"
"?first@QByteArray@@QEBA?AV1@_J@Z"
"?first@QByteArray@@QEGBA?AV1@_J@Z"
"?first@QByteArray@@QEHAA?AV1@_J@Z"
"?first@QByteArrayView@@QEBA?AV1@_J@Z"
"?first@QByteArrayView@@QEBADXZ"
"?first@QCborArray@@QEAA?AVQCborValueRef@@XZ"
"?first@QCborArray@@QEBA?AVQCborValue@@XZ"
"?first@QJsonArray@@QEBA?AVQJsonValue@@XZ"
"?first@QString@@QEBA?AV1@_J@Z"
"?first@QString@@QEGBA?AV1@_J@Z"
"?first@QString@@QEHAA?AV1@_J@Z"
"?firstDayOfWeek@QLocale@@QEBA?AW4DayOfWeek@Qt@@XZ"
"?firstMethod@QMetaObjectPrivate@@SA?AVQMetaMethod@@PEBUQMetaObject@@VQByteArrayView@@@Z"
"?fixed@Qt@@YAAEAVQTextStream@@AEAV2@@Z"
"?fixedSecondsAheadOfUtc@QTimeZone@@QEBAHXZ"
"?flags@QAbstractItemModel@@UEBA?AV?$QFlags@W4ItemFlag@Qt@@@@AEBVQModelIndex@@@Z"
"?flags@QAbstractListModel@@UEBA?AV?$QFlags@W4ItemFlag@Qt@@@@AEBVQModelIndex@@@Z"
"?flags@QAbstractProxyModel@@UEBA?AV?$QFlags@W4ItemFlag@Qt@@@@AEBVQModelIndex@@@Z"
"?flags@QAbstractTableModel@@UEBA?AV?$QFlags@W4ItemFlag@Qt@@@@AEBVQModelIndex@@@Z"
"?flags@QCommandLineOption@@QEBA?AV?$QFlags@W4Flag@QCommandLineOption@@@@XZ"
"?flags@QConcatenateTablesProxyModel@@UEBA?AV?$QFlags@W4ItemFlag@Qt@@@@AEBVQModelIndex@@@Z"
"?flags@QMetaObjectBuilder@@QEBA?AV?$QFlags@W4MetaObjectFlag@@@@XZ"
"?flags@QMetaType@@QEBA?AV?$QFlags@W4TypeFlag@QMetaType@@@@XZ"
"?flags@QPersistentModelIndex@@QEBA?AV?$QFlags@W4ItemFlag@Qt@@@@XZ"
"?flags@QSortFilterProxyModel@@UEBA?AV?$QFlags@W4ItemFlag@Qt@@@@AEBVQModelIndex@@@Z"
"?flags@QStringListModel@@UEBA?AV?$QFlags@W4ItemFlag@Qt@@@@AEBVQModelIndex@@@Z"
"?flagsForDumping@QObjectPrivate@@UEBA?AV?$basic_string@DU?$char_traits@D@std@@V?$allocator@D@2@@std@@XZ"
"?floatingPointPrecision@QDataStream@@QEBA?AW4FloatingPointPrecision@1@XZ"
"?flush@QAbstractFileEngine@@UEAA_NXZ"
"?flush@QFSFileEngine@@UEAA_NXZ"
"?flush@QFileDevice@@QEAA_NXZ"
"?flush@QTextStream@@QEAAXXZ"
"?flush@Qt@@YAAEAVQTextStream@@AEAV2@@Z"
"?forcepoint@Qt@@YAAEAVQTextStream@@AEAV2@@Z"
"?forcesign@Qt@@YAAEAVQTextStream@@AEAV2@@Z"
"?format@QSettings@@QEBA?AW4Format@1@XZ"
"?format@SectionNode@QDateTimeParser@@QEBA?AVQString@@XZ"
"?formats@QMimeData@@UEBA?AV?$QList@VQString@@@@XZ"
"?formattedDataSize@QLocale@@QEBA?AVQString@@_JHV?$QFlags@W4DataSizeFormat@QLocale@@@@@Z"
"?forwardEvent@QCoreApplication@@CA_NPEAVQObject@@PEAVQEvent@@1@Z"
"?fpClassify@qfloat16@@QEBAHXZ"
"?fp_helper@QCborValue@@AEBANXZ"
"?fragment@QUrl@@QEBA?AVQString@@V?$QFlags@W4ComponentFormattingOption@QUrl@@@@@Z"
"?frameChanged@QTimeLine@@QEAAXHUQPrivateSignal@1@@Z"
"?frameForTime@QTimeLine@@QEBAHH@Z"
"?free@QRingBuffer@@QEAAX_J@Z"
"?freeData@QContiguousCacheData@@SAXPEAU1@@Z"
"?fromAce@QUrl@@SA?AVQString@@AEBVQByteArray@@@Z"
"?fromAce@QUrl@@SA?AVQString@@AEBVQByteArray@@V?$QFlags@W4AceProcessingOption@QUrl@@@@@Z"
"?fromBase64@QByteArray@@SA?AV1@AEBV1@V?$QFlags@W4Base64Option@QByteArray@@@@@Z"
"?fromBase64Encoding@QByteArray@@SA?AVFromBase64Result@1@$$QEAV1@V?$QFlags@W4Base64Option@QByteArray@@@@@Z"
"?fromBase64Encoding@QByteArray@@SA?AVFromBase64Result@1@AEBV1@V?$QFlags@W4Base64Option@QByteArray@@@@@Z"
"?fromBits@QBitArray@@SA?AV1@PEBD_J@Z"
"?fromBytes@QUuid@@SA?AV1@PEBXW4Endian@QSysInfo@@@Z"
"?fromCbor@QCborValue@@SA?AV1@AEAVQCborStreamReader@@@Z"
"?fromCbor@QCborValue@@SA?AV1@AEBVQByteArray@@PEAUQCborParserError@@@Z"
"?fromCbor@QCborValue@@SA?AV1@PEBD_JPEAUQCborParserError@@@Z"
"?fromCbor@QCborValue@@SA?AV1@PEBE_JPEAUQCborParserError@@@Z"
"?fromDurationAheadOfUtc@QTimeZone@@SA?AV1@V?$duration@_JU?$ratio@$00$00@std@@@chrono@std@@@Z"
"?fromEncoded@QUrl@@SA?AV1@AEBVQByteArray@@W4ParsingMode@1@@Z"
"?fromEncoded@QUrl@@SA?AV1@VQByteArrayView@@W4ParsingMode@1@@Z"
"?fromEnum@QCalendarBackend@@CAPEBV1@W4System@QCalendar@@@Z"
"?fromHex@QByteArray@@SA?AV1@AEBV1@@Z"
"?fromId@QCalendarBackend@@CAPEBV1@VSystemId@QCalendar@@@Z"
"?fromJson@QJsonDocument@@SA?AV1@AEBVQByteArray@@PEAUQJsonParseError@@@Z"
"?fromJsonArray@QCborArray@@SA?AV1@$$QEAVQJsonArray@@@Z"
"?fromJsonArray@QCborArray@@SA?AV1@AEBVQJsonArray@@@Z"
"?fromJsonObject@QCborMap@@SA?AV1@$$QEAVQJsonObject@@@Z"
"?fromJsonObject@QCborMap@@SA?AV1@AEBVQJsonObject@@@Z"
"?fromJsonValue@QCborValue@@SA?AV1@AEBVQJsonValue@@@Z"
"?fromJulianDay@QDate@@SA?AV1@_J@Z"
"?fromLatin1@QChar@@SA?AV1@D@Z"
"?fromLatin1@QString@@SA?AV1@PEBD_J@Z"
"?fromLatin1@QString@@SA?AV1@VQByteArrayView@@@Z"
"?fromLocal8Bit@QString@@SA?AV1@PEBD_J@Z"
"?fromLocal8Bit@QString@@SA?AV1@VQByteArrayView@@@Z"
"?fromLocalFile@QUrl@@SA?AV1@AEBVQString@@@Z"
"?fromMSecsSinceEpoch@QDateTime@@SA?AV1@_J@Z"
"?fromMSecsSinceEpoch@QDateTime@@SA?AV1@_JAEBVQTimeZone@@@Z"
"?fromMSecsSinceEpoch@QDateTime@@SA?AV1@_JW4TimeSpec@Qt@@H@Z"
"?fromMSecsSinceStartOfDay@QTime@@SA?AV1@H@Z"
"?fromMetaType@QVariant@@SA?AV1@VQMetaType@@PEBX@Z"
"?fromName@QCalendarBackend@@CAPEBV1@VQAnyStringView@@@Z"
"?fromName@QMetaType@@SA?AV1@VQByteArrayView@@@Z"
"?fromNativeSeparators@QDir@@SA?AVQString@@AEBV2@@Z"
"?fromPercentEncoding@QByteArray@@SA?AV1@AEBV1@D@Z"
"?fromPercentEncoding@QUrl@@SA?AVQString@@AEBVQByteArray@@@Z"
"?fromPolar@QLineF@@SA?AV1@NN@Z"
"?fromRawData@QByteArray@@SA?AV1@PEBD_J@Z"
"?fromRawData@QString@@SA?AV1@PEBVQChar@@_J@Z"
"?fromRelativeConstructorIndex@QMetaMethod@@CA?AV1@PEBUQMetaObject@@H@Z"
"?fromRelativeMethodIndex@QMetaMethod@@CA?AV1@PEBUQMetaObject@@H@Z"
"?fromRfc4122@QUuid@@SA?AV1@AEBVQByteArray@@@Z"
"?fromRfc4122@QUuid@@SA?AV1@VQByteArrayView@@@Z"
"?fromSecondsAheadOfUtc@QTimeZone@@SA?AV1@H@Z"
"?fromSecsSinceEpoch@QDateTime@@SA?AV1@_J@Z"
"?fromSecsSinceEpoch@QDateTime@@SA?AV1@_JAEBVQTimeZone@@@Z"
"?fromSecsSinceEpoch@QDateTime@@SA?AV1@_JW4TimeSpec@Qt@@H@Z"
"?fromSignalImpl@QMetaMethod@@CA?AV1@PEBUQMetaObject@@PEAPEAX@Z"
"?fromStdString@QByteArray@@SA?AV1@AEBV?$basic_string@DU?$char_traits@D@std@@V?$allocator@D@2@@std@@@Z"
"?fromStdString@QString@@SA?AV1@AEBV?$basic_string@DU?$char_traits@D@std@@V?$allocator@D@2@@std@@@Z"
"?fromStdTimePoint@QDateTime@@SA?AV1@V?$time_point@Usystem_clock@chrono@std@@V?$duration@_JU?$ratio@$00$0DOI@@std@@@23@@chrono@std@@@Z"
"?fromStdU16String@QString@@SA?AV1@AEBV?$basic_string@_SU?$char_traits@_S@std@@V?$allocator@_S@2@@std@@@Z"
"?fromStdU32String@QString@@SA?AV1@AEBV?$basic_string@_UU?$char_traits@_U@std@@V?$allocator@_U@2@@std@@@Z"
"?fromStdWString@QString@@SA?AV1@AEBV?$basic_string@_WU?$char_traits@_W@std@@V?$allocator@_W@2@@std@@@Z"
"?fromString@QDate@@SA?AV1@AEBVQString@@0H@Z"
"?fromString@QDate@@SA?AV1@AEBVQString@@0HVQCalendar@@@Z"
"?fromString@QDate@@SA?AV1@AEBVQString@@0VQCalendar@@@Z"
"?fromString@QDate@@SA?AV1@AEBVQString@@VQStringView@@H@Z"
"?fromString@QDate@@SA?AV1@AEBVQString@@VQStringView@@HVQCalendar@@@Z"
"?fromString@QDate@@SA?AV1@AEBVQString@@VQStringView@@VQCalendar@@@Z"
"?fromString@QDate@@SA?AV1@AEBVQString@@W4DateFormat@Qt@@@Z"
"?fromString@QDate@@SA?AV1@VQStringView@@0H@Z"
"?fromString@QDate@@SA?AV1@VQStringView@@0HVQCalendar@@@Z"
"?fromString@QDate@@SA?AV1@VQStringView@@0VQCalendar@@@Z"
"?fromString@QDate@@SA?AV1@VQStringView@@W4DateFormat@Qt@@@Z"
"?fromString@QDateTime@@SA?AV1@AEBVQString@@0H@Z"
"?fromString@QDateTime@@SA?AV1@AEBVQString@@0HVQCalendar@@@Z"
"?fromString@QDateTime@@SA?AV1@AEBVQString@@0VQCalendar@@@Z"
"?fromString@QDateTime@@SA?AV1@AEBVQString@@VQStringView@@H@Z"
"?fromString@QDateTime@@SA?AV1@AEBVQString@@VQStringView@@HVQCalendar@@@Z"
"?fromString@QDateTime@@SA?AV1@AEBVQString@@VQStringView@@VQCalendar@@@Z"
"?fromString@QDateTime@@SA?AV1@AEBVQString@@W4DateFormat@Qt@@@Z"
"?fromString@QDateTime@@SA?AV1@VQStringView@@0H@Z"
"?fromString@QDateTime@@SA?AV1@VQStringView@@0HVQCalendar@@@Z"
"?fromString@QDateTime@@SA?AV1@VQStringView@@0VQCalendar@@@Z"
"?fromString@QDateTime@@SA?AV1@VQStringView@@W4DateFormat@Qt@@@Z"
"?fromString@QDateTimeParser@@QEBA_NAEBVQString@@PEAVQDate@@PEAVQTime@@H@Z"
"?fromString@QDateTimeParser@@QEBA_NAEBVQString@@PEAVQDateTime@@H@Z"
"?fromString@QNativeIpcKey@@SA?AV1@AEBVQString@@@Z"
"?fromString@QTime@@SA?AV1@AEBVQString@@0@Z"
"?fromString@QTime@@SA?AV1@AEBVQString@@VQStringView@@@Z"
"?fromString@QTime@@SA?AV1@AEBVQString@@W4DateFormat@Qt@@@Z"
"?fromString@QTime@@SA?AV1@VQStringView@@0@Z"
"?fromString@QTime@@SA?AV1@VQStringView@@W4DateFormat@Qt@@@Z"
"?fromString@QUuid@@SA?AV1@VQAnyStringView@@@Z"
"?fromString@QUuid@@SA?AV1@VQLatin1String@@@Z"
"?fromString@QUuid@@SA?AV1@VQStringView@@@Z"
"?fromString@QVersionNumber@@SA?AV1@AEBVQString@@PEAH@Z"
"?fromString@QVersionNumber@@SA?AV1@VQAnyStringView@@PEA_J@Z"
"?fromString@QVersionNumber@@SA?AV1@VQLatin1String@@PEAH@Z"
"?fromString@QVersionNumber@@SA?AV1@VQStringView@@PEAH@Z"
"?fromStringList@QCborArray@@SA?AV1@AEBV?$QList@VQString@@@@@Z"
"?fromStringList@QJsonArray@@SA?AV1@AEBV?$QList@VQString@@@@@Z"
"?fromStringList@QUrl@@SA?AV?$QList@VQUrl@@@@AEBV?$QList@VQString@@@@W4ParsingMode@1@@Z"
"?fromUcs2@QChar@@SA?AV1@_S@Z"
"?fromUcs4@QChar@@SA@_U@Z"
"?fromUcs4@QString@@SA?AV1@PEBI_J@Z"
"?fromUcs4@QString@@SA?AV1@PEB_U_J@Z"
"?fromUserInput@QUrl@@SA?AV1@AEBVQString@@0V?$QFlags@W4UserInputResolutionOption@QUrl@@@@@Z"
"?fromUtf16@QString@@SA?AV1@PEBG_J@Z"
"?fromUtf16@QString@@SA?AV1@PEB_S_J@Z"
"?fromUtf8@QString@@SA?AV1@PEBD_J@Z"
"?fromUtf8@QString@@SA?AV1@VQByteArrayView@@@Z"
"?fromVariant@QCborValue@@SA?AV1@AEBVQVariant@@@Z"
"?fromVariant@QJsonDocument@@SA?AV1@AEBVQVariant@@@Z"
"?fromVariant@QJsonValue@@SA?AV1@AEBVQVariant@@@Z"
"?fromVariantHash@QCborMap@@SA?AV1@AEBV?$QHash@VQString@@VQVariant@@@@@Z"
"?fromVariantHash@QJsonObject@@SA?AV1@AEBV?$QHash@VQString@@VQVariant@@@@@Z"
"?fromVariantList@QCborArray@@SA?AV1@AEBV?$QList@VQVariant@@@@@Z"
"?fromVariantList@QJsonArray@@SA?AV1@AEBV?$QList@VQVariant@@@@@Z"
"?fromVariantMap@QCborMap@@SA?AV1@AEBV?$QMap@VQString@@VQVariant@@@@@Z"
"?fromVariantMap@QJsonObject@@SA?AV1@AEBV?$QMap@VQString@@VQVariant@@@@@Z"
"?fromWCharArray@QString@@SA?AV1@PEB_W_J@Z"
"?fromWildcard@QRegularExpression@@SA?AV1@VQStringView@@W4CaseSensitivity@Qt@@V?$QFlags@W4WildcardConversionOption@QRegularExpression@@@@@Z"
"?from_msecs@QTimer@@CA?AV?$duration@_JU?$ratio@$00$0DLJKMKAA@@std@@@chrono@std@@V?$duration@_JU?$ratio@$00$0DOI@@std@@@34@@Z"
"?front@QByteArray@@QEAAAEADXZ"
"?front@QByteArray@@QEBADXZ"
"?front@QByteArrayView@@QEBADXZ"
"?front@QString@@QEAAAEAVQChar@@XZ"
"?front@QString@@QEBA?AVQChar@@XZ"
"?generateByteOrderMark@QTextStream@@QEBA_NXZ"
"?genericIconName@QMimeType@@QEBA?AVQString@@XZ"
"?get@QAbstractAnimationPrivate@@SAPEAV1@PEAVQAbstractAnimation@@@Z"
"?get@QAbstractEventDispatcherPrivate@@SAPEAV1@PEAVQAbstractEventDispatcher@@@Z"
"?get@QAbstractEventDispatcherPrivate@@SAPEBV1@PEBVQAbstractEventDispatcher@@@Z"
"?get@QAbstractItemModelPrivate@@SAPEBV1@PEBVQAbstractItemModel@@@Z"
"?get@QObjectPrivate@@SAPEAV1@PEAVQObject@@@Z"
"?get@QObjectPrivate@@SAPEBV1@PEBVQObject@@@Z"
"?get@QPropertyBindingPrivate@@SAPEAV1@AEBVQUntypedPropertyBinding@@@Z"
"?get@QThreadStorageData@@QEBAPEAPEAXXZ"
"?getAmPmText@QDateTimeParser@@AEBA?AVQString@@W4AmPm@1@W4Case@1@@Z"
"?getAndRef@ExternalRefCountData@QtSharedPointer@@SAPEAU12@PEBVQObject@@@Z"
"?getBinding@PropertyAdaptorSlotObjectHelpers@QtPrivate@@YA?AVQUntypedPropertyBinding@@PEBVQUntypedPropertyData@@@Z"
"?getChar@QIODevice@@QEAA_NPEAD@Z"
"?getCoords@QRect@@QEBAXPEAH000@Z"
"?getCoords@QRectF@@QEBAXPEAN000@Z"
"?getCurrentStandardUtcOffset@QLocalTime@@YAHXZ"
"?getDate@QDate@@QEBAXPEAH00@Z"
"?getDigit@QDateTimeParser@@IEBAHAEBVQDateTime@@H@Z"
"?getInterpolator@QVariantAnimationPrivate@@SAP6A?AVQVariant@@PEBX0N@ZH@Z"
"?getLockInfo@QLockFile@@QEBA_NPEA_JPEAVQString@@1@Z"
"?getMaximum@QDateTimeParser@@MEBA?AVQDateTime@@AEBVQTimeZone@@@Z"
"?getMetaPropertyData@QMetaProperty@@CA?AUData@1@PEBUQMetaObject@@H@Z"
"?getMinimum@QDateTimeParser@@MEBA?AVQDateTime@@AEBVQTimeZone@@@Z"
"?getModelForwarder@QAbstractProxyModelPrivate@@QEBAPEAVQAbstractItemModel@@XZ"
"?getParameterTypes@QMetaMethod@@QEBAXPEAH@Z"
"?getPropertyAdaptorSlotObject@QObjectPrivate@@QEAAPEAVQPropertyAdaptorSlotObject@QtPrivate@@AEBVQMetaProperty@@@Z"
"?getRect@QRect@@QEBAXPEAH000@Z"
"?getRect@QRectF@@QEBAXPEAN000@Z"
"?getSizeEnsuringAlignment@QPropertyBindingPrivate@@SA_KXZ"
"?getUtcOffset@QLocalTime@@YAH_J@Z"
"?getter@PropertyAdaptorSlotObjectHelpers@QtPrivate@@YAXPEBVQUntypedPropertyData@@PEAX@Z"
"?globPatterns@QMimeType@@QEBA?AV?$QList@VQString@@@@XZ"
"?global@QRandomGenerator64@@SAPEAV1@XZ"
"?globalInstance@QThreadPool@@SAPEAV1@XZ"
"?globalMatch@QRegularExpression@@QEBA?AVQRegularExpressionMatchIterator@@AEBVQString@@_JW4MatchType@1@V?$QFlags@W4MatchOption@QRegularExpression@@@@@Z"
"?globalMatch@QRegularExpression@@QEBA?AVQRegularExpressionMatchIterator@@VQStringView@@_JW4MatchType@1@V?$QFlags@W4MatchOption@QRegularExpression@@@@@Z"
"?globalMatchView@QRegularExpression@@QEBA?AVQRegularExpressionMatchIterator@@VQStringView@@_JW4MatchType@1@V?$QFlags@W4MatchOption@QRegularExpression@@@@@Z"
"?globalSeed@QHashSeed@@SA?AU1@XZ"
"?graphemeBreakClass@QUnicodeTables@@YA?AW4GraphemeBreakClass@1@_U@Z"
"?gregorian@QCalendarBackend@@CAPEBV1@XZ"
"?group@QAbstractAnimation@@QEBAPEAVQAnimationGroup@@XZ"
"?group@QFileInfo@@QEBA?AVQString@@XZ"
"?group@QSettings@@QEBA?AVQString@@XZ"
"?groupId@QFileInfo@@QEBAIXZ"
"?groupSeparator@QLocale@@QEBA?AVQString@@XZ"
"?grownBy@QSize@@QEBA?AV1@VQMargins@@@Z"
"?grownBy@QSizeF@@QEBA?AV1@VQMarginsF@@@Z"
"?handle@QAbstractFileEngine@@UEBAHXZ"
"?handle@QFSFileEngine@@UEBAHXZ"
"?handle@QFileDevice@@QEBAHXZ"
"?handle@QWinEventNotifier@@QEBAPEAXXZ"
"?handle@QWinRegistryKey@@QEBAPEAUHKEY__@@XZ"
"?handleSourceDataChanges@QIdentityProxyModel@@QEBA_NXZ"
"?handleSourceLayoutChanges@QIdentityProxyModel@@QEBA_NXZ"
"?hasAlternativeName@QTimeZone@@QEBA_NVQByteArrayView@@@Z"
"?hasBidirectionalIterator@QMetaContainer@@QEBA_NXZ"
"?hasBinding@QPropertyBindingData@QtPrivate@@QEBA_NXZ"
"?hasCaptured@QRegularExpressionMatch@@QEBA_NAEBVQString@@@Z"
"?hasCaptured@QRegularExpressionMatch@@QEBA_NH@Z"
"?hasCaptured@QRegularExpressionMatch@@QEBA_NVQAnyStringView@@@Z"
"?hasCaptured@QRegularExpressionMatch@@QEBA_NVQStringView@@@Z"
"?hasChildren@QAbstractItemModel@@UEBA_NAEBVQModelIndex@@@Z"
"?hasChildren@QAbstractListModel@@EEBA_NAEBVQModelIndex@@@Z"
"?hasChildren@QAbstractProxyModel@@UEBA_NAEBVQModelIndex@@@Z"
"?hasChildren@QAbstractTableModel@@EEBA_NAEBVQModelIndex@@@Z"
"?hasChildren@QSortFilterProxyModel@@UEBA_NAEBVQModelIndex@@@Z"
"?hasColor@QMimeData@@QEBA_NXZ"
"?hasConstIterator@QMetaContainer@@QEBA_NXZ"
"?hasCustomVTable@QPropertyBindingPrivate@@QEBA_NXZ"
"?hasDaylightTime@QTimeZone@@QEBA_NXZ"
"?hasError@QPropertyBindingError@@QEBA_NXZ"
"?hasError@QXmlStreamReader@@QEBA_NXZ"
"?hasError@QXmlStreamWriter@@QEBA_NXZ"
"?hasException@ExceptionStore@QtPrivate@@QEBA_NXZ"
"?hasException@QFutureInterfaceBase@@QEBA_NXZ"
"?hasExpired@QDeadlineTimer@@QEBA_NXZ"
"?hasExpired@QElapsedTimer@@QEBA_N_J@Z"
"?hasFormat@QMimeData@@UEBA_NAEBVQString@@@Z"
"?hasForwardIterator@QMetaContainer@@QEBA_NXZ"
"?hasFragment@QUrl@@QEBA_NXZ"
"?hasHtml@QMimeData@@QEBA_NXZ"
"?hasImage@QMimeData@@QEBA_NXZ"
"?hasIndex@QAbstractItemModel@@QEBA_NHHAEBVQModelIndex@@@Z"
"?hasInputIterator@QMetaContainer@@QEBA_NXZ"
"?hasIterator@QMetaContainer@@QEBA_NXZ"
"?hasMatch@QRegularExpressionMatch@@QEBA_NXZ"
"?hasMirrored@QChar@@QEBA_NXZ"
"?hasMirrored@QChar@@SA_N_U@Z"
"?hasNext@QCborStreamReader@@QEBA_NXZ"
"?hasNext@QDirIterator@@QEBA_NXZ"
"?hasNext@QRegularExpressionMatchIterator@@QEBA_NXZ"
"?hasNextResult@ResultStoreBase@QtPrivate@@QEBA_NXZ"
"?hasNotifySignal@QMetaProperty@@QEBA_NXZ"
"?hasNotifySignal@QMetaPropertyBuilder@@QEBA_NXZ"
"?hasPartialMatch@QRegularExpressionMatch@@QEBA_NXZ"
"?hasQuery@QUrl@@QEBA_NXZ"
"?hasQueryItem@QUrlQuery@@QEBA_NAEBVQString@@@Z"
"?hasRandomAccessIterator@QMetaContainer@@QEBA_NXZ"
"?hasRegisteredConverterFunction@QMetaType@@SA_NV1@0@Z"
"?hasRegisteredConverterFunctionToIterableMetaAssociation@QtPrivate@@YA_NVQMetaType@@@Z"
"?hasRegisteredConverterFunctionToIterableMetaSequence@QtPrivate@@YA_NVQMetaType@@@Z"
"?hasRegisteredConverterFunctionToPairVariantInterface@QtPrivate@@YA_NVQMetaType@@@Z"
"?hasRegisteredDataStreamOperators@QMetaType@@QEBA_NXZ"
"?hasRegisteredDebugStreamOperator@QMetaType@@QEBA_NXZ"
"?hasRegisteredDebugStreamOperator@QMetaType@@SA_NH@Z"
"?hasRegisteredMutableViewFunction@QMetaType@@SA_NV1@0@Z"
"?hasRegisteredMutableViewFunctionToIterableMetaAssociation@QtPrivate@@YA_NVQMetaType@@@Z"
"?hasRegisteredMutableViewFunctionToIterableMetaSequence@QtPrivate@@YA_NVQMetaType@@@Z"
"?hasSelection@QItemSelectionModel@@QEBA_NXZ"
"?hasSize@QMetaContainer@@QEBA_NXZ"
"?hasStandaloneDeclaration@QXmlStreamReader@@QEBA_NXZ"
"?hasStdCppSet@QMetaProperty@@QEBA_NXZ"
"?hasStdCppSet@QMetaPropertyBuilder@@QEBA_NXZ"
"?hasText@QMimeData@@QEBA_NXZ"
"?hasTransitions@QTimeZone@@QEBA_NXZ"
"?hasUrls@QMimeData@@QEBA_NXZ"
"?hasYearZero@QCalendar@@QEBA_NXZ"
"?hasYearZero@QCalendarBackend@@UEBA_NXZ"
"?hash@QCryptographicHash@@SA?AVQByteArray@@AEBV2@W4Algorithm@1@@Z"
"?hash@QCryptographicHash@@SA?AVQByteArray@@VQByteArrayView@@W4Algorithm@1@@Z"
"?hash@QMessageAuthenticationCode@@SA?AVQByteArray@@AEBV2@0W4Algorithm@QCryptographicHash@@@Z"
"?hash@QMessageAuthenticationCode@@SA?AVQByteArray@@VQByteArrayView@@0W4Algorithm@QCryptographicHash@@@Z"
"?hashInto@QCryptographicHash@@SA?AVQByteArrayView@@V?$QSpan@D$0?0@@V2@W4Algorithm@1@@Z"
"?hashInto@QCryptographicHash@@SA?AVQByteArrayView@@V?$QSpan@D$0?0@@V?$QSpan@$$CBVQByteArrayView@@$0?0@@W4Algorithm@1@@Z"
"?hashInto@QCryptographicHash@@SA?AVQByteArrayView@@V?$QSpan@E$0?0@@V2@W4Algorithm@1@@Z"
"?hashInto@QCryptographicHash@@SA?AVQByteArrayView@@V?$QSpan@E$0?0@@V?$QSpan@$$CBVQByteArrayView@@$0?0@@W4Algorithm@1@@Z"
"?hashInto@QCryptographicHash@@SA?AVQByteArrayView@@V?$QSpan@W4byte@std@@$0?0@@V2@W4Algorithm@1@@Z"
"?hashInto@QCryptographicHash@@SA?AVQByteArrayView@@V?$QSpan@W4byte@std@@$0?0@@V?$QSpan@$$CBVQByteArrayView@@$0?0@@W4Algorithm@1@@Z"
"?hashInto@QMessageAuthenticationCode@@SA?AVQByteArrayView@@V?$QSpan@D$0?0@@V2@1W4Algorithm@QCryptographicHash@@@Z"
"?hashInto@QMessageAuthenticationCode@@SA?AVQByteArrayView@@V?$QSpan@D$0?0@@V?$QSpan@$$CBVQByteArrayView@@$0?0@@V2@W4Algorithm@QCryptographicHash@@@Z"
"?hashInto@QMessageAuthenticationCode@@SA?AVQByteArrayView@@V?$QSpan@E$0?0@@V2@1W4Algorithm@QCryptographicHash@@@Z"
"?hashInto@QMessageAuthenticationCode@@SA?AVQByteArrayView@@V?$QSpan@E$0?0@@V?$QSpan@$$CBVQByteArrayView@@$0?0@@V2@W4Algorithm@QCryptographicHash@@@Z"
"?hashInto@QMessageAuthenticationCode@@SA?AVQByteArrayView@@V?$QSpan@W4byte@std@@$0?0@@V2@1W4Algorithm@QCryptographicHash@@@Z"
"?hashInto@QMessageAuthenticationCode@@SA?AVQByteArrayView@@V?$QSpan@W4byte@std@@$0?0@@V?$QSpan@$$CBVQByteArrayView@@$0?0@@V2@W4Algorithm@QCryptographicHash@@@Z"
"?hashLength@QCryptographicHash@@SAHW4Algorithm@1@@Z"
"?headerData@QAbstractItemModel@@UEBA?AVQVariant@@HW4Orientation@Qt@@H@Z"
"?headerData@QAbstractProxyModel@@UEBA?AVQVariant@@HW4Orientation@Qt@@H@Z"
"?headerData@QConcatenateTablesProxyModel@@UEBA?AVQVariant@@HW4Orientation@Qt@@H@Z"
"?headerData@QIdentityProxyModel@@UEBA?AVQVariant@@HW4Orientation@Qt@@H@Z"
"?headerData@QSortFilterProxyModel@@UEBA?AVQVariant@@HW4Orientation@Qt@@H@Z"
"?headerData@QTransposeProxyModel@@UEBA?AVQVariant@@HW4Orientation@Qt@@H@Z"
"?headerDataChanged@QAbstractItemModel@@QEAAXW4Orientation@Qt@@HH@Z"
"?height@QItemSelectionRange@@QEBAHXZ"
"?height@QRect@@QEBAHXZ"
"?height@QRectF@@QEBANXZ"
"?height@QSize@@QEBAHXZ"
"?height@QSizeF@@QEBANXZ"
"?helpText@QCommandLineParser@@QEBA?AVQString@@XZ"
"?hex@Qt@@YAAEAVQTextStream@@AEAV2@@Z"
"?highSurrogate@QChar@@SA_S_U@Z"
"?home@QDir@@SA?AV1@XZ"
"?homePath@QDir@@SA?AVQString@@XZ"
"?homePath@QFSFileEngine@@SA?AVQString@@XZ"
"?host@QUrl@@QEBA?AVQString@@V?$QFlags@W4ComponentFormattingOption@QUrl@@@@@Z"
"?hour@QTime@@QEBAHXZ"
"?html@QMimeData@@QEBA?AVQString@@XZ"
"?ianaIdToWindowsId@QTimeZone@@SA?AVQByteArray@@AEBV2@@Z"
"?iconName@QMimeType@@QEBA?AVQString@@XZ"
"?id@QAbstractFileEngine@@UEBA?AVQByteArray@@XZ"
"?id@QBasicTimer@@QEBA?AW4TimerId@Qt@@XZ"
"?id@QChronoTimer@@QEBA?AW4TimerId@Qt@@XZ"
"?id@QFSFileEngine@@UEBA?AVQByteArray@@XZ"
"?id@QMetaCallEvent@@QEBAHXZ"
"?id@QMetaType@@QEBAHH@Z"
"?id@QMetaType@@QEBAHXZ"
"?id@QTimeZone@@QEBA?AVQByteArray@@XZ"
"?id@QTimer@@QEBA?AW4TimerId@Qt@@XZ"
"?id@QTimerEvent@@QEBA?AW4TimerId@Qt@@XZ"
"?idHelper@QMetaType@@AEBAHXZ"
"?idealThreadCount@QThread@@SAHXZ"
"?idnWhitelist@QUrl@@SA?AV?$QList@VQString@@@@XZ"
"?idnaMapping@QUnicodeTables@@YA?AVQStringView@@_U@Z"
"?idnaStatus@QUnicodeTables@@YA?AW4IdnaStatus@1@_U@Z"
"?iface@QMetaAssociation@@QEBAPEBVQMetaAssociationInterface@QtMetaContainerPrivate@@XZ"
"?iface@QMetaSequence@@QEBAPEBVQMetaSequenceInterface@QtMetaContainerPrivate@@XZ"
"?iface@QMetaType@@QEAAPEBVQMetaTypeInterface@QtPrivate@@XZ"
"?iface@QMetaType@@QEBAPEBVQMetaTypeInterface@QtPrivate@@XZ"
"?ignore@QEvent@@QEAAXXZ"
"?ignorePunctuation@QCollator@@QEBA_NXZ"
"?imageData@QMimeData@@QEBA?AVQVariant@@XZ"
"?index@QAbstractListModel@@UEBA?AVQModelIndex@@HHAEBV2@@Z"
"?index@QAbstractTableModel@@UEBA?AVQModelIndex@@HHAEBV2@@Z"
"?index@QConcatenateTablesProxyModel@@UEBA?AVQModelIndex@@HHAEBV2@@Z"
"?index@QIdentityProxyModel@@UEBA?AVQModelIndex@@HHAEBV2@@Z"
"?index@QMetaEnumBuilder@@QEBAHXZ"
"?index@QMetaMethodBuilder@@QEBAHXZ"
"?index@QMetaPropertyBuilder@@QEBAHXZ"
"?index@QSortFilterProxyModel@@UEBA?AVQModelIndex@@HHAEBV2@@Z"
"?index@QTransposeProxyModel@@UEBA?AVQModelIndex@@HHAEBV2@@Z"
"?indexIn@QByteArrayMatcher@@QEBA_JAEBVQByteArray@@_J@Z"
"?indexIn@QByteArrayMatcher@@QEBA_JPEBD_J1@Z"
"?indexIn@QByteArrayMatcher@@QEBA_JVQByteArrayView@@_J@Z"
"?indexIn@QLatin1StringMatcher@@QEBA_JVQLatin1String@@_J@Z"
"?indexIn@QLatin1StringMatcher@@QEBA_JVQStringView@@_J@Z"
"?indexIn@QStringMatcher@@QEBA_JAEBVQString@@_J@Z"
"?indexIn@QStringMatcher@@QEBA_JPEBVQChar@@_J1@Z"
"?indexIn@QStringMatcher@@QEBA_JVQStringView@@_J@Z"
"?indexOf@QByteArray@@QEBA_JD_J@Z"
"?indexOf@QByteArray@@QEBA_JVQByteArrayView@@_J@Z"
"?indexOf@QByteArrayView@@QEBA_JD_J@Z"
"?indexOf@QByteArrayView@@QEBA_JV1@_J@Z"
"?indexOf@QFactoryLoader@@QEBAHAEBVQString@@@Z"
"?indexOf@QRingBuffer@@QEBA_JD_J0@Z"
"?indexOf@QString@@QEBA_JAEBV1@_JW4CaseSensitivity@Qt@@@Z"
"?indexOf@QString@@QEBA_JAEBVQRegularExpression@@_JPEAVQRegularExpressionMatch@@@Z"
"?indexOf@QString@@QEBA_JVQChar@@_JW4CaseSensitivity@Qt@@@Z"
"?indexOf@QString@@QEBA_JVQLatin1String@@_JW4CaseSensitivity@Qt@@@Z"
"?indexOf@QString@@QEBA_JVQStringView@@_JW4CaseSensitivity@Qt@@@Z"
"?indexOf@QtPrivate@@YA_JVQStringView@@AEBVQRegularExpression@@_JPEAVQRegularExpressionMatch@@@Z"
"?indexOfAnimation@QAnimationGroup@@QEBAHPEAVQAbstractAnimation@@@Z"
"?indexOfClassInfo@QMetaObject@@QEBAHPEBD@Z"
"?indexOfClassInfo@QMetaObjectBuilder@@QEAAHAEBVQByteArray@@@Z"
"?indexOfConstructor@QMetaObject@@QEBAHPEBD@Z"
"?indexOfConstructor@QMetaObjectBuilder@@QEAAHAEBVQByteArray@@@Z"
"?indexOfEnumerator@QMetaObject@@QEBAHPEBD@Z"
"?indexOfEnumerator@QMetaObjectBuilder@@QEAAHAEBVQByteArray@@@Z"
"?indexOfIn@QStaticByteArrayMatcherBase@@IEBAHPEBDI0HH@Z"
"?indexOfIn@QStaticByteArrayMatcherBase@@IEBA_JPEBD_K0_J2@Z"
"?indexOfMethod@QMetaObject@@QEBAHPEBD@Z"
"?indexOfMethod@QMetaObjectBuilder@@QEAAHAEBVQByteArray@@@Z"
"?indexOfProperty@QMetaObject@@QEBAHPEBD@Z"
"?indexOfProperty@QMetaObjectBuilder@@QEAAHAEBVQByteArray@@@Z"
"?indexOfSignal@QMetaObject@@QEBAHPEBD@Z"
"?indexOfSignal@QMetaObjectBuilder@@QEAAHAEBVQByteArray@@@Z"
"?indexOfSlot@QMetaObject@@QEBAHPEBD@Z"
"?indexOfSlot@QMetaObjectBuilder@@QEAAHAEBVQByteArray@@@Z"
"?indexValid@QAbstractItemModelPrivate@@QEBA_NAEBVQModelIndex@@@Z"
"?indexes@QItemSelection@@QEBA?AV?$QList@VQModelIndex@@@@XZ"
"?indexes@QItemSelectionRange@@QEBA?AV?$QList@VQModelIndex@@@@XZ"
"?info@QMessageLogger@@QEBA?AVQDebug@@AEBVQLoggingCategory@@@Z"
"?info@QMessageLogger@@QEBA?AVQDebug@@P6AAEBVQLoggingCategory@@XZ@Z"
"?info@QMessageLogger@@QEBA?AVQDebug@@XZ"
"?info@QMessageLogger@@QEBAXAEBVQLoggingCategory@@PEBDZZ"
"?info@QMessageLogger@@QEBAXP6AAEBVQLoggingCategory@@XZPEBDZZ"
"?info@QMessageLogger@@QEBAXPEBDZZ"
"?inherits@QMetaObject@@QEBA_NPEBU1@@Z"
"?inherits@QMimeType@@QEBA_NAEBVQString@@@Z"
"?inherits@QObject@@QEBA_NPEBD@Z"
"?inheritsFromParent@QProcessEnvironment@@QEBA_NXZ"
"?init@QCoreApplicationPrivate@@QEAAXXZ"
"?initBindingStatusThreadId@QtPrivate@@YAXXZ"
"?initCharAttributes@QUnicodeTools@@YAXVQStringView@@PEBUScriptItem@1@_JPEAUQCharAttributes@@V?$QFlags@W4CharAttributeOption@QUnicodeTools@@@@@Z"
"?initConsole@QCoreApplicationPrivate@@QEAAXXZ"
"?initIterator@?$QBaseIterator@VQMetaAssociation@@@@IEAAXPEBX@Z"
"?initIterator@?$QBaseIterator@VQMetaSequence@@@@IEAAXPEBX@Z"
"?initLocale@QCoreApplicationPrivate@@SAXXZ"
"?initRecursive@QReadWriteLock@@CAPEAVQReadWriteLockPrivate@@XZ"
"?initScripts@QUnicodeTools@@YAXVQStringView@@PEAV?$QVarLengthArray@UScriptItem@QUnicodeTools@@$0EA@@@@Z"
"?inputChannelMode@QProcess@@QEBA?AW4InputChannelMode@1@XZ"
"?insert@QByteArray@@QEAAAEAV1@_J0D@Z"
"?insert@QByteArray@@QEAAAEAV1@_JAEBV1@@Z"
"?insert@QByteArray@@QEAAAEAV1@_JD@Z"
"?insert@QByteArray@@QEAAAEAV1@_JPEBD0@Z"
"?insert@QByteArray@@QEAAAEAV1@_JPEBD@Z"
"?insert@QByteArray@@QEAAAEAV1@_JVQByteArrayView@@@Z"
"?insert@QCborArray@@QEAA?AVIterator@1@V21@AEBVQCborValue@@@Z"
"?insert@QCborArray@@QEAA?AVIterator@1@VConstIterator@1@AEBVQCborValue@@@Z"
"?insert@QCborArray@@QEAAX_J$$QEAVQCborValue@@@Z"
"?insert@QCborArray@@QEAAX_JAEBVQCborValue@@@Z"
"?insert@QCborMap@@QEAA?AVIterator@1@AEBVQCborValue@@0@Z"
"?insert@QCborMap@@QEAA?AVIterator@1@AEBVQString@@AEBVQCborValue@@@Z"
"?insert@QCborMap@@QEAA?AVIterator@1@U?$pair@VQCborValue@@V1@@std@@@Z"
"?insert@QCborMap@@QEAA?AVIterator@1@VQLatin1String@@AEBVQCborValue@@@Z"
"?insert@QCborMap@@QEAA?AVIterator@1@_JAEBVQCborValue@@@Z"
"?insert@QJsonArray@@QEAA?AViterator@1@V21@AEBVQJsonValue@@@Z"
"?insert@QJsonArray@@QEAAX_JAEBVQJsonValue@@@Z"
"?insert@QJsonObject@@QEAA?AViterator@1@AEBVQString@@AEBVQJsonValue@@@Z"
"?insert@QJsonObject@@QEAA?AViterator@1@VQLatin1String@@AEBVQJsonValue@@@Z"
"?insert@QJsonObject@@QEAA?AViterator@1@VQStringView@@AEBVQJsonValue@@@Z"
"?insert@QProcessEnvironment@@QEAAXAEBV1@@Z"
"?insert@QProcessEnvironment@@QEAAXAEBVQString@@0@Z"
"?insert@QString@@QEAAAEAV1@_JAEBV1@@Z"
"?insert@QString@@QEAAAEAV1@_JAEBVQByteArray@@@Z"
"?insert@QString@@QEAAAEAV1@_JPEBD@Z"
"?insert@QString@@QEAAAEAV1@_JPEBVQChar@@0@Z"
"?insert@QString@@QEAAAEAV1@_JV?$QBasicUtf8StringView@$0A@@@@Z"
"?insert@QString@@QEAAAEAV1@_JVQChar@@@Z"
"?insert@QString@@QEAAAEAV1@_JVQLatin1String@@@Z"
"?insert@QString@@QEAAAEAV1@_JVQStringView@@@Z"
"?insertAnimation@QAnimationGroup@@QEAAXHPEAVQAbstractAnimation@@@Z"
"?insertColumn@QAbstractItemModel@@QEAA_NHAEBVQModelIndex@@@Z"
"?insertColumns@QAbstractItemModel@@UEAA_NHHAEBVQModelIndex@@@Z"
"?insertColumns@QIdentityProxyModel@@UEAA_NHHAEBVQModelIndex@@@Z"
"?insertColumns@QSortFilterProxyModel@@UEAA_NHHAEBVQModelIndex@@@Z"
"?insertColumns@QTransposeProxyModel@@UEAA_NHHAEBVQModelIndex@@@Z"
"?insertKey@QAssociativeIterable@@QEAAXAEBVQVariant@@@Z"
"?insertKey@QMetaAssociation@@QEBAXPEAXPEBX@Z"
"?insertPause@QSequentialAnimationGroup@@QEAAPEAVQPauseAnimation@@HH@Z"
"?insertResultItem@ResultStoreBase@QtPrivate@@IEAAHHAEAVResultItem@2@@Z"
"?insertResultItemIfValid@ResultStoreBase@QtPrivate@@IEAAXHAEAVResultItem@2@@Z"
"?insertRow@QAbstractItemModel@@QEAA_NHAEBVQModelIndex@@@Z"
"?insertRows@QAbstractItemModel@@UEAA_NHHAEBVQModelIndex@@@Z"
"?insertRows@QIdentityProxyModel@@UEAA_NHHAEBVQModelIndex@@@Z"
"?insertRows@QSortFilterProxyModel@@UEAA_NHHAEBVQModelIndex@@@Z"
"?insertRows@QStringListModel@@UEAA_NHHAEBVQModelIndex@@@Z"
"?insertRows@QTransposeProxyModel@@UEAA_NHHAEBVQModelIndex@@@Z"
"?insertValueAtIterator@QMetaSequence@@QEBAXPEAXPEBX1@Z"
"?install@QAnimationDriver@@QEAAXXZ"
"?installAnimationDriver@QUnifiedTimer@@QEAAXPEAVQAnimationDriver@@@Z"
"?installEventFilter@QObject@@QEAAXPEAV1@@Z"
"?installFilter@QLoggingCategory@@SAP6AXPEAV1@@ZP6AX0@Z@Z"
"?installNativeEventFilter@QAbstractEventDispatcher@@QEAAXPEAVQAbstractNativeEventFilter@@@Z"
"?installNativeEventFilter@QCoreApplication@@QEAAXPEAVQAbstractNativeEventFilter@@@Z"
"?installTranslator@QCoreApplication@@SA_NPEAVQTranslator@@@Z"
"?instance@QAbstractEventDispatcher@@SAPEAV1@PEAVQThread@@@Z"
"?instance@QCoreApplication@@SAPEAV1@XZ"
"?instance@QFactoryLoader@@QEBAPEAVQObject@@H@Z"
"?instance@QPluginLoader@@QEAAPEAVQObject@@XZ"
"?instance@QUnifiedTimer@@SAPEAV1@XZ"
"?instance@QUnifiedTimer@@SAPEAV1@_N@Z"
"?integerBase@QTextStream@@QEBAHXZ"
"?internalHwnd@QEventDispatcherWin32@@QEAAPEAUHWND__@@XZ"
"?internalId@QPersistentModelIndex@@QEBA_KXZ"
"?internalPointer@QPersistentModelIndex@@QEBAPEAXXZ"
"?internalSafetyCheckAdd@QtSharedPointer@@YAXPEBXPEDX@Z"
"?internalSafetyCheckRemove@QtSharedPointer@@YAXPEBX@Z"
"?interpolated@QVariantAnimation@@MEBA?AVQVariant@@AEBV2@0N@Z"
"?interrupt@QEventDispatcherWin32@@UEAAXXZ"
"?intersected@QItemSelectionRange@@QEBA?AV1@AEBV1@@Z"
"?intersected@QRect@@QEBA?AV1@AEBV1@@Z"
"?intersected@QRectF@@QEBA?AV1@AEBV1@@Z"
"?intersects@QItemSelectionRange@@QEBA_NAEBV1@@Z"
"?intersects@QLineF@@QEBA?AW4IntersectionType@1@AEBV1@PEAVQPointF@@@Z"
"?intersects@QRect@@QEBA_NAEBV1@@Z"
"?intersects@QRectF@@QEBA_NAEBV1@@Z"
"?interval@QChronoTimer@@QEBA?AV?$duration@_JU?$ratio@$00$0DLJKMKAA@@std@@@chrono@std@@XZ"
"?interval@QTimer@@QEBAHXZ"
"?intervalAsDuration@QTimer@@QEBA?AV?$duration@_JU?$ratio@$00$0DOI@@std@@@chrono@std@@XZ"
"?invalidate@QElapsedTimer@@QEAAXXZ"
"?invalidate@QSortFilterProxyModel@@QEAAXXZ"
"?invalidateColumnsFilter@QSortFilterProxyModel@@IEAAXXZ"
"?invalidateFilter@QSortFilterProxyModel@@IEAAXXZ"
"?invalidatePersistentIndex@QAbstractItemModelPrivate@@QEAAXAEBVQModelIndex@@@Z"
"?invalidatePersistentIndexes@QAbstractItemModelPrivate@@QEAAXXZ"
"?invalidateRowsFilter@QSortFilterProxyModel@@IEAAXXZ"
"?inverted_inplace@QBitArray@@AEHAA?AV1@XZ"
"?invoke@QMetaMethod@@QEBA_NPEAVQObject@@VQGenericArgument@@111111111@Z"
"?invoke@QMetaMethod@@QEBA_NPEAVQObject@@VQGenericReturnArgument@@VQGenericArgument@@222222222@Z"
"?invoke@QMetaMethod@@QEBA_NPEAVQObject@@W4ConnectionType@Qt@@VQGenericArgument@@222222222@Z"
"?invoke@QMetaMethod@@QEBA_NPEAVQObject@@W4ConnectionType@Qt@@VQGenericReturnArgument@@VQGenericArgument@@333333333@Z"
"?invokeImpl@QMetaMethod@@CA_NV1@PEAXW4ConnectionType@Qt@@_JPEBQEBXPEBQEBDPEBQEBVQMetaTypeInterface@QtPrivate@@@Z"
"?invokeImpl@QMetaMethodInvoker@@SA?AW4InvokeFailReason@1@VQMetaMethod@@PEAXW4ConnectionType@Qt@@_JPEBQEBXPEBQEBDPEBQEBVQMetaTypeInterface@QtPrivate@@@Z"
"?invokeMethod@QMetaObject@@SA_NPEAVQObject@@PEBDVQGenericArgument@@222222222@Z"
"?invokeMethod@QMetaObject@@SA_NPEAVQObject@@PEBDVQGenericReturnArgument@@VQGenericArgument@@333333333@Z"
"?invokeMethod@QMetaObject@@SA_NPEAVQObject@@PEBDW4ConnectionType@Qt@@VQGenericArgument@@333333333@Z"
"?invokeMethod@QMetaObject@@SA_NPEAVQObject@@PEBDW4ConnectionType@Qt@@VQGenericReturnArgument@@VQGenericArgument@@444444444@Z"
"?invokeMethodImpl@QMetaObject@@CA_NPEAVQObject@@PEAVQSlotObjectBase@QtPrivate@@W4ConnectionType@Qt@@PEAX@Z"
"?invokeMethodImpl@QMetaObject@@CA_NPEAVQObject@@PEAVQSlotObjectBase@QtPrivate@@W4ConnectionType@Qt@@_JPEBQEBXPEBQEBDPEBQEBVQMetaTypeInterface@4@@Z"
"?invokeMethodImpl@QMetaObject@@CA_NPEAVQObject@@PEBDW4ConnectionType@Qt@@_JPEBQEBXPEBQEBDPEBQEBVQMetaTypeInterface@QtPrivate@@@Z"
"?invokeOnGadget@QMetaMethod@@QEBA_NPEAXVQGenericArgument@@111111111@Z"
"?invokeOnGadget@QMetaMethod@@QEBA_NPEAXVQGenericReturnArgument@@VQGenericArgument@@222222222@Z"
"?isAbsolute@QDir@@QEBA_NXZ"
"?isAbsolute@QFileInfo@@QEBA_NXZ"
"?isAbsolutePath@QDir@@SA_NAEBVQString@@@Z"
"?isAccepted@QEvent@@QEBA_NXZ"
"?isActive@QBasicTimer@@QEBA_NXZ"
"?isActive@QChronoTimer@@QEBA_NXZ"
"?isActive@QTimer@@QEBA_NXZ"
"?isAlias@QFileInfo@@QEBA_NXZ"
"?isAlias@QMetaProperty@@QEBA_NXZ"
"?isAlias@QMetaPropertyBuilder@@QEBA_NXZ"
"?isAlive@QCoreApplicationPrivate@@SA_NXZ"
"?isAnyBindingEvaluating@QtPrivate@@YA_NXZ"
"?isAnyOfType@QOperatingSystemVersion@@QEBA_NV?$initializer_list@W4OSType@QOperatingSystemVersion@@@std@@@Z"
"?isAnyOfType@QOperatingSystemVersionBase@@SA_NV?$initializer_list@W4OSType@QOperatingSystemVersionBase@@@std@@W4OSType@1@@Z"
"?isArray@QCborStreamReader@@QEBA_NXZ"
"?isArray@QCborValue@@QEBA_NXZ"
"?isArray@QCborValueRef@@QEBA_NXZ"
"?isArray@QJsonDocument@@QEBA_NXZ"
"?isArray@QJsonValue@@QEBA_NXZ"
"?isArray@QJsonValueRef@@QEBA_NXZ"
"?isAscii@QtPrivate@@YA_NVQLatin1String@@@Z"
"?isAscii@QtPrivate@@YA_NVQStringView@@@Z"
"?isAtBoundary@QTextBoundaryFinder@@QEBA_NXZ"
"?isAtomicSyncRequired@QSettings@@QEBA_NXZ"
"?isAttached@QSharedMemory@@QEBA_NXZ"
"?isBaseChar@QXmlUtils@@CA_NVQChar@@@Z"
"?isBindable@QMetaProperty@@QEBA_NXZ"
"?isBindable@QMetaPropertyBuilder@@QEBA_NXZ"
"?isBool@QCborStreamReader@@QEBA_NXZ"
"?isBool@QCborValue@@QEBA_NXZ"
"?isBool@QCborValueRef@@QEBA_NXZ"
"?isBool@QJsonValue@@QEBA_NXZ"
"?isBool@QJsonValueRef@@QEBA_NXZ"
"?isBufferEmpty@QIODevicePrivate@@QEBA_NXZ"
"?isBuiltinType@QtPrivate@@YA_NAEBVQByteArray@@@Z"
"?isBundle@QFileInfo@@QEBA_NXZ"
"?isByteArray@QCborStreamReader@@QEBA_NXZ"
"?isByteArray@QCborValue@@QEBA_NXZ"
"?isByteArray@QCborValueRef@@QEBA_NXZ"
"?isCDATA@QXmlStreamReader@@QEBA_NXZ"
"?isCanceled@QFutureInterfaceBase@@QEBA_NXZ"
"?isCanceled@QFutureWatcherBase@@QEBA_NXZ"
"?isChainCanceled@QFutureInterfaceBase@@QEBA_NXZ"
"?isChar@QXmlUtils@@SA_N_U@Z"
"?isCharacters@QXmlStreamReader@@QEBA_NXZ"
"?isColumnSelected@QItemSelectionModel@@QEBA_NHAEBVQModelIndex@@@Z"
"?isCombiningChar@QXmlUtils@@CA_NVQChar@@@Z"
"?isComment@QXmlStreamReader@@QEBA_NXZ"
"?isConnected_helper@Connection@QMetaObject@@AEBA_NXZ"
"?isConst@QMetaMethod@@QEBA_NXZ"
"?isConst@QMetaMethodBuilder@@QEBAHXZ"
"?isConstant@QMetaProperty@@QEBA_NXZ"
"?isConstant@QMetaPropertyBuilder@@QEBA_NXZ"
"?isContainer@QCborStreamReader@@QEBA_NXZ"
"?isContainer@QCborValue@@QEBA_NXZ"
"?isContainer@QCborValueRef@@QEBA_NXZ"
"?isCopyConstructible@QMetaType@@CA_NPEBVQMetaTypeInterface@QtPrivate@@@Z"
"?isCopyConstructible@QMetaType@@QEBA_NXZ"
"?isCriticalEnabled@QLoggingCategory@@QEBA_NXZ"
"?isCurrentThread@QThread@@QEBA_NXZ"
"?isDTD@QXmlStreamReader@@QEBA_NXZ"
"?isDateTime@QCborValue@@QEBA_NXZ"
"?isDateTime@QCborValueRef@@QEBA_NXZ"
"?isDateValid@QCalendar@@QEBA_NHHH@Z"
"?isDateValid@QCalendarBackend@@UEBA_NHHH@Z"
"?isDaylightTime@QDateTime@@QEBA_NXZ"
"?isDaylightTime@QTimeZone@@QEBA_NAEBVQDateTime@@@Z"
"?isDebugBuild@QLibraryInfo@@SA_NXZ"
"?isDebugEnabled@QLoggingCategory@@QEBA_NXZ"
"?isDeclarativeSignalConnected@QObjectPrivate@@QEBA_NI@Z"
"?isDefault@QMimeType@@QEBA_NXZ"
"?isDefault@QXmlStreamAttribute@@QEBA_NXZ"
"?isDefaultConstructible@QMetaType@@CA_NPEBVQMetaTypeInterface@QtPrivate@@@Z"
"?isDefaultConstructible@QMetaType@@QEBA_NXZ"
"?isDesignable@QMetaProperty@@QEBA_NXZ"
"?isDesignable@QMetaPropertyBuilder@@QEBA_NXZ"
"?isDestructible@QMetaType@@CA_NPEBVQMetaTypeInterface@QtPrivate@@@Z"
"?isDestructible@QMetaType@@QEBA_NXZ"
"?isDetached@QBitArray@@QEBA_NXZ"
"?isDetached@QByteArray@@QEBA_NXZ"
"?isDetached@QString@@QEBA_NXZ"
"?isDetached@QUrl@@QEBA_NXZ"
"?isDetached@QUrlQuery@@QEBA_NXZ"
"?isDetached@QVariant@@QEBA_NXZ"
"?isDeviceTransactionStarted@QDataStream@@QEBA_NXZ"
"?isDigit@QChar@@QEBA_NXZ"
"?isDigit@QChar@@SA_N_U@Z"
"?isDigit@QXmlUtils@@CA_NVQChar@@@Z"
"?isDir@DirEntry@QDirListing@@QEBA_NXZ"
"?isDir@QFileInfo@@QEBA_NXZ"
"?isDir@QResource@@IEBA_NXZ"
"?isDouble@QCborStreamReader@@QEBA_NXZ"
"?isDouble@QCborValue@@QEBA_NXZ"
"?isDouble@QCborValueRef@@QEBA_NXZ"
"?isDouble@QJsonValue@@QEBA_NXZ"
"?isDouble@QJsonValueRef@@QEBA_NXZ"
"?isEmpty@QBindingStorage@@QEAA_NXZ"
"?isEmpty@QBitArray@@QEBA_NXZ"
"?isEmpty@QByteArray@@QEBA_NXZ"
"?isEmpty@QByteArrayView@@QEBA_NXZ"
"?isEmpty@QCborArray@@QEBA_NXZ"
"?isEmpty@QCborMap@@QEBA_NXZ"
"?isEmpty@QDir@@QEBA_NV?$QFlags@W4Filter@QDir@@@@@Z"
"?isEmpty@QItemSelectionRange@@QEBA_NXZ"
"?isEmpty@QJsonArray@@QEBA_NXZ"
"?isEmpty@QJsonDocument@@QEBA_NXZ"
"?isEmpty@QJsonObject@@QEBA_NXZ"
"?isEmpty@QObjectCleanupHandler@@QEBA_NXZ"
"?isEmpty@QProcessEnvironment@@QEBA_NXZ"
"?isEmpty@QRect@@QEBA_NXZ"
"?isEmpty@QRectF@@QEBA_NXZ"
"?isEmpty@QSize@@QEBA_NXZ"
"?isEmpty@QSizeF@@QEBA_NXZ"
"?isEmpty@QString@@QEBA_NXZ"
"?isEmpty@QTranslator@@UEBA_NXZ"
"?isEmpty@QUrl@@QEBA_NXZ"
"?isEmpty@QUrlQuery@@QEBA_NXZ"
"?isEnabled@QLoggingCategory@@QEBA_NW4QtMsgType@@@Z"
"?isEnabled@QSocketNotifier@@QEBA_NXZ"
"?isEnabled@QWinEventNotifier@@QEBA_NXZ"
"?isEncName@QXmlUtils@@SA_NVQStringView@@@Z"
"?isEndDocument@QXmlStreamReader@@QEBA_NXZ"
"?isEndElement@QXmlStreamReader@@QEBA_NXZ"
"?isEntityReference@QXmlStreamReader@@QEBA_NXZ"
"?isEnumOrFlag@QMetaPropertyBuilder@@QEBA_NXZ"
"?isEnumType@QMetaProperty@@QEBA_NXZ"
"?isEqualityComparable@QMetaType@@QEBA_NXZ"
"?isExecutable@DirEntry@QDirListing@@QEBA_NXZ"
"?isExecutable@QFileInfo@@QEBA_NXZ"
"?isExtender@QXmlUtils@@CA_NVQChar@@@Z"
"?isFalse@QCborStreamReader@@QEBA_NXZ"
"?isFalse@QCborValue@@QEBA_NXZ"
"?isFalse@QCborValueRef@@QEBA_NXZ"
"?isFile@DirEntry@QDirListing@@QEBA_NXZ"
"?isFile@QFileInfo@@QEBA_NXZ"
"?isFile@QResource@@IEBA_NXZ"
"?isFinal@QMetaProperty@@QEBA_NXZ"
"?isFinal@QMetaPropertyBuilder@@QEBA_NXZ"
"?isFinished@QFutureInterfaceBase@@QEBA_NXZ"
"?isFinished@QFutureWatcherBase@@QEBA_NXZ"
"?isFinished@QThread@@QEBA_NXZ"
"?isFlag@QMetaEnum@@QEBA_NXZ"
"?isFlag@QMetaEnumBuilder@@QEBA_NXZ"
"?isFlagType@QMetaProperty@@QEBA_NXZ"
"?isFloat16@QCborStreamReader@@QEBA_NXZ"
"?isFloat@QCborStreamReader@@QEBA_NXZ"
"?isForever@QDeadlineTimer@@QEBA_NXZ"
"?isGregorian@QCalendar@@QEBA_NXZ"
"?isGregorian@QCalendarBackend@@QEBA_NXZ"
"?isHidden@DirEntry@QDirListing@@QEBA_NXZ"
"?isHidden@QFileInfo@@QEBA_NXZ"
"?isHighSurrogate@QChar@@QEBA_NXZ"
"?isHighSurrogate@QChar@@SA_N_U@Z"
"?isIdeographic@QXmlUtils@@CA_NVQChar@@@Z"
"?isInfoEnabled@QLoggingCategory@@QEBA_NXZ"
"?isInputEvent@QEvent@@QEBA_NXZ"
"?isInteger@QCborStreamReader@@QEBA_NXZ"
"?isInteger@QCborValue@@QEBA_NXZ"
"?isInteger@QCborValueRef@@QEBA_NXZ"
"?isInterruptionRequested@QThread@@QEBA_NXZ"
"?isInvalid@QCborStreamReader@@QEBA_NXZ"
"?isInvalid@QCborValue@@QEBA_NXZ"
"?isInvalid@QCborValueRef@@QEBA_NXZ"
"?isJunction@QFileInfo@@QEBA_NXZ"
"?isKeyTypeSupported@QSharedMemory@@SA_NW4Type@QNativeIpcKey@@@Z"
"?isKeyTypeSupported@QSystemSemaphore@@SA_NW4Type@QNativeIpcKey@@@Z"
"?isLatin1@QtPrivate@@YA_NVQStringView@@@Z"
"?isLeapYear@QCalendar@@QEBA_NH@Z"
"?isLeapYear@QDate@@SA_NH@Z"
"?isLeapYear@QGregorianCalendar@@UEBA_NH@Z"
"?isLeapYear@QIslamicCivilCalendar@@UEBA_NH@Z"
"?isLeapYear@QJalaliCalendar@@UEBA_NH@Z"
"?isLeapYear@QJulianCalendar@@UEBA_NH@Z"
"?isLeapYear@QMilankovicCalendar@@UEBA_NH@Z"
"?isLengthKnown@QCborStreamReader@@QEBA_NXZ"
"?isLetter@QChar@@QEBA_NXZ"
"?isLetter@QChar@@SA_N_U@Z"
"?isLetter@QXmlUtils@@SA_NVQChar@@@Z"
"?isLetterOrNumber@QChar@@QEBA_NXZ"
"?isLetterOrNumber@QChar@@SA_N_U@Z"
"?isLetterOrNumber_helper@QChar@@CA_N_U@Z"
"?isLetter_helper@QChar@@CA_N_U@Z"
"?isLibrary@QLibrary@@SA_NAEBVQString@@@Z"
"?isLoaded@QLibrary@@QEBA_NXZ"
"?isLoaded@QPluginLoader@@QEBA_NXZ"
"?isLocalFile@QUrl@@QEBA_NXZ"
"?isLocked@QLockFile@@QEBA_NXZ"
"?isLowSurrogate@QChar@@QEBA_NXZ"
"?isLowSurrogate@QChar@@SA_N_U@Z"
"?isLower@QByteArray@@QEBA_NXZ"
"?isLower@QChar@@QEBA_NXZ"
"?isLower@QChar@@SA_N_U@Z"
"?isLower@QString@@QEBA_NXZ"
"?isLower@QtPrivate@@YA_NVQStringView@@@Z"
"?isLunar@QCalendar@@QEBA_NXZ"
"?isLunar@QHijriCalendar@@UEBA_NXZ"
"?isLunar@QJalaliCalendar@@UEBA_NXZ"
"?isLunar@QRomanCalendar@@UEBA_NXZ"
"?isLuniSolar@QCalendar@@QEBA_NXZ"
"?isLuniSolar@QHijriCalendar@@UEBA_NXZ"
"?isLuniSolar@QJalaliCalendar@@UEBA_NXZ"
"?isLuniSolar@QRomanCalendar@@UEBA_NXZ"
"?isMainThread@QThread@@SA_NXZ"
"?isMap@QCborStreamReader@@QEBA_NXZ"
"?isMap@QCborValue@@QEBA_NXZ"
"?isMap@QCborValueRef@@QEBA_NXZ"
"?isMark@QChar@@QEBA_NXZ"
"?isMark@QChar@@SA_N_U@Z"
"?isMonotonic@QElapsedTimer@@SA_NXZ"
"?isMoveConstructible@QMetaType@@CA_NPEBVQMetaTypeInterface@QtPrivate@@@Z"
"?isMoveConstructible@QMetaType@@QEBA_NXZ"
"?isNCName@QXmlUtils@@SA_NVQStringView@@@Z"
"?isNameChar@QXmlUtils@@SA_NVQChar@@@Z"
"?isNativePath@QFileInfo@@QEBA_NXZ"
"?isNegativeInteger@QCborStreamReader@@QEBA_NXZ"
"?isNonCharacter@QChar@@QEBA_NXZ"
"?isNonCharacter@QChar@@SA_N_U@Z"
"?isNotificationDelayed@QPropertyBindingData@QtPrivate@@QEBA_NXZ"
"?isNull@QBitArray@@QEBA_NXZ"
"?isNull@QByteArray@@QEBA_NXZ"
"?isNull@QByteArrayView@@QEBA_NXZ"
"?isNull@QCborStreamReader@@QEBA_NXZ"
"?isNull@QCborValue@@QEBA_NXZ"
"?isNull@QCborValueRef@@QEBA_NXZ"
"?isNull@QChar@@QEBA_NXZ"
"?isNull@QDate@@QEBA_NXZ"
"?isNull@QDateTime@@QEBA_NXZ"
"?isNull@QJsonDocument@@QEBA_NXZ"
"?isNull@QJsonValue@@QEBA_NXZ"
"?isNull@QJsonValueRef@@QEBA_NXZ"
"?isNull@QLine@@QEBA_NXZ"
"?isNull@QLineF@@QEBA_NXZ"
"?isNull@QRect@@QEBA_NXZ"
"?isNull@QRectF@@QEBA_NXZ"
"?isNull@QSize@@QEBA_NXZ"
"?isNull@QSizeF@@QEBA_NXZ"
"?isNull@QString@@QEBA_NXZ"
"?isNull@QTime@@QEBA_NXZ"
"?isNull@QUntypedPropertyBinding@@QEBA_NXZ"
"?isNull@QUuid@@QEBA_NXZ"
"?isNull@QVariant@@QEBA_NXZ"
"?isNumber@QChar@@QEBA_NXZ"
"?isNumber@QChar@@SA_N_U@Z"
"?isNumber_helper@QChar@@CA_N_U@Z"
"?isObject@QJsonDocument@@QEBA_NXZ"
"?isObject@QJsonValue@@QEBA_NXZ"
"?isObject@QJsonValueRef@@QEBA_NXZ"
"?isOpen@QIODevice@@QEBA_NXZ"
"?isOrdered@QMetaType@@QEBA_NXZ"
"?isParentOf@QUrl@@QEBA_NAEBV1@@Z"
"?isPaused@QFutureInterfaceBase@@QEBA_NXZ"
"?isPaused@QFutureWatcherBase@@QEBA_NXZ"
"?isPipeClosed@QWindowsPipeReader@@QEBA_NXZ"
"?isPointerEvent@QEvent@@QEBA_NXZ"
"?isPrefixOf@QVersionNumber@@QEBA_NAEBV1@@Z"
"?isPrint@QChar@@QEBA_NXZ"
"?isPrint@QChar@@SA_N_U@Z"
"?isProcessingInstruction@QXmlStreamReader@@QEBA_NXZ"
"?isProgressUpdateNeeded@QFutureInterfaceBase@@QEBA_NXZ"
"?isProleptic@QCalendar@@QEBA_NXZ"
"?isProleptic@QCalendarBackend@@UEBA_NXZ"
"?isPropertyInBindingWrapper@QtPrivate@@YA_NPEBVQUntypedPropertyData@@@Z"
"?isPublicID@QXmlUtils@@SA_NVQStringView@@@Z"
"?isPunct@QChar@@QEBA_NXZ"
"?isPunct@QChar@@SA_N_U@Z"
"?isQuickItemType@QObject@@QEBA_NXZ"
"?isQuitLockEnabled@QCoreApplication@@SA_NXZ"
"?isReadOnly@QStorageInfo@@QEBA_NXZ"
"?isReadOperationActive@QWindowsPipeReader@@QEBA_NXZ"
"?isReadable@DirEntry@QDirListing@@QEBA_NXZ"
"?isReadable@QDir@@QEBA_NXZ"
"?isReadable@QFileInfo@@QEBA_NXZ"
"?isReadable@QIODevice@@QEBA_NXZ"
"?isReadable@QMetaProperty@@QEBA_NXZ"
"?isReadable@QMetaPropertyBuilder@@QEBA_NXZ"
"?isReadable@QZipReader@@QEBA_NXZ"
"?isReady@QStorageInfo@@QEBA_NXZ"
"?isRecursiveFilteringEnabled@QSortFilterProxyModel@@QEBA_NXZ"
"?isRegistered@QMetaType@@QEBA_NXZ"
"?isRegistered@QMetaType@@SA_NH@Z"
"?isRegularExpression@QCborValue@@QEBA_NXZ"
"?isRegularExpression@QCborValueRef@@QEBA_NXZ"
"?isRelative@QDir@@QEBA_NXZ"
"?isRelative@QFileInfo@@QEBA_NXZ"
"?isRelative@QUrl@@QEBA_NXZ"
"?isRelativePath@QAbstractFileEngine@@UEBA_NXZ"
"?isRelativePath@QDir@@SA_NAEBVQString@@@Z"
"?isRelativePath@QFSFileEngine@@UEBA_NXZ"
"?isRequired@QMetaProperty@@QEBA_NXZ"
"?isResettable@QMetaProperty@@QEBA_NXZ"
"?isResettable@QMetaPropertyBuilder@@QEBA_NXZ"
"?isResultReadyAt@QFutureInterfaceBase@@QEBA_NH@Z"
"?isRightToLeft@QString@@QEBA_NXZ"
"?isRightToLeft@QtPrivate@@YA_NVQStringView@@@Z"
"?isRoot@QDir@@QEBA_NXZ"
"?isRoot@QFileInfo@@QEBA_NXZ"
"?isRoot@QStorageInfo@@QEBA_NXZ"
"?isRootPath@QFileSystemEntry@@SA_NAEBVQString@@@Z"
"?isRowSelected@QItemSelectionModel@@QEBA_NHAEBVQModelIndex@@@Z"
"?isRunning@QAnimationDriver@@QEBA_NXZ"
"?isRunning@QEventLoop@@QEBA_NXZ"
"?isRunning@QFutureInterfaceBase@@QEBA_NXZ"
"?isRunning@QFutureWatcherBase@@QEBA_NXZ"
"?isRunning@QThread@@QEBA_NXZ"
"?isRunningOrPending@QFutureInterfaceBase@@IEBA_NXZ"
"?isScoped@QMetaEnum@@QEBA_NXZ"
"?isScoped@QMetaEnumBuilder@@QEBA_NXZ"
"?isScriptable@QMetaProperty@@QEBA_NXZ"
"?isScriptable@QMetaPropertyBuilder@@QEBA_NXZ"
"?isSelected@QItemSelectionModel@@QEBA_NAEBVQModelIndex@@@Z"
"?isSequential@QAbstractFileEngine@@UEBA_NXZ"
"?isSequential@QFSFileEngine@@UEBA_NXZ"
"?isSequential@QFileDevice@@UEBA_NXZ"
"?isSequential@QIODevice@@UEBA_NXZ"
"?isSequential@QIODevicePrivate@@QEBA_NXZ"
"?isSequential@QProcess@@UEBA_NXZ"
"?isSet@QCommandLineParser@@QEBA_NAEBVQCommandLineOption@@@Z"
"?isSet@QCommandLineParser@@QEBA_NAEBVQString@@@Z"
"?isSetuidAllowed@QCoreApplication@@SA_NXZ"
"?isSharedBuild@QLibraryInfo@@SA_NXZ"
"?isSharedWith@QByteArray@@QEBA_NAEBV1@@Z"
"?isSharedWith@QString@@QEBA_NAEBV1@@Z"
"?isShortcut@QFileInfo@@QEBA_NXZ"
"?isSignalConnected@QAbstractDeclarativeData@@2P6A_NPEAV1@PEBVQObject@@H@ZEA"
"?isSignalConnected@QObject@@IEBA_NAEBVQMetaMethod@@@Z"
"?isSignalConnected@QObjectPrivate@@QEBA_NI_N@Z"
"?isSimpleType@QCborStreamReader@@QEBA_NW4QCborSimpleType@@@Z"
"?isSimpleType@QCborStreamReader@@QEBA_NXZ"
"?isSimpleType@QCborValue@@QEBA_NW4QCborSimpleType@@@Z"
"?isSimpleType@QCborValue@@QEBA_NXZ"
"?isSimpleType@QCborValueRef@@QEBA_NW4QCborSimpleType@@@Z"
"?isSimpleType@QCborValueRef@@QEBA_NXZ"
"?isSinglePointEvent@QEvent@@QEBA_NXZ"
"?isSingleShot@QChronoTimer@@QEBA_NXZ"
"?isSingleShot@QTimer@@QEBA_NXZ"
"?isSolar@QCalendar@@QEBA_NXZ"
"?isSolar@QHijriCalendar@@UEBA_NXZ"
"?isSolar@QJalaliCalendar@@UEBA_NXZ"
"?isSolar@QRomanCalendar@@UEBA_NXZ"
"?isSortLocaleAware@QSortFilterProxyModel@@QEBA_NXZ"
"?isSortable@QMetaSequence@@QEBA_NXZ"
"?isSpace@QChar@@QEBA_NXZ"
"?isSpace@QChar@@SA_N_U@Z"
"?isSpace_helper@QChar@@CA_N_U@Z"
"?isStandaloneDocument@QXmlStreamReader@@QEBA_NXZ"
"?isStartDocument@QXmlStreamReader@@QEBA_NXZ"
"?isStartElement@QXmlStreamReader@@QEBA_NXZ"
"?isStarted@QFutureInterfaceBase@@QEBA_NXZ"
"?isStarted@QFutureWatcherBase@@QEBA_NXZ"
"?isSticky@QPropertyBindingPrivate@@QEAA_NXZ"
"?isStored@QMetaProperty@@QEBA_NXZ"
"?isStored@QMetaPropertyBuilder@@QEBA_NXZ"
"?isString@QCborStreamReader@@QEBA_NXZ"
"?isString@QCborValue@@QEBA_NXZ"
"?isString@QCborValueRef@@QEBA_NXZ"
"?isString@QJsonValue@@QEBA_NXZ"
"?isString@QJsonValueRef@@QEBA_NXZ"
"?isSurrogate@QChar@@QEBA_NXZ"
"?isSurrogate@QChar@@SA_N_U@Z"
"?isSuspended@QFutureInterfaceBase@@QEBA_NXZ"
"?isSuspended@QFutureWatcherBase@@QEBA_NXZ"
"?isSuspending@QFutureInterfaceBase@@QEBA_NXZ"
"?isSuspending@QFutureWatcherBase@@QEBA_NXZ"
"?isSymLink@DirEntry@QDirListing@@QEBA_NXZ"
"?isSymLink@QFileInfo@@QEBA_NXZ"
"?isSymbol@QChar@@QEBA_NXZ"
"?isSymbol@QChar@@SA_N_U@Z"
"?isSymbolicLink@QFileInfo@@QEBA_NXZ"
"?isTag@QCborStreamReader@@QEBA_NXZ"
"?isTag@QCborValue@@QEBA_NXZ"
"?isTag@QCborValueRef@@QEBA_NXZ"
"?isTag_helper@QCborValue@@CA_NW4Type@1@@Z"
"?isTestModeEnabled@QStandardPaths@@SA_NXZ"
"?isTextModeEnabled@QIODevice@@QEBA_NXZ"
"?isThrottled@QFutureInterfaceBase@@QEBA_NXZ"
"?isTimeZoneIdAvailable@QTimeZone@@SA_NAEBVQByteArray@@@Z"
"?isTitleCase@QChar@@QEBA_NXZ"
"?isTitleCase@QChar@@SA_N_U@Z"
"?isTransactionStarted@QIODevice@@QEBA_NXZ"
"?isTranslatorInstalled@QCoreApplicationPrivate@@SA_NPEAVQTranslator@@@Z"
"?isTrue@QCborStreamReader@@QEBA_NXZ"
"?isTrue@QCborValue@@QEBA_NXZ"
"?isTrue@QCborValueRef@@QEBA_NXZ"
"?isUndefined@QCborStreamReader@@QEBA_NXZ"
"?isUndefined@QCborValue@@QEBA_NXZ"
"?isUndefined@QCborValueRef@@QEBA_NXZ"
"?isUndefined@QJsonValue@@QEBA_NXZ"
"?isUndefined@QJsonValueRef@@QEBA_NXZ"
"?isUnnamedFile@QFSFileEngine@@UEBA_NXZ"
"?isUnsignedInteger@QCborStreamReader@@QEBA_NXZ"
"?isUpdating@QPropertyBindingPrivate@@QEAA_NXZ"
"?isUpper@QByteArray@@QEBA_NXZ"
"?isUpper@QChar@@QEBA_NXZ"
"?isUpper@QChar@@SA_N_U@Z"
"?isUpper@QString@@QEBA_NXZ"
"?isUpper@QtPrivate@@YA_NVQStringView@@@Z"
"?isUrl@QCborValue@@QEBA_NXZ"
"?isUrl@QCborValueRef@@QEBA_NXZ"
"?isUser@QMetaProperty@@QEBA_NXZ"
"?isUser@QMetaPropertyBuilder@@QEBA_NXZ"
"?isUtcOrFixedOffset@QTimeZone@@QEBA_NXZ"
"?isUtcOrFixedOffset@QTimeZone@@SA_NW4TimeSpec@Qt@@@Z"
"?isUtf8@QLocal8Bit@@SA_NXZ"
"?isUuid@QCborValue@@QEBA_NXZ"
"?isUuid@QCborValueRef@@QEBA_NXZ"
"?isValid@QBindingStorage@@QEBA_NXZ"
"?isValid@QCalendar@@QEBA_NXZ"
"?isValid@QCborStreamReader@@QEBA_NXZ"
"?isValid@QComHelper@@QEBA_NXZ"
"?isValid@QDate@@QEBA_NXZ"
"?isValid@QDate@@SA_NHHH@Z"
"?isValid@QDateTime@@QEBA_NXZ"
"?isValid@QElapsedTimer@@QEBA_NXZ"
"?isValid@QFutureInterfaceBase@@QEBA_NXZ"
"?isValid@QItemSelectionRange@@QEBA_NXZ"
"?isValid@QMetaEnum@@QEBA_NXZ"
"?isValid@QMetaMethod@@QEBA_NXZ"
"?isValid@QMetaProperty@@QEBA_NXZ"
"?isValid@QMetaType@@QEBA_NXZ"
"?isValid@QMimeType@@QEBA_NXZ"
"?isValid@QPersistentModelIndex@@QEBA_NXZ"
"?isValid@QRect@@QEBA_NXZ"
"?isValid@QRectF@@QEBA_NXZ"
"?isValid@QRegularExpression@@QEBA_NXZ"
"?isValid@QRegularExpressionMatch@@QEBA_NXZ"
"?isValid@QRegularExpressionMatchIterator@@QEBA_NXZ"
"?isValid@QResource@@QEBA_NXZ"
"?isValid@QSize@@QEBA_NXZ"
"?isValid@QSizeF@@QEBA_NXZ"
"?isValid@QSocketNotifier@@QEBA_NXZ"
"?isValid@QStorageInfo@@QEBA_NXZ"
"?isValid@QTemporaryDir@@QEBA_NXZ"
"?isValid@QTextBoundaryFinder@@QEBA_NXZ"
"?isValid@QTime@@QEBA_NXZ"
"?isValid@QTime@@SA_NHHHH@Z"
"?isValid@QTimeZone@@QEBA_NXZ"
"?isValid@QUrl@@QEBA_NXZ"
"?isValid@QVariant@@QEBA_NXZ"
"?isValid@QWinRegistryKey@@QEBA_NXZ"
"?isValid@ResultIteratorBase@QtPrivate@@QEBA_NXZ"
"?isValidUtf16@QString@@QEBA_NXZ"
"?isValidUtf16@QtPrivate@@YA_NVQStringView@@@Z"
"?isValidUtf8@QByteArray@@QEBA_NXZ"
"?isValidUtf8@QByteArrayView@@QEBA_NXZ"
"?isValidUtf8@QtPrivate@@YA_NVQByteArrayView@@@Z"
"?isVariantLessThan@QAbstractItemModelPrivate@@SA_NAEBVQVariant@@0W4CaseSensitivity@Qt@@_N@Z"
"?isVector@ResultIteratorBase@QtPrivate@@QEBA_NXZ"
"?isWarningEnabled@QLoggingCategory@@QEBA_NXZ"
"?isWhitespace@QXmlStreamReader@@QEBA_NXZ"
"?isWidgetType@QObject@@QEBA_NXZ"
"?isWindowType@QObject@@QEBA_NXZ"
"?isWritable@DirEntry@QDirListing@@QEBA_NXZ"
"?isWritable@QFileInfo@@QEBA_NXZ"
"?isWritable@QIODevice@@QEBA_NXZ"
"?isWritable@QMetaProperty@@QEBA_NXZ"
"?isWritable@QMetaPropertyBuilder@@QEBA_NXZ"
"?isWritable@QSettings@@QEBA_NXZ"
"?isWritable@QZipWriter@@QEBA_NXZ"
"?isWriteChunkCached@QIODevicePrivate@@QEBA_NPEBD_J@Z"
"?isWriteOperationActive@QWindowsPipeWriter@@QEBA_NXZ"
"?is_app_closing@QCoreApplicationPrivate@@2_NA"
"?is_app_running@QCoreApplicationPrivate@@2_NA"
"?itemData@QAbstractItemModel@@UEBA?AV?$QMap@HVQVariant@@@@AEBVQModelIndex@@@Z"
"?itemData@QAbstractProxyModel@@UEBA?AV?$QMap@HVQVariant@@@@AEBVQModelIndex@@@Z"
"?itemData@QConcatenateTablesProxyModel@@UEBA?AV?$QMap@HVQVariant@@@@AEBVQModelIndex@@@Z"
"?itemData@QStringListModel@@UEBA?AV?$QMap@HVQVariant@@@@AEBVQModelIndex@@@Z"
"?itemData@QTransposeProxyModel@@UEBA?AV?$QMap@HVQVariant@@@@AEBVQModelIndex@@@Z"
"?itemsAboutToBeMoved@QAbstractItemModelPrivate@@QEAAXAEBVQModelIndex@@HH0HW4Orientation@Qt@@@Z"
"?itemsMoved@QAbstractItemModelPrivate@@QEAAXAEBVQModelIndex@@HH0HW4Orientation@Qt@@@Z"
"?iteratorFlags@QDirListing@@QEBA?AV?$QFlags@W4IteratorFlag@QDirListing@@@@XZ"
"?iteratorPath@QDirListing@@QEBA?AVQString@@XZ"
"?joiningType@QChar@@QEBA?AW4JoiningType@1@XZ"
"?joiningType@QChar@@SA?AW4JoiningType@1@_U@Z"
"?julianDayToDate@QGregorianCalendar@@UEBA?AUYearMonthDay@QCalendar@@_J@Z"
"?julianDayToDate@QIslamicCivilCalendar@@UEBA?AUYearMonthDay@QCalendar@@_J@Z"
"?julianDayToDate@QJalaliCalendar@@UEBA?AUYearMonthDay@QCalendar@@_J@Z"
"?julianDayToDate@QJulianCalendar@@UEBA?AUYearMonthDay@QCalendar@@_J@Z"
"?julianDayToDate@QMilankovicCalendar@@UEBA?AUYearMonthDay@QCalendar@@_J@Z"
"?julianFromParts@QGregorianCalendar@@SA?AV?$optional@_J@std@@HHH@Z"
"?junctionTarget@QFileInfo@@QEBA?AVQString@@XZ"
"?kernelType@QSysInfo@@SA?AVQString@@XZ"
"?kernelVersion@QSysInfo@@SA?AVQString@@XZ"
"?key@QAssociativeConstIterator@@QEBA?AVQVariant@@XZ"
"?key@QAssociativeIterator@@QEBA?AVQVariant@@XZ"
"?key@QMetaEnum@@QEBAPEBDH@Z"
"?key@QMetaEnumBuilder@@QEBA?AVQByteArray@@H@Z"
"?key@QSharedMemory@@QEBA?AVQString@@XZ"
"?key@QSystemSemaphore@@QEBA?AVQString@@XZ"
"?keyAt@QJsonObject@@AEBA?AVQString@@_J@Z"
"?keyAtConstIterator@QMetaAssociation@@QEBAXPEBXPEAX@Z"
"?keyAtIterator@QMetaAssociation@@QEBAXPEBXPEAX@Z"
"?keyCount@QMetaEnum@@QEBAHXZ"
"?keyCount@QMetaEnumBuilder@@QEBAHXZ"
"?keyMap@QFactoryLoader@@QEBA?AV?$QMultiMap@HVQString@@@@XZ"
"?keyMetaType@QMetaAssociation@@QEBA?AVQMetaType@@XZ"
"?keyToValue@QMetaEnum@@QEBAHPEBDPEA_N@Z"
"?keyValueAt@QVariantAnimation@@QEBA?AVQVariant@@N@Z"
"?keyValues@QVariantAnimation@@QEBA?AV?$QList@U?$pair@NVQVariant@@@std@@@@XZ"
"?keys@QCborMap@@QEBA?AV?$QList@VQCborValue@@@@XZ"
"?keys@QJsonObject@@QEBA?AV?$QList@VQString@@@@XZ"
"?keys@QProcessEnvironment@@QEBA?AV?$QList@VQString@@@@XZ"
"?keysToValue@QMetaEnum@@QEBAHPEBDPEA_N@Z"
"?kill@QProcess@@QEAAXXZ"
"?killTimer@QObject@@QEAAXH@Z"
"?killTimer@QObject@@QEAAXW4TimerId@Qt@@@Z"
"?killTimer@QTimer@@AEAAXH@Z"
"?language@QLocale@@QEBA?AW4Language@1@XZ"
"?language@QTranslator@@QEBA?AVQString@@XZ"
"?languageToCode@QLocale@@SA?AVQString@@W4Language@1@@Z"
"?languageToCode@QLocale@@SA?AVQString@@W4Language@1@V?$QFlags@W4LanguageCodeType@QLocale@@@@@Z"
"?languageToString@QLocale@@SA?AVQString@@W4Language@1@@Z"
"?last@QByteArray@@QEBA?AV1@_J@Z"
"?last@QByteArray@@QEGBA?AV1@_J@Z"
"?last@QByteArray@@QEHAA?AV1@_J@Z"
"?last@QByteArrayView@@QEBA?AV1@_J@Z"
"?last@QByteArrayView@@QEBADXZ"
"?last@QCborArray@@QEAA?AVQCborValueRef@@XZ"
"?last@QCborArray@@QEBA?AVQCborValue@@XZ"
"?last@QJsonArray@@QEBA?AVQJsonValue@@XZ"
"?last@QString@@QEBA?AV1@_J@Z"
"?last@QString@@QEGBA?AV1@_J@Z"
"?last@QString@@QEHAA?AV1@_J@Z"
"?lastCapturedIndex@QRegularExpressionMatch@@QEBAHXZ"
"?lastError@QCborStreamReader@@QEAA?AUQCborError@@XZ"
"?lastError@QCborStreamReader@@QEBA?AUQCborError@@XZ"
"?lastIndexOf@QByteArray@@QEBA_JD_J@Z"
"?lastIndexOf@QByteArray@@QEBA_JVQByteArrayView@@@Z"
"?lastIndexOf@QByteArray@@QEBA_JVQByteArrayView@@_J@Z"
"?lastIndexOf@QByteArrayView@@QEBA_JD_J@Z"
"?lastIndexOf@QByteArrayView@@QEBA_JV1@@Z"
"?lastIndexOf@QByteArrayView@@QEBA_JV1@_J@Z"
"?lastIndexOf@QString@@QEBA_JAEBV1@W4CaseSensitivity@Qt@@@Z"
"?lastIndexOf@QString@@QEBA_JAEBV1@_JW4CaseSensitivity@Qt@@@Z"
"?lastIndexOf@QString@@QEBA_JAEBVQRegularExpression@@_JPEAVQRegularExpressionMatch@@@Z"
"?lastIndexOf@QString@@QEBA_JVQChar@@W4CaseSensitivity@Qt@@@Z"
"?lastIndexOf@QString@@QEBA_JVQChar@@_JW4CaseSensitivity@Qt@@@Z"
"?lastIndexOf@QString@@QEBA_JVQLatin1String@@W4CaseSensitivity@Qt@@@Z"
"?lastIndexOf@QString@@QEBA_JVQLatin1String@@_JW4CaseSensitivity@Qt@@@Z"
"?lastIndexOf@QString@@QEBA_JVQStringView@@W4CaseSensitivity@Qt@@@Z"
"?lastIndexOf@QString@@QEBA_JVQStringView@@_JW4CaseSensitivity@Qt@@@Z"
"?lastIndexOf@QtPrivate@@YA_JVQByteArrayView@@_J0@Z"
"?lastIndexOf@QtPrivate@@YA_JVQByteArrayView@@_JD@Z"
"?lastIndexOf@QtPrivate@@YA_JVQLatin1String@@_J0W4CaseSensitivity@Qt@@@Z"
"?lastIndexOf@QtPrivate@@YA_JVQLatin1String@@_JVQStringView@@W4CaseSensitivity@Qt@@@Z"
"?lastIndexOf@QtPrivate@@YA_JVQStringView@@AEBVQRegularExpression@@_JPEAVQRegularExpressionMatch@@@Z"
"?lastIndexOf@QtPrivate@@YA_JVQStringView@@_J0W4CaseSensitivity@Qt@@@Z"
"?lastIndexOf@QtPrivate@@YA_JVQStringView@@_JVQLatin1String@@W4CaseSensitivity@Qt@@@Z"
"?lastIndexOf@QtPrivate@@YA_JVQStringView@@_J_SW4CaseSensitivity@Qt@@@Z"
"?lastModified@QFileInfo@@QEBA?AVQDateTime@@AEBVQTimeZone@@@Z"
"?lastModified@QFileInfo@@QEBA?AVQDateTime@@XZ"
"?lastModified@QResource@@QEBA?AVQDateTime@@XZ"
"?lastRead@QFileInfo@@QEBA?AVQDateTime@@AEBVQTimeZone@@@Z"
"?lastRead@QFileInfo@@QEBA?AVQDateTime@@XZ"
"?launchAsync@QFutureInterfaceBase@@IEBA_NXZ"
"?layoutAboutToBeChanged@QAbstractItemModel@@QEAAXAEBV?$QList@VQPersistentModelIndex@@@@W4LayoutChangeHint@1@@Z"
"?layoutChanged@QAbstractItemModel@@QEAAXAEBV?$QList@VQPersistentModelIndex@@@@W4LayoutChangeHint@1@@Z"
"?lcNativeInterface@QtPrivate@@YAAEBVQLoggingCategory@@XZ"
"?lcPermissions@@YAAEBVQLoggingCategory@@XZ"
"?leapTest@QGregorianCalendar@@SA_NH@Z"
"?leaveContainer@QCborStreamReader@@QEAA_NXZ"
"?left@QByteArray@@QEBA?AV1@_J@Z"
"?left@QByteArray@@QEGBA?AV1@_J@Z"
"?left@QByteArray@@QEHAA?AV1@_J@Z"
"?left@QByteArrayView@@QEBA?AV1@_J@Z"
"?left@QItemSelectionRange@@QEBAHXZ"
"?left@QRect@@QEBAHXZ"
"?left@QRectF@@QEBANXZ"
"?left@QString@@QEBA?AV1@_J@Z"
"?left@QString@@QEGBA?AV1@_J@Z"
"?left@QString@@QEHAA?AV1@_J@Z"
"?left@Qt@@YAAEAVQTextStream@@AEAV2@@Z"
"?leftJustified@QByteArray@@QEBA?AV1@_JD_N@Z"
"?leftJustified@QString@@QEBA?AV1@_JVQChar@@_N@Z"
"?legacyNativeKey@QSharedMemory@@SA?AVQNativeIpcKey@@AEBVQString@@W4Type@2@@Z"
"?legacyNativeKey@QSystemSemaphore@@SA?AVQNativeIpcKey@@AEBVQString@@W4Type@2@@Z"
"?length@QByteArray@@QEBA_JXZ"
"?length@QByteArrayView@@QEBA_JXZ"
"?length@QCborStreamReader@@QEBA_KXZ"
"?length@QJsonObject@@QEBA_JXZ"
"?length@QLineF@@QEBANXZ"
"?length@QString@@QEBA_JXZ"
"?lengthHelperCharArray@QByteArrayView@@CA_JPEBD_K@Z"
"?lessThan@QSortFilterProxyModel@@MEBA_NAEBVQModelIndex@@0@Z"
"?libraryPaths@QCoreApplication@@SA?AV?$QList@VQString@@@@XZ"
"?libraryPathsLocked@QCoreApplication@@CA?AV?$QList@VQString@@@@XZ"
"?lineBreakClass@QUnicodeTables@@YA?AW4LineBreakClass@1@_U@Z"
"?lineNumber@QXmlStreamReader@@QEBA_JXZ"
"?link@QAbstractFileEngine@@UEAA_NAEBVQString@@@Z"
"?link@QFSFileEngine@@UEAA_NAEBVQString@@@Z"
"?link@QFile@@QEAA_NAEBVQString@@@Z"
"?link@QFile@@SA_NAEBVQString@@0@Z"
"?listSeparator@QDir@@SA?AVQChar@@XZ"
"?load@QLibrary@@QEAA_NXZ"
"?load@QMetaType@@QEBA_NAEAVQDataStream@@PEAX@Z"
"?load@QMetaType@@SA_NAEAVQDataStream@@HPEAX@Z"
"?load@QPluginLoader@@QEAA_NXZ"
"?load@QSystemLibrary@@SAPEAUHINSTANCE__@@PEB_W_N@Z"
"?load@QTranslator@@QEAA_NAEBVQLocale@@AEBVQString@@111@Z"
"?load@QTranslator@@QEAA_NAEBVQString@@000@Z"
"?load@QTranslator@@QEAA_NPEBEHAEBVQString@@@Z"
"?load@QVariant@@QEAAXAEAVQDataStream@@@Z"
"?loadHints@QLibrary@@QEBA?AV?$QFlags@W4LoadHint@QLibrary@@@@XZ"
"?loadHints@QPluginLoader@@QEBA?AV?$QFlags@W4LoadHint@QLibrary@@@@XZ"
"?loadState@QFutureInterfaceBase@@QEBAHXZ"
"?localRestart@QUnifiedTimer@@AEAAXXZ"
"?locale@QCollator@@QEBA?AVQLocale@@XZ"
"?locale@QDateTimeParser@@MEBA?AVQLocale@@XZ"
"?locale@QResource@@QEBA?AVQLocale@@XZ"
"?locale@QTextStream@@QEBA?AVQLocale@@XZ"
"?localeAwareCompare@QString@@QEBAHAEBV1@@Z"
"?localeAwareCompare@QString@@QEBAHVQStringView@@@Z"
"?localeAwareCompare@QString@@SAHAEBV1@0@Z"
"?localeAwareCompare@QString@@SAHVQStringView@@0@Z"
"?localeAwareCompare_helper@QString@@CAHPEBVQChar@@_J01@Z"
"?localeMonthData@QHijriCalendar@@MEBAPEB_SXZ"
"?localeMonthData@QJalaliCalendar@@MEBAPEB_SXZ"
"?localeMonthData@QRomanCalendar@@MEBAPEB_SXZ"
"?localeMonthIndexData@QHijriCalendar@@MEBAPEBUQCalendarLocale@@XZ"
"?localeMonthIndexData@QJalaliCalendar@@MEBAPEBUQCalendarLocale@@XZ"
"?localeMonthIndexData@QRomanCalendar@@MEBAPEBUQCalendarLocale@@XZ"
"?locate@QStandardPaths@@SA?AVQString@@W4StandardLocation@1@AEBV2@V?$QFlags@W4LocateOption@QStandardPaths@@@@@Z"
"?locateAll@QStandardPaths@@SA?AV?$QList@VQString@@@@W4StandardLocation@1@AEBVQString@@V?$QFlags@W4LocateOption@QStandardPaths@@@@@Z"
"?location@QLibraryInfo@@SA?AVQString@@W4LibraryPath@1@@Z"
"?locationInfo@QLibraryInfoPrivate@@SA?AULocationInfo@1@W4LibraryPath@QLibraryInfo@@@Z"
"?lock@QBasicMutex@@QEAAXXZ"
"?lock@QLockFile@@QEAA_NXZ"
"?lock@QRecursiveMutex@@QEAAXXZ"
"?lock@QSharedMemory@@QEAA_NXZ"
"?lockForRead@QReadWriteLock@@QEAAXXZ"
"?lockForWrite@QReadWriteLock@@QEAAXXZ"
"?lockInternal@QBasicMutex@@AEAAXXZ"
"?lockInternal@QBasicMutex@@AEAA_NH@Z"
"?lockInternal@QBasicMutex@@AEAA_NVQDeadlineTimer@@@Z"
"?lockThreadPostEventList@QCoreApplicationPrivate@@SA?AUQPostEventListLocker@1@PEAVQObject@@@Z"
"?loopCount@QAbstractAnimation@@QEBAHXZ"
"?loopCount@QTimeLine@@QEBAHXZ"
"?loopLevel@QThread@@QEBAHXZ"
"?lowSurrogate@QChar@@SA_S_U@Z"
"?lowercasebase@Qt@@YAAEAVQTextStream@@AEAV2@@Z"
"?lowercasedigits@Qt@@YAAEAVQTextStream@@AEAV2@@Z"
"?machineHostName@QSysInfo@@SA?AVQString@@XZ"
"?machineUniqueId@QSysInfo@@SA?AVQByteArray@@XZ"
"?mainThread@QCoreApplicationPrivate@@SAPEAVQThread@@XZ"
"?majorVersion@QOperatingSystemVersion@@QEBAHXZ"
"?makeAbsolute@QDir@@QEAA_NXZ"
"?makeAbsolute@QFileInfo@@QEAA_NXZ"
"?makeReadyVoidFuture@QtFuture@@YA?AV?$QFuture@X@@XZ"
"?mantissatable@qfloat16@@0QBIB"
"?map@QAbstractFileEngine@@QEAAPEAE_J0V?$QFlags@W4MemoryMapFlag@QFileDevice@@@@@Z"
"?map@QFileDevice@@QEAAPEAE_J0V?$QFlags@W4MemoryMapFlag@QFileDevice@@@@@Z"
"?map@QSignalMapper@@QEAAXPEAVQObject@@@Z"
"?map@QSignalMapper@@QEAAXXZ"
"?mapDropCoordinatesToSource@QAbstractProxyModelPrivate@@QEBAXHHAEBVQModelIndex@@PEAH1PEAV2@@Z"
"?mapFromSource@QConcatenateTablesProxyModel@@QEBA?AVQModelIndex@@AEBV2@@Z"
"?mapFromSource@QIdentityProxyModel@@UEBA?AVQModelIndex@@AEBV2@@Z"
"?mapFromSource@QSortFilterProxyModel@@UEBA?AVQModelIndex@@AEBV2@@Z"
"?mapFromSource@QTransposeProxyModel@@UEBA?AVQModelIndex@@AEBV2@@Z"
"?mapSelectionFromSource@QAbstractProxyModel@@UEBA?AVQItemSelection@@AEBV2@@Z"
"?mapSelectionFromSource@QIdentityProxyModel@@UEBA?AVQItemSelection@@AEBV2@@Z"
"?mapSelectionFromSource@QSortFilterProxyModel@@UEBA?AVQItemSelection@@AEBV2@@Z"
"?mapSelectionToSource@QAbstractProxyModel@@UEBA?AVQItemSelection@@AEBV2@@Z"
"?mapSelectionToSource@QIdentityProxyModel@@UEBA?AVQItemSelection@@AEBV2@@Z"
"?mapSelectionToSource@QSortFilterProxyModel@@UEBA?AVQItemSelection@@AEBV2@@Z"
"?mapToSource@QConcatenateTablesProxyModel@@QEBA?AVQModelIndex@@AEBV2@@Z"
"?mapToSource@QIdentityProxyModel@@UEBA?AVQModelIndex@@AEBV2@@Z"
"?mapToSource@QSortFilterProxyModel@@UEBA?AVQModelIndex@@AEBV2@@Z"
"?mapToSource@QTransposeProxyModel@@UEBA?AVQModelIndex@@AEBV2@@Z"
"?mappedAtConstIterator@QMetaAssociation@@QEBAXPEBXPEAX@Z"
"?mappedAtIterator@QMetaAssociation@@QEBAXPEBXPEAX@Z"
"?mappedAtKey@QMetaAssociation@@QEBAXPEBX0PEAX@Z"
"?mappedInt@QSignalMapper@@QEAAXH@Z"
"?mappedMetaType@QMetaAssociation@@QEBA?AVQMetaType@@XZ"
"?mappedObject@QSignalMapper@@QEAAXPEAVQObject@@@Z"
"?mappedString@QSignalMapper@@QEAAXAEBVQString@@@Z"
"?mapping@QSignalMapper@@QEBAPEAVQObject@@AEBVQString@@@Z"
"?mapping@QSignalMapper@@QEBAPEAVQObject@@H@Z"
"?mapping@QSignalMapper@@QEBAPEAVQObject@@PEAV2@@Z"
"?marginsAdded@QRect@@QEBA?AV1@AEBVQMargins@@@Z"
"?marginsAdded@QRectF@@QEBA?AV1@AEBVQMarginsF@@@Z"
"?marginsRemoved@QRect@@QEBA?AV1@AEBVQMargins@@@Z"
"?marginsRemoved@QRectF@@QEBA?AV1@AEBVQMarginsF@@@Z"
"?match@QAbstractItemModel@@UEBA?AV?$QList@VQModelIndex@@@@AEBVQModelIndex@@HAEBVQVariant@@HV?$QFlags@W4MatchFlag@Qt@@@@@Z"
"?match@QDir@@SA_NAEBV?$QList@VQString@@@@AEBVQString@@@Z"
"?match@QDir@@SA_NAEBVQString@@0@Z"
"?match@QIdentityProxyModel@@UEBA?AV?$QList@VQModelIndex@@@@AEBVQModelIndex@@HAEBVQVariant@@HV?$QFlags@W4MatchFlag@Qt@@@@@Z"
"?match@QRegularExpression@@QEBA?AVQRegularExpressionMatch@@AEBVQString@@_JW4MatchType@1@V?$QFlags@W4MatchOption@QRegularExpression@@@@@Z"
"?match@QRegularExpression@@QEBA?AVQRegularExpressionMatch@@VQStringView@@_JW4MatchType@1@V?$QFlags@W4MatchOption@QRegularExpression@@@@@Z"
"?match@QSortFilterProxyModel@@UEBA?AV?$QList@VQModelIndex@@@@AEBVQModelIndex@@HAEBVQVariant@@HV?$QFlags@W4MatchFlag@Qt@@@@@Z"
"?matchCenturyToWeekday@QCalendar@@QEBA?AVQDate@@AEBUYearMonthDay@1@H@Z"
"?matchCenturyToWeekday@QCalendarBackend@@UEBA_JAEBUYearMonthDay@QCalendar@@H@Z"
"?matchCenturyToWeekday@QGregorianCalendar@@UEBA_JAEBUYearMonthDay@QCalendar@@H@Z"
"?matchOptions@QRegularExpressionMatch@@QEBA?AV?$QFlags@W4MatchOption@QRegularExpression@@@@XZ"
"?matchOptions@QRegularExpressionMatchIterator@@QEBA?AV?$QFlags@W4MatchOption@QRegularExpression@@@@XZ"
"?matchType@QRegularExpressionMatch@@QEBA?AW4MatchType@QRegularExpression@@XZ"
"?matchType@QRegularExpressionMatchIterator@@QEBA?AW4MatchType@QRegularExpression@@XZ"
"?matchView@QRegularExpression@@QEBA?AVQRegularExpressionMatch@@VQStringView@@_JW4MatchType@1@V?$QFlags@W4MatchOption@QRegularExpression@@@@@Z"
"?matches@QUrl@@QEBA_NAEBV1@V?$QUrlTwoFlags@W4UrlFormattingOption@QUrl@@W4ComponentFormattingOption@2@@@@Z"
"?matchingLocales@QLocale@@SA?AV?$QList@VQLocale@@@@W4Language@1@W4Script@1@W4Country@1@@Z"
"?maxChange@SectionNode@QDateTimeParser@@QEBAHXZ"
"?maxJd@QDate@@CA_JXZ"
"?maxReadBufferSize@QWindowsPipeReader@@QEBA_JXZ"
"?maxSize@QByteArray@@SA_JXZ"
"?maxSize@QByteArrayView@@SA_JXZ"
"?maxSize@QString@@SA_JXZ"
"?maxThreadCount@QThreadPool@@QEBAHXZ"
"?maxThreadCount@QThreadPoolPrivate@@QEBAHXZ"
"?max_size@QByteArray@@QEBA_JXZ"
"?max_size@QByteArrayView@@QEBA_JXZ"
"?max_size@QString@@QEBA_JXZ"
"?maximumDaysInMonth@QCalendar@@QEBAHXZ"
"?maximumDaysInMonth@QCalendarBackend@@UEBAHXZ"
"?maximumDaysInMonth@QHijriCalendar@@UEBAHXZ"
"?maximumMonthsInYear@QCalendar@@QEBAHXZ"
"?maximumMonthsInYear@QCalendarBackend@@UEBAHXZ"
"?maybeQuote@QDebug@@QEAAAEAV1@D@Z"
"?maybeSignalConnected@QObjectPrivate@@QEBA_NI@Z"
"?maybeSpace@QDebug@@QEAAAEAV1@XZ"
"?maybeUpdateAnimationsToCurrentTime@QUnifiedTimer@@QEAAXXZ"
"?maybeUpdateBindingAndRegister@QBindingStorage@@QEBAXPEBVQUntypedPropertyData@@@Z"
"?maybeUpdateBindingAndRegister_helper@QBindingStorage@@AEBAXPEBVQUntypedPropertyData@@@Z"
"?measurementSystem@QLocale@@QEBA?AW4MeasurementSystem@1@XZ"
"?merge@QItemSelection@@QEAAXAEBV1@V?$QFlags@W4SelectionFlag@QItemSelectionModel@@@@@Z"
"?metaCall@QAbstractDynamicMetaObject@@UEAAHPEAVQObject@@W4Call@QMetaObject@@HPEAPEAX@Z"
"?metaCall@QAbstractDynamicMetaObject@@UEAAHW4Call@QMetaObject@@HPEAPEAX@Z"
"?metaContainer@?$QBaseIterator@VQMetaAssociation@@@@QEBA?AVQMetaAssociation@@XZ"
"?metaContainer@?$QBaseIterator@VQMetaSequence@@@@QEBA?AVQMetaSequence@@XZ"
"?metaContainer@?$QIterable@VQMetaAssociation@@@@QEBA?AVQMetaAssociation@@XZ"
"?metaContainer@?$QIterable@VQMetaSequence@@@@QEBA?AVQMetaSequence@@XZ"
"?metaData@QFactoryLoader@@QEBA?AV?$QList@VQPluginParsedMetaData@@@@XZ"
"?metaData@QPluginLoader@@QEBA?AVQJsonObject@@XZ"
"?metaData@QStaticPlugin@@QEBA?AVQJsonObject@@XZ"
"?metaDataKeys@QFactoryLoader@@QEBA?AV?$QList@VQCborArray@@@@XZ"
"?metaObject@QAbstractAnimation@@UEBAPEBUQMetaObject@@XZ"
"?metaObject@QAbstractAnimationTimer@@UEBAPEBUQMetaObject@@XZ"
"?metaObject@QAbstractEventDispatcher@@UEBAPEBUQMetaObject@@XZ"
"?metaObject@QAbstractEventDispatcherV2@@UEBAPEBUQMetaObject@@XZ"
"?metaObject@QAbstractItemModel@@UEBAPEBUQMetaObject@@XZ"
"?metaObject@QAbstractListModel@@UEBAPEBUQMetaObject@@XZ"
"?metaObject@QAbstractProxyModel@@UEBAPEBUQMetaObject@@XZ"
"?metaObject@QAbstractTableModel@@UEBAPEBUQMetaObject@@XZ"
"?metaObject@QAnimationDriver@@UEBAPEBUQMetaObject@@XZ"
"?metaObject@QAnimationGroup@@UEBAPEBUQMetaObject@@XZ"
"?metaObject@QBuffer@@UEBAPEBUQMetaObject@@XZ"
"?metaObject@QChronoTimer@@UEBAPEBUQMetaObject@@XZ"
"?metaObject@QConcatenateTablesProxyModel@@UEBAPEBUQMetaObject@@XZ"
"?metaObject@QCoreApplication@@UEBAPEBUQMetaObject@@XZ"
"?metaObject@QEventDispatcherWin32@@UEBAPEBUQMetaObject@@XZ"
"?metaObject@QEventLoop@@UEBAPEBUQMetaObject@@XZ"
"?metaObject@QFactoryLoader@@UEBAPEBUQMetaObject@@XZ"
"?metaObject@QFile@@UEBAPEBUQMetaObject@@XZ"
"?metaObject@QFileDevice@@UEBAPEBUQMetaObject@@XZ"
"?metaObject@QFileSelector@@UEBAPEBUQMetaObject@@XZ"
"?metaObject@QFileSystemWatcher@@UEBAPEBUQMetaObject@@XZ"
"?metaObject@QFutureWatcherBase@@UEBAPEBUQMetaObject@@XZ"
"?metaObject@QIODevice@@UEBAPEBUQMetaObject@@XZ"
"?metaObject@QIdentityProxyModel@@UEBAPEBUQMetaObject@@XZ"
"?metaObject@QItemSelectionModel@@UEBAPEBUQMetaObject@@XZ"
"?metaObject@QLibrary@@UEBAPEBUQMetaObject@@XZ"
"?metaObject@QMetaType@@QEBAPEBUQMetaObject@@XZ"
"?metaObject@QMimeData@@UEBAPEBUQMetaObject@@XZ"
"?metaObject@QNonContiguousByteDevice@@UEBAPEBUQMetaObject@@XZ"
"?metaObject@QObject@@UEBAPEBUQMetaObject@@XZ"
"?metaObject@QObjectCleanupHandler@@UEBAPEBUQMetaObject@@XZ"
"?metaObject@QParallelAnimationGroup@@UEBAPEBUQMetaObject@@XZ"
"?metaObject@QPauseAnimation@@UEBAPEBUQMetaObject@@XZ"
"?metaObject@QPluginLoader@@UEBAPEBUQMetaObject@@XZ"
"?metaObject@QProcess@@UEBAPEBUQMetaObject@@XZ"
"?metaObject@QPropertyAnimation@@UEBAPEBUQMetaObject@@XZ"
"?metaObject@QSaveFile@@UEBAPEBUQMetaObject@@XZ"
"?metaObject@QSequentialAnimationGroup@@UEBAPEBUQMetaObject@@XZ"
"?metaObject@QSettings@@UEBAPEBUQMetaObject@@XZ"
"?metaObject@QSharedMemory@@UEBAPEBUQMetaObject@@XZ"
"?metaObject@QSignalMapper@@UEBAPEBUQMetaObject@@XZ"
"?metaObject@QSocketNotifier@@UEBAPEBUQMetaObject@@XZ"
"?metaObject@QSortFilterProxyModel@@UEBAPEBUQMetaObject@@XZ"
"?metaObject@QStringListModel@@UEBAPEBUQMetaObject@@XZ"
"?metaObject@QTemporaryFile@@UEBAPEBUQMetaObject@@XZ"
"?metaObject@QThread@@UEBAPEBUQMetaObject@@XZ"
"?metaObject@QThreadPool@@UEBAPEBUQMetaObject@@XZ"
"?metaObject@QTimeLine@@UEBAPEBUQMetaObject@@XZ"
"?metaObject@QTimer@@UEBAPEBUQMetaObject@@XZ"
"?metaObject@QTranslator@@UEBAPEBUQMetaObject@@XZ"
"?metaObject@QTransposeProxyModel@@UEBAPEBUQMetaObject@@XZ"
"?metaObject@QUnifiedTimer@@UEBAPEBUQMetaObject@@XZ"
"?metaObject@QVariantAnimation@@UEBAPEBUQMetaObject@@XZ"
"?metaObject@QWinEventNotifier@@UEBAPEBUQMetaObject@@XZ"
"?metaObject@QWindowsPipeReader@@UEBAPEBUQMetaObject@@XZ"
"?metaObject@QWindowsPipeWriter@@UEBAPEBUQMetaObject@@XZ"
"?metaObjectForType@QMetaType@@SAPEBUQMetaObject@@H@Z"
"?metaType@QMetaEnum@@QEBA?AVQMetaType@@XZ"
"?metaType@QMetaEnumBuilder@@QEBA?AVQMetaType@@XZ"
"?metaType@QMetaObject@@QEBA?AVQMetaType@@XZ"
"?metaType@QMetaProperty@@QEBA?AVQMetaType@@XZ"
"?metaType@QVariant@@QEBA?AVQMetaType@@XZ"
"?metacall@QMetaObject@@SAHPEAVQObject@@W4Call@1@HPEAPEAX@Z"
"?metadataChangeTime@QFileInfo@@QEBA?AVQDateTime@@AEBVQTimeZone@@@Z"
"?metadataChangeTime@QFileInfo@@QEBA?AVQDateTime@@XZ"
"?method@QMetaObject@@QEBA?AVQMetaMethod@@H@Z"
"?method@QMetaObjectBuilder@@QEBA?AVQMetaMethodBuilder@@H@Z"
"?methodCount@QMetaObject@@QEBAHXZ"
"?methodCount@QMetaObjectBuilder@@QEBAHXZ"
"?methodIndex@QMetaMethod@@QEBAHXZ"
"?methodOffset@QMetaObject@@QEBAHXZ"
"?methodSignature@QMetaMethod@@QEBA?AVQByteArray@@XZ"
"?methodType@QMetaMethod@@QEBA?AW4MethodType@1@XZ"
"?methodType@QMetaMethodBuilder@@QEBA?AW4MethodType@QMetaMethod@@XZ"
"?microVersion@QOperatingSystemVersion@@QEBAHXZ"
"?mid@QByteArray@@QEBA?AV1@_J0@Z"
"?mid@QByteArray@@QEGBA?AV1@_J0@Z"
"?mid@QByteArray@@QEHAA?AV1@_J0@Z"
"?mid@QByteArrayView@@QEBA?AV1@_J0@Z"
"?mid@QContainerImplHelper@QtPrivate@@SA?AW4CutResult@12@_JPEA_J1@Z"
"?mid@QString@@QEBA?AV1@_J0@Z"
"?mid@QString@@QEGBA?AV1@_J0@Z"
"?mid@QString@@QEHAA?AV1@_J0@Z"
"?mimeData@QAbstractItemModel@@UEBAPEAVQMimeData@@AEBV?$QList@VQModelIndex@@@@@Z"
"?mimeData@QAbstractProxyModel@@UEBAPEAVQMimeData@@AEBV?$QList@VQModelIndex@@@@@Z"
"?mimeData@QConcatenateTablesProxyModel@@UEBAPEAVQMimeData@@AEBV?$QList@VQModelIndex@@@@@Z"
"?mimeData@QSortFilterProxyModel@@UEBAPEAVQMimeData@@AEBV?$QList@VQModelIndex@@@@@Z"
"?mimeTypeForData@QMimeDatabase@@QEBA?AVQMimeType@@AEBVQByteArray@@@Z"
"?mimeTypeForData@QMimeDatabase@@QEBA?AVQMimeType@@PEAVQIODevice@@@Z"
"?mimeTypeForFile@QMimeDatabase@@QEBA?AVQMimeType@@AEBVQFileInfo@@W4MatchMode@1@@Z"
"?mimeTypeForFile@QMimeDatabase@@QEBA?AVQMimeType@@AEBVQString@@W4MatchMode@1@@Z"
"?mimeTypeForFileNameAndData@QMimeDatabase@@QEBA?AVQMimeType@@AEBVQString@@AEBVQByteArray@@@Z"
"?mimeTypeForFileNameAndData@QMimeDatabase@@QEBA?AVQMimeType@@AEBVQString@@PEAVQIODevice@@@Z"
"?mimeTypeForName@QMimeDatabase@@QEBA?AVQMimeType@@AEBVQString@@@Z"
"?mimeTypeForUrl@QMimeDatabase@@QEBA?AVQMimeType@@AEBVQUrl@@@Z"
"?mimeTypes@QAbstractItemModel@@UEBA?AV?$QList@VQString@@@@XZ"
"?mimeTypes@QAbstractProxyModel@@UEBA?AV?$QList@VQString@@@@XZ"
"?mimeTypes@QConcatenateTablesProxyModel@@UEBA?AV?$QList@VQString@@@@XZ"
"?mimeTypes@QSortFilterProxyModel@@UEBA?AV?$QList@VQString@@@@XZ"
"?mimeTypesForFileName@QMimeDatabase@@QEBA?AV?$QList@VQMimeType@@@@AEBVQString@@@Z"
"?minJd@QDate@@CA_JXZ"
"?minimumDaysInMonth@QCalendar@@QEBAHXZ"
"?minimumDaysInMonth@QCalendarBackend@@UEBAHXZ"
"?minimumDaysInMonth@QRomanCalendar@@UEBAHXZ"
"?minorVersion@QOperatingSystemVersion@@QEBAHXZ"
"?minute@QTime@@QEBAHXZ"
"?mirroredChar@QChar@@QEBA?AV1@XZ"
"?mirroredChar@QChar@@SA_U_U@Z"
"?mkdir@QAbstractFileEngine@@UEBA_NAEBVQString@@_NV?$optional@V?$QFlags@W4Permission@QFileDevice@@@@@std@@@Z"
"?mkdir@QDir@@QEBA_NAEBVQString@@@Z"
"?mkdir@QDir@@QEBA_NAEBVQString@@V?$QFlags@W4Permission@QFileDevice@@@@@Z"
"?mkdir@QFSFileEngine@@UEBA_NAEBVQString@@_NV?$optional@V?$QFlags@W4Permission@QFileDevice@@@@@std@@@Z"
"?mkpath@QDir@@QEBA_NAEBVQString@@@Z"
"?model@QItemSelectionModel@@QEAAPEAVQAbstractItemModel@@XZ"
"?model@QItemSelectionModel@@QEBAPEBVQAbstractItemModel@@XZ"
"?model@QItemSelectionRange@@QEBAPEBVQAbstractItemModel@@XZ"
"?model@QPersistentModelIndex@@QEBAPEBVQAbstractItemModel@@XZ"
"?modelAboutToBeReset@QAbstractItemModel@@QEAAXUQPrivateSignal@1@@Z"
"?modelChanged@QItemSelectionModel@@QEAAXPEAVQAbstractItemModel@@@Z"
"?modelChangedForwarder@QAbstractProxyModelPrivate@@QEAAXXZ"
"?modelReset@QAbstractItemModel@@QEAAXUQPrivateSignal@1@@Z"
"?month@QDate@@QEBAHVQCalendar@@@Z"
"?month@QDate@@QEBAHXZ"
"?monthLength@QGregorianCalendar@@SAHHH@Z"
"?monthName@QCalendar@@QEBA?AVQString@@AEBVQLocale@@HHW4FormatType@3@@Z"
"?monthName@QCalendarBackend@@UEBA?AVQString@@AEBVQLocale@@HHW4FormatType@3@@Z"
"?monthName@QLocale@@QEBA?AVQString@@HW4FormatType@1@@Z"
"?monthName@QRomanCalendar@@UEBA?AVQString@@AEBVQLocale@@HHW4FormatType@3@@Z"
"?monthsInYear@QCalendar@@QEBAHH@Z"
"?monthsInYear@QCalendarBackend@@UEBAHH@Z"
"?mountedVolumes@QStorageInfo@@SA?AV?$QList@VQStorageInfo@@@@XZ"
"?moveBottom@QRect@@QEAAXH@Z"
"?moveBottom@QRectF@@QEAAXN@Z"
"?moveBottomLeft@QRect@@QEAAXAEBVQPoint@@@Z"
"?moveBottomLeft@QRectF@@QEAAXAEBVQPointF@@@Z"
"?moveBottomRight@QRect@@QEAAXAEBVQPoint@@@Z"
"?moveBottomRight@QRectF@@QEAAXAEBVQPointF@@@Z"
"?moveCenter@QRect@@QEAAXAEBVQPoint@@@Z"
"?moveCenter@QRectF@@QEAAXAEBVQPointF@@@Z"
"?moveColumn@QAbstractItemModel@@QEAA_NAEBVQModelIndex@@H0H@Z"
"?moveColumns@QAbstractItemModel@@UEAA_NAEBVQModelIndex@@HH0H@Z"
"?moveColumns@QIdentityProxyModel@@UEAA_NAEBVQModelIndex@@HH0H@Z"
"?moveColumns@QTransposeProxyModel@@UEAA_NAEBVQModelIndex@@HH0H@Z"
"?moveConstruct@QVariant@@CA?AV1@VQMetaType@@PEAX@Z"
"?moveLeft@QRect@@QEAAXH@Z"
"?moveLeft@QRectF@@QEAAXN@Z"
"?movePersistentIndexes@QAbstractItemModelPrivate@@QEAAXAEBV?$QList@PEAVQPersistentModelIndexData@@@@HAEBVQModelIndex@@W4Orientation@Qt@@@Z"
"?moveRight@QRect@@QEAAXH@Z"
"?moveRight@QRectF@@QEAAXN@Z"
"?moveRow@QAbstractItemModel@@QEAA_NAEBVQModelIndex@@H0H@Z"
"?moveRows@QAbstractItemModel@@UEAA_NAEBVQModelIndex@@HH0H@Z"
"?moveRows@QIdentityProxyModel@@UEAA_NAEBVQModelIndex@@HH0H@Z"
"?moveRows@QStringListModel@@UEAA_NAEBVQModelIndex@@HH0H@Z"
"?moveRows@QTransposeProxyModel@@UEAA_NAEBVQModelIndex@@HH0H@Z"
"?moveTo@QRect@@QEAAXAEBVQPoint@@@Z"
"?moveTo@QRect@@QEAAXHH@Z"
"?moveTo@QRectF@@QEAAXAEBVQPointF@@@Z"
"?moveTo@QRectF@@QEAAXNN@Z"
"?moveToThread@QObject@@QEAAXPEAVQThread@@@Z"
"?moveToThread@QObject@@QEAA_NPEAVQThread@@UDisambiguated_t@Qt@@@Z"
"?moveToThread_helper@QObjectPrivate@@QEAAXXZ"
"?moveToTrash@QFile@@QEAA_NXZ"
"?moveToTrash@QFile@@SA_NAEBVQString@@PEAV2@@Z"
"?moveTop@QRect@@QEAAXH@Z"
"?moveTop@QRectF@@QEAAXN@Z"
"?moveTopLeft@QRect@@QEAAXAEBVQPoint@@@Z"
"?moveTopLeft@QRectF@@QEAAXAEBVQPointF@@@Z"
"?moveTopRight@QRect@@QEAAXAEBVQPoint@@@Z"
"?moveTopRight@QRectF@@QEAAXAEBVQPointF@@@Z"
"?move_internal@QNativeIpcKey@@AEAAX$$QEAV1@@Z"
"?msec@QTime@@QEBAHXZ"
"?msecsSinceReference@QElapsedTimer@@QEBA_JXZ"
"?msecsSinceStartOfDay@QTime@@QEBAHXZ"
"?msecsTo@QDateTime@@QEBA_JAEBV1@@Z"
"?msecsTo@QElapsedTimer@@QEBA_JAEBV1@@Z"
"?msecsTo@QTime@@QEBAHV1@@Z"
"?msleep@QThread@@SAXK@Z"
"?multiData@QAbstractItemModel@@UEBAXAEBVQModelIndex@@VQModelRoleDataSpan@@@Z"
"?multiData@QPersistentModelIndex@@QEBAXVQModelRoleDataSpan@@@Z"
"?mutableBegin@?$QIterable@VQMetaAssociation@@@@QEAA?AU?$QIterator@VQMetaAssociation@@@@XZ"
"?mutableBegin@?$QIterable@VQMetaSequence@@@@QEAA?AU?$QIterator@VQMetaSequence@@@@XZ"
"?mutableBegin@QAssociativeIterable@@QEAA?AV?$QTaggedIterator@VQAssociativeIterator@@X@@XZ"
"?mutableBegin@QSequentialIterable@@QEAA?AV?$QTaggedIterator@VQSequentialIterator@@X@@XZ"
"?mutableEnd@?$QIterable@VQMetaAssociation@@@@QEAA?AU?$QIterator@VQMetaAssociation@@@@XZ"
"?mutableEnd@?$QIterable@VQMetaSequence@@@@QEAA?AU?$QIterator@VQMetaSequence@@@@XZ"
"?mutableEnd@QAssociativeIterable@@QEAA?AV?$QTaggedIterator@VQAssociativeIterator@@X@@XZ"
"?mutableEnd@QSequentialIterable@@QEAA?AV?$QTaggedIterator@VQSequentialIterator@@X@@XZ"
"?mutableFind@QAssociativeIterable@@QEAA?AV?$QTaggedIterator@VQAssociativeIterator@@X@@AEBVQVariant@@@Z"
"?mutableIterable@?$QBaseIterator@VQMetaAssociation@@@@IEBAPEAV?$QIterable@VQMetaAssociation@@@@XZ"
"?mutableIterable@?$QBaseIterator@VQMetaSequence@@@@IEBAPEAV?$QIterable@VQMetaSequence@@@@XZ"
"?mutableIterable@?$QIterable@VQMetaAssociation@@@@QEAAPEAXXZ"
"?mutableIterable@?$QIterable@VQMetaSequence@@@@QEAAPEAXXZ"
"?mutableIterator@?$QBaseIterator@VQMetaAssociation@@@@QEAAPEAXXZ"
"?mutableIterator@?$QBaseIterator@VQMetaSequence@@@@QEAAPEAXXZ"
"?mutex@QFutureInterfaceBase@@QEBAAEAVQMutex@@XZ"
"?name@QCalendar@@QEBA?AVQString@@XZ"
"?name@QGenericArgument@@QEBAPEBDXZ"
"?name@QGregorianCalendar@@UEBA?AVQString@@XZ"
"?name@QIslamicCivilCalendar@@UEBA?AVQString@@XZ"
"?name@QJalaliCalendar@@UEBA?AVQString@@XZ"
"?name@QJulianCalendar@@UEBA?AVQString@@XZ"
"?name@QLocale@@QEBA?AVQString@@W4TagSeparator@1@@Z"
"?name@QLocale@@QEBA?AVQString@@XZ"
"?name@QMetaClassInfo@@QEBAPEBDXZ"
"?name@QMetaEnum@@QEBAPEBDXZ"
"?name@QMetaEnumBuilder@@QEBA?AVQByteArray@@XZ"
"?name@QMetaMethod@@QEBA?AVQByteArray@@XZ"
"?name@QMetaProperty@@QEBAPEBDXZ"
"?name@QMetaPropertyBuilder@@QEBA?AVQByteArray@@XZ"
"?name@QMetaType@@QEBAPEBDXZ"
"?name@QMilankovicCalendar@@UEBA?AVQString@@XZ"
"?name@QMimeType@@QEBA?AVQString@@XZ"
"?name@QOperatingSystemVersion@@QEBA?AVQString@@XZ"
"?name@QOperatingSystemVersionBase@@SA?AVQString@@V1@@Z"
"?name@QStorageInfo@@QEBA?AVQString@@XZ"
"?name@QStringConverter@@QEBAPEBDXZ"
"?name@QXmlStreamAttribute@@QEBA?AVQStringView@@XZ"
"?name@QXmlStreamEntityDeclaration@@QEBA?AVQStringView@@XZ"
"?name@QXmlStreamNotationDeclaration@@QEBA?AVQStringView@@XZ"
"?name@QXmlStreamReader@@QEBA?AVQStringView@@XZ"
"?name@SectionNode@QDateTimeParser@@QEBA?AVQString@@XZ"
"?name@SectionNode@QDateTimeParser@@SA?AVQString@@W4Section@2@@Z"
"?nameFilters@QAbstractFileEngineIterator@@QEBA?AV?$QList@VQString@@@@XZ"
"?nameFilters@QDir@@QEBA?AV?$QList@VQString@@@@XZ"
"?nameFilters@QDirListing@@QEBA?AV?$QList@VQString@@@@XZ"
"?nameFiltersFromString@QDir@@SA?AV?$QList@VQString@@@@AEBVQString@@@Z"
"?nameForEncoding@QStringConverter@@SAPEBDW4Encoding@1@@Z"
"?nameList@QGregorianCalendar@@SA?AV?$QList@VQString@@@@XZ"
"?nameList@QIslamicCivilCalendar@@SA?AV?$QList@VQString@@@@XZ"
"?nameList@QJalaliCalendar@@SA?AV?$QList@VQString@@@@XZ"
"?nameList@QJulianCalendar@@SA?AV?$QList@VQString@@@@XZ"
"?nameList@QMilankovicCalendar@@SA?AV?$QList@VQString@@@@XZ"
"?nameToType@QVariant@@SA?AW4Type@1@PEBD@Z"
"?namedCaptureGroups@QRegularExpression@@QEBA?AV?$QList@VQString@@@@XZ"
"?names@QCalendarBackend@@QEBA?AV?$QList@VQString@@@@XZ"
"?names@QCommandLineOption@@QEBA?AV?$QList@VQString@@@@XZ"
"?namespaceDeclarations@QXmlStreamReader@@QEBA?AV?$QList@VQXmlStreamNamespaceDeclaration@@@@XZ"
"?namespaceProcessing@QXmlStreamReader@@QEBA_NXZ"
"?namespaceUri@QXmlStreamAttribute@@QEBA?AVQStringView@@XZ"
"?namespaceUri@QXmlStreamNamespaceDeclaration@@QEBA?AVQStringView@@XZ"
"?namespaceUri@QXmlStreamReader@@QEBA?AVQStringView@@XZ"
"?nativeArguments@QProcess@@QEBA?AVQString@@XZ"
"?nativeCountryName@QLocale@@QEBA?AVQString@@XZ"
"?nativeIpcKey@QSharedMemory@@QEBA?AVQNativeIpcKey@@XZ"
"?nativeIpcKey@QSystemSemaphore@@QEBA?AVQNativeIpcKey@@XZ"
"?nativeKey@QSharedMemory@@QEBA?AVQString@@XZ"
"?nativeLanguageName@QLocale@@QEBA?AVQString@@XZ"
"?nativeTerritoryName@QLocale@@QEBA?AVQString@@XZ"
"?negativeSign@QLocale@@QEBA?AVQString@@XZ"
"?newInstance@QMetaObject@@QEBAPEAVQObject@@VQGenericArgument@@000000000@Z"
"?newInstanceImpl@QMetaObject@@CAPEAVQObject@@PEBU1@_JPEAPEBXPEAPEBDPEAPEBVQMetaTypeInterface@QtPrivate@@@Z"
"?next@QCborStreamReader@@QEAA_NH@Z"
"?next@QDirIterator@@QEAA?AVQString@@XZ"
"?next@QDirListing@@CA?AVDirEntry@1@V21@@Z"
"?next@QRegularExpressionMatchIterator@@QEAA?AVQRegularExpressionMatch@@XZ"
"?nextFileInfo@QDirIterator@@QEAA?AVQFileInfo@@XZ"
"?nextTransition@QTimeZone@@QEBA?AUOffsetData@1@AEBVQDateTime@@@Z"
"?noDebug@QMessageLogger@@QEBA?AVQNoDebug@@XZ"
"?noDebug@QMessageLogger@@QEBAXPEBDZZ"
"?noforcepoint@Qt@@YAAEAVQTextStream@@AEAV2@@Z"
"?noforcesign@Qt@@YAAEAVQTextStream@@AEAV2@@Z"
"?noquote@QDebug@@QEAAAEAV1@XZ"
"?normalVector@QLineF@@QEBA?AV1@XZ"
"?normalized@QRect@@QEBA?AV1@XZ"
"?normalized@QRectF@@QEBA?AV1@XZ"
"?normalized@QString@@QEBA?AV1@W4NormalizationForm@1@W4UnicodeVersion@QChar@@@Z"
"?normalized@QVersionNumber@@QEBA?AV1@XZ"
"?normalizedSignature@QMetaObject@@SA?AVQByteArray@@PEBD@Z"
"?normalizedType@QMetaObject@@SA?AVQByteArray@@PEBD@Z"
"?noshowbase@Qt@@YAAEAVQTextStream@@AEAV2@@Z"
"?nospace@QDebug@@QEAAAEAV1@XZ"
"?notationDeclarations@QXmlStreamReader@@QEBA?AV?$QList@VQXmlStreamNotationDeclaration@@@@XZ"
"?notationName@QXmlStreamEntityDeclaration@@QEBA?AVQStringView@@XZ"
"?notify@QCoreApplication@@UEAA_NPEAVQObject@@PEAVQEvent@@@Z"
"?notifyCompleted@QWindowsPipeWriter@@AEAAXPEAV?$QMutexLocker@VQMutex@@@@@Z"
"?notifyInternal2@QCoreApplication@@CA_NPEAVQObject@@PEAVQEvent@@@Z"
"?notifyNonRecursive@QPropertyBindingPrivate@@QEAA?AW4NotificationState@1@XZ"
"?notifyNonRecursive@QPropertyBindingPrivate@@QEAAXAEBV?$QVarLengthArray@VQPropertyBindingPrivatePtr@@$0BAA@@@@Z"
"?notifyObserver_helper@QPropertyBindingData@QtPrivate@@AEBA?AW4NotificationResult@12@PEAVQUntypedPropertyData@@PEAVQBindingStorage@@UQPropertyObserverPointer@@AEAV?$QVarLengthArray@VQPropertyBindingPrivatePtr@@$0BAA@@@@Z"
"?notifyObservers@QPropertyBindingData@QtPrivate@@QEBAXPEAVQUntypedPropertyData@@@Z"
"?notifyObservers@QPropertyBindingData@QtPrivate@@QEBAXPEAVQUntypedPropertyData@@PEAVQBindingStorage@@@Z"
"?notifySignal@QMetaProperty@@QEBA?AVQMetaMethod@@XZ"
"?notifySignal@QMetaPropertyBuilder@@QEBA?AVQMetaMethodBuilder@@XZ"
"?notifySignalIndex@QMetaProperty@@QEBAHXZ"
"?notify_all@QWaitCondition@@QEAAXXZ"
"?notify_helper@QCoreApplicationPrivate@@SA_NPEAVQObject@@PEAVQEvent@@@Z"
"?notify_one@QWaitCondition@@QEAAXXZ"
"?nsecsElapsed@QElapsedTimer@@QEBA_JXZ"
"?nullDevice@QProcess@@SA?AVQString@@XZ"
"?nullJd@QDate@@CA_JXZ"
"?number@QByteArray@@SA?AV1@HH@Z"
"?number@QByteArray@@SA?AV1@IH@Z"
"?number@QByteArray@@SA?AV1@JH@Z"
"?number@QByteArray@@SA?AV1@KH@Z"
"?number@QByteArray@@SA?AV1@NDH@Z"
"?number@QByteArray@@SA?AV1@_JH@Z"
"?number@QByteArray@@SA?AV1@_KH@Z"
"?number@QString@@SA?AV1@HH@Z"
"?number@QString@@SA?AV1@IH@Z"
"?number@QString@@SA?AV1@JH@Z"
"?number@QString@@SA?AV1@KH@Z"
"?number@QString@@SA?AV1@NDH@Z"
"?number@QString@@SA?AV1@_JH@Z"
"?number@QString@@SA?AV1@_KH@Z"
"?numberFlags@QTextStream@@QEBA?AV?$QFlags@W4NumberFlag@QTextStream@@@@XZ"
"?numberOptions@QLocale@@QEBA?AV?$QFlags@W4NumberOption@QLocale@@@@XZ"
"?numericMode@QCollator@@QEBA_NXZ"
"?object@QJsonDocument@@QEBA?AVQJsonObject@@XZ"
"?objectDestroyed@QDynamicMetaObjectData@@UEAAXPEAVQObject@@@Z"
"?objectDestroyed@QObjectCleanupHandler@@AEAAXPEAVQObject@@@Z"
"?objectKey@QJsonValueConstRef@@KA?AVQString@@V1@@Z"
"?objectName@QObject@@QEBA?AVQString@@XZ"
"?objectNameChanged@QObject@@QEAAXAEBVQString@@UQPrivateSignal@1@@Z"
"?oct@Qt@@YAAEAVQTextStream@@AEAV2@@Z"
"?offsetData@QTimeZone@@QEBA?AUOffsetData@1@AEBVQDateTime@@@Z"
"?offsetFromUtc@QDateTime@@QEBAHXZ"
"?offsetFromUtc@QTimeZone@@QEBAHAEBVQDateTime@@@Z"
"?offsettable@qfloat16@@0QBIB"
"?open@QAbstractFileEngine@@UEAA_NV?$QFlags@W4OpenModeFlag@QIODeviceBase@@@@V?$optional@V?$QFlags@W4Permission@QFileDevice@@@@@std@@@Z"
"?open@QBuffer@@UEAA_NV?$QFlags@W4OpenModeFlag@QIODeviceBase@@@@@Z"
"?open@QFSFileEngine@@QEAA_NV?$QFlags@W4OpenModeFlag@QIODeviceBase@@@@H@Z"
"?open@QFSFileEngine@@QEAA_NV?$QFlags@W4OpenModeFlag@QIODeviceBase@@@@HV?$QFlags@W4FileHandleFlag@QFileDevice@@@@@Z"
"?open@QFSFileEngine@@QEAA_NV?$QFlags@W4OpenModeFlag@QIODeviceBase@@@@PEAU_iobuf@@@Z"
"?open@QFSFileEngine@@QEAA_NV?$QFlags@W4OpenModeFlag@QIODeviceBase@@@@PEAU_iobuf@@V?$QFlags@W4FileHandleFlag@QFileDevice@@@@@Z"
"?open@QFSFileEngine@@UEAA_NV?$QFlags@W4OpenModeFlag@QIODeviceBase@@@@V?$optional@V?$QFlags@W4Permission@QFileDevice@@@@@std@@@Z"
"?open@QFile@@QEAA_NHV?$QFlags@W4OpenModeFlag@QIODeviceBase@@@@V?$QFlags@W4FileHandleFlag@QFileDevice@@@@@Z"
"?open@QFile@@QEAA_NPEAU_iobuf@@V?$QFlags@W4OpenModeFlag@QIODeviceBase@@@@V?$QFlags@W4FileHandleFlag@QFileDevice@@@@@Z"
"?open@QFile@@QEAA_NV?$QFlags@W4OpenModeFlag@QIODeviceBase@@@@V?$QFlags@W4Permission@QFileDevice@@@@@Z"
"?open@QFile@@UEAA_NV?$QFlags@W4OpenModeFlag@QIODeviceBase@@@@@Z"
"?open@QIODevice@@UEAA_NV?$QFlags@W4OpenModeFlag@QIODeviceBase@@@@@Z"
"?open@QProcess@@UEAA_NV?$QFlags@W4OpenModeFlag@QIODeviceBase@@@@@Z"
"?open@QSaveFile@@UEAA_NV?$QFlags@W4OpenModeFlag@QIODeviceBase@@@@@Z"
"?open@QTemporaryFile@@MEAA_NV?$QFlags@W4OpenModeFlag@QIODeviceBase@@@@@Z"
"?open@QTemporaryFile@@QEAA_NXZ"
"?openMode@QIODevice@@QEBA?AV?$QFlags@W4OpenModeFlag@QIODeviceBase@@@@XZ"
"?optimize@QRegularExpression@@QEBAXXZ"
"?optionNames@QCommandLineParser@@QEBA?AV?$QList@VQString@@@@XZ"
"?organizationDomain@QCoreApplication@@SA?AVQString@@XZ"
"?organizationDomainChanged@QCoreApplication@@QEAAXXZ"
"?organizationName@QCoreApplication@@SA?AVQString@@XZ"
"?organizationName@QSettings@@QEBA?AVQString@@XZ"
"?organizationNameChanged@QCoreApplication@@QEAAXXZ"
"?overshoot@QEasingCurve@@QEBANXZ"
"?owner@QAbstractFileEngine@@UEBA?AVQString@@W4FileOwner@1@@Z"
"?owner@QFSFileEngine@@UEBA?AVQString@@W4FileOwner@QAbstractFileEngine@@@Z"
"?owner@QFileInfo@@QEBA?AVQString@@XZ"
"?ownerId@QAbstractFileEngine@@UEBAIW4FileOwner@1@@Z"
"?ownerId@QFSFileEngine@@UEBAIW4FileOwner@QAbstractFileEngine@@@Z"
"?ownerId@QFileInfo@@QEBAIXZ"
"?p1@QLine@@QEBA?AVQPoint@@XZ"
"?p1@QLineF@@QEBA?AVQPointF@@XZ"
"?p2@QLine@@QEBA?AVQPoint@@XZ"
"?p2@QLineF@@QEBA?AVQPointF@@XZ"
"?padChar@QTextStream@@QEBA?AVQChar@@XZ"
"?parameterCount@QMetaMethod@@QEBAHXZ"
"?parameterMetaType@QMetaMethod@@QEBA?AVQMetaType@@H@Z"
"?parameterNames@QMetaMethod@@QEBA?AV?$QList@VQByteArray@@@@XZ"
"?parameterNames@QMetaMethodBuilder@@QEBA?AV?$QList@VQByteArray@@@@XZ"
"?parameterType@QMetaMethod@@QEBAHH@Z"
"?parameterTypeName@QMetaMethod@@QEBA?AVQByteArray@@H@Z"
"?parameterTypes@QMetaMethod@@QEBA?AV?$QList@VQByteArray@@@@XZ"
"?parameterTypes@QMetaMethodBuilder@@QEBA?AV?$QList@VQByteArray@@@@XZ"
"?parent@QAbstractListModel@@EEBA?AVQModelIndex@@AEBV2@@Z"
"?parent@QAbstractTableModel@@EEBA?AVQModelIndex@@AEBV2@@Z"
"?parent@QConcatenateTablesProxyModel@@UEBA?AVQModelIndex@@AEBV2@@Z"
"?parent@QIdentityProxyModel@@UEBA?AVQModelIndex@@AEBV2@@Z"
"?parent@QItemSelectionRange@@QEBA?AVQModelIndex@@XZ"
"?parent@QObject@@QEBAPEAV1@XZ"
"?parent@QPersistentModelIndex@@QEBA?AVQModelIndex@@XZ"
"?parent@QSortFilterProxyModel@@UEBA?AVQModelIndex@@AEBV2@@Z"
"?parent@QTransposeProxyModel@@UEBA?AVQModelIndex@@AEBV2@@Z"
"?parentContainerType@QCborStreamReader@@QEBA?AW4Type@1@XZ"
"?parentMimeTypes@QMimeType@@QEBA?AV?$QList@VQString@@@@XZ"
"?parse@QCommandLineParser@@QEAA_NAEBV?$QList@VQString@@@@@Z"
"?parse@QDateTimeParser@@QEBA?AUStateNode@1@AEBVQString@@HAEBVQDateTime@@_N@Z"
"?parseFormat@QDateTimeParser@@QEAA_NVQStringView@@@Z"
"?parseIp4@QIPAddressUtils@@YA_NAEAIPEBVQChar@@1@Z"
"?parseIp6@QIPAddressUtils@@YAPEBVQChar@@AEAY0BA@EPEBV2@1@Z"
"?parseSection@QDateTimeParser@@AEBA?AUParsedSection@1@AEBVQDateTime@@HH@Z"
"?partsFromDate@QCalendar@@QEBA?AUYearMonthDay@1@VQDate@@@Z"
"?partsFromJulian@QGregorianCalendar@@SA?AUYearMonthDay@QCalendar@@_J@Z"
"?password@QUrl@@QEBA?AVQString@@V?$QFlags@W4ComponentFormattingOption@QUrl@@@@@Z"
"?path@QAbstractFileEngineIterator@@QEBA?AVQString@@XZ"
"?path@QDir@@QEBA?AVQString@@XZ"
"?path@QDirIterator@@QEBA?AVQString@@XZ"
"?path@QFileInfo@@QEBA?AVQString@@XZ"
"?path@QLibraryInfo@@SA?AVQString@@W4LibraryPath@1@@Z"
"?path@QLibraryInfoPrivate@@SA?AVQString@@W4LibraryPath@QLibraryInfo@@W4UsageMode@1@@Z"
"?path@QTemporaryDir@@QEBA?AVQString@@XZ"
"?path@QUrl@@QEBA?AVQString@@V?$QFlags@W4ComponentFormattingOption@QUrl@@@@@Z"
"?paths@QLibraryInfo@@SA?AV?$QList@VQString@@@@W4LibraryPath@1@@Z"
"?paths@QLibraryInfoPrivate@@SA?AV?$QList@VQString@@@@W4LibraryPath@QLibraryInfo@@W4UsageMode@1@@Z"
"?pattern@QByteArrayMatcher@@QEBA?AVQByteArray@@XZ"
"?pattern@QLatin1StringMatcher@@QEBA?AVQLatin1String@@XZ"
"?pattern@QRegularExpression@@QEBA?AVQString@@XZ"
"?pattern@QStringMatcher@@QEBA?AVQString@@XZ"
"?patternErrorOffset@QRegularExpression@@QEBA_JXZ"
"?patternOptions@QRegularExpression@@QEBA?AV?$QFlags@W4PatternOption@QRegularExpression@@@@XZ"
"?patternView@QStringMatcher@@QEBA?AVQStringView@@XZ"
"?pause@QAbstractAnimation@@QEAAXXZ"
"?pause@QFutureWatcherBase@@QEAAXXZ"
"?pauseAnimationTimer@QUnifiedTimer@@SAXPEAVQAbstractAnimationTimer@@H@Z"
"?paused@QFutureWatcherBase@@QEAAXXZ"
"?peek@QIODevice@@QEAA?AVQByteArray@@_J@Z"
"?peek@QIODevice@@QEAA_JPEAD_J@Z"
"?peek@QIODevicePrivate@@UEAA?AVQByteArray@@_J@Z"
"?peek@QIODevicePrivate@@UEAA_JPEAD_J@Z"
"?peek@QRingBuffer@@QEBA_JPEAD_J1@Z"
"?peekNext@QRegularExpressionMatchIterator@@QEBA?AVQRegularExpressionMatch@@XZ"
"?percent@QLocale@@QEBA?AVQString@@XZ"
"?percentDecoded@QByteArray@@QEBA?AV1@D@Z"
"?period@QEasingCurve@@QEBANXZ"
"?permission@QFileInfo@@QEBA_NV?$QFlags@W4Permission@QFileDevice@@@@@Z"
"?permissions@QFile@@SA?AV?$QFlags@W4Permission@QFileDevice@@@@AEBVQString@@@Z"
"?permissions@QFile@@UEBA?AV?$QFlags@W4Permission@QFileDevice@@@@XZ"
"?permissions@QFileDevice@@UEBA?AV?$QFlags@W4Permission@QFileDevice@@@@XZ"
"?permissions@QFileInfo@@QEBA?AV?$QFlags@W4Permission@QFileDevice@@@@XZ"
"?persistentIndexList@QAbstractItemModel@@IEBA?AV?$QList@VQModelIndex@@@@XZ"
"?pipeClosed@QWindowsPipeReader@@QEAAXXZ"
"?placeMetaCall@QMetaCallEvent@@UEAAXPEAVQObject@@@Z"
"?platformPluginArguments@QLibraryInfo@@SA?AV?$QList@VQString@@@@AEBVQString@@@Z"
"?platformSafeKey@QSharedMemory@@SA?AVQNativeIpcKey@@AEBVQString@@W4Type@2@@Z"
"?platformSafeKey@QSystemSemaphore@@SA?AVQNativeIpcKey@@AEBVQString@@W4Type@2@@Z"
"?platformSelectors@QFileSelectorPrivate@@SA?AV?$QList@VQString@@@@XZ"
"?pmText@QLocale@@QEBA?AVQString@@XZ"
"?pointAt@QLineF@@QEBA?AVQPointF@@N@Z"
"?polished@QChildEvent@@QEBA_NXZ"
"?pop_back@QCborArray@@QEAAXXZ"
"?pop_back@QJsonArray@@QEAAXXZ"
"?pop_front@QCborArray@@QEAAXXZ"
"?pop_front@QJsonArray@@QEAAXXZ"
"?port@QUrl@@QEBAHH@Z"
"?pos@QAbstractFileEngine@@UEBA_JXZ"
"?pos@QBuffer@@UEBA_JXZ"
"?pos@QFSFileEngine@@UEBA_JXZ"
"?pos@QFileDevice@@UEBA_JXZ"
"?pos@QIODevice@@UEBA_JXZ"
"?pos@QNonContiguousByteDevice@@UEBA_JXZ"
"?pos@QTextStream@@QEBA_JXZ"
"?position@QTextBoundaryFinder@@QEBA_JXZ"
"?positionalArguments@QCommandLineParser@@QEBA?AV?$QList@VQString@@@@XZ"
"?positiveSign@QLocale@@QEBA?AVQString@@XZ"
"?postActivateSocketNotifiers@QEventDispatcherWin32Private@@QEAAXXZ"
"?postEvent@QCoreApplication@@SAXPEAVQObject@@PEAVQEvent@@H@Z"
"?potentialValue@QDateTimeParser@@AEBA_NAEBVQString@@HHHAEBVQDateTime@@H@Z"
"?potentialValue@QDateTimeParser@@AEBA_NVQStringView@@HHHAEBVQDateTime@@H@Z"
"?precedes@QDateTime@@AEBA_NAEBV1@@Z"
"?preferredAlignment@QMetaStringTable@@SAHXZ"
"?preferredSuffix@QMimeType@@QEBA?AVQString@@XZ"
"?prefix@QXmlStreamAttribute@@QEBA?AVQStringView@@XZ"
"?prefix@QXmlStreamNamespaceDeclaration@@QEBA?AVQStringView@@XZ"
"?prefix@QXmlStreamReader@@QEBA?AVQStringView@@XZ"
"?prepareForEmplace@QVariant@@AEAAPEAXVQMetaType@@@Z"
"?preparse@QCborStreamReader@@AEAAXXZ"
"?prepend@QByteArray@@QEAAAEAV1@AEBV1@@Z"
"?prepend@QByteArray@@QEAAAEAV1@D@Z"
"?prepend@QByteArray@@QEAAAEAV1@PEBD@Z"
"?prepend@QByteArray@@QEAAAEAV1@PEBD_J@Z"
"?prepend@QByteArray@@QEAAAEAV1@VQByteArrayView@@@Z"
"?prepend@QByteArray@@QEAAAEAV1@_JD@Z"
"?prepend@QCborArray@@QEAAX$$QEAVQCborValue@@@Z"
"?prepend@QCborArray@@QEAAXAEBVQCborValue@@@Z"
"?prepend@QJsonArray@@QEAAXAEBVQJsonValue@@@Z"
"?prepend@QString@@QEAAAEAV1@AEBV1@@Z"
"?prepend@QString@@QEAAAEAV1@AEBVQByteArray@@@Z"
"?prepend@QString@@QEAAAEAV1@PEBD@Z"
"?prepend@QString@@QEAAAEAV1@PEBVQChar@@_J@Z"
"?prepend@QString@@QEAAAEAV1@V?$QBasicUtf8StringView@$0A@@@@Z"
"?prepend@QString@@QEAAAEAV1@VQChar@@@Z"
"?prepend@QString@@QEAAAEAV1@VQLatin1String@@@Z"
"?prepend@QString@@QEAAAEAV1@VQStringView@@@Z"
"?prependObserver@QPropertyBindingPrivate@@QEAAXUQPropertyObserverPointer@@@Z"
"?prettyProductName@QSysInfo@@SA?AVQString@@XZ"
"?previousTransition@QTimeZone@@QEBA?AUOffsetData@1@AEBVQDateTime@@@Z"
"?printMetaTypeMismatch@BindableWarnings@QtPrivate@@YAXVQMetaType@@0@Z"
"?printUnsuitableBindableWarning@BindableWarnings@QtPrivate@@YAXVQAnyStringView@@W4Reason@12@@Z"
"?priority@QThread@@QEBA?AW4Priority@1@XZ"
"?process@QCommandLineParser@@QEAAXAEBV?$QList@VQString@@@@@Z"
"?process@QCommandLineParser@@QEAAXAEBVQCoreApplication@@@Z"
"?processChannelMode@QProcess@@QEBA?AW4ProcessChannelMode@1@XZ"
"?processCommandLineArguments@QCoreApplicationPrivate@@QEAAXXZ"
"?processEnvironment@QProcess@@QEBA?AVQProcessEnvironment@@XZ"
"?processEvents@QCoreApplication@@SAXV?$QFlags@W4ProcessEventsFlag@QEventLoop@@@@@Z"
"?processEvents@QCoreApplication@@SAXV?$QFlags@W4ProcessEventsFlag@QEventLoop@@@@H@Z"
"?processEvents@QCoreApplication@@SAXV?$QFlags@W4ProcessEventsFlag@QEventLoop@@@@VQDeadlineTimer@@@Z"
"?processEvents@QEventDispatcherWin32@@UEAA_NV?$QFlags@W4ProcessEventsFlag@QEventLoop@@@@@Z"
"?processEvents@QEventLoop@@QEAAXV?$QFlags@W4ProcessEventsFlag@QEventLoop@@@@H@Z"
"?processEvents@QEventLoop@@QEAAXV?$QFlags@W4ProcessEventsFlag@QEventLoop@@@@VQDeadlineTimer@@@Z"
"?processEvents@QEventLoop@@QEAA_NV?$QFlags@W4ProcessEventsFlag@QEventLoop@@@@@Z"
"?processEventsWithDeadline@QAbstractEventDispatcherV2@@UEAA_NV?$QFlags@W4ProcessEventsFlag@QEventLoop@@@@VQDeadlineTimer@@@Z"
"?processId@QProcess@@QEBA_JXZ"
"?processNameByPid@QLockFilePrivate@@SA?AVQString@@_J@Z"
"?processOpenModeFlags@@YA?AUProcessOpenModeResult@@V?$QFlags@W4OpenModeFlag@QIODeviceBase@@@@@Z"
"?processingInstructionData@QXmlStreamReader@@QEBA?AVQStringView@@XZ"
"?processingInstructionTarget@QXmlStreamReader@@QEBA?AVQStringView@@XZ"
"?productType@QSysInfo@@SA?AVQString@@XZ"
"?productVersion@QSysInfo@@SA?AVQString@@XZ"
"?program@QProcess@@QEBA?AVQString@@XZ"
"?progressMaximum@QFutureInterfaceBase@@QEBAHXZ"
"?progressMaximum@QFutureWatcherBase@@QEBAHXZ"
"?progressMinimum@QFutureInterfaceBase@@QEBAHXZ"
"?progressMinimum@QFutureWatcherBase@@QEBAHXZ"
"?progressRangeChanged@QFutureWatcherBase@@QEAAXHH@Z"
"?progressText@QFutureInterfaceBase@@QEBA?AVQString@@XZ"
"?progressText@QFutureWatcherBase@@QEBA?AVQString@@XZ"
"?progressTextChanged@QFutureWatcherBase@@QEAAXAEBVQString@@@Z"
"?progressValue@QFutureInterfaceBase@@QEBAHXZ"
"?progressValue@QFutureWatcherBase@@QEBAHXZ"
"?progressValueChanged@QFutureWatcherBase@@QEAAXH@Z"
"?properties@QUnicodeTables@@YAPEBUProperties@1@_S@Z"
"?properties@QUnicodeTables@@YAPEBUProperties@1@_U@Z"
"?property@QMetaObject@@QEBA?AVQMetaProperty@@H@Z"
"?property@QMetaObjectBuilder@@QEBA?AVQMetaPropertyBuilder@@H@Z"
"?property@QObject@@QEBA?AVQVariant@@PEBD@Z"
"?propertyCount@QMetaObject@@QEBAHXZ"
"?propertyCount@QMetaObjectBuilder@@QEBAHXZ"
"?propertyIndex@QMetaProperty@@QEBAHXZ"
"?propertyName@QDynamicPropertyChangeEvent@@QEBA?AVQByteArray@@XZ"
"?propertyName@QPropertyAnimation@@QEBA?AVQByteArray@@XZ"
"?propertyOffset@QMetaObject@@QEBAHXZ"
"?proxyData@QPropertyBindingData@QtPrivate@@AEBAPEAUQPropertyProxyBindingData@@XZ"
"?publicId@QXmlStreamEntityDeclaration@@QEBA?AVQStringView@@XZ"
"?publicId@QXmlStreamNotationDeclaration@@QEBA?AVQStringView@@XZ"
"?push_back@QByteArray@@QEAAXAEBV1@@Z"
"?push_back@QByteArray@@QEAAXD@Z"
"?push_back@QByteArray@@QEAAXPEBD@Z"
"?push_back@QByteArray@@QEAAXVQByteArrayView@@@Z"
"?push_back@QCborArray@@QEAAXAEBVQCborValue@@@Z"
"?push_back@QJsonArray@@QEAAXAEBVQJsonValue@@@Z"
"?push_back@QString@@QEAAXAEBV1@@Z"
"?push_back@QString@@QEAAXVQChar@@@Z"
"?push_front@QByteArray@@QEAAXAEBV1@@Z"
"?push_front@QByteArray@@QEAAXD@Z"
"?push_front@QByteArray@@QEAAXPEBD@Z"
"?push_front@QByteArray@@QEAAXVQByteArrayView@@@Z"
"?push_front@QCborArray@@QEAAXAEBVQCborValue@@@Z"
"?push_front@QJsonArray@@QEAAXAEBVQJsonValue@@@Z"
"?push_front@QString@@QEAAXAEBV1@@Z"
"?push_front@QString@@QEAAXVQChar@@@Z"
"?putByteArray@QDebug@@AEAAXPEBD_KW4Latin1Content@1@@Z"
"?putChar@QIODevice@@QEAA_ND@Z"
"?putCharHelper@QIODevicePrivate@@UEAA_ND@Z"
"?putInt128@QDebug@@AEAAXPEBX@Z"
"?putString@QDebug@@AEAAXPEBVQChar@@_K@Z"
"?putTimeUnit@QDebug@@AEAAX_J0@Z"
"?putUInt128@QDebug@@AEAAXPEBX@Z"
"?putUcs4@QDebug@@AEAAXI@Z"
"?qAddPostRoutine@@YAXP6AXXZ@Z"
"?qAddPreRoutine@@YAXP6AXXZ@Z"
"?qAppName@@YA?AVQString@@XZ"
"?qAreNtfsPermissionChecksEnabled@@YA_NXZ"
"?qBadAlloc@@YAXXZ"
"?qCalculateBlockSize@@YA_J_J00@Z"
"?qCalculateGrowingBlockSize@@YA?AUCalculateGrowingBlockSizeResult@@_J00@Z"
"?qChecksum@@YAGVQByteArrayView@@W4ChecksumType@Qt@@@Z"
"?qCompress@@YA?AVQByteArray@@PEBE_JH@Z"
"?qDecodeDataUrl@@YA_NAEBVQUrl@@AEAVQString@@AEAVQByteArray@@@Z"
"?qDisableNtfsPermissionChecks@@YA_NXZ"
"?qEnableNtfsPermissionChecks@@YA_NXZ"
"?qEnvironmentVariable@@YA?AVQString@@PEBD@Z"
"?qEnvironmentVariable@@YA?AVQString@@PEBDAEBV1@@Z"
"?qEnvironmentVariableIntValue@@YAHPEBDPEA_N@Z"
"?qEnvironmentVariableIsEmpty@@YA_NPEBD@Z"
"?qEnvironmentVariableIsSet@@YA_NPEBD@Z"
"?qErrnoWarning@@YAXHPEBDZZ"
"?qErrnoWarning@@YAXPEBDZZ"
"?qFlagLocation@@YAPEBDPEBD@Z"
"?qFloatDistance@@YAIMM@Z"
"?qFloatDistance@@YA_KNN@Z"
"?qFloatFromFloat16@@YAXPEAMPEBVqfloat16@@_J@Z"
"?qFloatToFloat16@@YAXPEAVqfloat16@@PEBM_J@Z"
"?qFormatLogMessage@@YA?AVQString@@W4QtMsgType@@AEBVQMessageLogContext@@AEBV1@@Z"
"?qFpClassify@@YAHM@Z"
"?qFpClassify@@YAHN@Z"
"?qFreeAligned@@YAXPEAX@Z"
"?qGlobalQHashSeed@@YAHXZ"
"?qHash@@YA_KAEBVFromBase64Result@QByteArray@@_K@Z"
"?qHash@@YA_KAEBVQBitArray@@_K@Z"
"?qHash@@YA_KAEBVQByteArray@@_K@Z"
"?qHash@@YA_KAEBVQByteArrayView@@_K@Z"
"?qHash@@YA_KAEBVQCborArray@@_K@Z"
"?qHash@@YA_KAEBVQCborMap@@_K@Z"
"?qHash@@YA_KAEBVQCborValue@@_K@Z"
"?qHash@@YA_KAEBVQDateTime@@_K@Z"
"?qHash@@YA_KAEBVQJsonArray@@_K@Z"
"?qHash@@YA_KAEBVQJsonObject@@_K@Z"
"?qHash@@YA_KAEBVQJsonValue@@_K@Z"
"?qHash@@YA_KAEBVQLocale@@_K@Z"
"?qHash@@YA_KAEBVQMimeType@@_K@Z"
"?qHash@@YA_KAEBVQNativeIpcKey@@_K@Z"
"?qHash@@YA_KAEBVQRegularExpression@@_K@Z"
"?qHash@@YA_KAEBVQTypeRevision@@_K@Z"
"?qHash@@YA_KAEBVQUrl@@_K@Z"
"?qHash@@YA_KAEBVQUrlQuery@@_K@Z"
"?qHash@@YA_KAEBVQUuid@@_K@Z"
"?qHash@@YA_KAEBVQVersionNumber@@_K@Z"
"?qHash@@YA_KN_K@Z"
"?qHash@@YA_KO_K@Z"
"?qHash@@YA_KVQByteArrayView@@_K@Z"
"?qHash@@YA_KVQDate@@_K@Z"
"?qHash@@YA_KVQLatin1String@@_K@Z"
"?qHash@@YA_KVQPoint@@_K@Z"
"?qHash@@YA_KVQStringView@@_K@Z"
"?qHash@@YA_KVQTime@@_K@Z"
"?qHashBits@@YA_KPEBX_K1@Z"
"?qInf@@YANXZ"
"?qInstallMessageHandler@@YAP6AXW4QtMsgType@@AEBVQMessageLogContext@@AEBVQString@@@ZP6AX012@Z@Z"
"?qIsFinite@@YA_NM@Z"
"?qIsFinite@@YA_NN@Z"
"?qIsInf@@YA_NM@Z"
"?qIsInf@@YA_NN@Z"
"?qIsNaN@@YA_NM@Z"
"?qIsNaN@@YA_NN@Z"
"?qLocalTime@@YA_N_JPEAUtm@@@Z"
"?qMallocAligned@@YAPEAX_K0@Z"
"?qMetaTypeGuiHelper@@3PEBVQMetaTypeModuleHelper@@EB"
"?qMetaTypeTypeInternal@@YAHPEBD@Z"
"?qMetaTypeWidgetsHelper@@3PEBVQMetaTypeModuleHelper@@EB"
"?qMkTime@@YA_JPEAUtm@@@Z"
"?qQNaN@@YANXZ"
"?qRandomCpu@@YA_JPEAX_J@Z"
"?qReallocAligned@@YAPEAXPEAX_K11@Z"
"?qRegisterNormalizedMetaType_QCborTag@@YAHAEBVQByteArray@@@Z"
"?qRegisterNormalizedMetaType_QDeadlineTimer@@YAHAEBVQByteArray@@@Z"
"?qRegisterNormalizedMetaType_QFileInfo@@YAHAEBVQByteArray@@@Z"
"?qRegisterNormalizedMetaType_QItemSelection@@YAHAEBVQByteArray@@@Z"
"?qRegisterNormalizedMetaType_QItemSelectionRange@@YAHAEBVQByteArray@@@Z"
"?qRegisterNormalizedMetaType_QList_Qt__DayOfWeek@@YAHAEBVQByteArray@@@Z"
"?qRegisterNormalizedMetaType_QModelIndexList@@YAHAEBVQByteArray@@@Z"
"?qRegisterNormalizedMetaType_QPairVariantInterfaceImpl@@YAHAEBVQByteArray@@@Z"
"?qRegisterNormalizedMetaType_QSocketDescriptor@@YAHAEBVQByteArray@@@Z"
"?qRegisterNormalizedMetaType_QSocketNotifier_Type@@YAHAEBVQByteArray@@@Z"
"?qRegisterNormalizedMetaType_QStorageInfo@@YAHAEBVQByteArray@@@Z"
"?qRegisterNormalizedMetaType_QSystemLocale__CurrencyToStringArgument@@YAHAEBVQByteArray@@@Z"
"?qRegisterNormalizedMetaType_QTypeRevision@@YAHAEBVQByteArray@@@Z"
"?qRegisterNormalizedMetaType_QVersionNumber@@YAHAEBVQByteArray@@@Z"
"?qRegisterNormalizedMetaType_qfloat16@@YAHAEBVQByteArray@@@Z"
"?qRegisterResourceData@@YA_NHPEBE00@Z"
"?qRegisterStaticPluginFunction@@YAXUQStaticPlugin@@@Z"
"?qRemovePostRoutine@@YAXP6AXXZ@Z"
"?qResourceFeatureZlib@@YAEXZ"
"?qSNaN@@YANXZ"
"?qSetGlobalQHashSeed@@YAXH@Z"
"?qSetMessagePattern@@YAXAEBVQString@@@Z"
"?qSharedBuild@@YA_NXZ"
"?qSleep@QTest@@YAXH@Z"
"?qSleep@QTest@@YAXV?$duration@_JU?$ratio@$00$0DOI@@std@@@chrono@std@@@Z"
"?qTerminate@@YAXXZ"
"?qTzName@@YA?AVQString@@H@Z"
"?qTzSet@@YAXXZ"
"?qUncompress@@YA?AVQByteArray@@PEBE_J@Z"
"?qUnregisterResourceData@@YA_NHPEBE00@Z"
"?qWait@QTest@@YAXH@Z"
"?qWait@QTest@@YAXV?$duration@_JU?$ratio@$00$0DOI@@std@@@chrono@std@@@Z"
"?q_func@QAbstractAnimationPrivate@@AEAAPEAVQAbstractAnimation@@XZ"
"?q_func@QAbstractAnimationPrivate@@AEBAPEBVQAbstractAnimation@@XZ"
"?q_func@QAbstractEventDispatcherPrivate@@AEAAPEAVQAbstractEventDispatcher@@XZ"
"?q_func@QAbstractEventDispatcherPrivate@@AEBAPEBVQAbstractEventDispatcher@@XZ"
"?q_func@QAbstractItemModelPrivate@@AEAAPEAVQAbstractItemModel@@XZ"
"?q_func@QAbstractItemModelPrivate@@AEBAPEBVQAbstractItemModel@@XZ"
"?q_func@QAbstractProxyModelPrivate@@AEAAPEAVQAbstractProxyModel@@XZ"
"?q_func@QAbstractProxyModelPrivate@@AEBAPEBVQAbstractProxyModel@@XZ"
"?q_func@QCoreApplicationPrivate@@AEAAPEAVQCoreApplication@@XZ"
"?q_func@QCoreApplicationPrivate@@AEBAPEBVQCoreApplication@@XZ"
"?q_func@QEventDispatcherWin32Private@@AEAAPEAVQEventDispatcherWin32@@XZ"
"?q_func@QEventDispatcherWin32Private@@AEBAPEBVQEventDispatcherWin32@@XZ"
"?q_func@QFileSelectorPrivate@@AEAAPEAVQFileSelector@@XZ"
"?q_func@QFileSelectorPrivate@@AEBAPEBVQFileSelector@@XZ"
"?q_func@QIODevicePrivate@@AEAAPEAVQIODevice@@XZ"
"?q_func@QIODevicePrivate@@AEBAPEBVQIODevice@@XZ"
"?q_func@QIdentityProxyModelPrivate@@AEAAPEAVQIdentityProxyModel@@XZ"
"?q_func@QIdentityProxyModelPrivate@@AEBAPEBVQIdentityProxyModel@@XZ"
"?q_func@QObjectPrivate@@QEAAPEAVQObject@@XZ"
"?q_func@QObjectPrivate@@QEBAPEBVQObject@@XZ"
"?q_func@QThreadPoolPrivate@@AEAAPEAVQThreadPool@@XZ"
"?q_func@QThreadPoolPrivate@@AEBAPEBVQThreadPool@@XZ"
"?qdebugHelper@QVariant@@AEBA?AVQDebug@@V2@@Z"
"?qdtoa@@YA?AVQString@@NPEAH0@Z"
"?qgetenv@@YA?AVQByteArray@@PEBD@Z"
"?qint128toBasicLatin@@YA?AVQString@@U_Signed128@std@@H@Z"
"?qmemrchr@@YAPEBXPEBXH_K@Z"
"?qmljsDebugArgumentsString@QCoreApplicationPrivate@@QEBA?AVQString@@XZ"
"?qputenv@@YA_NPEBDAEBVQByteArray@@@Z"
"?qputenv@@YA_NPEBDVQByteArrayView@@@Z"
"?qsnprintf@@YAHPEAD_KPEBDZZ"
"?qstrcmp@@YAHPEBD0@Z"
"?qstrcpy@@YAPEADPEADPEBD@Z"
"?qstrdup@@YAPEADPEBD@Z"
"?qstricmp@@YAHPEBD0@Z"
"?qstrncpy@@YAPEADPEADPEBD_K@Z"
"?qstrnicmp@@YAHPEBD0_K@Z"
"?qstrnicmp@@YAHPEBD_J01@Z"
"?qstrntod@@YANPEBD_JPEAPEBDPEA_N@Z"
"?qtGuiInstance@QThreadPoolPrivate@@SAPEAVQThreadPool@@XZ"
"?qtHookData@@3PA_KA"
"?qtTrId@@YA?AVQString@@PEBDH@Z"
"?qt_ACE_do@@YA?AVQString@@AEBV1@W4AceOperation@@W4AceLeadingDot@@V?$QFlags@W4AceProcessingOption@QUrl@@@@@Z"
"?qt_QMetaEnum_debugOperator@@YA?AVQDebug@@AEAV1@_JPEBUQMetaObject@@PEBD@Z"
"?qt_QMetaEnum_flagDebugOperator@@YA?AVQDebug@@AEAV1@_KPEBUQMetaObject@@PEBD@Z"
"?qt_QMetaEnum_flagDebugOperator@@YAXAEAVQDebug@@_KH@Z"
"?qt_QMetaEnum_flagDebugOperator@@YAXAEAVQDebug@@_KI@Z"
"?qt_assert@@YAXPEBD0H@Z"
"?qt_assert_x@@YAXPEBD00H@Z"
"?qt_call_post_routines@@YAXXZ"
"?qt_cbor_simpletype_id@@YAPEBDW4QCborSimpleType@@@Z"
"?qt_cbor_tag_id@@YAPEBDW4QCborTag@@@Z"
"?qt_check_pointer@@YAXPEBDH@Z"
"?qt_error_string@@YA?AVQString@@H@Z"
"?qt_from_latin1@@YAXPEA_SPEBD_K@Z"
"?qt_hash@@YAIVQStringView@@I@Z"
"?qt_int_sqrt@@YAII@Z"
"?qt_isCaseSensitive@@YA_NAEBVQFileSystemEntry@@AEAVQFileSystemMetaData@@@Z"
"?qt_localeFromLCID@@YA?AVQLocale@@K@Z"
"?qt_message_output@@YAXW4QtMsgType@@AEBVQMessageLogContext@@AEBVQString@@@Z"
"?qt_metacall@QAbstractAnimation@@UEAAHW4Call@QMetaObject@@HPEAPEAX@Z"
"?qt_metacall@QAbstractAnimationTimer@@UEAAHW4Call@QMetaObject@@HPEAPEAX@Z"
"?qt_metacall@QAbstractEventDispatcher@@UEAAHW4Call@QMetaObject@@HPEAPEAX@Z"
"?qt_metacall@QAbstractEventDispatcherV2@@UEAAHW4Call@QMetaObject@@HPEAPEAX@Z"
"?qt_metacall@QAbstractItemModel@@UEAAHW4Call@QMetaObject@@HPEAPEAX@Z"
"?qt_metacall@QAbstractListModel@@UEAAHW4Call@QMetaObject@@HPEAPEAX@Z"
"?qt_metacall@QAbstractProxyModel@@UEAAHW4Call@QMetaObject@@HPEAPEAX@Z"
"?qt_metacall@QAbstractTableModel@@UEAAHW4Call@QMetaObject@@HPEAPEAX@Z"
"?qt_metacall@QAnimationDriver@@UEAAHW4Call@QMetaObject@@HPEAPEAX@Z"
"?qt_metacall@QAnimationGroup@@UEAAHW4Call@QMetaObject@@HPEAPEAX@Z"
"?qt_metacall@QBuffer@@UEAAHW4Call@QMetaObject@@HPEAPEAX@Z"
"?qt_metacall@QChronoTimer@@UEAAHW4Call@QMetaObject@@HPEAPEAX@Z"
"?qt_metacall@QConcatenateTablesProxyModel@@UEAAHW4Call@QMetaObject@@HPEAPEAX@Z"
"?qt_metacall@QCoreApplication@@UEAAHW4Call@QMetaObject@@HPEAPEAX@Z"
"?qt_metacall@QEventDispatcherWin32@@UEAAHW4Call@QMetaObject@@HPEAPEAX@Z"
"?qt_metacall@QEventLoop@@UEAAHW4Call@QMetaObject@@HPEAPEAX@Z"
"?qt_metacall@QFactoryLoader@@UEAAHW4Call@QMetaObject@@HPEAPEAX@Z"
"?qt_metacall@QFile@@UEAAHW4Call@QMetaObject@@HPEAPEAX@Z"
"?qt_metacall@QFileDevice@@UEAAHW4Call@QMetaObject@@HPEAPEAX@Z"
"?qt_metacall@QFileSelector@@UEAAHW4Call@QMetaObject@@HPEAPEAX@Z"
"?qt_metacall@QFileSystemWatcher@@UEAAHW4Call@QMetaObject@@HPEAPEAX@Z"
"?qt_metacall@QFutureWatcherBase@@UEAAHW4Call@QMetaObject@@HPEAPEAX@Z"
"?qt_metacall@QIODevice@@UEAAHW4Call@QMetaObject@@HPEAPEAX@Z"
"?qt_metacall@QIdentityProxyModel@@UEAAHW4Call@QMetaObject@@HPEAPEAX@Z"
"?qt_metacall@QItemSelectionModel@@UEAAHW4Call@QMetaObject@@HPEAPEAX@Z"
"?qt_metacall@QLibrary@@UEAAHW4Call@QMetaObject@@HPEAPEAX@Z"
"?qt_metacall@QMimeData@@UEAAHW4Call@QMetaObject@@HPEAPEAX@Z"
"?qt_metacall@QNonContiguousByteDevice@@UEAAHW4Call@QMetaObject@@HPEAPEAX@Z"
"?qt_metacall@QObject@@UEAAHW4Call@QMetaObject@@HPEAPEAX@Z"
"?qt_metacall@QObjectCleanupHandler@@UEAAHW4Call@QMetaObject@@HPEAPEAX@Z"
"?qt_metacall@QParallelAnimationGroup@@UEAAHW4Call@QMetaObject@@HPEAPEAX@Z"
"?qt_metacall@QPauseAnimation@@UEAAHW4Call@QMetaObject@@HPEAPEAX@Z"
"?qt_metacall@QPluginLoader@@UEAAHW4Call@QMetaObject@@HPEAPEAX@Z"
"?qt_metacall@QProcess@@UEAAHW4Call@QMetaObject@@HPEAPEAX@Z"
"?qt_metacall@QPropertyAnimation@@UEAAHW4Call@QMetaObject@@HPEAPEAX@Z"
"?qt_metacall@QSaveFile@@UEAAHW4Call@QMetaObject@@HPEAPEAX@Z"
"?qt_metacall@QSequentialAnimationGroup@@UEAAHW4Call@QMetaObject@@HPEAPEAX@Z"
"?qt_metacall@QSettings@@UEAAHW4Call@QMetaObject@@HPEAPEAX@Z"
"?qt_metacall@QSharedMemory@@UEAAHW4Call@QMetaObject@@HPEAPEAX@Z"
"?qt_metacall@QSignalMapper@@UEAAHW4Call@QMetaObject@@HPEAPEAX@Z"
"?qt_metacall@QSocketNotifier@@UEAAHW4Call@QMetaObject@@HPEAPEAX@Z"
"?qt_metacall@QSortFilterProxyModel@@UEAAHW4Call@QMetaObject@@HPEAPEAX@Z"
"?qt_metacall@QStringListModel@@UEAAHW4Call@QMetaObject@@HPEAPEAX@Z"
"?qt_metacall@QTemporaryFile@@UEAAHW4Call@QMetaObject@@HPEAPEAX@Z"
"?qt_metacall@QThread@@UEAAHW4Call@QMetaObject@@HPEAPEAX@Z"
"?qt_metacall@QThreadPool@@UEAAHW4Call@QMetaObject@@HPEAPEAX@Z"
"?qt_metacall@QTimeLine@@UEAAHW4Call@QMetaObject@@HPEAPEAX@Z"
"?qt_metacall@QTimer@@UEAAHW4Call@QMetaObject@@HPEAPEAX@Z"
"?qt_metacall@QTranslator@@UEAAHW4Call@QMetaObject@@HPEAPEAX@Z"
"?qt_metacall@QTransposeProxyModel@@UEAAHW4Call@QMetaObject@@HPEAPEAX@Z"
"?qt_metacall@QUnifiedTimer@@UEAAHW4Call@QMetaObject@@HPEAPEAX@Z"
"?qt_metacall@QVariantAnimation@@UEAAHW4Call@QMetaObject@@HPEAPEAX@Z"
"?qt_metacall@QWinEventNotifier@@UEAAHW4Call@QMetaObject@@HPEAPEAX@Z"
"?qt_metacall@QWindowsPipeReader@@UEAAHW4Call@QMetaObject@@HPEAPEAX@Z"
"?qt_metacall@QWindowsPipeWriter@@UEAAHW4Call@QMetaObject@@HPEAPEAX@Z"
"?qt_metacast@QAbstractAnimation@@UEAAPEAXPEBD@Z"
"?qt_metacast@QAbstractAnimationTimer@@UEAAPEAXPEBD@Z"
"?qt_metacast@QAbstractEventDispatcher@@UEAAPEAXPEBD@Z"
"?qt_metacast@QAbstractEventDispatcherV2@@UEAAPEAXPEBD@Z"
"?qt_metacast@QAbstractItemModel@@UEAAPEAXPEBD@Z"
"?qt_metacast@QAbstractListModel@@UEAAPEAXPEBD@Z"
"?qt_metacast@QAbstractProxyModel@@UEAAPEAXPEBD@Z"
"?qt_metacast@QAbstractTableModel@@UEAAPEAXPEBD@Z"
"?qt_metacast@QAnimationDriver@@UEAAPEAXPEBD@Z"
"?qt_metacast@QAnimationGroup@@UEAAPEAXPEBD@Z"
"?qt_metacast@QBuffer@@UEAAPEAXPEBD@Z"
"?qt_metacast@QChronoTimer@@UEAAPEAXPEBD@Z"
"?qt_metacast@QConcatenateTablesProxyModel@@UEAAPEAXPEBD@Z"
"?qt_metacast@QCoreApplication@@UEAAPEAXPEBD@Z"
"?qt_metacast@QEventDispatcherWin32@@UEAAPEAXPEBD@Z"
"?qt_metacast@QEventLoop@@UEAAPEAXPEBD@Z"
"?qt_metacast@QFactoryLoader@@UEAAPEAXPEBD@Z"
"?qt_metacast@QFile@@UEAAPEAXPEBD@Z"
"?qt_metacast@QFileDevice@@UEAAPEAXPEBD@Z"
"?qt_metacast@QFileSelector@@UEAAPEAXPEBD@Z"
"?qt_metacast@QFileSystemWatcher@@UEAAPEAXPEBD@Z"
"?qt_metacast@QFutureWatcherBase@@UEAAPEAXPEBD@Z"
"?qt_metacast@QIODevice@@UEAAPEAXPEBD@Z"
"?qt_metacast@QIdentityProxyModel@@UEAAPEAXPEBD@Z"
"?qt_metacast@QItemSelectionModel@@UEAAPEAXPEBD@Z"
"?qt_metacast@QLibrary@@UEAAPEAXPEBD@Z"
"?qt_metacast@QMimeData@@UEAAPEAXPEBD@Z"
"?qt_metacast@QNonContiguousByteDevice@@UEAAPEAXPEBD@Z"
"?qt_metacast@QObject@@UEAAPEAXPEBD@Z"
"?qt_metacast@QObjectCleanupHandler@@UEAAPEAXPEBD@Z"
"?qt_metacast@QParallelAnimationGroup@@UEAAPEAXPEBD@Z"
"?qt_metacast@QPauseAnimation@@UEAAPEAXPEBD@Z"
"?qt_metacast@QPluginLoader@@UEAAPEAXPEBD@Z"
"?qt_metacast@QProcess@@UEAAPEAXPEBD@Z"
"?qt_metacast@QPropertyAnimation@@UEAAPEAXPEBD@Z"
"?qt_metacast@QSaveFile@@UEAAPEAXPEBD@Z"
"?qt_metacast@QSequentialAnimationGroup@@UEAAPEAXPEBD@Z"
"?qt_metacast@QSettings@@UEAAPEAXPEBD@Z"
"?qt_metacast@QSharedMemory@@UEAAPEAXPEBD@Z"
"?qt_metacast@QSignalMapper@@UEAAPEAXPEBD@Z"
"?qt_metacast@QSocketNotifier@@UEAAPEAXPEBD@Z"
"?qt_metacast@QSortFilterProxyModel@@UEAAPEAXPEBD@Z"
"?qt_metacast@QStringListModel@@UEAAPEAXPEBD@Z"
"?qt_metacast@QTemporaryFile@@UEAAPEAXPEBD@Z"
"?qt_metacast@QThread@@UEAAPEAXPEBD@Z"
"?qt_metacast@QThreadPool@@UEAAPEAXPEBD@Z"
"?qt_metacast@QTimeLine@@UEAAPEAXPEBD@Z"
"?qt_metacast@QTimer@@UEAAPEAXPEBD@Z"
"?qt_metacast@QTranslator@@UEAAPEAXPEBD@Z"
"?qt_metacast@QTransposeProxyModel@@UEAAPEAXPEBD@Z"
"?qt_metacast@QUnifiedTimer@@UEAAPEAXPEBD@Z"
"?qt_metacast@QVariantAnimation@@UEAAPEAXPEBD@Z"
"?qt_metacast@QWinEventNotifier@@UEAAPEAXPEBD@Z"
"?qt_metacast@QWindowsPipeReader@@UEAAPEAXPEBD@Z"
"?qt_metacast@QWindowsPipeWriter@@UEAAPEAXPEBD@Z"
"?qt_ntfs_permission_lookup@@3HA"
"?qt_qFindChild_helper@@YAPEAVQObject@@PEBV1@AEBVQString@@AEBUQMetaObject@@V?$QFlags@W4FindChildOption@Qt@@@@@Z"
"?qt_qFindChild_helper@@YAPEAVQObject@@PEBV1@VQAnyStringView@@AEBUQMetaObject@@V?$QFlags@W4FindChildOption@Qt@@@@@Z"
"?qt_qFindChildren_helper@@YAXPEBVQObject@@AEBUQMetaObject@@PEAV?$QList@PEAX@@V?$QFlags@W4FindChildOption@Qt@@@@@Z"
"?qt_qFindChildren_helper@@YAXPEBVQObject@@AEBVQRegularExpression@@AEBUQMetaObject@@PEAV?$QList@PEAX@@V?$QFlags@W4FindChildOption@Qt@@@@@Z"
"?qt_qFindChildren_helper@@YAXPEBVQObject@@AEBVQString@@AEBUQMetaObject@@PEAV?$QList@PEAX@@V?$QFlags@W4FindChildOption@Qt@@@@@Z"
"?qt_qFindChildren_helper@@YAXPEBVQObject@@VQAnyStringView@@AEBUQMetaObject@@PEAV?$QList@PEAX@@V?$QFlags@W4FindChildOption@Qt@@@@@Z"
"?qt_register_signal_spy_callbacks@@YAXPEAUQSignalSpyCallbackSet@@@Z"
"?qt_signal_spy_callback_set@@3V?$QBasicAtomicPointer@UQSignalSpyCallbackSet@@@@A"
"?qt_sine_table@@3QBNB"
"?qt_static_metacall@QAbstractAnimation@@CAXPEAVQObject@@W4Call@QMetaObject@@HPEAPEAX@Z"
"?qt_static_metacall@QAbstractAnimationTimer@@CAXPEAVQObject@@W4Call@QMetaObject@@HPEAPEAX@Z"
"?qt_static_metacall@QAbstractEventDispatcher@@CAXPEAVQObject@@W4Call@QMetaObject@@HPEAPEAX@Z"
"?qt_static_metacall@QAbstractEventDispatcherV2@@CAXPEAVQObject@@W4Call@QMetaObject@@HPEAPEAX@Z"
"?qt_static_metacall@QAbstractItemModel@@CAXPEAVQObject@@W4Call@QMetaObject@@HPEAPEAX@Z"
"?qt_static_metacall@QAbstractListModel@@CAXPEAVQObject@@W4Call@QMetaObject@@HPEAPEAX@Z"
"?qt_static_metacall@QAbstractProxyModel@@CAXPEAVQObject@@W4Call@QMetaObject@@HPEAPEAX@Z"
"?qt_static_metacall@QAbstractTableModel@@CAXPEAVQObject@@W4Call@QMetaObject@@HPEAPEAX@Z"
"?qt_static_metacall@QAnimationDriver@@CAXPEAVQObject@@W4Call@QMetaObject@@HPEAPEAX@Z"
"?qt_static_metacall@QAnimationGroup@@CAXPEAVQObject@@W4Call@QMetaObject@@HPEAPEAX@Z"
"?qt_static_metacall@QBuffer@@CAXPEAVQObject@@W4Call@QMetaObject@@HPEAPEAX@Z"
"?qt_static_metacall@QChronoTimer@@CAXPEAVQObject@@W4Call@QMetaObject@@HPEAPEAX@Z"
"?qt_static_metacall@QConcatenateTablesProxyModel@@CAXPEAVQObject@@W4Call@QMetaObject@@HPEAPEAX@Z"
"?qt_static_metacall@QCoreApplication@@CAXPEAVQObject@@W4Call@QMetaObject@@HPEAPEAX@Z"
"?qt_static_metacall@QEventDispatcherWin32@@CAXPEAVQObject@@W4Call@QMetaObject@@HPEAPEAX@Z"
"?qt_static_metacall@QEventLoop@@CAXPEAVQObject@@W4Call@QMetaObject@@HPEAPEAX@Z"
"?qt_static_metacall@QFactoryLoader@@CAXPEAVQObject@@W4Call@QMetaObject@@HPEAPEAX@Z"
"?qt_static_metacall@QFile@@CAXPEAVQObject@@W4Call@QMetaObject@@HPEAPEAX@Z"
"?qt_static_metacall@QFileDevice@@CAXPEAVQObject@@W4Call@QMetaObject@@HPEAPEAX@Z"
"?qt_static_metacall@QFileSelector@@CAXPEAVQObject@@W4Call@QMetaObject@@HPEAPEAX@Z"
"?qt_static_metacall@QFileSystemWatcher@@CAXPEAVQObject@@W4Call@QMetaObject@@HPEAPEAX@Z"
"?qt_static_metacall@QFutureWatcherBase@@CAXPEAVQObject@@W4Call@QMetaObject@@HPEAPEAX@Z"
"?qt_static_metacall@QIODevice@@CAXPEAVQObject@@W4Call@QMetaObject@@HPEAPEAX@Z"
"?qt_static_metacall@QIdentityProxyModel@@CAXPEAVQObject@@W4Call@QMetaObject@@HPEAPEAX@Z"
"?qt_static_metacall@QItemSelectionModel@@CAXPEAVQObject@@W4Call@QMetaObject@@HPEAPEAX@Z"
"?qt_static_metacall@QLibrary@@CAXPEAVQObject@@W4Call@QMetaObject@@HPEAPEAX@Z"
"?qt_static_metacall@QMimeData@@CAXPEAVQObject@@W4Call@QMetaObject@@HPEAPEAX@Z"
"?qt_static_metacall@QMimeType@@CAXPEAVQObject@@W4Call@QMetaObject@@HPEAPEAX@Z"
"?qt_static_metacall@QNonContiguousByteDevice@@CAXPEAVQObject@@W4Call@QMetaObject@@HPEAPEAX@Z"
"?qt_static_metacall@QObject@@CAXPEAV1@W4Call@QMetaObject@@HPEAPEAX@Z"
"?qt_static_metacall@QObjectCleanupHandler@@CAXPEAVQObject@@W4Call@QMetaObject@@HPEAPEAX@Z"
"?qt_static_metacall@QParallelAnimationGroup@@CAXPEAVQObject@@W4Call@QMetaObject@@HPEAPEAX@Z"
"?qt_static_metacall@QPauseAnimation@@CAXPEAVQObject@@W4Call@QMetaObject@@HPEAPEAX@Z"
"?qt_static_metacall@QPluginLoader@@CAXPEAVQObject@@W4Call@QMetaObject@@HPEAPEAX@Z"
"?qt_static_metacall@QProcess@@CAXPEAVQObject@@W4Call@QMetaObject@@HPEAPEAX@Z"
"?qt_static_metacall@QPropertyAnimation@@CAXPEAVQObject@@W4Call@QMetaObject@@HPEAPEAX@Z"
"?qt_static_metacall@QSaveFile@@CAXPEAVQObject@@W4Call@QMetaObject@@HPEAPEAX@Z"
"?qt_static_metacall@QSequentialAnimationGroup@@CAXPEAVQObject@@W4Call@QMetaObject@@HPEAPEAX@Z"
"?qt_static_metacall@QSettings@@CAXPEAVQObject@@W4Call@QMetaObject@@HPEAPEAX@Z"
"?qt_static_metacall@QSharedMemory@@CAXPEAVQObject@@W4Call@QMetaObject@@HPEAPEAX@Z"
"?qt_static_metacall@QSignalMapper@@CAXPEAVQObject@@W4Call@QMetaObject@@HPEAPEAX@Z"
"?qt_static_metacall@QSocketNotifier@@CAXPEAVQObject@@W4Call@QMetaObject@@HPEAPEAX@Z"
"?qt_static_metacall@QSortFilterProxyModel@@CAXPEAVQObject@@W4Call@QMetaObject@@HPEAPEAX@Z"
"?qt_static_metacall@QStringListModel@@CAXPEAVQObject@@W4Call@QMetaObject@@HPEAPEAX@Z"
"?qt_static_metacall@QTemporaryFile@@CAXPEAVQObject@@W4Call@QMetaObject@@HPEAPEAX@Z"
"?qt_static_metacall@QThread@@CAXPEAVQObject@@W4Call@QMetaObject@@HPEAPEAX@Z"
"?qt_static_metacall@QThreadPool@@CAXPEAVQObject@@W4Call@QMetaObject@@HPEAPEAX@Z"
"?qt_static_metacall@QTimeLine@@CAXPEAVQObject@@W4Call@QMetaObject@@HPEAPEAX@Z"
"?qt_static_metacall@QTimer@@CAXPEAVQObject@@W4Call@QMetaObject@@HPEAPEAX@Z"
"?qt_static_metacall@QTranslator@@CAXPEAVQObject@@W4Call@QMetaObject@@HPEAPEAX@Z"
"?qt_static_metacall@QTransposeProxyModel@@CAXPEAVQObject@@W4Call@QMetaObject@@HPEAPEAX@Z"
"?qt_static_metacall@QUnifiedTimer@@CAXPEAVQObject@@W4Call@QMetaObject@@HPEAPEAX@Z"
"?qt_static_metacall@QVariantAnimation@@CAXPEAVQObject@@W4Call@QMetaObject@@HPEAPEAX@Z"
"?qt_static_metacall@QWinEventNotifier@@CAXPEAVQObject@@W4Call@QMetaObject@@HPEAPEAX@Z"
"?qt_static_metacall@QWindowsPipeReader@@CAXPEAVQObject@@W4Call@QMetaObject@@HPEAPEAX@Z"
"?qt_static_metacall@QWindowsPipeWriter@@CAXPEAVQObject@@W4Call@QMetaObject@@HPEAPEAX@Z"
"?qt_subtract_from_timeout@@YAHHH@Z"
"?qt_win_hasPackageIdentity@@YA_NXZ"
"?qualifiedName@QXmlStreamAttribute@@QEBA?AVQStringView@@XZ"
"?qualifiedName@QXmlStreamReader@@QEBA?AVQStringView@@XZ"
"?query@QSystemLocale@@UEBA?AVQVariant@@W4QueryType@1@$$QEAV2@@Z"
"?query@QUrl@@QEBA?AVQString@@V?$QFlags@W4ComponentFormattingOption@QUrl@@@@@Z"
"?query@QUrlQuery@@QEBA?AVQString@@V?$QFlags@W4ComponentFormattingOption@QUrl@@@@@Z"
"?queryItemValue@QUrlQuery@@QEBA?AVQString@@AEBV2@V?$QFlags@W4ComponentFormattingOption@QUrl@@@@@Z"
"?queryItems@QUrlQuery@@QEBA?AV?$QList@U?$pair@VQString@@V1@@std@@@@V?$QFlags@W4ComponentFormattingOption@QUrl@@@@@Z"
"?queryPairDelimiter@QUrlQuery@@QEBA?AVQChar@@XZ"
"?queryState@QFutureInterfaceBase@@QEBA_NW4State@1@@Z"
"?queryValueDelimiter@QUrlQuery@@QEBA?AVQChar@@XZ"
"?quint128toBasicLatin@@YA?AVQString@@U_Unsigned128@std@@H@Z"
"?quit@QCoreApplication@@SAXXZ"
"?quit@QCoreApplicationPrivate@@UEAAXXZ"
"?quit@QEventLoop@@QEAAXXZ"
"?quit@QThread@@QEAAXXZ"
"?quitAutomatically@QCoreApplicationPrivate@@QEAAXXZ"
"?qunsetenv@@YA_NPEBD@Z"
"?quote@QDebug@@QEAAAEAV1@XZ"
"?quoteString@QLocale@@QEBA?AVQString@@AEBV2@W4QuotationStyle@1@@Z"
"?quoteString@QLocale@@QEBA?AVQString@@VQStringView@@W4QuotationStyle@1@@Z"
"?quoteStrings@QDebug@@QEBA_NXZ"
"?qustrcasechr@QtPrivate@@YAPEB_SVQStringView@@_S@Z"
"?qustrchr@QtPrivate@@YAPEB_SVQStringView@@_S@Z"
"?qustrlen@QtPrivate@@YA_JPEB_S@Z"
"?qustrnlen@QtPrivate@@YA_JPEB_S_J@Z"
"?qvsnprintf@@YAHPEAD_KPEBD0@Z"
"?raise@QException@@UEBAXXZ"
"?raise@QUnhandledException@@UEBAXXZ"
"?raiseError@QXmlStreamReader@@QEAAXAEBVQString@@@Z"
"?rangeContains@QXmlUtils@@CA_NPEBVQXmlCharRange@@0VQChar@@@Z"
"?rawRemainingTimeNSecs@QDeadlineTimer@@AEBA_JXZ"
"?rbegin@QByteArray@@QEAA?AV?$reverse_iterator@PEAD@std@@XZ"
"?rbegin@QByteArray@@QEBA?AV?$reverse_iterator@PEBD@std@@XZ"
"?rbegin@QByteArrayView@@QEBA?AV?$reverse_iterator@PEBD@std@@XZ"
"?rbegin@QString@@QEAA?AV?$reverse_iterator@PEAVQChar@@@std@@XZ"
"?rbegin@QString@@QEBA?AV?$reverse_iterator@PEBVQChar@@@std@@XZ"
"?read@QAbstractFileEngine@@UEAA_JPEAD_J@Z"
"?read@QFSFileEngine@@UEAA_JPEAD_J@Z"
"?read@QIODevice@@QEAA?AVQByteArray@@_J@Z"
"?read@QIODevice@@QEAA_JPEAD_J@Z"
"?read@QIODevicePrivate@@QEAA_JPEAD_J_N@Z"
"?read@QMetaProperty@@QEBA?AVQVariant@@PEBVQObject@@@Z"
"?read@QRingBuffer@@QEAA?AVQByteArray@@XZ"
"?read@QRingBuffer@@QEAA_JPEAD_J@Z"
"?read@QTextStream@@QEAA?AVQString@@_J@Z"
"?read@QWindowsPipeReader@@QEAA_JPEAD_J@Z"
"?readAll@QIODevice@@QEAA?AVQByteArray@@XZ"
"?readAll@QTextStream@@QEAA?AVQString@@XZ"
"?readAllByteArray@QCborStreamReader@@QEAA?AVQByteArray@@XZ"
"?readAllStandardError@QProcess@@QEAA?AVQByteArray@@XZ"
"?readAllStandardOutput@QProcess@@QEAA?AVQByteArray@@XZ"
"?readAllString@QCborStreamReader@@QEAA?AVQString@@XZ"
"?readAllUtf8String@QCborStreamReader@@QEAA?AVQByteArray@@XZ"
"?readAndAppendToByteArray@QCborStreamReader@@QEAA_NAEAVQByteArray@@@Z"
"?readAndAppendToString@QCborStreamReader@@QEAA_NAEAVQString@@@Z"
"?readAndAppendToUtf8String@QCborStreamReader@@QEAA_NAEAVQByteArray@@@Z"
"?readBlock@QDataStream@@AEAAHPEADH@Z"
"?readBlock@QDataStream@@AEAA_JPEAD_J@Z"
"?readByteArray@QCborStreamReader@@QEAA?AU?$StringResult@VQByteArray@@@1@XZ"
"?readBytes@QDataStream@@QEAAAEAV1@AEAPEADAEAI@Z"
"?readBytes@QDataStream@@QEAAAEAV1@AEAPEADAEA_J@Z"
"?readChannel@QProcess@@QEBA?AW4ProcessChannel@1@XZ"
"?readChannelCount@QIODevice@@QEBAHXZ"
"?readChannelFinished@QIODevice@@QEAAXXZ"
"?readCompleted@QWindowsPipeReader@@AEAA_NKK@Z"
"?readData@QBuffer@@MEAA_JPEAD_J@Z"
"?readData@QFileDevice@@MEAA_JPEAD_J@Z"
"?readData@QProcess@@MEAA_JPEAD_J@Z"
"?readElementText@QXmlStreamReader@@QEAA?AVQString@@W4ReadElementTextBehaviour@1@@Z"
"?readLine@QAbstractFileEngine@@UEAA_JPEAD_J@Z"
"?readLine@QFSFileEngine@@UEAA_JPEAD_J@Z"
"?readLine@QIODevice@@QEAA?AVQByteArray@@_J@Z"
"?readLine@QIODevice@@QEAA_JPEAD_J@Z"
"?readLine@QIODevicePrivate@@QEAA_JPEAD_J@Z"
"?readLine@QRingBuffer@@QEAA_JPEAD_J@Z"
"?readLine@QTextStream@@QEAA?AVQString@@_J@Z"
"?readLine@QWindowsPipeReader@@QEAA_JPEAD_J@Z"
"?readLineData@QFileDevice@@MEAA_JPEAD_J@Z"
"?readLineData@QIODevice@@MEAA_JPEAD_J@Z"
"?readLineInto@QTextStream@@QEAA_NPEAVQString@@_J@Z"
"?readNext@QXmlStreamReader@@QEAA?AW4TokenType@1@XZ"
"?readNextStartElement@QXmlStreamReader@@QEAA_NXZ"
"?readOnGadget@QMetaProperty@@QEBA?AVQVariant@@PEBX@Z"
"?readPointerAtPosition@QRingBuffer@@QEBAPEBD_JAEA_J@Z"
"?readProgress@QNonContiguousByteDevice@@QEAAX_J0@Z"
"?readQSizeType@QDataStream@@CA_JAEAV1@@Z"
"?readRawData@QDataStream@@QEAAHPEADH@Z"
"?readRawData@QDataStream@@QEAA_JPEAD_J@Z"
"?readString@QCborStreamReader@@QEAA?AU?$StringResult@VQString@@@1@XZ"
"?readStringChunk@QCborStreamReader@@QEAA?AU?$StringResult@_J@1@PEAD_J@Z"
"?readSymLink@QFileInfo@@QEBA?AVQString@@XZ"
"?readUtf8String@QCborStreamReader@@QEAA?AU?$StringResult@VQByteArray@@@1@XZ"
"?readWriteLock@QReadLocker@@QEBAPEAVQReadWriteLock@@XZ"
"?readWriteLock@QWriteLocker@@QEBAPEAVQReadWriteLock@@XZ"
"?readyRead@QIODevice@@QEAAXXZ"
"?readyRead@QNonContiguousByteDevice@@QEAAXXZ"
"?readyRead@QWindowsPipeReader@@QEAAXXZ"
"?readyReadStandardError@QProcess@@QEAAXUQPrivateSignal@1@@Z"
"?readyReadStandardOutput@QProcess@@QEAAXUQPrivateSignal@1@@Z"
"?realNumberNotation@QTextStream@@QEBA?AW4RealNumberNotation@1@XZ"
"?realNumberPrecision@QTextStream@@QEBAHXZ"
"?reallocData@QByteArray@@AEAAX_JW4AllocationOption@QArrayData@@@Z"
"?reallocData@QString@@AEAAX_JW4AllocationOption@QArrayData@@@Z"
"?reallocGrowData@QByteArray@@AEAAX_J@Z"
"?reallocGrowData@QString@@AEAAX_J@Z"
"?reallocateUnaligned@QArrayData@@SA?AU?$pair@PEAUQArrayData@@PEAX@std@@PEAU1@PEAX_J2W4AllocationOption@1@@Z"
"?receiverList@QObjectPrivate@@QEBA?AV?$QList@PEAVQObject@@@@PEBD@Z"
"?receivers@QAbstractDeclarativeData@@2P6AHPEAV1@PEBVQObject@@H@ZEA"
"?receivers@QObject@@IEBAHPEBD@Z"
"?recursiveFilteringEnabledChanged@QSortFilterProxyModel@@QEAAX_N@Z"
"?ref@QCoreApplicationPrivate@@QEAAXXZ"
"?refT@QFutureInterfaceBase@@IEBA_NXZ"
"?refresh@QDir@@QEBAXXZ"
"?refresh@QFileInfo@@QEAAXXZ"
"?refresh@QStorageInfo@@QEAAXXZ"
"?refreshAll@QFactoryLoader@@SAXXZ"
"?registerCallback@QInternal@@SA_NW4Callback@1@P6A_NPEAPEAX@Z@Z"
"?registerConverterFunction@QMetaType@@SA_NAEBV?$function@$$A6A_NPEBXPEAX@Z@std@@V1@1@Z"
"?registerCustomBackend@QCalendarBackend@@QEAA?AVSystemId@QCalendar@@AEBV?$QList@VQString@@@@@Z"
"?registerEnvironmentOverrideForCategory@QLoggingRegistry@@QEAAXPEBD0@Z"
"?registerEventType@QEvent@@SAHH@Z"
"?registerFormat@QSettings@@SA?AW4Format@1@AEBVQString@@P6A_NAEAVQIODevice@@AEAV?$QMap@VQString@@VQVariant@@@@@ZP6A_N1AEBV5@@ZW4CaseSensitivity@Qt@@@Z"
"?registerHelper@QMetaType@@AEBAHXZ"
"?registerHelper@QMetaType@@CAHPEBVQMetaTypeInterface@QtPrivate@@@Z"
"?registerInterpolator@QVariantAnimation@@CAXP6A?AVQVariant@@PEBX0N@ZH@Z"
"?registerMutableViewFunction@QMetaType@@SA_NAEBV?$function@$$A6A_NPEAX0@Z@std@@V1@1@Z"
"?registerNormalizedTypedef@QMetaType@@SAXAEBVQByteArray@@V1@@Z"
"?registerProfilerCallback@QUnifiedTimer@@QEAAXP6AX_J@Z@Z"
"?registerPropertyType@QMetaProperty@@AEBAHXZ"
"?registerResource@QResource@@SA_NAEBVQString@@0@Z"
"?registerResource@QResource@@SA_NPEBEAEBVQString@@@Z"
"?registerSocketNotifier@QEventDispatcherWin32@@UEAAXPEAVQSocketNotifier@@@Z"
"?registerTimer@QAbstractEventDispatcher@@QEAA?AW4TimerId@Qt@@V?$duration@_JU?$ratio@$00$0DLJKMKAA@@std@@@chrono@std@@W4TimerType@3@PEAVQObject@@@Z"
"?registerTimer@QAbstractEventDispatcher@@QEAAH_JW4TimerType@Qt@@PEAVQObject@@@Z"
"?registerTimer@QAbstractEventDispatcher@@QEAAXW4TimerId@Qt@@V?$duration@_JU?$ratio@$00$0DLJKMKAA@@std@@@chrono@std@@W4TimerType@3@PEAVQObject@@@Z"
"?registerTimer@QAbstractEventDispatcherV2@@EEAAXH_JW4TimerType@Qt@@PEAVQObject@@@Z"
"?registerTimer@QEventDispatcherWin32@@UEAAXH_JW4TimerType@Qt@@PEAVQObject@@@Z"
"?registerTimer@QEventDispatcherWin32Private@@QEAAXPEAUWinTimerInfo@@@Z"
"?registerType@QMetaType@@QEBAXXZ"
"?registerWithCurrentlyEvaluatingBinding@QPropertyBindingData@QtPrivate@@QEBAXPEAUBindingEvaluationState@2@@Z"
"?registerWithCurrentlyEvaluatingBinding@QPropertyBindingData@QtPrivate@@QEBAXXZ"
"?registerWithCurrentlyEvaluatingBinding_helper@QPropertyBindingData@QtPrivate@@AEBAXPEAUBindingEvaluationState@2@@Z"
"?registeredTimers@QAbstractEventDispatcherV2@@EEBA?AV?$QList@UTimerInfo@QAbstractEventDispatcher@@@@PEAVQObject@@@Z"
"?registeredTimers@QEventDispatcherWin32@@UEBA?AV?$QList@UTimerInfo@QAbstractEventDispatcher@@@@PEAVQObject@@@Z"
"?regularExpression@QRegularExpressionMatch@@QEBA?AVQRegularExpression@@XZ"
"?regularExpression@QRegularExpressionMatchIterator@@QEBA?AVQRegularExpression@@XZ"
"?reinitAfterThreadMove@QBindingStorage@@AEAAXXZ"
"?reinitBindingStorageAfterThreadMove@QObjectPrivate@@QEAAXXZ"
"?relatedMetaObject@QMetaObjectBuilder@@QEBAPEBUQMetaObject@@H@Z"
"?relatedMetaObjectCount@QMetaObjectBuilder@@QEBAHXZ"
"?relativeFilePath@QDir@@QEBA?AVQString@@AEBV2@@Z"
"?relativeMethodIndex@QMetaMethod@@QEBAHXZ"
"?relativePropertyIndex@QMetaProperty@@QEBAHXZ"
"?release@QSemaphore@@QEAAXH@Z"
"?release@QSystemSemaphore@@QEAA_NH@Z"
"?releaseThread@QThreadPool@@QEAAXXZ"
"?releaseTimerId@QAbstractEventDispatcherPrivate@@SAXH@Z"
"?releaseTimerId@QAbstractEventDispatcherPrivate@@SAXW4TimerId@Qt@@@Z"
"?reload@QLibraryInfoPrivate@@SAXXZ"
"?relock@QReadLocker@@QEAAXXZ"
"?relock@QWriteLocker@@QEAAXXZ"
"?remainingTime@QAbstractEventDispatcher@@QEBA?AV?$duration@_JU?$ratio@$00$0DLJKMKAA@@std@@@chrono@std@@W4TimerId@Qt@@@Z"
"?remainingTime@QAbstractEventDispatcherV2@@EEAAHH@Z"
"?remainingTime@QChronoTimer@@QEBA?AV?$duration@_JU?$ratio@$00$0DLJKMKAA@@std@@@chrono@std@@XZ"
"?remainingTime@QDeadlineTimer@@QEBA_JXZ"
"?remainingTime@QEventDispatcherWin32@@UEAAHH@Z"
"?remainingTime@QTimer@@QEBAHXZ"
"?remainingTimeAsDuration@QDeadlineTimer@@QEBA?AV?$duration@_JU?$ratio@$00$0DLJKMKAA@@std@@@chrono@std@@XZ"
"?remainingTimeAsDuration@QTimer@@QEBA?AV?$duration@_JU?$ratio@$00$0DOI@@std@@@chrono@std@@XZ"
"?remainingTimeNSecs@QDeadlineTimer@@QEBA_JXZ"
"?remove@QAbstractFileEngine@@UEAA_NXZ"
"?remove@QByteArray@@QEAAAEAV1@_J0@Z"
"?remove@QCborMap@@QEAAXAEBVQCborValue@@@Z"
"?remove@QCborMap@@QEAAXAEBVQString@@@Z"
"?remove@QCborMap@@QEAAXVQLatin1String@@@Z"
"?remove@QCborMap@@QEAAX_J@Z"
"?remove@QDir@@QEAA_NAEBVQString@@@Z"
"?remove@QFSFileEngine@@UEAA_NXZ"
"?remove@QFile@@QEAA_NXZ"
"?remove@QFile@@SA_NAEBVQString@@@Z"
"?remove@QJsonObject@@QEAAXAEBVQString@@@Z"
"?remove@QJsonObject@@QEAAXVQLatin1String@@@Z"
"?remove@QJsonObject@@QEAAXVQStringView@@@Z"
"?remove@QObjectCleanupHandler@@QEAAXPEAVQObject@@@Z"
"?remove@QProcessEnvironment@@QEAAXAEBVQString@@@Z"
"?remove@QSettings@@QEAAXAEBVQString@@@Z"
"?remove@QSettings@@QEAAXVQAnyStringView@@@Z"
"?remove@QString@@QEAAAEAV1@AEBV1@W4CaseSensitivity@Qt@@@Z"
"?remove@QString@@QEAAAEAV1@AEBVQRegularExpression@@@Z"
"?remove@QString@@QEAAAEAV1@VQChar@@W4CaseSensitivity@Qt@@@Z"
"?remove@QString@@QEAAAEAV1@VQLatin1String@@W4CaseSensitivity@Qt@@@Z"
"?remove@QString@@QEAAAEAV1@_J0@Z"
"?remove@QTemporaryDir@@QEAA_NXZ"
"?removeAllQueryItems@QUrlQuery@@QEAAXAEBVQString@@@Z"
"?removeAnimation@QAnimationGroup@@QEAAXPEAVQAbstractAnimation@@@Z"
"?removeAt@QByteArray@@QEAAAEAV1@_J@Z"
"?removeAt@QCborArray@@QEAAX_J@Z"
"?removeAt@QJsonArray@@QEAAX_J@Z"
"?removeAt@QJsonObject@@AEAAX_J@Z"
"?removeAt@QString@@QEAAAEAV1@_J@Z"
"?removeBinding@QPropertyBindingData@QtPrivate@@QEAAXXZ"
"?removeBinding_helper@QPropertyBindingData@QtPrivate@@AEAAXXZ"
"?removeClassInfo@QMetaObjectBuilder@@QEAAXH@Z"
"?removeColumn@QAbstractItemModel@@QEAA_NHAEBVQModelIndex@@@Z"
"?removeColumns@QAbstractItemModel@@UEAA_NHHAEBVQModelIndex@@@Z"
"?removeColumns@QIdentityProxyModel@@UEAA_NHHAEBVQModelIndex@@@Z"
"?removeColumns@QSortFilterProxyModel@@UEAA_NHHAEBVQModelIndex@@@Z"
"?removeColumns@QTransposeProxyModel@@UEAA_NHHAEBVQModelIndex@@@Z"
"?removeConnection@QObjectPrivate@@SA_NPEAUConnection@1@@Z"
"?removeConstructor@QMetaObjectBuilder@@QEAAXH@Z"
"?removeEnumerator@QMetaObjectBuilder@@QEAAXH@Z"
"?removeEventFilter@QObject@@QEAAXPEAV1@@Z"
"?removeFirst@QByteArray@@QEAAAEAV1@XZ"
"?removeFirst@QCborArray@@QEAAXXZ"
"?removeFirst@QJsonArray@@QEAAXXZ"
"?removeFirst@QString@@QEAAAEAV1@XZ"
"?removeFormat@QMimeData@@QEAAXAEBVQString@@@Z"
"?removeKey@QAssociativeIterable@@QEAAXAEBVQVariant@@@Z"
"?removeKey@QMetaAssociation@@QEBAXPEAXPEBX@Z"
"?removeKey@QMetaEnumBuilder@@QEAAXH@Z"
"?removeLast@QByteArray@@QEAAAEAV1@XZ"
"?removeLast@QCborArray@@QEAAXXZ"
"?removeLast@QJsonArray@@QEAAXXZ"
"?removeLast@QString@@QEAAAEAV1@XZ"
"?removeLibraryPath@QCoreApplication@@SAXAEBVQString@@@Z"
"?removeMappings@QSignalMapper@@QEAAXPEAVQObject@@@Z"
"?removeMethod@QMetaObjectBuilder@@QEAAXH@Z"
"?removeNativeEventFilter@QAbstractEventDispatcher@@QEAAXPEAVQAbstractNativeEventFilter@@@Z"
"?removeNativeEventFilter@QCoreApplication@@QEAAXPEAVQAbstractNativeEventFilter@@@Z"
"?removeNotifySignal@QMetaPropertyBuilder@@QEAAXXZ"
"?removePath@QFileSystemWatcher@@QEAA_NAEBVQString@@@Z"
"?removePaths@QFileSystemWatcher@@QEAA?AV?$QList@VQString@@@@AEBV2@@Z"
"?removePersistentIndexData@QAbstractItemModelPrivate@@QEAAXPEAVQPersistentModelIndexData@@@Z"
"?removePostedEvent@QCoreApplicationPrivate@@SAXPEAVQEvent@@@Z"
"?removePostedEvents@QCoreApplication@@SAXPEAVQObject@@H@Z"
"?removePostedTimerEvent@QCoreApplicationPrivate@@SAXPEAVQObject@@H@Z"
"?removeProperty@QMetaObjectBuilder@@QEAAXH@Z"
"?removeQueryItem@QUrlQuery@@QEAAXAEBVQString@@@Z"
"?removeRecursively@QDir@@QEAA_NXZ"
"?removeRelatedMetaObject@QMetaObjectBuilder@@QEAAXH@Z"
"?removeRow@QAbstractItemModel@@QEAA_NHAEBVQModelIndex@@@Z"
"?removeRows@QAbstractItemModel@@UEAA_NHHAEBVQModelIndex@@@Z"
"?removeRows@QIdentityProxyModel@@UEAA_NHHAEBVQModelIndex@@@Z"
"?removeRows@QSortFilterProxyModel@@UEAA_NHHAEBVQModelIndex@@@Z"
"?removeRows@QStringListModel@@UEAA_NHHAEBVQModelIndex@@@Z"
"?removeRows@QTransposeProxyModel@@UEAA_NHHAEBVQModelIndex@@@Z"
"?removeSourceModel@QConcatenateTablesProxyModel@@QEAAXPEAVQAbstractItemModel@@@Z"
"?removeStaleLockFile@QLockFile@@QEAA_NXZ"
"?removeTranslator@QCoreApplication@@SA_NPEAVQTranslator@@@Z"
"?removeValue@QMetaSequence@@QEBAXPEAX@Z"
"?removeValue@QSequentialIterable@@QEAAXW4Position@1@@Z"
"?removeValueAtBegin@QMetaSequence@@QEBAXPEAX@Z"
"?removeValueAtEnd@QMetaSequence@@QEBAXPEAX@Z"
"?removed@QChildEvent@@QEBA_NXZ"
"?rename@QAbstractFileEngine@@UEAA_NAEBVQString@@@Z"
"?rename@QDir@@QEAA_NAEBVQString@@0@Z"
"?rename@QFSFileEngine@@UEAA_NAEBVQString@@@Z"
"?rename@QFile@@QEAA_NAEBVQString@@@Z"
"?rename@QFile@@SA_NAEBVQString@@0@Z"
"?rename@QTemporaryFile@@QEAA_NAEBVQString@@@Z"
"?renameOverwrite@QAbstractFileEngine@@UEAA_NAEBVQString@@@Z"
"?renameOverwrite@QFSFileEngine@@UEAA_NAEBVQString@@@Z"
"?rename_helper@QFSFileEngine@@AEAA_NAEBVQString@@W4RenameMode@1@@Z"
"?rend@QByteArray@@QEAA?AV?$reverse_iterator@PEAD@std@@XZ"
"?rend@QByteArray@@QEBA?AV?$reverse_iterator@PEBD@std@@XZ"
"?rend@QByteArrayView@@QEBA?AV?$reverse_iterator@PEBD@std@@XZ"
"?rend@QString@@QEAA?AV?$reverse_iterator@PEAVQChar@@@std@@XZ"
"?rend@QString@@QEBA?AV?$reverse_iterator@PEBVQChar@@@std@@XZ"
"?reparse@QCborStreamReader@@QEAAXXZ"
"?repeated@QByteArray@@QEBA?AV1@_J@Z"
"?repeated@QString@@QEBA?AV1@_J@Z"
"?replace@QByteArray@@QEAAAEAV1@DD@Z"
"?replace@QByteArray@@QEAAAEAV1@DVQByteArrayView@@@Z"
"?replace@QByteArray@@QEAAAEAV1@PEBD_J01@Z"
"?replace@QByteArray@@QEAAAEAV1@VQByteArrayView@@0@Z"
"?replace@QByteArray@@QEAAAEAV1@_J0PEBD0@Z"
"?replace@QByteArray@@QEAAAEAV1@_J0VQByteArrayView@@@Z"
"?replace@QJsonArray@@QEAAX_JAEBVQJsonValue@@@Z"
"?replace@QString@@QEAAAEAV1@AEBV1@0W4CaseSensitivity@Qt@@@Z"
"?replace@QString@@QEAAAEAV1@AEBV1@VQLatin1String@@W4CaseSensitivity@Qt@@@Z"
"?replace@QString@@QEAAAEAV1@AEBVQRegularExpression@@AEBV1@@Z"
"?replace@QString@@QEAAAEAV1@PEBVQChar@@_J01W4CaseSensitivity@Qt@@@Z"
"?replace@QString@@QEAAAEAV1@VQChar@@0W4CaseSensitivity@Qt@@@Z"
"?replace@QString@@QEAAAEAV1@VQChar@@AEBV1@W4CaseSensitivity@Qt@@@Z"
"?replace@QString@@QEAAAEAV1@VQChar@@VQLatin1String@@W4CaseSensitivity@Qt@@@Z"
"?replace@QString@@QEAAAEAV1@VQLatin1String@@0W4CaseSensitivity@Qt@@@Z"
"?replace@QString@@QEAAAEAV1@VQLatin1String@@AEBV1@W4CaseSensitivity@Qt@@@Z"
"?replace@QString@@QEAAAEAV1@_J0AEBV1@@Z"
"?replace@QString@@QEAAAEAV1@_J0PEBVQChar@@0@Z"
"?replace@QString@@QEAAAEAV1@_J0VQChar@@@Z"
"?reportCanceled@QFutureInterfaceBase@@QEAAXXZ"
"?reportException@QFutureInterfaceBase@@QEAAXAEBVQException@@@Z"
"?reportException@QFutureInterfaceBase@@QEAAXVexception_ptr@std@@@Z"
"?reportFinished@QFutureInterfaceBase@@QEAAXXZ"
"?reportResultsReady@QFutureInterfaceBase@@QEAAXHH@Z"
"?reportStarted@QFutureInterfaceBase@@QEAAXXZ"
"?reportSuspended@QFutureInterfaceBase@@QEBAXXZ"
"?requestInterruption@QThread@@QEAAXXZ"
"?requestPermission@QCoreApplication@@AEAAXAEBVQPermission@@PEAVQSlotObjectBase@QtPrivate@@PEBVQObject@@@Z"
"?requiresSurrogates@QChar@@SA_N_U@Z"
"?reserve@QByteArray@@QEAAX_J@Z"
"?reserve@QRingBuffer@@QEAAPEAD_J@Z"
"?reserve@QString@@QEAAX_J@Z"
"?reserveFront@QRingBuffer@@QEAAPEAD_J@Z"
"?reserveThread@QThreadPool@@QEAAXXZ"
"?reset@QCborStreamReader@@QEAAXXZ"
"?reset@QCryptographicHash@@QEAAXXZ"
"?reset@QFutureInterfaceBase@@IEAAXXZ"
"?reset@QIODevice@@UEAA_NXZ"
"?reset@QItemSelectionModel@@UEAAXXZ"
"?reset@QMessageAuthenticationCode@@QEAAXXZ"
"?reset@QMetaProperty@@QEBA_NPEAVQObject@@@Z"
"?reset@QTextStream@@QEAAXXZ"
"?reset@QThreadPoolPrivate@@QEAAXXZ"
"?reset@Qt@@YAAEAVQTextStream@@AEAV2@@Z"
"?reset@State@QStringConverterBase@@QEAAXXZ"
"?resetFormat@QDebug@@QEAAAEAV1@XZ"
"?resetInternalData@QAbstractItemModel@@MEAAXXZ"
"?resetOnGadget@QMetaProperty@@QEBA_NPEAX@Z"
"?resetRandomGlobalSeed@QHashSeed@@SAXXZ"
"?resetStatus@QDataStream@@QEAAXXZ"
"?resetStatus@QTextStream@@QEAAXXZ"
"?resize@QBitArray@@QEAAX_J@Z"
"?resize@QByteArray@@QEAAX_J@Z"
"?resize@QByteArray@@QEAAX_JD@Z"
"?resize@QFile@@SA_NAEBVQString@@_J@Z"
"?resize@QFile@@UEAA_N_J@Z"
"?resize@QFileDevice@@UEAA_N_J@Z"
"?resize@QString@@QEAAX_J@Z"
"?resize@QString@@QEAAX_JVQChar@@@Z"
"?resize@SegmentStorage@QVersionNumber@@QEAAX_J@Z"
"?resizeForOverwrite@QByteArray@@QEAAX_J@Z"
"?resizeForOverwrite@QString@@QEAAX_J@Z"
"?resolve@QLibrary@@QEAAP6AXXZPEBD@Z"
"?resolve@QLibrary@@SAP6AXXZAEBVQString@@0PEBD@Z"
"?resolve@QLibrary@@SAP6AXXZAEBVQString@@HPEBD@Z"
"?resolve@QLibrary@@SAP6AXXZAEBVQString@@PEBD@Z"
"?resolveEntity@QXmlStreamEntityResolver@@UEAA?AVQString@@AEBV2@0@Z"
"?resolveInterface@QCoreApplication@@IEBAPEAXPEBDH@Z"
"?resolveUndeclaredEntity@QXmlStreamEntityResolver@@UEAA?AVQString@@AEBV2@@Z"
"?resolved@QUrl@@QEBA?AV1@AEBV1@@Z"
"?restart@QElapsedTimer@@QEAA_JXZ"
"?restart@QUnifiedTimer@@QEAAXXZ"
"?restoreBindingStatus@QtPrivate@@YAXPEAUBindingEvaluationState@1@@Z"
"?result@?1??isUtf8@QLocal8Bit@@SA_NXZ@4V?$QBasicAtomicInteger@C@@A"
"?result@QCryptographicHash@@QEBA?AVQByteArray@@XZ"
"?result@QMessageAuthenticationCode@@QEBA?AVQByteArray@@XZ"
"?resultAt@ResultStoreBase@QtPrivate@@QEBA?AVResultIteratorBase@2@H@Z"
"?resultCount@QFutureInterfaceBase@@QEBAHXZ"
"?resultIndex@ResultIteratorBase@QtPrivate@@QEBAHXZ"
"?resultReadyAt@QFutureWatcherBase@@QEAAXH@Z"
"?resultStoreBase@QFutureInterfaceBase@@QEAAAEAVResultStoreBase@QtPrivate@@XZ"
"?resultStoreBase@QFutureInterfaceBase@@QEBAAEBVResultStoreBase@QtPrivate@@XZ"
"?resultView@QCryptographicHash@@QEBA?AVQByteArrayView@@XZ"
"?resultView@QMessageAuthenticationCode@@QEBA?AVQByteArrayView@@XZ"
"?resultsReadyAt@QFutureWatcherBase@@QEAAXHH@Z"
"?resume@QAbstractAnimation@@QEAAXXZ"
"?resume@QFutureWatcherBase@@QEAAXXZ"
"?resume@QTimeLine@@QEAAXXZ"
"?resumeAnimationTimer@QUnifiedTimer@@SAXPEAVQAbstractAnimationTimer@@@Z"
"?resumed@QFutureWatcherBase@@QEAAXXZ"
"?rethrowException@ExceptionStore@QtPrivate@@QEBAXXZ"
"?rethrowPossibleException@QFutureInterfaceBase@@IEAAXXZ"
"?retrieveData@QMimeData@@MEBA?AVQVariant@@AEBVQString@@VQMetaType@@@Z"
"?returnMetaType@QMetaMethod@@QEBA?AVQMetaType@@XZ"
"?returnType@QMetaMethod@@QEBAHXZ"
"?returnType@QMetaMethodBuilder@@QEBA?AVQByteArray@@XZ"
"?revert@QAbstractItemModel@@UEAAXXZ"
"?revert@QAbstractProxyModel@@UEAAXXZ"
"?revision@QMetaMethod@@QEBAHXZ"
"?revision@QMetaMethodBuilder@@QEBAHXZ"
"?revision@QMetaProperty@@QEBAHXZ"
"?revision@QMetaPropertyBuilder@@QEBAHXZ"
"?rheight@QSize@@QEAAAEAHXZ"
"?rheight@QSizeF@@QEAAAEANXZ"
"?right@QByteArray@@QEBA?AV1@_J@Z"
"?right@QByteArray@@QEGBA?AV1@_J@Z"
"?right@QByteArray@@QEHAA?AV1@_J@Z"
"?right@QByteArrayView@@QEBA?AV1@_J@Z"
"?right@QItemSelectionRange@@QEBAHXZ"
"?right@QRect@@QEBAHXZ"
"?right@QRectF@@QEBANXZ"
"?right@QString@@QEBA?AV1@_J@Z"
"?right@QString@@QEGBA?AV1@_J@Z"
"?right@QString@@QEHAA?AV1@_J@Z"
"?right@Qt@@YAAEAVQTextStream@@AEAV2@@Z"
"?rightJustified@QByteArray@@QEBA?AV1@_JD_N@Z"
"?rightJustified@QString@@QEBA?AV1@_JVQChar@@_N@Z"
"?rmdir@QAbstractFileEngine@@UEBA_NAEBVQString@@_N@Z"
"?rmdir@QDir@@QEBA_NAEBVQString@@@Z"
"?rmdir@QFSFileEngine@@UEBA_NAEBVQString@@_N@Z"
"?rmpath@QDir@@QEBA_NAEBVQString@@@Z"
"?roleNames@QAbstractItemModel@@UEBA?AV?$QHash@HVQByteArray@@@@XZ"
"?roleNames@QAbstractProxyModel@@UEBA?AV?$QHash@HVQByteArray@@@@XZ"
"?rollbackTransaction@QDataStream@@QEAAXXZ"
"?rollbackTransaction@QIODevice@@QEAAXXZ"
"?root@QDir@@SA?AV1@XZ"
"?root@QStorageInfo@@SA?AV1@XZ"
"?rootPath@QDir@@SA?AVQString@@XZ"
"?rootPath@QFSFileEngine@@SA?AVQString@@XZ"
"?rootPath@QStorageInfo@@QEBA?AVQString@@XZ"
"?roundtable@qfloat16@@0QBIB"
"?row@QChar@@QEBAEXZ"
"?row@QPersistentModelIndex@@QEBAHXZ"
"?rowCount@QConcatenateTablesProxyModel@@UEBAHAEBVQModelIndex@@@Z"
"?rowCount@QIdentityProxyModel@@UEBAHAEBVQModelIndex@@@Z"
"?rowCount@QSortFilterProxyModel@@UEBAHAEBVQModelIndex@@@Z"
"?rowCount@QStringListModel@@UEBAHAEBVQModelIndex@@@Z"
"?rowCount@QTransposeProxyModel@@UEBAHAEBVQModelIndex@@@Z"
"?rowIntersectsSelection@QItemSelectionModel@@QEBA_NHAEBVQModelIndex@@@Z"
"?rowsAboutToBeInserted@QAbstractItemModel@@QEAAXAEBVQModelIndex@@HHUQPrivateSignal@1@@Z"
"?rowsAboutToBeInserted@QAbstractItemModelPrivate@@QEAAXAEBVQModelIndex@@HH@Z"
"?rowsAboutToBeMoved@QAbstractItemModel@@QEAAXAEBVQModelIndex@@HH0HUQPrivateSignal@1@@Z"
"?rowsAboutToBeRemoved@QAbstractItemModel@@QEAAXAEBVQModelIndex@@HHUQPrivateSignal@1@@Z"
"?rowsAboutToBeRemoved@QAbstractItemModelPrivate@@QEAAXAEBVQModelIndex@@HH@Z"
"?rowsInserted@QAbstractItemModel@@QEAAXAEBVQModelIndex@@HHUQPrivateSignal@1@@Z"
"?rowsInserted@QAbstractItemModelPrivate@@QEAAXAEBVQModelIndex@@HH@Z"
"?rowsMoved@QAbstractItemModel@@QEAAXAEBVQModelIndex@@HH0HUQPrivateSignal@1@@Z"
"?rowsRemoved@QAbstractItemModel@@QEAAXAEBVQModelIndex@@HHUQPrivateSignal@1@@Z"
"?rowsRemoved@QAbstractItemModelPrivate@@QEAAXAEBVQModelIndex@@HH@Z"
"?run@QGenericRunnable@QRunnable@@UEAAXXZ"
"?run@QThread@@MEAAXXZ"
"?runContinuation@QFutureInterfaceBase@@IEBAXXZ"
"?runningAnimationCount@QUnifiedTimer@@QEAAHXZ"
"?rwidth@QSize@@QEAAAEAHXZ"
"?rwidth@QSizeF@@QEAAAEANXZ"
"?save@QMetaType@@QEBA_NAEAVQDataStream@@PEBX@Z"
"?save@QMetaType@@SA_NAEAVQDataStream@@HPEBX@Z"
"?save@QVariant@@QEBAXAEAVQDataStream@@@Z"
"?scale@QSize@@QEAAXAEBV1@W4AspectRatioMode@Qt@@@Z"
"?scale@QSize@@QEAAXHHW4AspectRatioMode@Qt@@@Z"
"?scale@QSizeF@@QEAAXAEBV1@W4AspectRatioMode@Qt@@@Z"
"?scale@QSizeF@@QEAAXNNW4AspectRatioMode@Qt@@@Z"
"?scaled@QSize@@QEBA?AV1@AEBV1@W4AspectRatioMode@Qt@@@Z"
"?scaled@QSize@@QEBA?AV1@HHW4AspectRatioMode@Qt@@@Z"
"?scaled@QSizeF@@QEBA?AV1@AEBV1@W4AspectRatioMode@Qt@@@Z"
"?scaled@QSizeF@@QEBA?AV1@NNW4AspectRatioMode@Qt@@@Z"
"?scanString@QDateTimeParser@@AEBA?AUStateNode@1@AEBVQDateTime@@_N@Z"
"?scheduleHeaderUpdate@QAbstractProxyModelPrivate@@QEAAXW4Orientation@Qt@@@Z"
"?scheduleNotify@QPropertyBindingPrivate@@QEAAXXZ"
"?scheme@QUrl@@QEBA?AVQString@@XZ"
"?scientific@Qt@@YAAEAVQTextStream@@AEAV2@@Z"
"?scope@QMetaEnum@@QEBAPEBDXZ"
"?scope@QSettings@@QEBA?AW4Scope@1@XZ"
"?script@QChar@@QEBA?AW4Script@1@XZ"
"?script@QChar@@SA?AW4Script@1@_U@Z"
"?script@QLocale@@QEBA?AW4Script@1@XZ"
"?scriptToCode@QLocale@@SA?AVQString@@W4Script@1@@Z"
"?scriptToString@QLocale@@SA?AVQString@@W4Script@1@@Z"
"?searchPaths@QDir@@SA?AV?$QList@VQString@@@@AEBVQString@@@Z"
"?second@QTime@@QEBAHXZ"
"?secsTo@QDateTime@@QEBA_JAEBV1@@Z"
"?secsTo@QElapsedTimer@@QEBA_JAEBV1@@Z"
"?secsTo@QTime@@QEBAHV1@@Z"
"?section@QString@@QEBA?AV1@AEBV1@_J1V?$QFlags@W4SectionFlag@QString@@@@@Z"
"?section@QString@@QEBA?AV1@AEBVQRegularExpression@@_J1V?$QFlags@W4SectionFlag@QString@@@@@Z"
"?section@QString@@QEBA?AV1@VQChar@@_J1V?$QFlags@W4SectionFlag@QString@@@@@Z"
"?sectionMaxSize@QDateTimeParser@@AEBAHW4Section@1@H@Z"
"?sectionMaxSize@QDateTimeParser@@IEBAHH@Z"
"?sectionNode@QDateTimeParser@@IEBAAEBUSectionNode@1@H@Z"
"?sectionPos@QDateTimeParser@@IEBAHH@Z"
"?sectionPos@QDateTimeParser@@IEBAHUSectionNode@1@@Z"
"?sectionSize@QDateTimeParser@@IEBAHH@Z"
"?sectionText@QDateTimeParser@@AEBA?AVQString@@AEBV2@HH@Z"
"?sectionText@QDateTimeParser@@IEBA?AVQString@@H@Z"
"?sectionType@QDateTimeParser@@IEBA?AW4Section@1@H@Z"
"?securelySeeded@QRandomGenerator64@@SA?AV1@XZ"
"?seek@QAbstractFileEngine@@UEAA_N_J@Z"
"?seek@QBuffer@@UEAA_N_J@Z"
"?seek@QFSFileEngine@@UEAA_N_J@Z"
"?seek@QFileDevice@@UEAA_N_J@Z"
"?seek@QIODevice@@UEAA_N_J@Z"
"?seek@QTextStream@@QEAA_N_J@Z"
"?seekBuffer@QIODevicePrivate@@QEAAX_J@Z"
"?segmentCount@QOperatingSystemVersion@@QEBAHXZ"
"?segments@QVersionNumber@@QEBA?AV?$QList@H@@XZ"
"?select@QFileSelector@@QEBA?AVQString@@AEBV2@@Z"
"?select@QFileSelector@@QEBA?AVQUrl@@AEBV2@@Z"
"?select@QFileSelectorPrivate@@QEBA?AVQString@@AEBV2@@Z"
"?select@QItemSelection@@QEAAXAEBVQModelIndex@@0@Z"
"?select@QItemSelectionModel@@UEAAXAEBVQItemSelection@@V?$QFlags@W4SelectionFlag@QItemSelectionModel@@@@@Z"
"?select@QItemSelectionModel@@UEAAXAEBVQModelIndex@@V?$QFlags@W4SelectionFlag@QItemSelectionModel@@@@@Z"
"?selectedColumns@QItemSelectionModel@@QEBA?AV?$QList@VQModelIndex@@@@H@Z"
"?selectedIndexes@QItemSelectionModel@@QEBA?AV?$QList@VQModelIndex@@@@XZ"
"?selectedRows@QItemSelectionModel@@QEBA?AV?$QList@VQModelIndex@@@@H@Z"
"?selection@QItemSelectionModel@@QEBA?BVQItemSelection@@XZ"
"?selectionChanged@QItemSelectionModel@@QEAAXAEBVQItemSelection@@0@Z"
"?selectionHelper@QFileSelectorPrivate@@SA?AVQString@@AEBV2@0AEBV?$QList@VQString@@@@VQChar@@@Z"
"?self@QCoreApplication@@0PEAV1@EA"
"?sendEvent@QCoreApplication@@SA_NPEAVQObject@@PEAVQEvent@@@Z"
"?sendPostedEvents@QCoreApplication@@SAXPEAVQObject@@H@Z"
"?sendPostedEvents@QCoreApplicationPrivate@@SAXPEAVQObject@@HPEAVQThreadData@@@Z"
"?sendPostedEvents@QEventDispatcherWin32@@MEAAXXZ"
"?sendSpontaneousEvent@QCoreApplication@@CA_NPEAVQObject@@PEAVQEvent@@@Z"
"?sendThroughApplicationEventFilters@QCoreApplicationPrivate@@QEAA_NPEAVQObject@@PEAVQEvent@@@Z"
"?sendThroughObjectEventFilters@QCoreApplicationPrivate@@SA_NPEAVQObject@@PEAVQEvent@@@Z"
"?sendTimerEvent@QEventDispatcherWin32Private@@QEAAXH@Z"
"?sender@QAbstractMetaCallEvent@@QEBAPEBVQObject@@XZ"
"?sender@QObject@@IEBAPEAV1@XZ"
"?senderSignalIndex@QObject@@IEBAHXZ"
"?sentenceBreakClass@QUnicodeTables@@YA?AW4SentenceBreakClass@1@_U@Z"
"?separator@QDir@@SA?AVQChar@@XZ"
"?set@QSequentialIterable@@QEAAX_JAEBVQVariant@@@Z"
"?set@QThreadStorageData@@QEAAPEAPEAXPEAX@Z"
"?setAccepted@QEvent@@UEAAX_N@Z"
"?setAccess@QMetaMethodBuilder@@QEAAXW4Access@QMetaMethod@@@Z"
"?setAccessMode@QCalendarPermission@@QEAAXW4AccessMode@1@@Z"
"?setAccessMode@QContactsPermission@@QEAAXW4AccessMode@1@@Z"
"?setAccuracy@QLocationPermission@@QEAAXW4Accuracy@1@@Z"
"?setAlias@QMetaPropertyBuilder@@QEAAX_N@Z"
"?setAmplitude@QEasingCurve@@QEAAXN@Z"
"?setAngle@QLineF@@QEAAXN@Z"
"?setApplicationDescription@QCommandLineParser@@QEAAXAEBVQString@@@Z"
"?setApplicationFilePath@QCoreApplicationPrivate@@SAXAEBVQString@@@Z"
"?setApplicationName@QCoreApplication@@SAXAEBVQString@@@Z"
"?setApplicationVersion@QCoreApplication@@SAXAEBVQString@@@Z"
"?setArguments@QProcess@@QEAAXAEBV?$QList@VQString@@@@@Z"
"?setArray@QJsonDocument@@QEAAXAEBVQJsonArray@@@Z"
"?setArrayIndex@QSettings@@QEAAXH@Z"
"?setAtomicSyncRequired@QSettings@@QEAAX_N@Z"
"?setAttribute@QCoreApplication@@SAXW4ApplicationAttribute@Qt@@_N@Z"
"?setAttributes@QMetaMethodBuilder@@QEAAXH@Z"
"?setAuthority@QUrl@@QEAAXAEBVQString@@W4ParsingMode@1@@Z"
"?setAutoAcceptChildRows@QSortFilterProxyModel@@QEAAX_N@Z"
"?setAutoDelete@QRunnable@@QEAAX_N@Z"
"?setAutoDetectUnicode@QTextStream@@QEAAX_N@Z"
"?setAutoFormatting@QXmlStreamWriter@@QEAAX_N@Z"
"?setAutoFormattingIndent@QXmlStreamWriter@@QEAAXH@Z"
"?setAutoInsertSpaces@QDebug@@QEAAX_N@Z"
"?setAutoRemove@QTemporaryDir@@QEAAX_N@Z"
"?setAutoRemove@QTemporaryFile@@QEAAX_N@Z"
"?setAvailability@QLocationPermission@@QEAAXW4Availability@1@@Z"
"?setBindable@QMetaPropertyBuilder@@QEAAX_N@Z"
"?setBinding@PropertyAdaptorSlotObjectHelpers@QtPrivate@@YA?AVQUntypedPropertyBinding@@PEAVQUntypedPropertyData@@AEBV3@P6A_NVQMetaType@@0UQPropertyBindingFunction@2@@Z@Z"
"?setBinding@QPropertyBindingData@QtPrivate@@QEAA?AVQUntypedPropertyBinding@@AEBV3@PEAVQUntypedPropertyData@@P6AX1@ZP6A_NVQMetaType@@1UQPropertyBindingFunction@2@@Z@Z"
"?setBit@QBitArray@@QEAAX_J@Z"
"?setBit@QBitArray@@QEAAX_J_N@Z"
"?setBottom@QRect@@QEAAXH@Z"
"?setBottom@QRectF@@QEAAXN@Z"
"?setBottomLeft@QRect@@QEAAXAEBVQPoint@@@Z"
"?setBottomLeft@QRectF@@QEAAXAEBVQPointF@@@Z"
"?setBottomRight@QRect@@QEAAXAEBVQPoint@@@Z"
"?setBottomRight@QRectF@@QEAAXAEBVQPointF@@@Z"
"?setBuffer@QBuffer@@QEAAXPEAVQByteArray@@@Z"
"?setByteOrder@QDataStream@@QEAAXW4ByteOrder@1@@Z"
"?setCaching@QFileInfo@@QEAAX_N@Z"
"?setCalendar@QDateTimeParser@@QEAAXVQCalendar@@@Z"
"?setCaseSensitivity@QCollator@@QEAAXW4CaseSensitivity@Qt@@@Z"
"?setCaseSensitivity@QLatin1StringMatcher@@QEAAXW4CaseSensitivity@Qt@@@Z"
"?setCaseSensitivity@QStringMatcher@@QEAAXW4CaseSensitivity@Qt@@@Z"
"?setCell@QChar@@QEAAXE@Z"
"?setClassName@QMetaObjectBuilder@@QEAAXAEBVQByteArray@@@Z"
"?setColorData@QMimeData@@QEAAXAEBVQVariant@@@Z"
"?setCommunicationModes@QBluetoothPermission@@QEAAXV?$QFlags@W4CommunicationMode@QBluetoothPermission@@@@@Z"
"?setCompressionPolicy@QZipWriter@@QEAAXW4CompressionPolicy@1@@Z"
"?setConsistentTiming@QUnifiedTimer@@QEAAX_N@Z"
"?setConst@QMetaMethodBuilder@@QEAAX_N@Z"
"?setConstant@QMetaPropertyBuilder@@QEAAX_N@Z"
"?setContinuation@QFutureInterfaceBase@@IEAAXV?$function@$$A6AXAEBVQFutureInterfaceBase@@@Z@std@@@Z"
"?setContinuation@QFutureInterfaceBase@@IEAAXV?$function@$$A6AXAEBVQFutureInterfaceBase@@@Z@std@@PEAVQFutureInterfaceBasePrivate@@@Z"
"?setCoords@QRect@@QEAAXHHHH@Z"
"?setCoords@QRectF@@QEAAXNNNN@Z"
"?setCreateProcessArgumentsModifier@QProcess@@QEAAXV?$function@$$A6AXPEAUCreateProcessArguments@QProcess@@@Z@std@@@Z"
"?setCreationPermissions@QZipWriter@@QEAAXV?$QFlags@W4Permission@QFileDevice@@@@@Z"
"?setCurrent@QDir@@SA_NAEBVQString@@@Z"
"?setCurrentIndex@QItemSelectionModel@@UEAAXAEBVQModelIndex@@V?$QFlags@W4SelectionFlag@QItemSelectionModel@@@@@Z"
"?setCurrentPath@QFSFileEngine@@SA_NAEBVQString@@@Z"
"?setCurrentReadChannel@QIODevice@@QEAAXH@Z"
"?setCurrentReadChannel@QIODevicePrivate@@QEAAXH@Z"
"?setCurrentTime@QAbstractAnimation@@QEAAXH@Z"
"?setCurrentTime@QAbstractAnimationPrivate@@QEAAXH@Z"
"?setCurrentTime@QTimeLine@@QEAAXH@Z"
"?setCurrentWriteChannel@QIODevice@@QEAAXH@Z"
"?setCurrentWriteChannel@QIODevicePrivate@@QEAAXH@Z"
"?setCustomType@QEasingCurve@@QEAAXP6ANN@Z@Z"
"?setData@QAbstractItemModel@@UEAA_NAEBVQModelIndex@@AEBVQVariant@@H@Z"
"?setData@QAbstractProxyModel@@UEAA_NAEBVQModelIndex@@AEBVQVariant@@H@Z"
"?setData@QBuffer@@QEAAXAEBVQByteArray@@@Z"
"?setData@QBuffer@@QEAAXPEBDH@Z"
"?setData@QBuffer@@QEAAXPEBD_J@Z"
"?setData@QConcatenateTablesProxyModel@@UEAA_NAEBVQModelIndex@@AEBVQVariant@@H@Z"
"?setData@QMimeData@@QEAAXAEBVQString@@AEBVQByteArray@@@Z"
"?setData@QSortFilterProxyModel@@UEAA_NAEBVQModelIndex@@AEBVQVariant@@H@Z"
"?setData@QStringListModel@@UEAA_NAEBVQModelIndex@@AEBVQVariant@@H@Z"
"?setDate@QDate@@QEAA_NHHH@Z"
"?setDate@QDate@@QEAA_NHHHVQCalendar@@@Z"
"?setDate@QDateTime@@QEAAXVQDate@@@Z"
"?setDate@QDateTime@@QEAAXVQDate@@W4TransitionResolution@1@@Z"
"?setDeadline@QDeadlineTimer@@QEAAX_JW4TimerType@Qt@@@Z"
"?setDefault@QLocale@@SAXAEBV1@@Z"
"?setDefaultFormat@QSettings@@SAXW4Format@1@@Z"
"?setDefaultLocale@QDateTimeParser@@QEAAXAEBVQLocale@@@Z"
"?setDefaultValue@QCommandLineOption@@QEAAXAEBVQString@@@Z"
"?setDefaultValues@QCommandLineOption@@QEAAXAEBV?$QList@VQString@@@@@Z"
"?setDescription@QCommandLineOption@@QEAAXAEBVQString@@@Z"
"?setDesignable@QMetaPropertyBuilder@@QEAAX_N@Z"
"?setDeterministicGlobalSeed@QHashSeed@@SAXXZ"
"?setDevice@QCborStreamReader@@QEAAXPEAVQIODevice@@@Z"
"?setDevice@QCborStreamWriter@@QEAAXPEAVQIODevice@@@Z"
"?setDevice@QDataStream@@QEAAXPEAVQIODevice@@@Z"
"?setDevice@QTextStream@@QEAAXPEAVQIODevice@@@Z"
"?setDevice@QXmlStreamReader@@QEAAXPEAVQIODevice@@@Z"
"?setDevice@QXmlStreamWriter@@QEAAXPEAVQIODevice@@@Z"
"?setDigit@QDateTimeParser@@IEBA_NAEAVQDateTime@@HH@Z"
"?setDirectWriteFallback@QSaveFile@@QEAAX_N@Z"
"?setDirection@QAbstractAnimation@@QEAAXW4Direction@1@@Z"
"?setDirection@QAbstractAnimationPrivate@@QEAAXW4Direction@QAbstractAnimation@@@Z"
"?setDirection@QTimeLine@@QEAAXW4Direction@1@@Z"
"?setDuration@QPauseAnimation@@QEAAXH@Z"
"?setDuration@QTimeLine@@QEAAXH@Z"
"?setDuration@QVariantAnimation@@QEAAXH@Z"
"?setDynamicSortFilter@QSortFilterProxyModel@@QEAAX_N@Z"
"?setEasingCurve@QTimeLine@@QEAAXAEBVQEasingCurve@@@Z"
"?setEasingCurve@QVariantAnimation@@QEAAXAEBVQEasingCurve@@@Z"
"?setEnabled@QLoggingCategory@@QEAAXW4QtMsgType@@_N@Z"
"?setEnabled@QSocketNotifier@@QEAAX_N@Z"
"?setEnabled@QWinEventNotifier@@QEAAX_N@Z"
"?setEncoding@QTextStream@@QEAAXW4Encoding@QStringConverter@@@Z"
"?setEndFrame@QTimeLine@@QEAAXH@Z"
"?setEndValue@QVariantAnimation@@QEAAXAEBVQVariant@@@Z"
"?setEntityExpansionLimit@QXmlStreamReader@@QEAAXH@Z"
"?setEntityResolver@QXmlStreamReader@@QEAAXPEAVQXmlStreamEntityResolver@@@Z"
"?setEnumName@QMetaEnumBuilder@@QEAAXAEBVQByteArray@@@Z"
"?setEnumOrFlag@QMetaPropertyBuilder@@QEAAX_N@Z"
"?setEnvironment@QProcess@@QEAAXAEBV?$QList@VQString@@@@@Z"
"?setError@QAbstractFileEngine@@IEAAXW4FileError@QFileDevice@@AEBVQString@@@Z"
"?setError@QPropertyBindingPrivate@@QEAAX$$QEAVQPropertyBindingError@@@Z"
"?setErrorString@QIODevice@@IEAAXAEBVQString@@@Z"
"?setEventDispatcher@QCoreApplication@@SAXPEAVQAbstractEventDispatcher@@@Z"
"?setEventDispatcher@QThread@@QEAAXPEAVQAbstractEventDispatcher@@@Z"
"?setEventSpontaneous@QCoreApplicationPrivate@@SAXPEAVQEvent@@_N@Z"
"?setException@ExceptionStore@QtPrivate@@QEAAXAEBVQException@@@Z"
"?setException@ExceptionStore@QtPrivate@@QEAAXVexception_ptr@std@@@Z"
"?setExpectedResultCount@QFutureInterfaceBase@@QEAAXH@Z"
"?setExpiryTimeout@QThreadPool@@QEAAXH@Z"
"?setExtraSearchPath@QFactoryLoader@@QEAAXAEBVQString@@@Z"
"?setExtraSelectors@QFileSelector@@QEAAXAEBV?$QList@VQString@@@@@Z"
"?setFallbacksEnabled@QSettings@@QEAAX_N@Z"
"?setFieldAlignment@QTextStream@@QEAAXW4FieldAlignment@1@@Z"
"?setFieldWidth@QTextStream@@QEAAXH@Z"
"?setFile@QFileInfo@@QEAAXAEBVQDir@@AEBVQString@@@Z"
"?setFile@QFileInfo@@QEAAXAEBVQFileDevice@@@Z"
"?setFile@QFileInfo@@QEAAXAEBVQString@@@Z"
"?setFileEntry@QFSFileEngine@@QEAAX$$QEAVQFileSystemEntry@@@Z"
"?setFileName@QAbstractFileEngine@@UEAAXAEBVQString@@@Z"
"?setFileName@QFSFileEngine@@UEAAXAEBVQString@@@Z"
"?setFileName@QFile@@QEAAXAEBVQString@@@Z"
"?setFileName@QLibrary@@QEAAXAEBVQString@@@Z"
"?setFileName@QPluginLoader@@QEAAXAEBVQString@@@Z"
"?setFileName@QResource@@QEAAXAEBVQString@@@Z"
"?setFileName@QSaveFile@@QEAAXAEBVQString@@@Z"
"?setFileNameAndVersion@QLibrary@@QEAAXAEBVQString@@0@Z"
"?setFileNameAndVersion@QLibrary@@QEAAXAEBVQString@@H@Z"
"?setFileTemplate@QTemporaryFile@@QEAAXAEBVQString@@@Z"
"?setFileTime@QAbstractFileEngine@@UEAA_NAEBVQDateTime@@W4FileTime@QFileDevice@@@Z"
"?setFileTime@QFSFileEngine@@UEAA_NAEBVQDateTime@@W4FileTime@QFileDevice@@@Z"
"?setFileTime@QFileDevice@@QEAA_NAEBVQDateTime@@W4FileTime@1@@Z"
"?setFilter@QDir@@QEAAXV?$QFlags@W4Filter@QDir@@@@@Z"
"?setFilterCaseSensitivity@QSortFilterProxyModel@@QEAAXW4CaseSensitivity@Qt@@@Z"
"?setFilterFixedString@QSortFilterProxyModel@@QEAAXAEBVQString@@@Z"
"?setFilterKeyColumn@QSortFilterProxyModel@@QEAAXH@Z"
"?setFilterMode@QFutureInterfaceBase@@QEAAX_N@Z"
"?setFilterMode@ResultStoreBase@QtPrivate@@QEAAX_N@Z"
"?setFilterRegularExpression@QSortFilterProxyModel@@QEAAXAEBVQRegularExpression@@@Z"
"?setFilterRegularExpression@QSortFilterProxyModel@@QEAAXAEBVQString@@@Z"
"?setFilterRole@QSortFilterProxyModel@@QEAAXH@Z"
"?setFilterRules@QLoggingCategory@@SAXAEBVQString@@@Z"
"?setFilterWildcard@QSortFilterProxyModel@@QEAAXAEBVQString@@@Z"
"?setFinal@QMetaPropertyBuilder@@QEAAX_N@Z"
"?setFlags@QCommandLineOption@@QEAAXV?$QFlags@W4Flag@QCommandLineOption@@@@@Z"
"?setFlags@QMetaObjectBuilder@@QEAAXV?$QFlags@W4MetaObjectFlag@@@@@Z"
"?setFloatingPointPrecision@QDataStream@@QEAAXW4FloatingPointPrecision@1@@Z"
"?setFragment@QUrl@@QEAAXAEBVQString@@W4ParsingMode@1@@Z"
"?setFrameRange@QTimeLine@@QEAAXHH@Z"
"?setGenerateByteOrderMark@QTextStream@@QEAAX_N@Z"
"?setHMS@QTime@@QEAA_NHHHH@Z"
"?setHandle@QWinEventNotifier@@QEAAXPEAX@Z"
"?setHandle@QWindowsPipeReader@@QEAAXPEAX@Z"
"?setHandle@QWindowsPipeWriter@@QEAAXPEAX@Z"
"?setHandleSourceDataChanges@QIdentityProxyModel@@IEAAX_N@Z"
"?setHandleSourceLayoutChanges@QIdentityProxyModel@@IEAAX_N@Z"
"?setHeaderData@QAbstractItemModel@@UEAA_NHW4Orientation@Qt@@AEBVQVariant@@H@Z"
"?setHeaderData@QAbstractProxyModel@@UEAA_NHW4Orientation@Qt@@AEBVQVariant@@H@Z"
"?setHeaderData@QSortFilterProxyModel@@UEAA_NHW4Orientation@Qt@@AEBVQVariant@@H@Z"
"?setHeaderData@QTransposeProxyModel@@UEAA_NHW4Orientation@Qt@@AEBVQVariant@@H@Z"
"?setHeight@QRect@@QEAAXH@Z"
"?setHeight@QRectF@@QEAAXN@Z"
"?setHeight@QSize@@QEAAXH@Z"
"?setHeight@QSizeF@@QEAAXN@Z"
"?setHost@QUrl@@QEAAXAEBVQString@@W4ParsingMode@1@@Z"
"?setHtml@QMimeData@@QEAAXAEBVQString@@@Z"
"?setIdnWhitelist@QUrl@@SAXAEBV?$QList@VQString@@@@@Z"
"?setIgnorePunctuation@QCollator@@QEAAX_N@Z"
"?setImageData@QMimeData@@QEAAXAEBVQVariant@@@Z"
"?setIndex@QCalendarBackend@@AEAAX_K@Z"
"?setInputChannelMode@QProcess@@QEAAXW4InputChannelMode@1@@Z"
"?setIntegerBase@QTextStream@@QEAAXH@Z"
"?setInterval@QChronoTimer@@QEAAXV?$duration@_JU?$ratio@$00$0DLJKMKAA@@std@@@chrono@std@@@Z"
"?setInterval@QTimer@@QEAAXH@Z"
"?setInterval@QTimer@@QEAAXV?$duration@_JU?$ratio@$00$0DOI@@std@@@chrono@std@@@Z"
"?setIsFlag@QMetaEnumBuilder@@QEAAX_N@Z"
"?setIsScoped@QMetaEnumBuilder@@QEAAX_N@Z"
"?setItemData@QAbstractItemModel@@UEAA_NAEBVQModelIndex@@AEBV?$QMap@HVQVariant@@@@@Z"
"?setItemData@QAbstractProxyModel@@UEAA_NAEBVQModelIndex@@AEBV?$QMap@HVQVariant@@@@@Z"
"?setItemData@QConcatenateTablesProxyModel@@UEAA_NAEBVQModelIndex@@AEBV?$QMap@HVQVariant@@@@@Z"
"?setItemData@QStringListModel@@UEAA_NAEBVQModelIndex@@AEBV?$QMap@HVQVariant@@@@@Z"
"?setItemData@QTransposeProxyModel@@UEAA_NAEBVQModelIndex@@AEBV?$QMap@HVQVariant@@@@@Z"
"?setKey@QMessageAuthenticationCode@@QEAAXAEBVQByteArray@@@Z"
"?setKey@QMessageAuthenticationCode@@QEAAXVQByteArrayView@@@Z"
"?setKey@QSharedMemory@@QEAAXAEBVQString@@@Z"
"?setKey@QSystemSemaphore@@QEAAXAEBVQString@@HW4AccessMode@1@@Z"
"?setKeyValueAt@QVariantAnimation@@QEAAXNAEBVQVariant@@@Z"
"?setKeyValues@QVariantAnimation@@QEAAXAEBV?$QList@U?$pair@NVQVariant@@@std@@@@@Z"
"?setLaunchAsync@QFutureInterfaceBase@@IEAAX_N@Z"
"?setLeft@QRect@@QEAAXH@Z"
"?setLeft@QRectF@@QEAAXN@Z"
"?setLength@QLineF@@QEAAXN@Z"
"?setLibraryPaths@QCoreApplication@@SAXAEBV?$QList@VQString@@@@@Z"
"?setLine@QLine@@QEAAXHHHH@Z"
"?setLine@QLineF@@QEAAXNNNN@Z"
"?setListData@SegmentStorage@QVersionNumber@@QEAAX$$QEAV?$QList@H@@@Z"
"?setListData@SegmentStorage@QVersionNumber@@QEAAXAEBV?$QList@H@@@Z"
"?setListData@SegmentStorage@QVersionNumber@@QEAAXPEBH0@Z"
"?setLoadHints@QLibrary@@QEAAXV?$QFlags@W4LoadHint@QLibrary@@@@@Z"
"?setLoadHints@QPluginLoader@@QEAAXV?$QFlags@W4LoadHint@QLibrary@@@@@Z"
"?setLocale@QCollator@@QEAAXAEBVQLocale@@@Z"
"?setLocale@QResource@@QEAAXAEBVQLocale@@@Z"
"?setLocale@QTextStream@@QEAAXAEBVQLocale@@@Z"
"?setLoopCount@QAbstractAnimation@@QEAAXH@Z"
"?setLoopCount@QTimeLine@@QEAAXH@Z"
"?setMSecsSinceEpoch@QDateTime@@QEAAX_J@Z"
"?setMappedAtIterator@QMetaAssociation@@QEBAXPEBX0@Z"
"?setMappedAtKey@QMetaAssociation@@QEBAXPEAXPEBX1@Z"
"?setMapping@QSignalMapper@@QEAAXPEAVQObject@@0@Z"
"?setMapping@QSignalMapper@@QEAAXPEAVQObject@@AEBVQString@@@Z"
"?setMapping@QSignalMapper@@QEAAXPEAVQObject@@H@Z"
"?setMaxReadBufferSize@QWindowsPipeReader@@QEAAX_J@Z"
"?setMaxThreadCount@QThreadPool@@QEAAXH@Z"
"?setMetaType@QMetaEnumBuilder@@QEAAXVQMetaType@@@Z"
"?setModel@QItemSelectionModel@@QEAAXPEAVQAbstractItemModel@@@Z"
"?setModelForwarder@QAbstractProxyModelPrivate@@QEAAXPEAVQAbstractItemModel@@@Z"
"?setNameFilters@QDir@@QEAAXAEBV?$QList@VQString@@@@@Z"
"?setNamespaceProcessing@QXmlStreamReader@@QEAAX_N@Z"
"?setNativeArguments@QProcess@@QEAAXAEBVQString@@@Z"
"?setNativeKey@QSharedMemory@@QEAAXAEBVQNativeIpcKey@@@Z"
"?setNativeKey@QSharedMemory@@QEAAXAEBVQString@@@Z"
"?setNativeKey@QSharedMemory@@QEAAXAEBVQString@@W4Type@QNativeIpcKey@@@Z"
"?setNativeKey@QSystemSemaphore@@QEAAXAEBVQNativeIpcKey@@HW4AccessMode@1@@Z"
"?setNativeKey@QSystemSemaphore@@QEAAXAEBVQString@@HW4AccessMode@1@W4Type@QNativeIpcKey@@@Z"
"?setNativeKey_internal@QNativeIpcKey@@AEAAXAEBVQString@@@Z"
"?setNotifySignal@QMetaPropertyBuilder@@QEAAXAEBVQMetaMethodBuilder@@@Z"
"?setNum@QByteArray@@QEAAAEAV1@FH@Z"
"?setNum@QByteArray@@QEAAAEAV1@GH@Z"
"?setNum@QByteArray@@QEAAAEAV1@HH@Z"
"?setNum@QByteArray@@QEAAAEAV1@IH@Z"
"?setNum@QByteArray@@QEAAAEAV1@JH@Z"
"?setNum@QByteArray@@QEAAAEAV1@KH@Z"
"?setNum@QByteArray@@QEAAAEAV1@MDH@Z"
"?setNum@QByteArray@@QEAAAEAV1@NDH@Z"
"?setNum@QByteArray@@QEAAAEAV1@_JH@Z"
"?setNum@QByteArray@@QEAAAEAV1@_KH@Z"
"?setNum@QString@@QEAAAEAV1@FH@Z"
"?setNum@QString@@QEAAAEAV1@GH@Z"
"?setNum@QString@@QEAAAEAV1@HH@Z"
"?setNum@QString@@QEAAAEAV1@IH@Z"
"?setNum@QString@@QEAAAEAV1@JH@Z"
"?setNum@QString@@QEAAAEAV1@KH@Z"
"?setNum@QString@@QEAAAEAV1@MDH@Z"
"?setNum@QString@@QEAAAEAV1@NDH@Z"
"?setNum@QString@@QEAAAEAV1@_JH@Z"
"?setNum@QString@@QEAAAEAV1@_KH@Z"
"?setNumberFlags@QTextStream@@QEAAXV?$QFlags@W4NumberFlag@QTextStream@@@@@Z"
"?setNumberOptions@QLocale@@QEAAXV?$QFlags@W4NumberOption@QLocale@@@@@Z"
"?setNumericMode@QCollator@@QEAAX_N@Z"
"?setObject@QJsonDocument@@QEAAXAEBVQJsonObject@@@Z"
"?setObjectName@QObject@@QEAAXAEBVQString@@@Z"
"?setObjectName@QObject@@QEAAXVQAnyStringView@@@Z"
"?setObserver@PropertyAdaptorSlotObjectHelpers@QtPrivate@@YAXPEBVQUntypedPropertyData@@PEAVQPropertyObserver@@@Z"
"?setOffsetFromUtc@QDateTime@@QEAAXH@Z"
"?setOpenMode@QIODevice@@IEAAXV?$QFlags@W4OpenModeFlag@QIODeviceBase@@@@@Z"
"?setOptionsAfterPositionalArgumentsMode@QCommandLineParser@@QEAAXW4OptionsAfterPositionalArgumentsMode@1@@Z"
"?setOrganizationDomain@QCoreApplication@@SAXAEBVQString@@@Z"
"?setOrganizationName@QCoreApplication@@SAXAEBVQString@@@Z"
"?setOvershoot@QEasingCurve@@QEAAXN@Z"
"?setP1@QLine@@QEAAXAEBVQPoint@@@Z"
"?setP1@QLineF@@QEAAXAEBVQPointF@@@Z"
"?setP2@QLine@@QEAAXAEBVQPoint@@@Z"
"?setP2@QLineF@@QEAAXAEBVQPointF@@@Z"
"?setPadChar@QTextStream@@QEAAXVQChar@@@Z"
"?setParameterNames@QMetaMethodBuilder@@QEAAXAEBV?$QList@VQByteArray@@@@@Z"
"?setParent@QObject@@QEAAXPEAV1@@Z"
"?setParent_helper@QObjectPrivate@@QEAAXPEAVQObject@@@Z"
"?setPassword@QUrl@@QEAAXAEBVQString@@W4ParsingMode@1@@Z"
"?setPath@QDir@@QEAAXAEBVQString@@@Z"
"?setPath@QSettings@@SAXW4Format@1@W4Scope@1@AEBVQString@@@Z"
"?setPath@QStorageInfo@@QEAAXAEBVQString@@@Z"
"?setPath@QUrl@@QEAAXAEBVQString@@W4ParsingMode@1@@Z"
"?setPattern@QByteArrayMatcher@@QEAAXAEBVQByteArray@@@Z"
"?setPattern@QLatin1StringMatcher@@QEAAXVQLatin1String@@@Z"
"?setPattern@QRegularExpression@@QEAAXAEBVQString@@@Z"
"?setPattern@QStringMatcher@@QEAAXAEBVQString@@@Z"
"?setPatternOptions@QRegularExpression@@QEAAXV?$QFlags@W4PatternOption@QRegularExpression@@@@@Z"
"?setPaused@QAbstractAnimation@@QEAAX_N@Z"
"?setPaused@QFutureInterfaceBase@@QEAAX_N@Z"
"?setPaused@QFutureWatcherBase@@QEAAX_N@Z"
"?setPaused@QTimeLine@@QEAAX_N@Z"
"?setPendingResultsLimit@QFutureWatcherBase@@QEAAXH@Z"
"?setPeriod@QEasingCurve@@QEAAXN@Z"
"?setPermissions@QAbstractFileEngine@@UEAA_NI@Z"
"?setPermissions@QFSFileEngine@@UEAA_NI@Z"
"?setPermissions@QFile@@SA_NAEBVQString@@V?$QFlags@W4Permission@QFileDevice@@@@@Z"
"?setPermissions@QFile@@UEAA_NV?$QFlags@W4Permission@QFileDevice@@@@@Z"
"?setPermissions@QFileDevice@@UEAA_NV?$QFlags@W4Permission@QFileDevice@@@@@Z"
"?setPoints@QLine@@QEAAXAEBVQPoint@@0@Z"
"?setPoints@QLineF@@QEAAXAEBVQPointF@@0@Z"
"?setPort@QUrl@@QEAAXH@Z"
"?setPosition@QTextBoundaryFinder@@QEAAX_J@Z"
"?setPreciseDeadline@QDeadlineTimer@@QEAAX_J0W4TimerType@Qt@@@Z"
"?setPreciseRemainingTime@QDeadlineTimer@@QEAAX_J0W4TimerType@Qt@@@Z"
"?setPriority@QThread@@QEAAXW4Priority@1@@Z"
"?setProcessChannelMode@QProcess@@QEAAXW4ProcessChannelMode@1@@Z"
"?setProcessEnvironment@QProcess@@QEAAXAEBVQProcessEnvironment@@@Z"
"?setProcessState@QProcess@@IEAAXW4ProcessState@1@@Z"
"?setProgram@QProcess@@QEAAXAEBVQString@@@Z"
"?setProgressRange@QFutureInterfaceBase@@QEAAXHH@Z"
"?setProgressValue@QFutureInterfaceBase@@QEAAXH@Z"
"?setProgressValueAndText@QFutureInterfaceBase@@QEAAXHAEBVQString@@@Z"
"?setProperty@QObject@@QEAA_NPEBD$$QEAVQVariant@@@Z"
"?setProperty@QObject@@QEAA_NPEBDAEBVQVariant@@@Z"
"?setProperty@QPropertyBindingPrivate@@QEAAXPEAVQUntypedPropertyData@@@Z"
"?setPropertyName@QPropertyAnimation@@QEAAXAEBVQByteArray@@@Z"
"?setQObjectShared@ExternalRefCountData@QtSharedPointer@@QEAAXPEBVQObject@@_N@Z"
"?setQtconfManualPath@QLibraryInfoPrivate@@SAXPEBVQString@@@Z"
"?setQuery@QUrl@@QEAAXAEBVQString@@W4ParsingMode@1@@Z"
"?setQuery@QUrl@@QEAAXAEBVQUrlQuery@@@Z"
"?setQuery@QUrlQuery@@QEAAXAEBVQString@@@Z"
"?setQueryDelimiters@QUrlQuery@@QEAAXVQChar@@0@Z"
"?setQueryItems@QUrlQuery@@QEAAXAEBV?$QList@U?$pair@VQString@@V1@@std@@@@@Z"
"?setQuitLockEnabled@QCoreApplication@@SAX_N@Z"
"?setQuoteStrings@QDebug@@QEAAX_N@Z"
"?setRawData@QByteArray@@QEAAAEAV1@PEBD_J@Z"
"?setRawData@QString@@QEAAAEAV1@PEBVQChar@@_J@Z"
"?setReadChannel@QProcess@@QEAAXW4ProcessChannel@1@@Z"
"?setReadChannelCount@QIODevicePrivate@@QEAAXH@Z"
"?setReadable@QMetaPropertyBuilder@@QEAAX_N@Z"
"?setRealNumberNotation@QTextStream@@QEAAXW4RealNumberNotation@1@@Z"
"?setRealNumberPrecision@QTextStream@@QEAAXH@Z"
"?setRect@QRect@@QEAAXHHHH@Z"
"?setRect@QRectF@@QEAAXNNNN@Z"
"?setRecursiveFilteringEnabled@QSortFilterProxyModel@@QEAAX_N@Z"
"?setRemainingTime@QDeadlineTimer@@QEAAX_JW4TimerType@Qt@@@Z"
"?setResettable@QMetaPropertyBuilder@@QEAAX_N@Z"
"?setReturnType@QMetaMethodBuilder@@QEAAXAEBVQByteArray@@@Z"
"?setRevision@QMetaMethodBuilder@@QEAAXH@Z"
"?setRevision@QMetaPropertyBuilder@@QEAAXH@Z"
"?setRight@QRect@@QEAAXH@Z"
"?setRight@QRectF@@QEAAXN@Z"
"?setRow@QChar@@QEAAXE@Z"
"?setRunnable@QFutureInterfaceBase@@QEAAXPEAVQRunnable@@@Z"
"?setScheme@QUrl@@QEAAXAEBVQString@@@Z"
"?setScriptable@QMetaPropertyBuilder@@QEAAX_N@Z"
"?setSearchPaths@QDir@@SAXAEBVQString@@AEBV?$QList@VQString@@@@@Z"
"?setSecsSinceEpoch@QDateTime@@QEAAX_J@Z"
"?setSetuidAllowed@QCoreApplication@@SAX_N@Z"
"?setSingleDashWordOptionMode@QCommandLineParser@@QEAAXW4SingleDashWordOptionMode@1@@Z"
"?setSingleShot@QChronoTimer@@QEAAX_N@Z"
"?setSingleShot@QTimer@@QEAAX_N@Z"
"?setSize@QAbstractFileEngine@@UEAA_N_J@Z"
"?setSize@QFSFileEngine@@UEAA_N_J@Z"
"?setSize@QRect@@QEAAXAEBVQSize@@@Z"
"?setSize@QRectF@@QEAAXAEBVQSizeF@@@Z"
"?setSlowModeEnabled@QUnifiedTimer@@QEAAX_N@Z"
"?setSlowdownFactor@QUnifiedTimer@@QEAAXN@Z"
"?setSocket@QSocketNotifier@@QEAAX_J@Z"
"?setSortCaseSensitivity@QSortFilterProxyModel@@QEAAXW4CaseSensitivity@Qt@@@Z"
"?setSortLocaleAware@QSortFilterProxyModel@@QEAAX_N@Z"
"?setSortRole@QSortFilterProxyModel@@QEAAXH@Z"
"?setSorting@QDir@@QEAAXV?$QFlags@W4SortFlag@QDir@@@@@Z"
"?setSource@QPropertyObserver@@QEAAXAEBVQPropertyBindingData@QtPrivate@@@Z"
"?setSourceModel@QAbstractProxyModel@@UEAAXPEAVQAbstractItemModel@@@Z"
"?setSourceModel@QIdentityProxyModel@@UEAAXPEAVQAbstractItemModel@@@Z"
"?setSourceModel@QSortFilterProxyModel@@UEAAXPEAVQAbstractItemModel@@@Z"
"?setSourceModel@QTransposeProxyModel@@UEAAXPEAVQAbstractItemModel@@@Z"
"?setSpontaneous@QEvent@@AEAAXXZ"
"?setStackSize@QThread@@QEAAXI@Z"
"?setStackSize@QThreadPool@@QEAAXI@Z"
"?setStaleLockTime@QLockFile@@QEAAXH@Z"
"?setStaleLockTime@QLockFile@@QEAAXV?$duration@_JU?$ratio@$00$0DOI@@std@@@chrono@std@@@Z"
"?setStandardErrorFile@QProcess@@QEAAXAEBVQString@@V?$QFlags@W4OpenModeFlag@QIODeviceBase@@@@@Z"
"?setStandardInputFile@QProcess@@QEAAXAEBVQString@@@Z"
"?setStandardOutputFile@QProcess@@QEAAXAEBVQString@@V?$QFlags@W4OpenModeFlag@QIODeviceBase@@@@@Z"
"?setStandardOutputProcess@QProcess@@QEAAXPEAV1@@Z"
"?setStartFrame@QTimeLine@@QEAAXH@Z"
"?setStartValue@QVariantAnimation@@QEAAXAEBVQVariant@@@Z"
"?setState@QAbstractAnimationPrivate@@QEAAXW4State@QAbstractAnimation@@@Z"
"?setStaticMetacallFunction@QMetaObjectBuilder@@QEAAXP6AXPEAVQObject@@W4Call@QMetaObject@@HPEAPEAX@Z@Z"
"?setStaticObserver@QPropertyBindingPrivate@@QEAAXP6AXPEAVQUntypedPropertyData@@@ZP6A_NVQMetaType@@0UQPropertyBindingFunction@QtPrivate@@@Z@Z"
"?setStatus@QDataStream@@QEAAXW4Status@1@@Z"
"?setStatus@QTextStream@@QEAAXW4Status@1@@Z"
"?setStdCppSet@QMetaPropertyBuilder@@QEAAX_N@Z"
"?setSticky@QPropertyBindingPrivate@@QEAAX_N@Z"
"?setStored@QMetaPropertyBuilder@@QEAAX_N@Z"
"?setString@QTextStream@@QEAAXPEAVQString@@V?$QFlags@W4OpenModeFlag@QIODeviceBase@@@@@Z"
"?setStringList@QStringListModel@@QEAAXAEBV?$QList@VQString@@@@@Z"
"?setSuperClass@QMetaObjectBuilder@@QEAAXPEBUQMetaObject@@@Z"
"?setSuspended@QFutureInterfaceBase@@QEAAX_N@Z"
"?setSuspended@QFutureWatcherBase@@QEAAX_N@Z"
"?setTag@QMetaMethodBuilder@@QEAAXAEBVQByteArray@@@Z"
"?setTargetObject@QPropertyAnimation@@QEAAXPEAVQObject@@@Z"
"?setTerminationEnabled@QThread@@KAX_N@Z"
"?setTestModeEnabled@QStandardPaths@@SAX_N@Z"
"?setText@QMimeData@@QEAAXAEBVQString@@@Z"
"?setTextModeEnabled@QIODevice@@QEAAX_N@Z"
"?setThreadData_helper@QObjectPrivate@@QEAAXPEAVQThreadData@@0PEAUQBindingStatus@@@Z"
"?setThreadPool@QFutureInterfaceBase@@QEAAXPEAVQThreadPool@@@Z"
"?setThreadPriority@QThreadPool@@QEAAXW4Priority@QThread@@@Z"
"?setThrottled@QFutureInterfaceBase@@QEAAX_N@Z"
"?setTime@QDateTime@@QEAAXVQTime@@@Z"
"?setTime@QDateTime@@QEAAXVQTime@@W4TransitionResolution@1@@Z"
"?setTimeSpec@QDateTime@@QEAAXW4TimeSpec@Qt@@@Z"
"?setTimeZone@QDateTime@@QEAAXAEBVQTimeZone@@@Z"
"?setTimeZone@QDateTime@@QEAAXAEBVQTimeZone@@W4TransitionResolution@1@@Z"
"?setTimerType@QChronoTimer@@QEAAXW4TimerType@Qt@@@Z"
"?setTimerType@QDeadlineTimer@@QEAAXW4TimerType@Qt@@@Z"
"?setTimerType@QTimer@@QEAAXW4TimerType@Qt@@@Z"
"?setTimingInterval@QUnifiedTimer@@QEAAXH@Z"
"?setTop@QRect@@QEAAXH@Z"
"?setTop@QRectF@@QEAAXN@Z"
"?setTopLeft@QRect@@QEAAXAEBVQPoint@@@Z"
"?setTopLeft@QRectF@@QEAAXAEBVQPointF@@@Z"
"?setTopRight@QRect@@QEAAXAEBVQPoint@@@Z"
"?setTopRight@QRectF@@QEAAXAEBVQPointF@@@Z"
"?setType@QEasingCurve@@QEAAXW4Type@1@@Z"
"?setType_internal@QNativeIpcKey@@AEAAXW4Type@1@@Z"
"?setUnicode@QString@@QEAAAEAV1@PEBVQChar@@_J@Z"
"?setUpdateInterval@QTimeLine@@QEAAXH@Z"
"?setUrl@QUrl@@QEAAXAEBVQString@@W4ParsingMode@1@@Z"
"?setUrls@QMimeData@@QEAAXAEBV?$QList@VQUrl@@@@@Z"
"?setUser@QMetaPropertyBuilder@@QEAAX_N@Z"
"?setUserInfo@QUrl@@QEAAXAEBVQString@@W4ParsingMode@1@@Z"
"?setUserName@QUrl@@QEAAXAEBVQString@@W4ParsingMode@1@@Z"
"?setUtf16@QString@@QEAAAEAV1@PEBG_J@Z"
"?setValue@QAssociativeIterable@@QEAAXAEBVQVariant@@0@Z"
"?setValue@QSettings@@QEAAXAEBVQString@@AEBVQVariant@@@Z"
"?setValue@QSettings@@QEAAXVQAnyStringView@@AEBVQVariant@@@Z"
"?setValue@QVariant@@QEAAX$$QEAV1@@Z"
"?setValue@QVariant@@QEAAXAEBV1@@Z"
"?setValueAt@QJsonObject@@AEAAX_JAEBVQJsonValue@@@Z"
"?setValueAtIndex@QMetaSequence@@QEBAXPEAX_JPEBX@Z"
"?setValueAtIterator@QMetaSequence@@QEBAXPEBX0@Z"
"?setValueName@QCommandLineOption@@QEAAXAEBVQString@@@Z"
"?setVector@SegmentStorage@QVersionNumber@@AEAAXHHHH@Z"
"?setVerbosity@QDebug@@QEAAXH@Z"
"?setVersion@QDataStream@@QEAAXH@Z"
"?setWidgetParent@QAbstractDeclarativeData@@2P6AXPEAVQObject@@0@ZEA"
"?setWidth@QRect@@QEAAXH@Z"
"?setWidth@QRectF@@QEAAXN@Z"
"?setWidth@QSize@@QEAAXH@Z"
"?setWidth@QSizeF@@QEAAXN@Z"
"?setWorkingDirectory@QProcess@@QEAAXAEBVQString@@@Z"
"?setWritable@QMetaPropertyBuilder@@QEAAX_N@Z"
"?setWriteChannelCount@QIODevicePrivate@@QEAAXH@Z"
"?setX@QRect@@QEAAXH@Z"
"?setX@QRectF@@QEAAXN@Z"
"?setY@QRect@@QEAAXH@Z"
"?setY@QRectF@@QEAAXN@Z"
"?setter@PropertyAdaptorSlotObjectHelpers@QtPrivate@@YAXPEAVQUntypedPropertyData@@PEBX@Z"
"?setuidAllowed@QCoreApplicationPrivate@@2_NA"
"?setupChildProcess@QProcess@@EEAA?AUUse_setChildProcessModifier_Instead@1@XZ"
"?sharedPointerFromVariant_internal@QtSharedPointer@@YA?AV?$QSharedPointer@VQObject@@@@AEBVQVariant@@@Z"
"?shifttable@qfloat16@@0QBGB"
"?shouldLogToStderr@QtPrivate@@YA_NXZ"
"?showHelp@QCommandLineParser@@QEAAXH@Z"
"?showVersion@QCommandLineParser@@QEAAXXZ"
"?showbase@Qt@@YAAEAVQTextStream@@AEAV2@@Z"
"?shrink_to_fit@QByteArray@@QEAAXXZ"
"?shrink_to_fit@QString@@QEAAXXZ"
"?shrunkBy@QSize@@QEBA?AV1@VQMargins@@@Z"
"?shrunkBy@QSizeF@@QEBA?AV1@VQMarginsF@@@Z"
"?sibling@QAbstractItemModel@@UEBA?AVQModelIndex@@HHAEBV2@@Z"
"?sibling@QAbstractListModel@@UEBA?AVQModelIndex@@HHAEBV2@@Z"
"?sibling@QAbstractProxyModel@@UEBA?AVQModelIndex@@HHAEBV2@@Z"
"?sibling@QAbstractTableModel@@UEBA?AVQModelIndex@@HHAEBV2@@Z"
"?sibling@QIdentityProxyModel@@UEBA?AVQModelIndex@@HHAEBV2@@Z"
"?sibling@QPersistentModelIndex@@QEBA?AVQModelIndex@@HH@Z"
"?sibling@QSortFilterProxyModel@@UEBA?AVQModelIndex@@HHAEBV2@@Z"
"?sibling@QStringListModel@@UEBA?AVQModelIndex@@HHAEBV2@@Z"
"?signal@QMetaObjectPrivate@@SA?AVQMetaMethod@@PEBUQMetaObject@@H@Z"
"?signalEmitted@QAbstractDeclarativeData@@2P6AXPEAV1@PEAVQObject@@HPEAPEAX@ZEA"
"?signalId@QAbstractMetaCallEvent@@QEBAHXZ"
"?signalIndex@QMetaObjectPrivate@@SAHAEBVQMetaMethod@@@Z"
"?signalIndex@QObjectPrivate@@QEBAHPEBDPEAPEBUQMetaObject@@@Z"
"?signalsBlocked@QObject@@QEBA_NXZ"
"?signature@QMetaMethodBuilder@@QEBA?AVQByteArray@@XZ"
"?simplified@QByteArray@@QEGBA?AV1@XZ"
"?simplified@QByteArray@@QEHAA?AV1@XZ"
"?simplified@QString@@QEGBA?AV1@XZ"
"?simplified@QString@@QEHAA?AV1@XZ"
"?simplified_helper@QByteArray@@CA?AV1@AEAV1@@Z"
"?simplified_helper@QByteArray@@CA?AV1@AEBV1@@Z"
"?simplified_helper@QString@@CA?AV1@AEAV1@@Z"
"?simplified_helper@QString@@CA?AV1@AEBV1@@Z"
"?singleShot@QTimer@@SAXHPEBVQObject@@PEBD@Z"
"?singleShot@QTimer@@SAXHW4TimerType@Qt@@PEBVQObject@@PEBD@Z"
"?singleShot@QTimer@@SAXV?$duration@_JU?$ratio@$00$0DLJKMKAA@@std@@@chrono@std@@PEBVQObject@@PEBD@Z"
"?singleShot@QTimer@@SAXV?$duration@_JU?$ratio@$00$0DLJKMKAA@@std@@@chrono@std@@W4TimerType@Qt@@PEBVQObject@@PEBD@Z"
"?singleShot@QTimer@@SAXV?$duration@_JU?$ratio@$00$0DOI@@std@@@chrono@std@@PEBVQObject@@PEBD@Z"
"?singleShot@QTimer@@SAXV?$duration@_JU?$ratio@$00$0DOI@@std@@@chrono@std@@W4TimerType@Qt@@PEBVQObject@@PEBD@Z"
"?singleShotImpl@QTimer@@CAXHW4TimerType@Qt@@PEBVQObject@@PEAVQSlotObjectBase@QtPrivate@@@Z"
"?singleShotImpl@QTimer@@CAXV?$duration@_JU?$ratio@$00$0DLJKMKAA@@std@@@chrono@std@@W4TimerType@Qt@@PEBVQObject@@PEAVQSlotObjectBase@QtPrivate@@@Z"
"?singleShotImpl@QTimer@@CAXV?$duration@_JU?$ratio@$00$0DOI@@std@@@chrono@std@@W4TimerType@Qt@@PEBVQObject@@PEAVQSlotObjectBase@QtPrivate@@@Z"
"?size@?$QIterable@VQMetaAssociation@@@@QEBA_JXZ"
"?size@?$QIterable@VQMetaSequence@@@@QEBA_JXZ"
"?size@DirEntry@QDirListing@@QEBA_JXZ"
"?size@QAbstractFileEngine@@UEBA_JXZ"
"?size@QBitArray@@QEBA_JXZ"
"?size@QBuffer@@UEBA_JXZ"
"?size@QByteArray@@QEBA_JXZ"
"?size@QByteArrayView@@QEBA_JXZ"
"?size@QCborArray@@QEBA_JXZ"
"?size@QCborMap@@QEBA_JXZ"
"?size@QFSFileEngine@@UEBA_JXZ"
"?size@QFile@@UEBA_JXZ"
"?size@QFileDevice@@UEBA_JXZ"
"?size@QFileInfo@@QEBA_JXZ"
"?size@QIODevice@@UEBA_JXZ"
"?size@QJsonArray@@QEBA_JXZ"
"?size@QJsonObject@@QEBA_JXZ"
"?size@QMetaContainer@@QEBA_JPEBX@Z"
"?size@QRect@@QEBA?AVQSize@@XZ"
"?size@QRectF@@QEBA?AVQSizeF@@XZ"
"?size@QResource@@QEBA_JXZ"
"?size@QSharedMemory@@QEBA_JXZ"
"?size@QString@@QEBA_JXZ"
"?sizeOf@QMetaType@@QEBA_JXZ"
"?sizeOf@QMetaType@@SAHH@Z"
"?skip@QIODevice@@QEAA_J_J@Z"
"?skip@QWindowsPipeReader@@QEAA_J_J@Z"
"?skipByReading@QIODevicePrivate@@QEAA_J_J@Z"
"?skipCurrentElement@QXmlStreamReader@@QEAAXXZ"
"?skipData@QIODevice@@MEAA_J_J@Z"
"?skipRawData@QDataStream@@QEAAHH@Z"
"?skipRawData@QDataStream@@QEAA_J_J@Z"
"?skipToNextSection@QDateTimeParser@@IEBA_NHAEBVQDateTime@@AEBVQString@@@Z"
"?skipToNextSection@QDateTimeParser@@IEBA_NHAEBVQDateTime@@VQStringView@@@Z"
"?skipWhiteSpace@QTextStream@@QEAAXXZ"
"?sleep@QThread@@SAXK@Z"
"?sleep@QThread@@SAXV?$duration@_JU?$ratio@$00$0DLJKMKAA@@std@@@chrono@std@@@Z"
"?slice@QByteArray@@QEAAAEAV1@_J0@Z"
"?slice@QByteArray@@QEAAAEAV1@_J@Z"
"?slice@QByteArrayView@@QEAAAEAV1@_J0@Z"
"?slice@QByteArrayView@@QEAAAEAV1@_J@Z"
"?slice@QString@@QEAAAEAV1@_J0@Z"
"?slice@QString@@QEAAAEAV1@_J@Z"
"?sliced@QByteArray@@QEBA?AV1@_J0@Z"
"?sliced@QByteArray@@QEBA?AV1@_J@Z"
"?sliced@QByteArray@@QEGBA?AV1@_J0@Z"
"?sliced@QByteArray@@QEGBA?AV1@_J@Z"
"?sliced@QByteArray@@QEHAA?AV1@_J0@Z"
"?sliced@QByteArray@@QEHAA?AV1@_J@Z"
"?sliced@QByteArrayView@@QEBA?AV1@_J0@Z"
"?sliced@QByteArrayView@@QEBA?AV1@_J@Z"
"?sliced@QString@@QEBA?AV1@_J0@Z"
"?sliced@QString@@QEBA?AV1@_J@Z"
"?sliced@QString@@QEGBA?AV1@_J0@Z"
"?sliced@QString@@QEGBA?AV1@_J@Z"
"?sliced@QString@@QEHAA?AV1@_J0@Z"
"?sliced@QString@@QEHAA?AV1@_J@Z"
"?sliced_helper@QByteArray@@CA?AV1@AEAV1@_J1@Z"
"?sliced_helper@QString@@CA?AV1@AEAV1@_J1@Z"
"?socket@QSocketNotifier@@QEBA_JXZ"
"?sort@QAbstractItemModel@@UEAAXHW4SortOrder@Qt@@@Z"
"?sort@QAbstractProxyModel@@UEAAXHW4SortOrder@Qt@@@Z"
"?sort@QSortFilterProxyModel@@UEAAXHW4SortOrder@Qt@@@Z"
"?sort@QStringListModel@@UEAAXHW4SortOrder@Qt@@@Z"
"?sort@QTransposeProxyModel@@UEAAXHW4SortOrder@Qt@@@Z"
"?sortCaseSensitivity@QSortFilterProxyModel@@QEBA?AW4CaseSensitivity@Qt@@XZ"
"?sortCaseSensitivityChanged@QSortFilterProxyModel@@QEAAXW4CaseSensitivity@Qt@@@Z"
"?sortColumn@QSortFilterProxyModel@@QEBAHXZ"
"?sortKey@QCollator@@QEBA?AVQCollatorSortKey@@AEBVQString@@@Z"
"?sortLocaleAwareChanged@QSortFilterProxyModel@@QEAAX_N@Z"
"?sortOrder@QSortFilterProxyModel@@QEBA?AW4SortOrder@Qt@@XZ"
"?sortRole@QSortFilterProxyModel@@QEBAHXZ"
"?sortRoleChanged@QSortFilterProxyModel@@QEAAXH@Z"
"?sorting@QDir@@QEBA?AV?$QFlags@W4SortFlag@QDir@@@@XZ"
"?sourceColumnsAboutToBeInserted@QIdentityProxyModelPrivate@@QEAAXAEBVQModelIndex@@HH@Z"
"?sourceColumnsAboutToBeMoved@QIdentityProxyModelPrivate@@QEAAXAEBVQModelIndex@@HH0H@Z"
"?sourceColumnsAboutToBeRemoved@QIdentityProxyModelPrivate@@QEAAXAEBVQModelIndex@@HH@Z"
"?sourceColumnsInserted@QIdentityProxyModelPrivate@@QEAAXAEBVQModelIndex@@HH@Z"
"?sourceColumnsMoved@QIdentityProxyModelPrivate@@QEAAXAEBVQModelIndex@@HH0H@Z"
"?sourceColumnsRemoved@QIdentityProxyModelPrivate@@QEAAXAEBVQModelIndex@@HH@Z"
"?sourceDataChanged@QIdentityProxyModelPrivate@@QEAAXAEBVQModelIndex@@0AEBV?$QList@H@@@Z"
"?sourceHeaderDataChanged@QIdentityProxyModelPrivate@@QEAAXW4Orientation@Qt@@HH@Z"
"?sourceLayoutAboutToBeChanged@QIdentityProxyModelPrivate@@QEAAXAEBV?$QList@VQPersistentModelIndex@@@@W4LayoutChangeHint@QAbstractItemModel@@@Z"
"?sourceLayoutChanged@QIdentityProxyModelPrivate@@QEAAXAEBV?$QList@VQPersistentModelIndex@@@@W4LayoutChangeHint@QAbstractItemModel@@@Z"
"?sourceLocation@QPropertyBindingPrivate@@QEBA?AUQPropertyBindingSourceLocation@@XZ"
"?sourceModel@QAbstractProxyModel@@QEBAPEAVQAbstractItemModel@@XZ"
"?sourceModelAboutToBeReset@QIdentityProxyModelPrivate@@QEAAXXZ"
"?sourceModelChanged@QAbstractProxyModel@@QEAAXUQPrivateSignal@1@@Z"
"?sourceModelReset@QIdentityProxyModelPrivate@@QEAAXXZ"
"?sourceModels@QConcatenateTablesProxyModel@@QEBA?AV?$QList@PEAVQAbstractItemModel@@@@XZ"
"?sourceRowsAboutToBeInserted@QIdentityProxyModelPrivate@@QEAAXAEBVQModelIndex@@HH@Z"
"?sourceRowsAboutToBeMoved@QIdentityProxyModelPrivate@@QEAAXAEBVQModelIndex@@HH0H@Z"
"?sourceRowsAboutToBeRemoved@QIdentityProxyModelPrivate@@QEAAXAEBVQModelIndex@@HH@Z"
"?sourceRowsInserted@QIdentityProxyModelPrivate@@QEAAXAEBVQModelIndex@@HH@Z"
"?sourceRowsMoved@QIdentityProxyModelPrivate@@QEAAXAEBVQModelIndex@@HH0H@Z"
"?sourceRowsRemoved@QIdentityProxyModelPrivate@@QEAAXAEBVQModelIndex@@HH@Z"
"?space@QDebug@@QEAAAEAV1@XZ"
"?span@QAbstractItemModel@@UEBA?AVQSize@@AEBVQModelIndex@@@Z"
"?span@QAbstractProxyModel@@UEBA?AVQSize@@AEBVQModelIndex@@@Z"
"?span@QConcatenateTablesProxyModel@@UEBA?AVQSize@@AEBVQModelIndex@@@Z"
"?span@QRect@@SA?AV1@AEBVQPoint@@0@Z"
"?span@QSortFilterProxyModel@@UEBA?AVQSize@@AEBVQModelIndex@@@Z"
"?span@QTransposeProxyModel@@UEBA?AVQSize@@AEBVQModelIndex@@@Z"
"?split@QByteArray@@QEBA?AV?$QList@VQByteArray@@@@D@Z"
"?split@QItemSelection@@SAXAEBVQItemSelectionRange@@0PEAV1@@Z"
"?split@QString@@QEBA?AV?$QList@VQString@@@@AEBV1@V?$QFlags@W4SplitBehaviorFlags@Qt@@@@W4CaseSensitivity@Qt@@@Z"
"?split@QString@@QEBA?AV?$QList@VQString@@@@AEBVQRegularExpression@@V?$QFlags@W4SplitBehaviorFlags@Qt@@@@@Z"
"?split@QString@@QEBA?AV?$QList@VQString@@@@VQChar@@V?$QFlags@W4SplitBehaviorFlags@Qt@@@@W4CaseSensitivity@Qt@@@Z"
"?split@QStringView@@QEBA?AV?$QList@VQStringView@@@@AEBVQRegularExpression@@V?$QFlags@W4SplitBehaviorFlags@Qt@@@@@Z"
"?split@QStringView@@QEBA?AV?$QList@VQStringView@@@@V1@V?$QFlags@W4SplitBehaviorFlags@Qt@@@@W4CaseSensitivity@Qt@@@Z"
"?split@QStringView@@QEBA?AV?$QList@VQStringView@@@@VQChar@@V?$QFlags@W4SplitBehaviorFlags@Qt@@@@W4CaseSensitivity@Qt@@@Z"
"?splitCommand@QProcess@@SA?AV?$QList@VQString@@@@VQStringView@@@Z"
"?spontaneous@QEvent@@QEBA_NXZ"
"?squeeze@QByteArray@@QEAAXXZ"
"?squeeze@QString@@QEAAXXZ"
"?stackSize@QThread@@QEBAIXZ"
"?stackSize@QThreadPool@@QEBAIXZ"
"?staleLockTime@QLockFile@@QEBAHXZ"
"?staleLockTimeAsDuration@QLockFile@@QEBA?AV?$duration@_JU?$ratio@$00$0DOI@@std@@@chrono@std@@XZ"
"?standaloneDayName@QLocale@@QEBA?AVQString@@HW4FormatType@1@@Z"
"?standaloneMonthName@QCalendar@@QEBA?AVQString@@AEBVQLocale@@HHW4FormatType@3@@Z"
"?standaloneMonthName@QCalendarBackend@@UEBA?AVQString@@AEBVQLocale@@HHW4FormatType@3@@Z"
"?standaloneMonthName@QLocale@@QEBA?AVQString@@HW4FormatType@1@@Z"
"?standaloneMonthName@QRomanCalendar@@UEBA?AVQString@@AEBVQLocale@@HHW4FormatType@3@@Z"
"?standaloneWeekDayName@QCalendar@@QEBA?AVQString@@AEBVQLocale@@HW4FormatType@3@@Z"
"?standaloneWeekDayName@QCalendarBackend@@UEBA?AVQString@@AEBVQLocale@@HW4FormatType@3@@Z"
"?standardLocations@QStandardPaths@@SA?AV?$QList@VQString@@@@W4StandardLocation@1@@Z"
"?standardTimeOffset@QTimeZone@@QEBAHAEBVQDateTime@@@Z"
"?start@QAbstractAnimation@@QEAAXW4DeletionPolicy@1@@Z"
"?start@QAnimationDriver@@MEAAXXZ"
"?start@QBasicTimer@@QEAAXHPEAVQObject@@@Z"
"?start@QBasicTimer@@QEAAXHW4TimerType@Qt@@PEAVQObject@@@Z"
"?start@QBasicTimer@@QEAAXV?$duration@_JU?$ratio@$00$0DOI@@std@@@chrono@std@@PEAVQObject@@@Z"
"?start@QBasicTimer@@QEAAXV?$duration@_JU?$ratio@$00$0DOI@@std@@@chrono@std@@W4TimerType@Qt@@PEAVQObject@@@Z"
"?start@QChronoTimer@@QEAAXXZ"
"?start@QElapsedTimer@@QEAAXXZ"
"?start@QProcess@@QEAAXAEBVQString@@AEBV?$QList@VQString@@@@V?$QFlags@W4OpenModeFlag@QIODeviceBase@@@@@Z"
"?start@QProcess@@QEAAXV?$QFlags@W4OpenModeFlag@QIODeviceBase@@@@@Z"
"?start@QThread@@QEAAXW4Priority@1@@Z"
"?start@QThreadPool@@QEAAXPEAVQRunnable@@H@Z"
"?start@QThreadPool@@QEAAXV?$function@$$A6AXXZ@std@@H@Z"
"?start@QTimeLine@@QEAAXXZ"
"?start@QTimer@@QEAAXH@Z"
"?start@QTimer@@QEAAXV?$duration@_JU?$ratio@$00$0DOI@@std@@@chrono@std@@@Z"
"?start@QTimer@@QEAAXXZ"
"?startAnimationDriver@QUnifiedTimer@@QEAAXXZ"
"?startAnimationTimer@QUnifiedTimer@@SAXPEAVQAbstractAnimationTimer@@@Z"
"?startArray@QCborStreamWriter@@QEAAXXZ"
"?startArray@QCborStreamWriter@@QEAAX_K@Z"
"?startAsyncRead@QWindowsPipeReader@@QEAAXXZ"
"?startAsyncReadHelper@QWindowsPipeReader@@AEAAXPEAV?$QMutexLocker@VQMutex@@@@@Z"
"?startAsyncReadLocked@QWindowsPipeReader@@AEAAXXZ"
"?startAsyncWriteHelper@QWindowsPipeWriter@@AEAAXPEAV?$QMutexLocker@VQMutex@@@@@Z"
"?startAsyncWriteLocked@QWindowsPipeWriter@@AEAAXXZ"
"?startCommand@QProcess@@QEAAXAEBVQString@@V?$QFlags@W4OpenModeFlag@QIODeviceBase@@@@@Z"
"?startDetached@QProcess@@QEAA_NPEA_J@Z"
"?startDetached@QProcess@@SA_NAEBVQString@@AEBV?$QList@VQString@@@@0PEA_J@Z"
"?startFrame@QTimeLine@@QEBAHXZ"
"?startMap@QCborStreamWriter@@QEAAXXZ"
"?startMap@QCborStreamWriter@@QEAAX_K@Z"
"?startOfDay@QDate@@QEBA?AVQDateTime@@AEBVQTimeZone@@@Z"
"?startOfDay@QDate@@QEBA?AVQDateTime@@W4TimeSpec@Qt@@H@Z"
"?startOfDay@QDate@@QEBA?AVQDateTime@@XZ"
"?startOnReservedThread@QThreadPool@@QEAAXPEAVQRunnable@@@Z"
"?startOnReservedThread@QThreadPool@@QEAAXV?$function@$$A6AXXZ@std@@@Z"
"?startPostedEventsTimer@QEventDispatcherWin32Private@@QEAAXXZ"
"?startThread@QThreadPoolPrivate@@QEAAXPEAVQRunnable@@@Z"
"?startTimer@QObject@@QEAAHHW4TimerType@Qt@@@Z"
"?startTimer@QObject@@QEAAHV?$duration@_JU?$ratio@$00$0DLJKMKAA@@std@@@chrono@std@@W4TimerType@Qt@@@Z"
"?startTimer@QObject@@QEAAHV?$duration@_JU?$ratio@$00$0DOI@@std@@@chrono@std@@W4TimerType@Qt@@@Z"
"?startTimer@QTimer@@AEAAHH@Z"
"?startTimers@QUnifiedTimer@@AEAAXXZ"
"?startTransaction@QDataStream@@QEAAXXZ"
"?startTransaction@QIODevice@@QEAAXXZ"
"?startValue@QVariantAnimation@@QEBA?AVQVariant@@XZ"
"?started@QAnimationDriver@@QEAAXXZ"
"?started@QFutureWatcherBase@@QEAAXXZ"
"?started@QProcess@@QEAAXUQPrivateSignal@1@@Z"
"?started@QThread@@QEAAXUQPrivateSignal@1@@Z"
"?startingUp@QAbstractEventDispatcher@@UEAAXXZ"
"?startingUp@QCoreApplication@@SA_NXZ"
"?startingUp@QEventDispatcherWin32@@UEAAXXZ"
"?startsWith@QByteArray@@QEBA_ND@Z"
"?startsWith@QByteArray@@QEBA_NVQByteArrayView@@@Z"
"?startsWith@QByteArrayView@@QEBA_ND@Z"
"?startsWith@QByteArrayView@@QEBA_NV1@@Z"
"?startsWith@QString@@QEBA_NAEBV1@W4CaseSensitivity@Qt@@@Z"
"?startsWith@QString@@QEBA_NVQChar@@W4CaseSensitivity@Qt@@@Z"
"?startsWith@QString@@QEBA_NVQLatin1String@@W4CaseSensitivity@Qt@@@Z"
"?startsWith@QString@@QEBA_NVQStringView@@W4CaseSensitivity@Qt@@@Z"
"?startsWith@QtPrivate@@YA_NVQByteArrayView@@0@Z"
"?startsWith@QtPrivate@@YA_NVQLatin1String@@0W4CaseSensitivity@Qt@@@Z"
"?startsWith@QtPrivate@@YA_NVQLatin1String@@VQStringView@@W4CaseSensitivity@Qt@@@Z"
"?startsWith@QtPrivate@@YA_NVQStringView@@0W4CaseSensitivity@Qt@@@Z"
"?startsWith@QtPrivate@@YA_NVQStringView@@VQLatin1String@@W4CaseSensitivity@Qt@@@Z"
"?stat@QFileInfo@@QEAAXXZ"
"?state@QAbstractAnimation@@QEBA?AW4State@1@XZ"
"?state@QProcess@@QEBA?AW4ProcessState@1@XZ"
"?state@QTimeLine@@QEBA?AW4State@1@XZ"
"?stateChanged@QAbstractAnimation@@QEAAXW4State@1@0@Z"
"?stateChanged@QProcess@@QEAAXW4ProcessState@1@UQPrivateSignal@1@@Z"
"?stateChanged@QTimeLine@@QEAAXW4State@1@UQPrivateSignal@1@@Z"
"?stateName@QDateTimeParser@@IEBA?AVQString@@W4State@1@@Z"
"?staticEmptyModel@QAbstractItemModelPrivate@@SAPEAVQAbstractItemModel@@XZ"
"?staticInstances@QPluginLoader@@SA?AV?$QList@PEAVQObject@@@@XZ"
"?staticMetaObject@QAbstractAnimation@@2UQMetaObject@@B" DATA
"?staticMetaObject@QAbstractAnimationTimer@@2UQMetaObject@@B" DATA
"?staticMetaObject@QAbstractEventDispatcher@@2UQMetaObject@@B" DATA
"?staticMetaObject@QAbstractEventDispatcherV2@@2UQMetaObject@@B" DATA
"?staticMetaObject@QAbstractItemModel@@2UQMetaObject@@B" DATA
"?staticMetaObject@QAbstractListModel@@2UQMetaObject@@B" DATA
"?staticMetaObject@QAbstractProxyModel@@2UQMetaObject@@B" DATA
"?staticMetaObject@QAbstractTableModel@@2UQMetaObject@@B" DATA
"?staticMetaObject@QAnimationDriver@@2UQMetaObject@@B" DATA
"?staticMetaObject@QAnimationGroup@@2UQMetaObject@@B" DATA
"?staticMetaObject@QBluetoothPermission@@2UQMetaObject@@B" DATA
"?staticMetaObject@QBuffer@@2UQMetaObject@@B" DATA
"?staticMetaObject@QCalendar@@2UQMetaObject@@B" DATA
"?staticMetaObject@QCalendarPermission@@2UQMetaObject@@B" DATA
"?staticMetaObject@QCborError@@2UQMetaObject@@B" DATA
"?staticMetaObject@QCborStreamReader@@2UQMetaObject@@B" DATA
"?staticMetaObject@QCborValue@@2UQMetaObject@@B" DATA
"?staticMetaObject@QChronoTimer@@2UQMetaObject@@B" DATA
"?staticMetaObject@QConcatenateTablesProxyModel@@2UQMetaObject@@B" DATA
"?staticMetaObject@QContactsPermission@@2UQMetaObject@@B" DATA
"?staticMetaObject@QCoreApplication@@2UQMetaObject@@B" DATA
"?staticMetaObject@QCryptographicHash@@2UQMetaObject@@B" DATA
"?staticMetaObject@QEasingCurve@@2UQMetaObject@@B" DATA
"?staticMetaObject@QEvent@@2UQMetaObject@@B" DATA
"?staticMetaObject@QEventDispatcherWin32@@2UQMetaObject@@B" DATA
"?staticMetaObject@QEventLoop@@2UQMetaObject@@B" DATA
"?staticMetaObject@QFactoryLoader@@2UQMetaObject@@B" DATA
"?staticMetaObject@QFile@@2UQMetaObject@@B" DATA
"?staticMetaObject@QFileDevice@@2UQMetaObject@@B" DATA
"?staticMetaObject@QFileSelector@@2UQMetaObject@@B" DATA
"?staticMetaObject@QFileSystemWatcher@@2UQMetaObject@@B" DATA
"?staticMetaObject@QFutureWatcherBase@@2UQMetaObject@@B" DATA
"?staticMetaObject@QIODevice@@2UQMetaObject@@B" DATA
"?staticMetaObject@QIdentityProxyModel@@2UQMetaObject@@B" DATA
"?staticMetaObject@QItemSelectionModel@@2UQMetaObject@@B" DATA
"?staticMetaObject@QLibrary@@2UQMetaObject@@B" DATA
"?staticMetaObject@QLocale@@2UQMetaObject@@B" DATA
"?staticMetaObject@QLocationPermission@@2UQMetaObject@@B" DATA
"?staticMetaObject@QMimeData@@2UQMetaObject@@B" DATA
"?staticMetaObject@QMimeType@@2UQMetaObject@@B" DATA
"?staticMetaObject@QNativeIpcKey@@2UQMetaObject@@B" DATA
"?staticMetaObject@QNonContiguousByteDevice@@2UQMetaObject@@B" DATA
"?staticMetaObject@QObject@@2UQMetaObject@@B" DATA
"?staticMetaObject@QObjectCleanupHandler@@2UQMetaObject@@B" DATA
"?staticMetaObject@QParallelAnimationGroup@@2UQMetaObject@@B" DATA
"?staticMetaObject@QPauseAnimation@@2UQMetaObject@@B" DATA
"?staticMetaObject@QPluginLoader@@2UQMetaObject@@B" DATA
"?staticMetaObject@QProcess@@2UQMetaObject@@B" DATA
"?staticMetaObject@QPropertyAnimation@@2UQMetaObject@@B" DATA
"?staticMetaObject@QSaveFile@@2UQMetaObject@@B" DATA
"?staticMetaObject@QSequentialAnimationGroup@@2UQMetaObject@@B" DATA
"?staticMetaObject@QSettings@@2UQMetaObject@@B" DATA
"?staticMetaObject@QSharedMemory@@2UQMetaObject@@B" DATA
"?staticMetaObject@QSignalMapper@@2UQMetaObject@@B" DATA
"?staticMetaObject@QSocketNotifier@@2UQMetaObject@@B" DATA
"?staticMetaObject@QSortFilterProxyModel@@2UQMetaObject@@B" DATA
"?staticMetaObject@QStandardPaths@@2UQMetaObject@@B" DATA
"?staticMetaObject@QStringListModel@@2UQMetaObject@@B" DATA
"?staticMetaObject@QSystemSemaphore@@2UQMetaObject@@B" DATA
"?staticMetaObject@QTemporaryFile@@2UQMetaObject@@B" DATA
"?staticMetaObject@QThread@@2UQMetaObject@@B" DATA
"?staticMetaObject@QThreadPool@@2UQMetaObject@@B" DATA
"?staticMetaObject@QTimeLine@@2UQMetaObject@@B" DATA
"?staticMetaObject@QTimer@@2UQMetaObject@@B" DATA
"?staticMetaObject@QTranslator@@2UQMetaObject@@B" DATA
"?staticMetaObject@QTransposeProxyModel@@2UQMetaObject@@B" DATA
"?staticMetaObject@QUnifiedTimer@@2UQMetaObject@@B" DATA
"?staticMetaObject@QVariantAnimation@@2UQMetaObject@@B" DATA
"?staticMetaObject@QWinEventNotifier@@2UQMetaObject@@B" DATA
"?staticMetaObject@QWindowsPipeReader@@2UQMetaObject@@B" DATA
"?staticMetaObject@QWindowsPipeWriter@@2UQMetaObject@@B" DATA
"?staticMetaObject@Qt@@3UQMetaObject@@B" DATA
"?staticMetacallFunction@QMetaObjectBuilder@@QEBAP6AXPEAVQObject@@W4Call@QMetaObject@@HPEAPEAX@ZXZ"
"?staticPlugins@QPluginLoader@@SA?AV?$QList@UQStaticPlugin@@@@XZ"
"?static_metacall@QMetaObject@@QEBAHW4Call@1@HPEAPEAX@Z"
"?status@QBindingStorage@@QEBAPEBUQBindingStatus@@UQBindingStatusAccessToken@QtPrivate@@@Z"
"?status@QDataStream@@QEBA?AW4Status@1@XZ"
"?status@QSettings@@QEBA?AW4Status@1@XZ"
"?status@QTextStream@@QEBA?AW4Status@1@XZ"
"?status@QZipReader@@QEBA?AW4Status@1@XZ"
"?status@QZipWriter@@QEBA?AW4Status@1@XZ"
"?stdString@QSystemError@@SA?AVQString@@H@Z"
"?stealAndRunRunnable@QThreadPoolPrivate@@QEAAXPEAVQRunnable@@@Z"
"?stop@QAbstractAnimation@@QEAAXXZ"
"?stop@QAnimationDriver@@MEAAXXZ"
"?stop@QBasicTimer@@QEAAXXZ"
"?stop@QChronoTimer@@QEAAXXZ"
"?stop@QTimeLine@@QEAAXXZ"
"?stop@QTimer@@QEAAXXZ"
"?stop@QWindowsPipeReader@@QEAAXXZ"
"?stop@QWindowsPipeWriter@@QEAAXXZ"
"?stopAndClear@QWindowsPipeReader@@QEAAXXZ"
"?stopAnimationDriver@QUnifiedTimer@@QEAAXXZ"
"?stopAnimationTimer@QUnifiedTimer@@SAXPEAVQAbstractAnimationTimer@@@Z"
"?stopTimer@QUnifiedTimer@@AEAAXXZ"
"?stopped@QAnimationDriver@@QEAAXXZ"
"?string@QSystemError@@SA?AVQString@@W4ErrorScope@1@H@Z"
"?string@QTextBoundaryFinder@@QEBA?AVQString@@XZ"
"?string@QTextStream@@QEBAPEAVQString@@XZ"
"?stringList@QStringListModel@@QEBA?AV?$QList@VQString@@@@XZ"
"?stringValue@QWinRegistryKey@@QEBA?AVQString@@VQStringView@@@Z"
"?submit@QAbstractItemModel@@UEAA_NXZ"
"?submit@QAbstractProxyModel@@UEAA_NXZ"
"?subvolume@QStorageInfo@@QEBA?AVQByteArray@@XZ"
"?suffix@DirEntry@QDirListing@@QEBA?AVQString@@XZ"
"?suffix@QFileInfo@@QEBA?AVQString@@XZ"
"?suffixForFileName@QMimeDatabase@@QEBA?AVQString@@AEBV2@@Z"
"?suffixes@QMimeType@@QEBA?AV?$QList@VQString@@@@XZ"
"?superClass@QMetaObject@@QEBAPEBU1@XZ"
"?superClass@QMetaObjectBuilder@@QEBAPEBUQMetaObject@@XZ"
"?supportedDragActions@QAbstractItemModel@@UEBA?AV?$QFlags@W4DropAction@Qt@@@@XZ"
"?supportedDragActions@QAbstractProxyModel@@UEBA?AV?$QFlags@W4DropAction@Qt@@@@XZ"
"?supportedDropActions@QAbstractItemModel@@UEBA?AV?$QFlags@W4DropAction@Qt@@@@XZ"
"?supportedDropActions@QAbstractProxyModel@@UEBA?AV?$QFlags@W4DropAction@Qt@@@@XZ"
"?supportedDropActions@QSortFilterProxyModel@@UEBA?AV?$QFlags@W4DropAction@Qt@@@@XZ"
"?supportedDropActions@QStringListModel@@UEBA?AV?$QFlags@W4DropAction@Qt@@@@XZ"
"?supportsAlgorithm@QCryptographicHash@@SA_NW4Algorithm@1@@Z"
"?supportsExtension@QAbstractFileEngine@@UEBA_NW4Extension@1@@Z"
"?supportsExtension@QFSFileEngine@@UEBA_NW4Extension@QAbstractFileEngine@@@Z"
"?surrogateToUcs4@QChar@@SA_UV1@0@Z"
"?surrogateToUcs4@QChar@@SA_U_S0@Z"
"?suspend@QFutureWatcherBase@@QEAAXXZ"
"?suspendCurrentBindingStatus@QtPrivate@@YAPEAUBindingEvaluationState@1@XZ"
"?suspendIfRequested@QFutureInterfaceBase@@QEAAXXZ"
"?suspended@QFutureWatcherBase@@QEAAXXZ"
"?suspending@QFutureWatcherBase@@QEAAXXZ"
"?swap@Connection@QMetaObject@@QEAAXAEAV12@@Z"
"?swap@QBasicTimer@@QEAAXAEAV1@@Z"
"?swap@QBitArray@@QEAAXAEAV1@@Z"
"?swap@QByteArray@@QEAAXAEAV1@@Z"
"?swap@QCborArray@@QEAAXAEAV1@@Z"
"?swap@QCborMap@@QEAAXAEAV1@@Z"
"?swap@QCborValue@@QEAAXAEAV1@@Z"
"?swap@QCollator@@QEAAXAEAV1@@Z"
"?swap@QCollatorSortKey@@QEAAXAEAV1@@Z"
"?swap@QCommandLineOption@@QEAAXAEAV1@@Z"
"?swap@QCryptographicHash@@QEAAXAEAV1@@Z"
"?swap@QDateTime@@QEAAXAEAV1@@Z"
"?swap@QDeadlineTimer@@QEAAXAEAV1@@Z"
"?swap@QDebug@@QEAAXAEAV1@@Z"
"?swap@QDir@@QEAAXAEAV1@@Z"
"?swap@QEasingCurve@@QEAAXAEAV1@@Z"
"?swap@QFileInfo@@QEAAXAEAV1@@Z"
"?swap@QFutureInterfaceBase@@QEAAXAEAV1@@Z"
"?swap@QItemSelectionRange@@QEAAXAEAV1@@Z"
"?swap@QJsonArray@@QEAAXAEAV1@@Z"
"?swap@QJsonDocument@@QEAAXAEAV1@@Z"
"?swap@QJsonObject@@QEAAXAEAV1@@Z"
"?swap@QJsonValue@@QEAAXAEAV1@@Z"
"?swap@QLocale@@QEAAXAEAV1@@Z"
"?swap@QMessageAuthenticationCode@@QEAAXAEAV1@@Z"
"?swap@QMimeType@@QEAAXAEAV1@@Z"
"?swap@QPersistentModelIndex@@QEAAXAEAV1@@Z"
"?swap@QProcessEnvironment@@QEAAXAEAV1@@Z"
"?swap@QRegularExpression@@QEAAXAEAV1@@Z"
"?swap@QRegularExpressionMatch@@QEAAXAEAV1@@Z"
"?swap@QRegularExpressionMatchIterator@@QEAAXAEAV1@@Z"
"?swap@QStorageInfo@@QEAAXAEAV1@@Z"
"?swap@QString@@QEAAXAEAV1@@Z"
"?swap@QTemporaryDir@@QEAAXAEAV1@@Z"
"?swap@QTimeZone@@QEAAXAEAV1@@Z"
"?swap@QUnhandledException@@QEAAXAEAV1@@Z"
"?swap@QUrl@@QEAAXAEAV1@@Z"
"?swap@QUrlQuery@@QEAAXAEAV1@@Z"
"?swap@QVariant@@QEAAXAEAV1@@Z"
"?swap@QWinRegistryKey@@QEAAXAEAV1@@Z"
"?symLinkTarget@QFile@@QEBA?AVQString@@XZ"
"?symLinkTarget@QFile@@SA?AVQString@@AEBV2@@Z"
"?symLinkTarget@QFileInfo@@QEBA?AVQString@@XZ"
"?sync@QSettings@@QEAAXXZ"
"?syncEvent@QWindowsPipeReader@@QEBAPEAXXZ"
"?syncEvent@QWindowsPipeWriter@@QEBAPEAXXZ"
"?syncPendingResults@ResultStoreBase@QtPrivate@@IEAAXXZ"
"?syncResultCount@ResultStoreBase@QtPrivate@@IEAAXXZ"
"?syncToDisk@QAbstractFileEngine@@UEAA_NXZ"
"?syncToDisk@QFSFileEngine@@UEAA_NXZ"
"?system@QLocale@@SA?AV1@XZ"
"?system@QRandomGenerator64@@SAPEAV1@XZ"
"?systemEnvironment@QProcess@@SA?AV?$QList@VQString@@@@XZ"
"?systemEnvironment@QProcessEnvironment@@SA?AV1@XZ"
"?systemId@QXmlStreamEntityDeclaration@@QEBA?AVQStringView@@XZ"
"?systemId@QXmlStreamNotationDeclaration@@QEBA?AVQStringView@@XZ"
"?systemTimeZone@QTimeZone@@SA?AV1@XZ"
"?systemTimeZoneId@QTimeZone@@SA?AVQByteArray@@XZ"
"?tag@QCborValue@@QEBA?AW4QCborTag@@W42@@Z"
"?tag@QCborValueRef@@QEBA?AW4QCborTag@@W42@@Z"
"?tag@QMetaMethod@@QEBAPEBDXZ"
"?tag@QMetaMethodBuilder@@QEBA?AVQByteArray@@XZ"
"?taggedValue@QCborValue@@QEBA?AV1@AEBV1@@Z"
"?taggedValue@QCborValueRef@@QEBA?AVQCborValue@@AEBV2@@Z"
"?take@QCborMap@@QEAA?AVQCborValue@@AEBV2@@Z"
"?take@QCborMap@@QEAA?AVQCborValue@@AEBVQString@@@Z"
"?take@QCborMap@@QEAA?AVQCborValue@@VQLatin1String@@@Z"
"?take@QCborMap@@QEAA?AVQCborValue@@_J@Z"
"?take@QJsonObject@@QEAA?AVQJsonValue@@AEBVQString@@@Z"
"?take@QJsonObject@@QEAA?AVQJsonValue@@VQLatin1String@@@Z"
"?take@QJsonObject@@QEAA?AVQJsonValue@@VQStringView@@@Z"
"?takeAnimation@QAnimationGroup@@QEAAPEAVQAbstractAnimation@@H@Z"
"?takeAt@QCborArray@@QEAA?AVQCborValue@@_J@Z"
"?takeAt@QJsonArray@@QEAA?AVQJsonValue@@_J@Z"
"?takeFirst@QCborArray@@QEAA?AVQCborValue@@XZ"
"?takeLast@QCborArray@@QEAA?AVQCborValue@@XZ"
"?takeObservers@QPropertyBindingPrivate@@QEAA?AUQPropertyObserverPointer@@XZ"
"?targetObject@QPropertyAnimation@@QEBAPEAVQObject@@XZ"
"?temp@QDir@@SA?AV1@XZ"
"?tempPath@QDir@@SA?AVQString@@XZ"
"?tempPath@QFSFileEngine@@SA?AVQString@@XZ"
"?terminate@QProcess@@QEAAXXZ"
"?terminate@QThread@@QEAAXXZ"
"?territory@QLocale@@QEBA?AW4Country@1@XZ"
"?territory@QTimeZone@@QEBA?AW4Country@QLocale@@XZ"
"?territoryToCode@QLocale@@SA?AVQString@@W4Country@1@@Z"
"?territoryToString@QLocale@@SA?AVQString@@W4Country@1@@Z"
"?testAttribute@QCoreApplication@@SA_NW4ApplicationAttribute@Qt@@@Z"
"?testAttribute@QCoreApplicationPrivate@@SA_NI@Z"
"?testBit@QBitArray@@QEBA_N_J@Z"
"?text@QMimeData@@QEBA?AVQString@@XZ"
"?text@QXmlStreamReader@@QEBA?AVQStringView@@XZ"
"?textDirection@QLocale@@QEBA?AW4LayoutDirection@Qt@@XZ"
"?theMainThread@QCoreApplicationPrivate@@2V?$QBasicAtomicPointer@VQThread@@@@A"
"?theMainThreadId@QCoreApplicationPrivate@@2V?$QBasicAtomicPointer@X@@A"
"?thread@QObject@@QEBAPEAVQThread@@XZ"
"?threadPool@QFutureInterfaceBase@@QEBAPEAVQThreadPool@@XZ"
"?threadPriority@QThreadPool@@QEBA?AW4Priority@QThread@@XZ"
"?threadRequiresCoreApplication@QCoreApplicationPrivate@@SA_NXZ"
"?throwPossibleException@ExceptionStore@QtPrivate@@QEAAXXZ"
"?time@QDateTime@@QEBA?AVQTime@@XZ"
"?timeFormat@QLocale@@QEBA?AVQString@@W4FormatType@1@@Z"
"?timeRepresentation@QDateTime@@QEBA?AVQTimeZone@@XZ"
"?timeSpec@QDateTime@@QEBA?AW4TimeSpec@Qt@@XZ"
"?timeSpec@QTimeZone@@QEBA?AW4TimeSpec@Qt@@XZ"
"?timeZone@QDateTime@@QEBA?AVQTimeZone@@XZ"
"?timeZoneAbbreviation@QDateTime@@QEBA?AVQString@@XZ"
"?timeout@QChronoTimer@@QEAAXUQPrivateSignal@1@@Z"
"?timeout@QTimer@@QEAAXUQPrivateSignal@1@@Z"
"?timerEvent@QChronoTimer@@MEAAXPEAVQTimerEvent@@@Z"
"?timerEvent@QObject@@MEAAXPEAVQTimerEvent@@@Z"
"?timerEvent@QTimeLine@@MEAAXPEAVQTimerEvent@@@Z"
"?timerEvent@QTimer@@MEAAXPEAVQTimerEvent@@@Z"
"?timerEvent@QUnifiedTimer@@MEAAXPEAVQTimerEvent@@@Z"
"?timerId@QBasicTimer@@QEBAHXZ"
"?timerId@QTimer@@QEBAHXZ"
"?timerId@QTimerEvent@@QEBAHXZ"
"?timerType@QChronoTimer@@QEBA?AW4TimerType@Qt@@XZ"
"?timerType@QDeadlineTimer@@QEBA?AW4TimerType@Qt@@XZ"
"?timerType@QTimer@@QEBA?AW4TimerType@Qt@@XZ"
"?timersForObject@QAbstractEventDispatcher@@QEBA?AV?$QList@UTimerInfoV2@QAbstractEventDispatcher@@@@PEAVQObject@@@Z"
"?toAce@QUrl@@SA?AVQByteArray@@AEBVQString@@@Z"
"?toAce@QUrl@@SA?AVQByteArray@@AEBVQString@@V?$QFlags@W4AceProcessingOption@QUrl@@@@@Z"
"?toAlignedRect@QRectF@@QEBA?AVQRect@@XZ"
"?toArray@QCborValue@@QEBA?AVQCborArray@@AEBV2@@Z"
"?toArray@QCborValue@@QEBA?AVQCborArray@@XZ"
"?toArray@QCborValueRef@@QEBA?AVQCborArray@@AEBV2@@Z"
"?toArray@QCborValueRef@@QEBA?AVQCborArray@@XZ"
"?toArray@QJsonValue@@QEBA?AVQJsonArray@@AEBV2@@Z"
"?toArray@QJsonValue@@QEBA?AVQJsonArray@@XZ"
"?toArray@QJsonValueConstRef@@QEBA?AVQJsonArray@@XZ"
"?toArray@QJsonValueRef@@QEBA?AVQJsonArray@@XZ"
"?toBase64@QByteArray@@QEBA?AV1@V?$QFlags@W4Base64Option@QByteArray@@@@@Z"
"?toBitArray@QVariant@@QEBA?AVQBitArray@@XZ"
"?toBool@QCborStreamReader@@QEBA_NXZ"
"?toBool@QCborValue@@QEBA_N_N@Z"
"?toBool@QCborValueRef@@QEBA_N_N@Z"
"?toBool@QJsonValue@@QEBA_N_N@Z"
"?toBool@QJsonValueRef@@QEBA_N_N@Z"
"?toBool@QVariant@@QEBA_NXZ"
"?toByteArray@QByteArrayView@@QEBA?AVQByteArray@@XZ"
"?toByteArray@QCborValue@@QEBA?AVQByteArray@@AEBV2@@Z"
"?toByteArray@QCborValueRef@@QEBA?AVQByteArray@@AEBV2@@Z"
"?toByteArray@QUuid@@QEBA?AVQByteArray@@W4StringFormat@1@@Z"
"?toByteArray@QVariant@@QEBA?AVQByteArray@@XZ"
"?toBytes@QUuid@@QEBA?ATId128Bytes@1@W4Endian@QSysInfo@@@Z"
"?toCaseFolded@QChar@@QEBA?AV1@XZ"
"?toCaseFolded@QChar@@SA_U_U@Z"
"?toCaseFolded@QString@@QEGBA?AV1@XZ"
"?toCaseFolded@QString@@QEHAA?AV1@XZ"
"?toCaseFolded_helper@QString@@CA?AV1@AEAV1@@Z"
"?toCaseFolded_helper@QString@@CA?AV1@AEBV1@@Z"
"?toCbor@QCborValue@@QEBA?AVQByteArray@@V?$QFlags@W4EncodingOption@QCborValue@@@@@Z"
"?toCbor@QCborValue@@QEBAXAEAVQCborStreamWriter@@V?$QFlags@W4EncodingOption@QCborValue@@@@@Z"
"?toCbor@QCborValueRef@@QEAA?AVQByteArray@@V?$QFlags@W4EncodingOption@QCborValue@@@@@Z"
"?toCbor@QCborValueRef@@QEAAXAEAVQCborStreamWriter@@V?$QFlags@W4EncodingOption@QCborValue@@@@@Z"
"?toCborValue@QCborArray@@QEBA?AVQCborValue@@XZ"
"?toCborValue@QCborMap@@QEBA?AVQCborValue@@XZ"
"?toChar@QVariant@@QEBA?AVQChar@@XZ"
"?toCubicSpline@QEasingCurve@@QEBA?AV?$QList@VQPointF@@@@XZ"
"?toCurrencyString@QLocale@@QEBA?AVQString@@FAEBV2@@Z"
"?toCurrencyString@QLocale@@QEBA?AVQString@@GAEBV2@@Z"
"?toCurrencyString@QLocale@@QEBA?AVQString@@HAEBV2@@Z"
"?toCurrencyString@QLocale@@QEBA?AVQString@@IAEBV2@@Z"
"?toCurrencyString@QLocale@@QEBA?AVQString@@MAEBV2@H@Z"
"?toCurrencyString@QLocale@@QEBA?AVQString@@NAEBV2@H@Z"
"?toCurrencyString@QLocale@@QEBA?AVQString@@_JAEBV2@@Z"
"?toCurrencyString@QLocale@@QEBA?AVQString@@_KAEBV2@@Z"
"?toDate@QLocale@@QEBA?AVQDate@@AEBVQString@@0@Z"
"?toDate@QLocale@@QEBA?AVQDate@@AEBVQString@@0H@Z"
"?toDate@QLocale@@QEBA?AVQDate@@AEBVQString@@0VQCalendar@@@Z"
"?toDate@QLocale@@QEBA?AVQDate@@AEBVQString@@0VQCalendar@@H@Z"
"?toDate@QLocale@@QEBA?AVQDate@@AEBVQString@@W4FormatType@1@@Z"
"?toDate@QLocale@@QEBA?AVQDate@@AEBVQString@@W4FormatType@1@H@Z"
"?toDate@QLocale@@QEBA?AVQDate@@AEBVQString@@W4FormatType@1@VQCalendar@@@Z"
"?toDate@QLocale@@QEBA?AVQDate@@AEBVQString@@W4FormatType@1@VQCalendar@@H@Z"
"?toDate@QVariant@@QEBA?AVQDate@@XZ"
"?toDateTime@QCborValue@@QEBA?AVQDateTime@@AEBV2@@Z"
"?toDateTime@QCborValueRef@@QEBA?AVQDateTime@@AEBV2@@Z"
"?toDateTime@QLocale@@QEBA?AVQDateTime@@AEBVQString@@0@Z"
"?toDateTime@QLocale@@QEBA?AVQDateTime@@AEBVQString@@0H@Z"
"?toDateTime@QLocale@@QEBA?AVQDateTime@@AEBVQString@@0VQCalendar@@@Z"
"?toDateTime@QLocale@@QEBA?AVQDateTime@@AEBVQString@@0VQCalendar@@H@Z"
"?toDateTime@QLocale@@QEBA?AVQDateTime@@AEBVQString@@W4FormatType@1@@Z"
"?toDateTime@QLocale@@QEBA?AVQDateTime@@AEBVQString@@W4FormatType@1@H@Z"
"?toDateTime@QLocale@@QEBA?AVQDateTime@@AEBVQString@@W4FormatType@1@VQCalendar@@@Z"
"?toDateTime@QLocale@@QEBA?AVQDateTime@@AEBVQString@@W4FormatType@1@VQCalendar@@H@Z"
"?toDateTime@QVariant@@QEBA?AVQDateTime@@XZ"
"?toDiagnosticNotation@QCborValue@@QEBA?AVQString@@V?$QFlags@W4DiagnosticNotationOption@QCborValue@@@@@Z"
"?toDiagnosticNotation@QCborValueRef@@QEAA?AVQString@@V?$QFlags@W4DiagnosticNotationOption@QCborValue@@@@@Z"
"?toDisplayString@QUrl@@QEBA?AVQString@@V?$QUrlTwoFlags@W4UrlFormattingOption@QUrl@@W4ComponentFormattingOption@2@@@@Z"
"?toDouble@QByteArray@@QEBANPEA_N@Z"
"?toDouble@QByteArrayView@@QEBANPEA_N@Z"
"?toDouble@QCborStreamReader@@QEBANXZ"
"?toDouble@QCborValue@@QEBANN@Z"
"?toDouble@QCborValueRef@@QEBANN@Z"
"?toDouble@QJsonValue@@QEBANN@Z"
"?toDouble@QJsonValueRef@@QEBANN@Z"
"?toDouble@QLocale@@QEBANAEBVQString@@PEA_N@Z"
"?toDouble@QLocale@@QEBANVQStringView@@PEA_N@Z"
"?toDouble@QString@@QEBANPEA_N@Z"
"?toDouble@QStringView@@QEBANPEA_N@Z"
"?toDouble@QVariant@@QEBANPEA_N@Z"
"?toDouble@QtPrivate@@YA?AV?$ParsedNumber@N@1@VQByteArrayView@@@Z"
"?toDynamicMetaObject@QAbstractDynamicMetaObject@@UEAAPEAUQMetaObject@@PEAVQObject@@@Z"
"?toEasingCurve@QVariant@@QEBA?AVQEasingCurve@@XZ"
"?toEncoded@QUrl@@QEBA?AVQByteArray@@V?$QUrlTwoFlags@W4UrlFormattingOption@QUrl@@W4ComponentFormattingOption@2@@@@Z"
"?toEnd@QTextBoundaryFinder@@QEAAXXZ"
"?toFloat16@QCborStreamReader@@QEBA?AVqfloat16@@XZ"
"?toFloat@QByteArray@@QEBAMPEA_N@Z"
"?toFloat@QByteArrayView@@QEBAMPEA_N@Z"
"?toFloat@QCborStreamReader@@QEBAMXZ"
"?toFloat@QLocale@@QEBAMAEBVQString@@PEA_N@Z"
"?toFloat@QLocale@@QEBAMVQStringView@@PEA_N@Z"
"?toFloat@QString@@QEBAMPEA_N@Z"
"?toFloat@QStringView@@QEBAMPEA_N@Z"
"?toFloat@QVariant@@QEBAMPEA_N@Z"
"?toFloat@QtPrivate@@YA?AV?$ParsedNumber@M@1@VQByteArrayView@@@Z"
"?toHash@QVariant@@QEBA?AV?$QHash@VQString@@VQVariant@@@@XZ"
"?toHex@QByteArray@@QEBA?AV1@D@Z"
"?toHtmlEscaped@QString@@QEBA?AV1@XZ"
"?toInt@QByteArray@@QEBAHPEA_NH@Z"
"?toInt@QByteArrayView@@QEBAHPEA_NH@Z"
"?toInt@QJsonValue@@QEBAHH@Z"
"?toInt@QJsonValueRef@@QEBAHH@Z"
"?toInt@QLocale@@QEBAHAEBVQString@@PEA_N@Z"
"?toInt@QLocale@@QEBAHVQStringView@@PEA_N@Z"
"?toInt@QString@@QEBAHPEA_NH@Z"
"?toInt@QVariant@@QEBAHPEA_N@Z"
"?toInteger@QCborStreamReader@@QEBA_JXZ"
"?toInteger@QCborValue@@QEBA_J_J@Z"
"?toInteger@QCborValueRef@@QEBA_J_J@Z"
"?toInteger@QJsonValue@@QEBA_J_J@Z"
"?toInteger@QJsonValueRef@@QEBA_J_J@Z"
"?toIntegral_helper@QString@@CA_JVQStringView@@PEA_NH@Z"
"?toIntegral_helper@QString@@CA_KVQStringView@@PEA_NI@Z"
"?toJson@QJsonDocument@@QEBA?AVQByteArray@@W4JsonFormat@1@@Z"
"?toJsonArray@QCborArray@@QEBA?AVQJsonArray@@XZ"
"?toJsonArray@QVariant@@QEBA?AVQJsonArray@@XZ"
"?toJsonDocument@QVariant@@QEBA?AVQJsonDocument@@XZ"
"?toJsonObject@QCborMap@@QEBA?AVQJsonObject@@XZ"
"?toJsonObject@QVariant@@QEBA?AVQJsonObject@@XZ"
"?toJsonValue@QCborValue@@QEBA?AVQJsonValue@@XZ"
"?toJsonValue@QCborValueRef@@QEBA?AVQJsonValue@@XZ"
"?toJsonValue@QVariant@@QEBA?AVQJsonValue@@XZ"
"?toJulianDay@QDate@@QEBA_JXZ"
"?toLatin1@QChar@@QEBADXZ"
"?toLatin1@QString@@QEGBA?AVQByteArray@@XZ"
"?toLatin1@QString@@QEHAA?AVQByteArray@@XZ"
"?toLatin1_helper@QString@@CA?AVQByteArray@@AEBV1@@Z"
"?toLatin1_helper_inplace@QString@@CA?AVQByteArray@@AEAV1@@Z"
"?toLine@QLineF@@QEBA?AVQLine@@XZ"
"?toLine@QVariant@@QEBA?AVQLine@@XZ"
"?toLineF@QLine@@QEBA?AVQLineF@@XZ"
"?toLineF@QVariant@@QEBA?AVQLineF@@XZ"
"?toList@QVariant@@QEBA?AV?$QList@VQVariant@@@@XZ"
"?toLocal8Bit@QString@@QEGBA?AVQByteArray@@XZ"
"?toLocal8Bit@QString@@QEHAA?AVQByteArray@@XZ"
"?toLocal8Bit_helper@QString@@CA?AVQByteArray@@PEBVQChar@@_J@Z"
"?toLocalFile@QUrl@@QEBA?AVQString@@XZ"
"?toLocalTime@QDateTime@@QEBA?AV1@XZ"
"?toLocale@QVariant@@QEBA?AVQLocale@@XZ"
"?toLong@QByteArray@@QEBAJPEA_NH@Z"
"?toLong@QByteArrayView@@QEBAJPEA_NH@Z"
"?toLong@QLocale@@QEBAJAEBVQString@@PEA_N@Z"
"?toLong@QLocale@@QEBAJVQStringView@@PEA_N@Z"
"?toLong@QString@@QEBAJPEA_NH@Z"
"?toLongLong@QByteArray@@QEBA_JPEA_NH@Z"
"?toLongLong@QByteArrayView@@QEBA_JPEA_NH@Z"
"?toLongLong@QLocale@@QEBA_JAEBVQString@@PEA_N@Z"
"?toLongLong@QLocale@@QEBA_JVQStringView@@PEA_N@Z"
"?toLongLong@QString@@QEBA_JPEA_NH@Z"
"?toLongLong@QVariant@@QEBA_JPEA_N@Z"
"?toLower@QByteArray@@QEGBA?AV1@XZ"
"?toLower@QByteArray@@QEHAA?AV1@XZ"
"?toLower@QChar@@QEBA?AV1@XZ"
"?toLower@QChar@@SA_U_U@Z"
"?toLower@QLocale@@QEBA?AVQString@@AEBV2@@Z"
"?toLower@QString@@QEGBA?AV1@XZ"
"?toLower@QString@@QEHAA?AV1@XZ"
"?toLower_helper@QByteArray@@CA?AV1@AEAV1@@Z"
"?toLower_helper@QByteArray@@CA?AV1@AEBV1@@Z"
"?toLower_helper@QString@@CA?AV1@AEAV1@@Z"
"?toLower_helper@QString@@CA?AV1@AEBV1@@Z"
"?toMSecsSinceEpoch@QDateTime@@QEBA_JXZ"
"?toMap@QCborValue@@QEBA?AVQCborMap@@AEBV2@@Z"
"?toMap@QCborValue@@QEBA?AVQCborMap@@XZ"
"?toMap@QCborValueRef@@QEBA?AVQCborMap@@AEBV2@@Z"
"?toMap@QCborValueRef@@QEBA?AVQCborMap@@XZ"
"?toMap@QVariant@@QEBA?AV?$QMap@VQString@@VQVariant@@@@XZ"
"?toMetaObject@QMetaObjectBuilder@@QEBAPEAUQMetaObject@@XZ"
"?toModelIndex@QVariant@@QEBA?AVQModelIndex@@XZ"
"?toNativeSeparators@QDir@@SA?AVQString@@AEBV2@@Z"
"?toNegativeInteger@QCborStreamReader@@QEBA?AW4QCborNegativeInteger@@XZ"
"?toNextBoundary@QTextBoundaryFinder@@QEAA_JXZ"
"?toObject@QJsonValue@@QEBA?AVQJsonObject@@AEBV2@@Z"
"?toObject@QJsonValue@@QEBA?AVQJsonObject@@XZ"
"?toObject@QJsonValueConstRef@@QEBA?AVQJsonObject@@XZ"
"?toObject@QJsonValueRef@@QEBA?AVQJsonObject@@XZ"
"?toOffsetFromUtc@QDateTime@@QEBA?AV1@H@Z"
"?toPercentEncoding@QByteArray@@QEBA?AV1@AEBV1@0D@Z"
"?toPercentEncoding@QUrl@@SA?AVQByteArray@@AEBVQString@@AEBV2@1@Z"
"?toPersistentModelIndex@QVariant@@QEBA?AVQPersistentModelIndex@@XZ"
"?toPoint@QVariant@@QEBA?AVQPoint@@XZ"
"?toPointF@QVariant@@QEBA?AVQPointF@@XZ"
"?toPreviousBoundary@QTextBoundaryFinder@@QEAA_JXZ"
"?toPrintable@QtDebugUtils@@YA?AVQByteArray@@PEBD_J1@Z"
"?toReal@QVariant@@QEBANPEA_N@Z"
"?toRect@QRectF@@QEBA?AVQRect@@XZ"
"?toRect@QVariant@@QEBA?AVQRect@@XZ"
"?toRectF@QRect@@QEBA?AVQRectF@@XZ"
"?toRectF@QVariant@@QEBA?AVQRectF@@XZ"
"?toRegularExpression@QCborValue@@QEBA?AVQRegularExpression@@AEBV2@@Z"
"?toRegularExpression@QCborValueRef@@QEBA?AVQRegularExpression@@AEBV2@@Z"
"?toRegularExpression@QVariant@@QEBA?AVQRegularExpression@@XZ"
"?toRfc4122@QUuid@@QEBA?AVQByteArray@@XZ"
"?toSecsSinceEpoch@QDateTime@@QEBA_JXZ"
"?toShort@QByteArray@@QEBAFPEA_NH@Z"
"?toShort@QByteArrayView@@QEBAFPEA_NH@Z"
"?toShort@QLocale@@QEBAFAEBVQString@@PEA_N@Z"
"?toShort@QLocale@@QEBAFVQStringView@@PEA_N@Z"
"?toShort@QString@@QEBAFPEA_NH@Z"
"?toSignedInteger@QtPrivate@@YA?AV?$ParsedNumber@_J@1@VQByteArrayView@@H@Z"
"?toSimpleType@QCborStreamReader@@QEBA?AW4QCborSimpleType@@XZ"
"?toSimpleType@QCborValue@@QEBA?AW4QCborSimpleType@@W42@@Z"
"?toSimpleType@QCborValueRef@@QEBA?AW4QCborSimpleType@@W42@@Z"
"?toSize@QSizeF@@QEBA?AVQSize@@XZ"
"?toSize@QVariant@@QEBA?AVQSize@@XZ"
"?toSizeF@QSize@@QEBA?AVQSizeF@@XZ"
"?toSizeF@QVariant@@QEBA?AVQSizeF@@XZ"
"?toStart@QTextBoundaryFinder@@QEAAXXZ"
"?toStdString@QByteArray@@QEBA?AV?$basic_string@DU?$char_traits@D@std@@V?$allocator@D@2@@std@@XZ"
"?toStdString@QString@@QEBA?AV?$basic_string@DU?$char_traits@D@std@@V?$allocator@D@2@@std@@XZ"
"?toStdU16String@QString@@QEBA?AV?$basic_string@_SU?$char_traits@_S@std@@V?$allocator@_S@2@@std@@XZ"
"?toStdU32String@QString@@QEBA?AV?$basic_string@_UU?$char_traits@_U@std@@V?$allocator@_U@2@@std@@XZ"
"?toStdWString@QString@@QEBA?AV?$basic_string@_WU?$char_traits@_W@std@@V?$allocator@_W@2@@std@@XZ"
"?toString@QCborError@@QEBA?AVQString@@XZ"
"?toString@QCborValue@@QEBA?AVQString@@AEBV2@@Z"
"?toString@QCborValueRef@@QEBA?AVQString@@AEBV2@@Z"
"?toString@QDate@@QEBA?AVQString@@AEBV2@@Z"
"?toString@QDate@@QEBA?AVQString@@AEBV2@VQCalendar@@@Z"
"?toString@QDate@@QEBA?AVQString@@VQStringView@@@Z"
"?toString@QDate@@QEBA?AVQString@@VQStringView@@VQCalendar@@@Z"
"?toString@QDate@@QEBA?AVQString@@W4DateFormat@Qt@@@Z"
"?toString@QDateTime@@QEBA?AVQString@@AEBV2@@Z"
"?toString@QDateTime@@QEBA?AVQString@@AEBV2@VQCalendar@@@Z"
"?toString@QDateTime@@QEBA?AVQString@@VQStringView@@@Z"
"?toString@QDateTime@@QEBA?AVQString@@VQStringView@@VQCalendar@@@Z"
"?toString@QDateTime@@QEBA?AVQString@@W4DateFormat@Qt@@@Z"
"?toString@QIPAddressUtils@@YAXAEAVQString@@I@Z"
"?toString@QIPAddressUtils@@YAXAEAVQString@@QEBE@Z"
"?toString@QJsonValue@@QEBA?AVQString@@AEBV2@@Z"
"?toString@QJsonValue@@QEBA?AVQString@@XZ"
"?toString@QJsonValueRef@@QEBA?AVQString@@AEBV2@@Z"
"?toString@QLocale@@QEBA?AVQString@@AEBVQDateTime@@AEBV2@@Z"
"?toString@QLocale@@QEBA?AVQString@@AEBVQDateTime@@VQStringView@@@Z"
"?toString@QLocale@@QEBA?AVQString@@AEBVQDateTime@@VQStringView@@VQCalendar@@@Z"
"?toString@QLocale@@QEBA?AVQString@@AEBVQDateTime@@W4FormatType@1@@Z"
"?toString@QLocale@@QEBA?AVQString@@AEBVQDateTime@@W4FormatType@1@VQCalendar@@@Z"
"?toString@QLocale@@QEBA?AVQString@@F@Z"
"?toString@QLocale@@QEBA?AVQString@@G@Z"
"?toString@QLocale@@QEBA?AVQString@@H@Z"
"?toString@QLocale@@QEBA?AVQString@@I@Z"
"?toString@QLocale@@QEBA?AVQString@@J@Z"
"?toString@QLocale@@QEBA?AVQString@@K@Z"
"?toString@QLocale@@QEBA?AVQString@@MDH@Z"
"?toString@QLocale@@QEBA?AVQString@@NDH@Z"
"?toString@QLocale@@QEBA?AVQString@@VQDate@@AEBV2@@Z"
"?toString@QLocale@@QEBA?AVQString@@VQDate@@VQStringView@@@Z"
"?toString@QLocale@@QEBA?AVQString@@VQDate@@VQStringView@@VQCalendar@@@Z"
"?toString@QLocale@@QEBA?AVQString@@VQDate@@W4FormatType@1@@Z"
"?toString@QLocale@@QEBA?AVQString@@VQDate@@W4FormatType@1@VQCalendar@@@Z"
"?toString@QLocale@@QEBA?AVQString@@VQTime@@AEBV2@@Z"
"?toString@QLocale@@QEBA?AVQString@@VQTime@@VQStringView@@@Z"
"?toString@QLocale@@QEBA?AVQString@@VQTime@@W4FormatType@1@@Z"
"?toString@QLocale@@QEBA?AVQString@@_J@Z"
"?toString@QLocale@@QEBA?AVQString@@_K@Z"
"?toString@QNativeIpcKey@@QEBA?AVQString@@XZ"
"?toString@QTime@@QEBA?AVQString@@AEBV2@@Z"
"?toString@QTime@@QEBA?AVQString@@VQStringView@@@Z"
"?toString@QTime@@QEBA?AVQString@@W4DateFormat@Qt@@@Z"
"?toString@QUrl@@QEBA?AVQString@@V?$QUrlTwoFlags@W4UrlFormattingOption@QUrl@@W4ComponentFormattingOption@2@@@@Z"
"?toString@QUrlQuery@@QEBA?AVQString@@V?$QFlags@W4ComponentFormattingOption@QUrl@@@@@Z"
"?toString@QUuid@@QEBA?AVQString@@W4StringFormat@1@@Z"
"?toString@QVariant@@QEBA?AVQString@@XZ"
"?toString@QVersionNumber@@QEBA?AVQString@@XZ"
"?toStringImpl@QDebug@@CA?AVQString@@P6AXAEAV1@PEBX@Z1@Z"
"?toStringList@QProcessEnvironment@@QEBA?AV?$QList@VQString@@@@XZ"
"?toStringList@QUrl@@SA?AV?$QList@VQString@@@@AEBV?$QList@VQUrl@@@@V?$QUrlTwoFlags@W4UrlFormattingOption@QUrl@@W4ComponentFormattingOption@2@@@@Z"
"?toStringList@QVariant@@QEBA?AV?$QList@VQString@@@@XZ"
"?toTag@QCborStreamReader@@QEBA?AW4QCborTag@@XZ"
"?toTime@QLocale@@QEBA?AVQTime@@AEBVQString@@0@Z"
"?toTime@QLocale@@QEBA?AVQTime@@AEBVQString@@W4FormatType@1@@Z"
"?toTime@QVariant@@QEBA?AVQTime@@XZ"
"?toTimeSpec@QDateTime@@QEBA?AV1@W4TimeSpec@Qt@@@Z"
"?toTimeZone@QDateTime@@QEBA?AV1@AEBVQTimeZone@@@Z"
"?toTitleCase@QChar@@QEBA?AV1@XZ"
"?toTitleCase@QChar@@SA_U_U@Z"
"?toUInt32@QBitArray@@QEBAIW4Endian@QSysInfo@@PEA_N@Z"
"?toUInt@QByteArray@@QEBAIPEA_NH@Z"
"?toUInt@QByteArrayView@@QEBAIPEA_NH@Z"
"?toUInt@QLocale@@QEBAIAEBVQString@@PEA_N@Z"
"?toUInt@QLocale@@QEBAIVQStringView@@PEA_N@Z"
"?toUInt@QString@@QEBAIPEA_NH@Z"
"?toUInt@QVariant@@QEBAIPEA_N@Z"
"?toULong@QByteArray@@QEBAKPEA_NH@Z"
"?toULong@QByteArrayView@@QEBAKPEA_NH@Z"
"?toULong@QLocale@@QEBAKAEBVQString@@PEA_N@Z"
"?toULong@QLocale@@QEBAKVQStringView@@PEA_N@Z"
"?toULong@QString@@QEBAKPEA_NH@Z"
"?toULongLong@QByteArray@@QEBA_KPEA_NH@Z"
"?toULongLong@QByteArrayView@@QEBA_KPEA_NH@Z"
"?toULongLong@QLocale@@QEBA_KAEBVQString@@PEA_N@Z"
"?toULongLong@QLocale@@QEBA_KVQStringView@@PEA_N@Z"
"?toULongLong@QString@@QEBA_KPEA_NH@Z"
"?toULongLong@QVariant@@QEBA_KPEA_N@Z"
"?toUShort@QByteArray@@QEBAGPEA_NH@Z"
"?toUShort@QByteArrayView@@QEBAGPEA_NH@Z"
"?toUShort@QLocale@@QEBAGAEBVQString@@PEA_N@Z"
"?toUShort@QLocale@@QEBAGVQStringView@@PEA_N@Z"
"?toUShort@QString@@QEBAGPEA_NH@Z"
"?toUTC@QDateTime@@QEBA?AV1@XZ"
"?toUcs4@QString@@QEBA?AV?$QList@I@@XZ"
"?toUcs4_helper@QString@@CA_JPEBG_JPEAI@Z"
"?toUcs4_helper@QString@@CA_JPEB_S_JPEA_U@Z"
"?toUnsignedInteger@QCborStreamReader@@QEBA_KXZ"
"?toUnsignedInteger@QtPrivate@@YA?AV?$ParsedNumber@_K@1@VQByteArrayView@@H@Z"
"?toUpper@QByteArray@@QEGBA?AV1@XZ"
"?toUpper@QByteArray@@QEHAA?AV1@XZ"
"?toUpper@QChar@@QEBA?AV1@XZ"
"?toUpper@QChar@@SA_U_U@Z"
"?toUpper@QLocale@@QEBA?AVQString@@AEBV2@@Z"
"?toUpper@QString@@QEGBA?AV1@XZ"
"?toUpper@QString@@QEHAA?AV1@XZ"
"?toUpper_helper@QByteArray@@CA?AV1@AEAV1@@Z"
"?toUpper_helper@QByteArray@@CA?AV1@AEBV1@@Z"
"?toUpper_helper@QString@@CA?AV1@AEAV1@@Z"
"?toUpper_helper@QString@@CA?AV1@AEBV1@@Z"
"?toUrl@QCborValue@@QEBA?AVQUrl@@AEBV2@@Z"
"?toUrl@QCborValueRef@@QEBA?AVQUrl@@AEBV2@@Z"
"?toUrl@QVariant@@QEBA?AVQUrl@@XZ"
"?toUtf8@QString@@QEGBA?AVQByteArray@@XZ"
"?toUtf8@QString@@QEHAA?AVQByteArray@@XZ"
"?toUtf8_helper@QString@@CA?AVQByteArray@@AEBV1@@Z"
"?toUuid@QCborValue@@QEBA?AVQUuid@@AEBV2@@Z"
"?toUuid@QCborValueRef@@QEBA?AVQUuid@@AEBV2@@Z"
"?toUuid@QVariant@@QEBA?AVQUuid@@XZ"
"?toValue@QJsonValueRef@@AEBA?AVQJsonValue@@XZ"
"?toVariant@QCborValue@@QEBA?AVQVariant@@XZ"
"?toVariant@QCborValueRef@@QEBA?AVQVariant@@XZ"
"?toVariant@QJsonDocument@@QEBA?AVQVariant@@XZ"
"?toVariant@QJsonValue@@QEBA?AVQVariant@@XZ"
"?toVariant@QJsonValueConstRef@@QEBA?AVQVariant@@XZ"
"?toVariant@QJsonValueRef@@QEBA?AVQVariant@@XZ"
"?toVariantHash@QCborMap@@QEBA?AV?$QHash@VQString@@VQVariant@@@@XZ"
"?toVariantHash@QJsonObject@@QEBA?AV?$QHash@VQString@@VQVariant@@@@XZ"
"?toVariantList@QCborArray@@QEBA?AV?$QList@VQVariant@@@@XZ"
"?toVariantList@QJsonArray@@QEBA?AV?$QList@VQVariant@@@@XZ"
"?toVariantMap@QCborMap@@QEBA?AV?$QMap@VQString@@VQVariant@@@@XZ"
"?toVariantMap@QJsonObject@@QEBA?AV?$QMap@VQString@@VQVariant@@@@XZ"
"?toWCharArray@QString@@QEBA_JPEA_W@Z"
"?toggleBit@QBitArray@@QEAA_N_J@Z"
"?toggleDirection@QTimeLine@@QEAAXXZ"
"?togglePaused@QFutureInterfaceBase@@QEAAXXZ"
"?togglePaused@QFutureWatcherBase@@QEAAXXZ"
"?toggleSuspended@QFutureInterfaceBase@@QEAAXXZ"
"?toggleSuspended@QFutureWatcherBase@@QEAAXXZ"
"?tokenString@QXmlStreamReader@@QEBA?AVQString@@XZ"
"?tokenType@QXmlStreamReader@@QEBA?AW4TokenType@1@XZ"
"?tooManyThreadsActive@QThreadPoolPrivate@@QEBA_NXZ"
"?top@QItemSelectionRange@@QEBAHXZ"
"?top@QRect@@QEBAHXZ"
"?top@QRectF@@QEBANXZ"
"?topLeft@QItemSelectionRange@@QEBAAEBVQPersistentModelIndex@@XZ"
"?topLeft@QRect@@QEBA?AVQPoint@@XZ"
"?topLeft@QRectF@@QEBA?AVQPointF@@XZ"
"?topRight@QRect@@QEBA?AVQPoint@@XZ"
"?topRight@QRectF@@QEBA?AVQPointF@@XZ"
"?totalDuration@QAbstractAnimation@@QEBAHXZ"
"?tr@QAbstractAnimation@@SA?AVQString@@PEBD0H@Z"
"?tr@QAbstractAnimationTimer@@SA?AVQString@@PEBD0H@Z"
"?tr@QAbstractEventDispatcher@@SA?AVQString@@PEBD0H@Z"
"?tr@QAbstractEventDispatcherV2@@SA?AVQString@@PEBD0H@Z"
"?tr@QAbstractItemModel@@SA?AVQString@@PEBD0H@Z"
"?tr@QAbstractListModel@@SA?AVQString@@PEBD0H@Z"
"?tr@QAbstractProxyModel@@SA?AVQString@@PEBD0H@Z"
"?tr@QAbstractTableModel@@SA?AVQString@@PEBD0H@Z"
"?tr@QAnimationDriver@@SA?AVQString@@PEBD0H@Z"
"?tr@QAnimationGroup@@SA?AVQString@@PEBD0H@Z"
"?tr@QBuffer@@SA?AVQString@@PEBD0H@Z"
"?tr@QChronoTimer@@SA?AVQString@@PEBD0H@Z"
"?tr@QCommandLineParser@@SA?AVQString@@PEBD0H@Z"
"?tr@QConcatenateTablesProxyModel@@SA?AVQString@@PEBD0H@Z"
"?tr@QCoreApplication@@SA?AVQString@@PEBD0H@Z"
"?tr@QEventDispatcherWin32@@SA?AVQString@@PEBD0H@Z"
"?tr@QEventLoop@@SA?AVQString@@PEBD0H@Z"
"?tr@QFactoryLoader@@SA?AVQString@@PEBD0H@Z"
"?tr@QFile@@SA?AVQString@@PEBD0H@Z"
"?tr@QFileDevice@@SA?AVQString@@PEBD0H@Z"
"?tr@QFileSelector@@SA?AVQString@@PEBD0H@Z"
"?tr@QFileSystemWatcher@@SA?AVQString@@PEBD0H@Z"
"?tr@QFutureWatcherBase@@SA?AVQString@@PEBD0H@Z"
"?tr@QIODevice@@SA?AVQString@@PEBD0H@Z"
"?tr@QIdentityProxyModel@@SA?AVQString@@PEBD0H@Z"
"?tr@QItemSelectionModel@@SA?AVQString@@PEBD0H@Z"
"?tr@QLibrary@@SA?AVQString@@PEBD0H@Z"
"?tr@QMetaObject@@QEBA?AVQString@@PEBD0H@Z"
"?tr@QMimeData@@SA?AVQString@@PEBD0H@Z"
"?tr@QNonContiguousByteDevice@@SA?AVQString@@PEBD0H@Z"
"?tr@QObject@@SA?AVQString@@PEBD0H@Z"
"?tr@QObjectCleanupHandler@@SA?AVQString@@PEBD0H@Z"
"?tr@QParallelAnimationGroup@@SA?AVQString@@PEBD0H@Z"
"?tr@QPauseAnimation@@SA?AVQString@@PEBD0H@Z"
"?tr@QPluginLoader@@SA?AVQString@@PEBD0H@Z"
"?tr@QProcess@@SA?AVQString@@PEBD0H@Z"
"?tr@QPropertyAnimation@@SA?AVQString@@PEBD0H@Z"
"?tr@QSaveFile@@SA?AVQString@@PEBD0H@Z"
"?tr@QSequentialAnimationGroup@@SA?AVQString@@PEBD0H@Z"
"?tr@QSettings@@SA?AVQString@@PEBD0H@Z"
"?tr@QSharedMemory@@SA?AVQString@@PEBD0H@Z"
"?tr@QSignalMapper@@SA?AVQString@@PEBD0H@Z"
"?tr@QSocketNotifier@@SA?AVQString@@PEBD0H@Z"
"?tr@QSortFilterProxyModel@@SA?AVQString@@PEBD0H@Z"
"?tr@QStringListModel@@SA?AVQString@@PEBD0H@Z"
"?tr@QSystemSemaphore@@SA?AVQString@@PEBD0H@Z"
"?tr@QTemporaryFile@@SA?AVQString@@PEBD0H@Z"
"?tr@QThread@@SA?AVQString@@PEBD0H@Z"
"?tr@QThreadPool@@SA?AVQString@@PEBD0H@Z"
"?tr@QTimeLine@@SA?AVQString@@PEBD0H@Z"
"?tr@QTimer@@SA?AVQString@@PEBD0H@Z"
"?tr@QTranslator@@SA?AVQString@@PEBD0H@Z"
"?tr@QTransposeProxyModel@@SA?AVQString@@PEBD0H@Z"
"?tr@QUnifiedTimer@@SA?AVQString@@PEBD0H@Z"
"?tr@QVariantAnimation@@SA?AVQString@@PEBD0H@Z"
"?tr@QWinEventNotifier@@SA?AVQString@@PEBD0H@Z"
"?tr@QWindowsPipeReader@@SA?AVQString@@PEBD0H@Z"
"?tr@QWindowsPipeWriter@@SA?AVQString@@PEBD0H@Z"
"?transitions@QTimeZone@@QEBA?AV?$QList@UOffsetData@QTimeZone@@@@AEBVQDateTime@@0@Z"
"?translate@QCoreApplication@@SA?AVQString@@PEBD00H@Z"
"?translate@QLine@@QEAAXAEBVQPoint@@@Z"
"?translate@QLine@@QEAAXHH@Z"
"?translate@QLineF@@QEAAXAEBVQPointF@@@Z"
"?translate@QLineF@@QEAAXNN@Z"
"?translate@QRect@@QEAAXAEBVQPoint@@@Z"
"?translate@QRect@@QEAAXHH@Z"
"?translate@QRectF@@QEAAXAEBVQPointF@@@Z"
"?translate@QRectF@@QEAAXNN@Z"
"?translate@QTranslator@@UEBA?AVQString@@PEBD00H@Z"
"?translated@QLine@@QEBA?AV1@AEBVQPoint@@@Z"
"?translated@QLine@@QEBA?AV1@HH@Z"
"?translated@QLineF@@QEBA?AV1@AEBVQPointF@@@Z"
"?translated@QLineF@@QEBA?AV1@NN@Z"
"?translated@QRect@@QEBA?AV1@AEBVQPoint@@@Z"
"?translated@QRect@@QEBA?AV1@HH@Z"
"?translated@QRectF@@QEBA?AV1@AEBVQPointF@@@Z"
"?translated@QRectF@@QEBA?AV1@NN@Z"
"?transpose@QSize@@QEAAXXZ"
"?transpose@QSizeF@@QEAAXXZ"
"?transposed@QRect@@QEBA?AV1@XZ"
"?transposed@QRectF@@QEBA?AV1@XZ"
"?transposed@QSize@@QEBA?AV1@XZ"
"?transposed@QSizeF@@QEBA?AV1@XZ"
"?trimmed@QByteArray@@QEGBA?AV1@XZ"
"?trimmed@QByteArray@@QEHAA?AV1@XZ"
"?trimmed@QByteArrayView@@QEBA?AV1@XZ"
"?trimmed@QString@@QEGBA?AV1@XZ"
"?trimmed@QString@@QEHAA?AV1@XZ"
"?trimmed@QtPrivate@@YA?AVQByteArrayView@@V2@@Z"
"?trimmed@QtPrivate@@YA?AVQLatin1String@@V2@@Z"
"?trimmed@QtPrivate@@YA?AVQStringView@@V2@@Z"
"?trimmed_helper@QByteArray@@CA?AV1@AEAV1@@Z"
"?trimmed_helper@QByteArray@@CA?AV1@AEBV1@@Z"
"?trimmed_helper@QString@@CA?AV1@AEAV1@@Z"
"?trimmed_helper@QString@@CA?AV1@AEBV1@@Z"
"?truncate@QBitArray@@QEAAX_J@Z"
"?truncate@QByteArray@@QEAAX_J@Z"
"?truncate@QByteArrayView@@QEAAX_J@Z"
"?truncate@QString@@QEAAX_J@Z"
"?tryAcquire@QSemaphore@@QEAA_NH@Z"
"?tryAcquire@QSemaphore@@QEAA_NHH@Z"
"?tryAcquire@QSemaphore@@QEAA_NHVQDeadlineTimer@@@Z"
"?tryLock@QBasicMutex@@QEAA_NXZ"
"?tryLock@QLockFile@@QEAA_NH@Z"
"?tryLock@QLockFile@@QEAA_NV?$duration@_JU?$ratio@$00$0DOI@@std@@@chrono@std@@@Z"
"?tryLock@QMutex@@QEAA_NH@Z"
"?tryLock@QMutex@@QEAA_NVQDeadlineTimer@@@Z"
"?tryLock@QRecursiveMutex@@QEAA_NH@Z"
"?tryLock@QRecursiveMutex@@QEAA_NVQDeadlineTimer@@@Z"
"?tryLockForRead@QReadWriteLock@@QEAA_NH@Z"
"?tryLockForRead@QReadWriteLock@@QEAA_NVQDeadlineTimer@@@Z"
"?tryLockForRead@QReadWriteLock@@QEAA_NXZ"
"?tryLockForWrite@QReadWriteLock@@QEAA_NH@Z"
"?tryLockForWrite@QReadWriteLock@@QEAA_NVQDeadlineTimer@@@Z"
"?tryLockForWrite@QReadWriteLock@@QEAA_NXZ"
"?tryStart@QThreadPool@@QEAA_NPEAVQRunnable@@@Z"
"?tryStart@QThreadPool@@QEAA_NV?$function@$$A6AXXZ@std@@@Z"
"?tryStart@QThreadPoolPrivate@@QEAA_NPEAVQRunnable@@@Z"
"?tryTake@QThreadPool@@QEAA_NPEAVQRunnable@@@Z"
"?tryToStartMoreThreads@QThreadPoolPrivate@@QEAAXXZ"
"?try_acquire@QSemaphore@@QEAA_NXZ"
"?try_lock@QBasicMutex@@QEAA_NXZ"
"?try_lock@QMutex@@QEAA_NXZ"
"?try_lock@QRecursiveMutex@@QEAA_NXZ"
"?type@QCborStreamReader@@QEBA?AW4Type@1@XZ"
"?type@QCborValue@@QEBA?AW4Type@1@XZ"
"?type@QCborValueRef@@QEBA?AW4Type@QCborValue@@XZ"
"?type@QEasingCurve@@QEBA?AW4Type@1@XZ"
"?type@QEvent@@QEBA?AW4Type@1@XZ"
"?type@QJsonValue@@QEBA?AW4Type@1@XZ"
"?type@QJsonValueRef@@QEBA?AW4Type@QJsonValue@@XZ"
"?type@QMetaProperty@@QEBA?AW4Type@QVariant@@XZ"
"?type@QMetaPropertyBuilder@@QEBA?AVQByteArray@@XZ"
"?type@QMetaType@@SAHAEBVQByteArray@@@Z"
"?type@QMetaType@@SAHPEBD@Z"
"?type@QOperatingSystemVersion@@QEBA?AW4OSType@1@XZ"
"?type@QPropertyBindingError@@QEBA?AW4Type@1@XZ"
"?type@QSocketNotifier@@QEBA?AW4Type@1@XZ"
"?type@QTextBoundaryFinder@@QEBA?AW4BoundaryType@1@XZ"
"?type@QVariant@@QEBA?AW4Type@1@XZ"
"?typeFlags@QMetaType@@SA?AV?$QFlags@W4TypeFlag@QMetaType@@@@H@Z"
"?typeId@QMetaProperty@@QEBAHXZ"
"?typeId@QVariant@@QEBAHXZ"
"?typeName@QMetaMethod@@QEBAPEBDXZ"
"?typeName@QMetaProperty@@QEBAPEBDXZ"
"?typeName@QMetaType@@SAPEBDH@Z"
"?typeName@QVariant@@QEBAPEBDXZ"
"?typeToName@QVariant@@SAPEBDH@Z"
"?type_helper@QCborValue@@CA?AW4Type@1@W4QCborSimpleType@@@Z"
"?types@QMetaCallEvent@@QEAAPEAVQMetaType@@XZ"
"?types@QMetaCallEvent@@QEBAPEBVQMetaType@@XZ"
"?uiLanguages@QLocale@@QEBA?AV?$QList@VQString@@@@W4TagSeparator@1@@Z"
"?uiLanguages@QLocale@@QEBA?AV?$QList@VQString@@@@XZ"
"?uncompressedData@QResource@@QEBA?AVQByteArray@@XZ"
"?uncompressedSize@QResource@@QEBA_JXZ"
"?underlyingType@QMetaType@@QEBA?AV1@XZ"
"?ungetChar@QIODevice@@QEAAXD@Z"
"?unicode@QChar@@QEAAAEA_SXZ"
"?unicode@QChar@@QEBA_SXZ"
"?unicode@QString@@QEBAPEBVQChar@@XZ"
"?unicodeVersion@QChar@@QEBA?AW4UnicodeVersion@1@XZ"
"?unicodeVersion@QChar@@SA?AW4UnicodeVersion@1@_U@Z"
"?uninstall@QAnimationDriver@@QEAAXXZ"
"?uninstallAnimationDriver@QUnifiedTimer@@QEAAXPEAVQAnimationDriver@@@Z"
"?unitVector@QLineF@@QEBA?AV1@XZ"
"?united@QRect@@QEBA?AV1@AEBV1@@Z"
"?united@QRectF@@QEBA?AV1@AEBV1@@Z"
"?unixEpochJd@QDate@@CA_JXZ"
"?unknownOptionNames@QCommandLineParser@@QEBA?AV?$QList@VQString@@@@XZ"
"?unlinkAndDeref@QPropertyBindingPrivate@@QEAAXXZ"
"?unload@QLibrary@@QEAA_NXZ"
"?unload@QPluginLoader@@QEAA_NXZ"
"?unlock@QBasicMutex@@QEAAXXZ"
"?unlock@QLockFile@@QEAAXXZ"
"?unlock@QReadLocker@@QEAAXXZ"
"?unlock@QReadWriteLock@@QEAAXXZ"
"?unlock@QRecursiveMutex@@QEAAXXZ"
"?unlock@QSharedMemory@@QEAA_NXZ"
"?unlock@QWriteLocker@@QEAAXXZ"
"?unlockInternal@QBasicMutex@@AEAAXXZ"
"?unmap@QAbstractFileEngine@@QEAA_NPEAE@Z"
"?unmap@QFileDevice@@QEAA_NPEAE@Z"
"?unregisterCallback@QInternal@@SA_NW4Callback@1@P6A_NPEAPEAX@Z@Z"
"?unregisterConverterFunction@QMetaType@@SAXV1@0@Z"
"?unregisterMetaType@QMetaType@@SAXV1@@Z"
"?unregisterMutableViewFunction@QMetaType@@SAXV1@0@Z"
"?unregisterResource@QResource@@SA_NAEBVQString@@0@Z"
"?unregisterResource@QResource@@SA_NPEBEAEBVQString@@@Z"
"?unregisterSocketNotifier@QEventDispatcherWin32@@UEAAXPEAVQSocketNotifier@@@Z"
"?unregisterTimer@QAbstractEventDispatcher@@QEAA_NW4TimerId@Qt@@@Z"
"?unregisterTimer@QAbstractEventDispatcherV2@@EEAA_NH@Z"
"?unregisterTimer@QEventDispatcherWin32@@UEAA_NH@Z"
"?unregisterTimer@QEventDispatcherWin32Private@@QEAAXPEAUWinTimerInfo@@@Z"
"?unregisterTimers@QEventDispatcherWin32@@UEAA_NPEAVQObject@@@Z"
"?unsetError@QFileDevice@@QEAAXXZ"
"?update@QFactoryLoader@@QEAAXXZ"
"?updateAnimationTimers@QUnifiedTimer@@QEAAXXZ"
"?updateCurrentTime@QParallelAnimationGroup@@MEAAXH@Z"
"?updateCurrentTime@QPauseAnimation@@MEAAXH@Z"
"?updateCurrentTime@QSequentialAnimationGroup@@MEAAXH@Z"
"?updateCurrentTime@QVariantAnimation@@MEAAXH@Z"
"?updateCurrentValue@QPropertyAnimation@@MEAAXAEBVQVariant@@@Z"
"?updateCurrentValue@QVariantAnimation@@MEAAXAEBVQVariant@@@Z"
"?updateDirection@QAbstractAnimation@@MEAAXW4Direction@1@@Z"
"?updateDirection@QParallelAnimationGroup@@MEAAXW4Direction@QAbstractAnimation@@@Z"
"?updateDirection@QSequentialAnimationGroup@@MEAAXW4Direction@QAbstractAnimation@@@Z"
"?updateInsertIndex@ResultStoreBase@QtPrivate@@IEAAHHH@Z"
"?updateInterval@QTimeLine@@QEBAHXZ"
"?updateSelectors@QFileSelectorPrivate@@SAXXZ"
"?updateSkipTable@QStringMatcher@@AEAAXXZ"
"?updateState@QAbstractAnimation@@MEAAXW4State@1@0@Z"
"?updateState@QParallelAnimationGroup@@MEAAXW4State@QAbstractAnimation@@0@Z"
"?updateState@QPropertyAnimation@@MEAAXW4State@QAbstractAnimation@@0@Z"
"?updateState@QSequentialAnimationGroup@@MEAAXW4State@QAbstractAnimation@@0@Z"
"?updateState@QVariantAnimation@@MEAAXW4State@QAbstractAnimation@@0@Z"
"?uppercasebase@Qt@@YAAEAVQTextStream@@AEAV2@@Z"
"?uppercasedigits@Qt@@YAAEAVQTextStream@@AEAV2@@Z"
"?url@QUrl@@QEBA?AVQString@@V?$QUrlTwoFlags@W4UrlFormattingOption@QUrl@@W4ComponentFormattingOption@2@@@@Z"
"?urls@QMimeData@@QEBA?AV?$QList@VQUrl@@@@XZ"
"?userInfo@QUrl@@QEBA?AVQString@@V?$QFlags@W4ComponentFormattingOption@QUrl@@@@@Z"
"?userName@QUrl@@QEBA?AVQString@@V?$QFlags@W4ComponentFormattingOption@QUrl@@@@@Z"
"?userProperty@QMetaObject@@QEBA?AVQMetaProperty@@XZ"
"?userType@QMetaProperty@@QEBAHXZ"
"?userType@QVariant@@QEBAHXZ"
"?usleep@QThread@@SAXK@Z"
"?utc@QTimeZone@@SA?AV1@XZ"
"?utf16@QString@@QEBAPEBGXZ"
"?validParts@QGregorianCalendar@@SA_NHHH@Z"
"?validateChars@QLocaleData@@QEBA?AUParsingResult@@VQStringView@@W4NumberMode@1@HV?$QFlags@W4NumberOption@QLocale@@@@@Z"
"?value@QAssociativeConstIterator@@QEBA?AVQVariant@@XZ"
"?value@QAssociativeIterable@@QEBA?AVQVariant@@AEBV2@@Z"
"?value@QAssociativeIterator@@QEBA?AV?$QVariantRef@VQAssociativeIterator@@@@XZ"
"?value@QCborMap@@QEBA?AVQCborValue@@AEBV2@@Z"
"?value@QCborMap@@QEBA?AVQCborValue@@AEBVQString@@@Z"
"?value@QCborMap@@QEBA?AVQCborValue@@VQLatin1String@@@Z"
"?value@QCborMap@@QEBA?AVQCborValue@@_J@Z"
"?value@QCommandLineParser@@QEBA?AVQString@@AEBV2@@Z"
"?value@QCommandLineParser@@QEBA?AVQString@@AEBVQCommandLineOption@@@Z"
"?value@QJsonObject@@QEBA?AVQJsonValue@@AEBVQString@@@Z"
"?value@QJsonObject@@QEBA?AVQJsonValue@@VQLatin1String@@@Z"
"?value@QJsonObject@@QEBA?AVQJsonValue@@VQStringView@@@Z"
"?value@QMetaClassInfo@@QEBAPEBDXZ"
"?value@QMetaEnum@@QEBAHH@Z"
"?value@QMetaEnumBuilder@@QEBAHH@Z"
"?value@QProcessEnvironment@@QEBA?AVQString@@AEBV2@0@Z"
"?value@QSettings@@QEBA?AVQVariant@@AEBVQString@@@Z"
"?value@QSettings@@QEBA?AVQVariant@@AEBVQString@@AEBV2@@Z"
"?value@QSettings@@QEBA?AVQVariant@@VQAnyStringView@@@Z"
"?value@QSettings@@QEBA?AVQVariant@@VQAnyStringView@@AEBV2@@Z"
"?value@QWinRegistryKey@@QEBA?AVQVariant@@VQStringView@@@Z"
"?value@QXmlStreamAttribute@@QEBA?AVQStringView@@XZ"
"?value@QXmlStreamAttributes@@QEBA?AVQStringView@@AEBVQString@@0@Z"
"?value@QXmlStreamAttributes@@QEBA?AVQStringView@@AEBVQString@@@Z"
"?value@QXmlStreamAttributes@@QEBA?AVQStringView@@AEBVQString@@VQLatin1String@@@Z"
"?value@QXmlStreamAttributes@@QEBA?AVQStringView@@VQAnyStringView@@0@Z"
"?value@QXmlStreamAttributes@@QEBA?AVQStringView@@VQAnyStringView@@@Z"
"?value@QXmlStreamAttributes@@QEBA?AVQStringView@@VQLatin1String@@0@Z"
"?value@QXmlStreamAttributes@@QEBA?AVQStringView@@VQLatin1String@@@Z"
"?value@QXmlStreamEntityDeclaration@@QEBA?AVQStringView@@XZ"
"?valueAt@QJsonObject@@AEBA?AVQJsonValue@@_J@Z"
"?valueAtConstIterator@QMetaSequence@@QEBAXPEBXPEAX@Z"
"?valueAtIndex@QMetaSequence@@QEBAXPEBX_JPEAX@Z"
"?valueAtIterator@QMetaSequence@@QEBAXPEBXPEAX@Z"
"?valueChanged@QTimeLine@@QEAAXNUQPrivateSignal@1@@Z"
"?valueChanged@QVariantAnimation@@QEAAXAEBVQVariant@@@Z"
"?valueForProgress@QEasingCurve@@QEBANN@Z"
"?valueForTime@QTimeLine@@UEBANH@Z"
"?valueMetaType@QMetaSequence@@QEBA?AVQMetaType@@XZ"
"?valueMetaType@QPropertyBindingPrivate@@QEBA?AVQMetaType@@XZ"
"?valueMetaType@QSequentialIterable@@QEBA?AVQMetaType@@XZ"
"?valueMetaType@QUntypedPropertyBinding@@QEBA?AVQMetaType@@XZ"
"?valueName@QCommandLineOption@@QEBA?AVQString@@XZ"
"?valueToKey@QMetaEnum@@QEBAPEBDH@Z"
"?valueToKeys@QMetaEnum@@QEBA?AVQByteArray@@H@Z"
"?value_helper@QCborValue@@AEBA_JXZ"
"?values@QCommandLineParser@@QEBA?AV?$QList@VQString@@@@AEBVQCommandLineOption@@@Z"
"?values@QCommandLineParser@@QEBA?AV?$QList@VQString@@@@AEBVQString@@@Z"
"?variant@QUuid@@QEBA?AW4Variant@1@XZ"
"?variantLessThan@QAbstractItemModelPrivate@@SA_NAEBVQVariant@@0@Z"
"?vasprintf@QString@@SA?AV1@PEBDPEAD@Z"
"?vectorIndex@ResultIteratorBase@QtPrivate@@QEBAHXZ"
"?verbosity@QDebug@@QEAAAEAV1@H@Z"
"?verbosity@QDebug@@QEBAHXZ"
"?verify@QByteArray@@AEBAX_J0@Z"
"?verify@QByteArrayView@@AEBAX_J0@Z"
"?verify@QString@@AEBAX_J0@Z"
"?version@QDataStream@@QEBAHXZ"
"?version@QLibraryInfo@@SA?AVQVersionNumber@@XZ"
"?version@QOperatingSystemVersion@@QEBA?AVQVersionNumber@@XZ"
"?version@QUuid@@QEBA?AW4Version@1@XZ"
"?view@QMetaType@@SA_NV1@PEAX01@Z"
"?view@QVariant@@IEAA_NHPEAX@Z"
"?wait@QThread@@QEAA_NK@Z"
"?wait@QThread@@QEAA_NVQDeadlineTimer@@@Z"
"?wait@QWaitCondition@@QEAA_NPEAVQMutex@@K@Z"
"?wait@QWaitCondition@@QEAA_NPEAVQMutex@@VQDeadlineTimer@@@Z"
"?wait@QWaitCondition@@QEAA_NPEAVQReadWriteLock@@K@Z"
"?wait@QWaitCondition@@QEAA_NPEAVQReadWriteLock@@VQDeadlineTimer@@@Z"
"?waitCallback@QWindowsPipeReader@@CAXPEAU_TP_CALLBACK_INSTANCE@@PEAXPEAU_TP_WAIT@@K@Z"
"?waitCallback@QWindowsPipeWriter@@CAXPEAU_TP_CALLBACK_INSTANCE@@PEAXPEAU_TP_WAIT@@K@Z"
"?waitForBytesWritten@QIODevice@@UEAA_NH@Z"
"?waitForBytesWritten@QProcess@@UEAA_NH@Z"
"?waitForDone@QThreadPool@@QEAA_NH@Z"
"?waitForDone@QThreadPool@@QEAA_NVQDeadlineTimer@@@Z"
"?waitForDone@QThreadPoolPrivate@@QEAA_NAEBVQDeadlineTimer@@@Z"
"?waitForFinished@QFutureInterfaceBase@@QEAAXXZ"
"?waitForFinished@QFutureWatcherBase@@QEAAXXZ"
"?waitForFinished@QProcess@@QEAA_NH@Z"
"?waitForNextResult@QFutureInterfaceBase@@QEAA_NXZ"
"?waitForNotification@QWindowsPipeReader@@AEAA_NXZ"
"?waitForReadyRead@QIODevice@@UEAA_NH@Z"
"?waitForReadyRead@QProcess@@UEAA_NH@Z"
"?waitForResult@QFutureInterfaceBase@@QEAAXH@Z"
"?waitForResume@QFutureInterfaceBase@@QEAAXXZ"
"?waitForStarted@QProcess@@QEAA_NH@Z"
"?wakeAll@QWaitCondition@@QEAAXXZ"
"?wakeOne@QWaitCondition@@QEAAXXZ"
"?wakeUp@QEventDispatcherWin32@@UEAAXXZ"
"?wakeUp@QEventLoop@@QEAAXXZ"
"?warnNullCallable@QRunnable@@CAPEAV1@XZ"
"?warning@QMessageLogger@@QEBA?AVQDebug@@AEBVQLoggingCategory@@@Z"
"?warning@QMessageLogger@@QEBA?AVQDebug@@P6AAEBVQLoggingCategory@@XZ@Z"
"?warning@QMessageLogger@@QEBA?AVQDebug@@XZ"
"?warning@QMessageLogger@@QEBAXAEBVQLoggingCategory@@PEBDZZ"
"?warning@QMessageLogger@@QEBAXP6AAEBVQLoggingCategory@@XZPEBDZZ"
"?warning@QMessageLogger@@QEBAXPEBDZZ"
"?watchContinuationImpl@QtPrivate@@YAXPEBVQObject@@PEAVQSlotObjectBase@1@AEAVQFutureInterfaceBase@@@Z"
"?weakPointerFromVariant_internal@QtSharedPointer@@YA?AV?$QWeakPointer@VQObject@@@@AEBVQVariant@@@Z"
"?weekDayName@QCalendar@@QEBA?AVQString@@AEBVQLocale@@HW4FormatType@3@@Z"
"?weekDayName@QCalendarBackend@@UEBA?AVQString@@AEBVQLocale@@HW4FormatType@3@@Z"
"?weekDayOfJulian@QGregorianCalendar@@SAH_J@Z"
"?weekNumber@QDate@@QEBAHPEAH@Z"
"?weekdays@QLocale@@QEBA?AV?$QList@W4DayOfWeek@Qt@@@@XZ"
"?width@QItemSelectionRange@@QEBAHXZ"
"?width@QRect@@QEBAHXZ"
"?width@QRectF@@QEBANXZ"
"?width@QSize@@QEBAHXZ"
"?width@QSizeF@@QEBANXZ"
"?wildcardToRegularExpression@QRegularExpression@@SA?AVQString@@AEBV2@V?$QFlags@W4WildcardConversionOption@QRegularExpression@@@@@Z"
"?wildcardToRegularExpression@QRegularExpression@@SA?AVQString@@VQStringView@@V?$QFlags@W4WildcardConversionOption@QRegularExpression@@@@@Z"
"?winError@QWindowsPipeReader@@QEAAXKAEBVQString@@@Z"
"?windowsComString@QSystemError@@SA?AVQString@@J@Z"
"?windowsIdToDefaultIanaId@QTimeZone@@SA?AVQByteArray@@AEBV2@@Z"
"?windowsIdToDefaultIanaId@QTimeZone@@SA?AVQByteArray@@AEBV2@W4Country@QLocale@@@Z"
"?windowsIdToIanaIds@QTimeZone@@SA?AV?$QList@VQByteArray@@@@AEBVQByteArray@@@Z"
"?windowsIdToIanaIds@QTimeZone@@SA?AV?$QList@VQByteArray@@@@AEBVQByteArray@@W4Country@QLocale@@@Z"
"?windowsString@QSystemError@@SA?AVQString@@H@Z"
"?wordBreakClass@QUnicodeTables@@YA?AW4WordBreakClass@1@_U@Z"
"?workingDirectory@QProcess@@QEBA?AVQString@@XZ"
"?wrap@QNonContiguousByteDeviceFactory@@SAPEAVQIODevice@@PEAVQNonContiguousByteDevice@@@Z"
"?writableLocation@QStandardPaths@@SA?AVQString@@W4StandardLocation@1@@Z"
"?write@QAbstractFileEngine@@UEAA_JPEBD_J@Z"
"?write@QFSFileEngine@@UEAA_JPEBD_J@Z"
"?write@QIODevice@@QEAA_JAEBVQByteArray@@@Z"
"?write@QIODevice@@QEAA_JPEBD@Z"
"?write@QIODevice@@QEAA_JPEBD_J@Z"
"?write@QIODevicePrivate@@QEAAXPEBD_J@Z"
"?write@QMetaProperty@@QEBA_NPEAVQObject@@$$QEAVQVariant@@@Z"
"?write@QMetaProperty@@QEBA_NPEAVQObject@@AEBVQVariant@@@Z"
"?write@QWindowsPipeWriter@@QEAAXAEBVQByteArray@@@Z"
"?write@QWindowsPipeWriter@@QEAAXPEBD_J@Z"
"?writeAttribute@QXmlStreamWriter@@QEAAXAEBVQString@@00@Z"
"?writeAttribute@QXmlStreamWriter@@QEAAXAEBVQString@@0@Z"
"?writeAttribute@QXmlStreamWriter@@QEAAXAEBVQXmlStreamAttribute@@@Z"
"?writeAttribute@QXmlStreamWriter@@QEAAXVQAnyStringView@@00@Z"
"?writeAttribute@QXmlStreamWriter@@QEAAXVQAnyStringView@@0@Z"
"?writeAttributes@QXmlStreamWriter@@QEAAXAEBVQXmlStreamAttributes@@@Z"
"?writeBlob@QMetaStringTable@@QEBAXPEAD@Z"
"?writeBytes@QDataStream@@QEAAAEAV1@PEBDI@Z"
"?writeBytes@QDataStream@@QEAAAEAV1@PEBD_J@Z"
"?writeCDATA@QXmlStreamWriter@@QEAAXAEBVQString@@@Z"
"?writeCDATA@QXmlStreamWriter@@QEAAXVQAnyStringView@@@Z"
"?writeChannelCount@QIODevice@@QEBAHXZ"
"?writeCharacters@QXmlStreamWriter@@QEAAXAEBVQString@@@Z"
"?writeCharacters@QXmlStreamWriter@@QEAAXVQAnyStringView@@@Z"
"?writeComment@QXmlStreamWriter@@QEAAXAEBVQString@@@Z"
"?writeComment@QXmlStreamWriter@@QEAAXVQAnyStringView@@@Z"
"?writeCompleted@QWindowsPipeWriter@@AEAA_NKK@Z"
"?writeCurrentToken@QXmlStreamWriter@@QEAAXAEBVQXmlStreamReader@@@Z"
"?writeDTD@QXmlStreamWriter@@QEAAXAEBVQString@@@Z"
"?writeDTD@QXmlStreamWriter@@QEAAXVQAnyStringView@@@Z"
"?writeData@QBuffer@@MEAA_JPEBD_J@Z"
"?writeData@QFileDevice@@MEAA_JPEBD_J@Z"
"?writeData@QProcess@@MEAA_JPEBD_J@Z"
"?writeData@QSaveFile@@MEAA_JPEBD_J@Z"
"?writeDefaultNamespace@QXmlStreamWriter@@QEAAXAEBVQString@@@Z"
"?writeDefaultNamespace@QXmlStreamWriter@@QEAAXVQAnyStringView@@@Z"
"?writeEmptyElement@QXmlStreamWriter@@QEAAXAEBVQString@@0@Z"
"?writeEmptyElement@QXmlStreamWriter@@QEAAXAEBVQString@@@Z"
"?writeEmptyElement@QXmlStreamWriter@@QEAAXVQAnyStringView@@0@Z"
"?writeEmptyElement@QXmlStreamWriter@@QEAAXVQAnyStringView@@@Z"
"?writeEndDocument@QXmlStreamWriter@@QEAAXXZ"
"?writeEndElement@QXmlStreamWriter@@QEAAXXZ"
"?writeEntityReference@QXmlStreamWriter@@QEAAXAEBVQString@@@Z"
"?writeEntityReference@QXmlStreamWriter@@QEAAXVQAnyStringView@@@Z"
"?writeFailed@QWindowsPipeWriter@@QEAAXXZ"
"?writeNamespace@QXmlStreamWriter@@QEAAXAEBVQString@@0@Z"
"?writeNamespace@QXmlStreamWriter@@QEAAXVQAnyStringView@@0@Z"
"?writeOnGadget@QMetaProperty@@QEBA_NPEAX$$QEAVQVariant@@@Z"
"?writeOnGadget@QMetaProperty@@QEBA_NPEAXAEBVQVariant@@@Z"
"?writeProcessingInstruction@QXmlStreamWriter@@QEAAXAEBVQString@@0@Z"
"?writeProcessingInstruction@QXmlStreamWriter@@QEAAXVQAnyStringView@@0@Z"
"?writeQSizeType@QDataStream@@CA_NAEAV1@_J@Z"
"?writeRawData@QDataStream@@QEAAHPEBDH@Z"
"?writeRawData@QDataStream@@QEAA_JPEBD_J@Z"
"?writeStartDocument@QXmlStreamWriter@@QEAAXAEBVQString@@@Z"
"?writeStartDocument@QXmlStreamWriter@@QEAAXAEBVQString@@_N@Z"
"?writeStartDocument@QXmlStreamWriter@@QEAAXVQAnyStringView@@@Z"
"?writeStartDocument@QXmlStreamWriter@@QEAAXVQAnyStringView@@_N@Z"
"?writeStartDocument@QXmlStreamWriter@@QEAAXXZ"
"?writeStartElement@QXmlStreamWriter@@QEAAXAEBVQString@@0@Z"
"?writeStartElement@QXmlStreamWriter@@QEAAXAEBVQString@@@Z"
"?writeStartElement@QXmlStreamWriter@@QEAAXVQAnyStringView@@0@Z"
"?writeStartElement@QXmlStreamWriter@@QEAAXVQAnyStringView@@@Z"
"?writeTextElement@QXmlStreamWriter@@QEAAXAEBVQString@@00@Z"
"?writeTextElement@QXmlStreamWriter@@QEAAXAEBVQString@@0@Z"
"?writeTextElement@QXmlStreamWriter@@QEAAXVQAnyStringView@@00@Z"
"?writeTextElement@QXmlStreamWriter@@QEAAXVQAnyStringView@@0@Z"
"?writeToDebugStream@QObjectPrivate@@UEBAXAEAVQDebug@@@Z"
"?ws@Qt@@YAAEAVQTextStream@@AEAV2@@Z"
"?x1@QLine@@QEBAHXZ"
"?x1@QLineF@@QEBANXZ"
"?x2@QLine@@QEBAHXZ"
"?x2@QLineF@@QEBANXZ"
"?x@QRect@@QEBAHXZ"
"?x@QRectF@@QEBANXZ"
"?y1@QLine@@QEBAHXZ"
"?y1@QLineF@@QEBANXZ"
"?y2@QLine@@QEBAHXZ"
"?y2@QLineF@@QEBANXZ"
"?y@QRect@@QEBAHXZ"
"?y@QRectF@@QEBANXZ"
"?year@QDate@@QEBAHVQCalendar@@@Z"
"?year@QDate@@QEBAHXZ"
"?yearSharingWeekDays@QGregorianCalendar@@SAHVQDate@@@Z"
"?yearStartWeekDay@QGregorianCalendar@@SAHH@Z"
"?yieldCurrentThread@QThread@@SAXXZ"
"?zeroDigit@QLocale@@QEBA?AVQString@@XZ"
qDetectCpuFeatures
qVersion
qt_cpu_features
qt_startup_hook
qt_version_tag_6_0
qt_version_tag_6_1
qt_version_tag_6_2
qt_version_tag_6_3
qt_version_tag_6_4
qt_version_tag_6_5
qt_version_tag_6_6
qt_version_tag_6_7
qt_version_tag_6_8
z_adler32
z_adler32_combine
z_adler32_z
z_compress
z_compress2
z_compressBound
z_crc32
z_crc32_combine
z_crc32_combine_gen
z_crc32_combine_op
z_crc32_z
z_deflate
z_deflateBound
z_deflateCopy
z_deflateEnd
z_deflateGetDictionary
z_deflateInit2_
z_deflateInit_
z_deflateParams
z_deflatePending
z_deflatePrime
z_deflateReset
z_deflateResetKeep
z_deflateSetDictionary
z_deflateSetHeader
z_deflateTune
z_get_crc_table
z_inflate
z_inflateCodesUsed
z_inflateCopy
z_inflateEnd
z_inflateGetDictionary
z_inflateGetHeader
z_inflateInit2_
z_inflateInit_
z_inflateMark
z_inflatePrime
z_inflateReset
z_inflateReset2
z_inflateResetKeep
z_inflateSetDictionary
z_inflateSync
z_inflateSyncPoint
z_inflateUndermine
z_inflateValidate
z_uncompress
z_uncompress2
z_zError
z_zlibCompileFlags
z_zlibVersion
