LIBRARY Qt6Gui
EXPORTS
"??$handleApplicationStateChanged@UAsynchronousDelivery@QWindowSystemInterface@@@QWindowSystemInterface@@SAXW4ApplicationState@Qt@@_N@Z"
"??$handleApplicationStateChanged@UDefaultDelivery@QWindowSystemInterface@@@QWindowSystemInterface@@SAXW4ApplicationState@Qt@@_N@Z"
"??$handleApplicationStateChanged@USynchronousDelivery@QWindowSystemInterface@@@QWindowSystemInterface@@SAXW4ApplicationState@Qt@@_N@Z"
"??$handleApplicationTermination@UAsynchronousDelivery@QWindowSystemInterface@@@QWindowSystemInterface@@SA_NXZ"
"??$handleApplicationTermination@UDefaultDelivery@QWindowSystemInterface@@@QWindowSystemInterface@@SA_NXZ"
"??$handleApplicationTermination@USynchronousDelivery@QWindowSystemInterface@@@QWindowSystemInterface@@SA_NXZ"
"??$handleCloseEvent@UAsynchronousDelivery@QWindowSystemInterface@@@QWindowSystemInterface@@SA_NPEAVQWindow@@@Z"
"??$handleCloseEvent@UDefaultDelivery@QWindowSystemInterface@@@QWindowSystemInterface@@SA_NPEAVQWindow@@@Z"
"??$handleCloseEvent@USynchronousDelivery@QWindowSystemInterface@@@QWindowSystemInterface@@SA_NPEAVQWindow@@@Z"
"??$handleContextMenuEvent@UAsynchronousDelivery@QWindowSystemInterface@@@QWindowSystemInterface@@SA_NPEAVQWindow@@_NAEBVQPoint@@2V?$QFlags@W4KeyboardModifier@Qt@@@@@Z"
"??$handleContextMenuEvent@UDefaultDelivery@QWindowSystemInterface@@@QWindowSystemInterface@@SA_NPEAVQWindow@@_NAEBVQPoint@@2V?$QFlags@W4KeyboardModifier@Qt@@@@@Z"
"??$handleContextMenuEvent@USynchronousDelivery@QWindowSystemInterface@@@QWindowSystemInterface@@SA_NPEAVQWindow@@_NAEBVQPoint@@2V?$QFlags@W4KeyboardModifier@Qt@@@@@Z"
"??$handleEnterEvent@UAsynchronousDelivery@QWindowSystemInterface@@@QWindowSystemInterface@@SAXPEAVQWindow@@AEBVQPointF@@1@Z"
"??$handleEnterEvent@UDefaultDelivery@QWindowSystemInterface@@@QWindowSystemInterface@@SAXPEAVQWindow@@AEBVQPointF@@1@Z"
"??$handleEnterEvent@USynchronousDelivery@QWindowSystemInterface@@@QWindowSystemInterface@@SAXPEAVQWindow@@AEBVQPointF@@1@Z"
"??$handleExposeEvent@UAsynchronousDelivery@QWindowSystemInterface@@@QWindowSystemInterface@@SA_NPEAVQWindow@@AEBVQRegion@@@Z"
"??$handleExposeEvent@UDefaultDelivery@QWindowSystemInterface@@@QWindowSystemInterface@@SA_NPEAVQWindow@@AEBVQRegion@@@Z"
"??$handleExposeEvent@USynchronousDelivery@QWindowSystemInterface@@@QWindowSystemInterface@@SA_NPEAVQWindow@@AEBVQRegion@@@Z"
"??$handleFocusWindowChanged@UAsynchronousDelivery@QWindowSystemInterface@@@QWindowSystemInterface@@SAXPEAVQWindow@@W4FocusReason@Qt@@@Z"
"??$handleFocusWindowChanged@UDefaultDelivery@QWindowSystemInterface@@@QWindowSystemInterface@@SAXPEAVQWindow@@W4FocusReason@Qt@@@Z"
"??$handleFocusWindowChanged@USynchronousDelivery@QWindowSystemInterface@@@QWindowSystemInterface@@SAXPEAVQWindow@@W4FocusReason@Qt@@@Z"
"??$handleGeometryChange@UAsynchronousDelivery@QWindowSystemInterface@@@QWindowSystemInterface@@SAXPEAVQWindow@@AEBVQRect@@@Z"
"??$handleGeometryChange@UDefaultDelivery@QWindowSystemInterface@@@QWindowSystemInterface@@SAXPEAVQWindow@@AEBVQRect@@@Z"
"??$handleGeometryChange@USynchronousDelivery@QWindowSystemInterface@@@QWindowSystemInterface@@SAXPEAVQWindow@@AEBVQRect@@@Z"
"??$handleKeyEvent@UAsynchronousDelivery@QWindowSystemInterface@@@QWindowSystemInterface@@SA_NPEAVQWindow@@KW4Type@QEvent@@HV?$QFlags@W4KeyboardModifier@Qt@@@@AEBVQString@@_NG@Z"
"??$handleKeyEvent@UAsynchronousDelivery@QWindowSystemInterface@@@QWindowSystemInterface@@SA_NPEAVQWindow@@W4Type@QEvent@@HV?$QFlags@W4KeyboardModifier@Qt@@@@AEBVQString@@_NG@Z"
"??$handleKeyEvent@UDefaultDelivery@QWindowSystemInterface@@@QWindowSystemInterface@@SA_NPEAVQWindow@@KW4Type@QEvent@@HV?$QFlags@W4KeyboardModifier@Qt@@@@AEBVQString@@_NG@Z"
"??$handleKeyEvent@UDefaultDelivery@QWindowSystemInterface@@@QWindowSystemInterface@@SA_NPEAVQWindow@@W4Type@QEvent@@HV?$QFlags@W4KeyboardModifier@Qt@@@@AEBVQString@@_NG@Z"
"??$handleKeyEvent@USynchronousDelivery@QWindowSystemInterface@@@QWindowSystemInterface@@SA_NPEAVQWindow@@KW4Type@QEvent@@HV?$QFlags@W4KeyboardModifier@Qt@@@@AEBVQString@@_NG@Z"
"??$handleKeyEvent@USynchronousDelivery@QWindowSystemInterface@@@QWindowSystemInterface@@SA_NPEAVQWindow@@W4Type@QEvent@@HV?$QFlags@W4KeyboardModifier@Qt@@@@AEBVQString@@_NG@Z"
"??$handleLeaveEvent@UAsynchronousDelivery@QWindowSystemInterface@@@QWindowSystemInterface@@SAXPEAVQWindow@@@Z"
"??$handleLeaveEvent@UDefaultDelivery@QWindowSystemInterface@@@QWindowSystemInterface@@SAXPEAVQWindow@@@Z"
"??$handleLeaveEvent@USynchronousDelivery@QWindowSystemInterface@@@QWindowSystemInterface@@SAXPEAVQWindow@@@Z"
"??$handleMouseEvent@UAsynchronousDelivery@QWindowSystemInterface@@@QWindowSystemInterface@@SA_NPEAVQWindow@@AEBVQPointF@@1V?$QFlags@W4MouseButton@Qt@@@@W4MouseButton@Qt@@W4Type@QEvent@@V?$QFlags@W4KeyboardModifier@Qt@@@@W4MouseEventSource@5@@Z"
"??$handleMouseEvent@UAsynchronousDelivery@QWindowSystemInterface@@@QWindowSystemInterface@@SA_NPEAVQWindow@@KAEBVQPointF@@1V?$QFlags@W4MouseButton@Qt@@@@W4MouseButton@Qt@@W4Type@QEvent@@V?$QFlags@W4KeyboardModifier@Qt@@@@W4MouseEventSource@5@@Z"
"??$handleMouseEvent@UAsynchronousDelivery@QWindowSystemInterface@@@QWindowSystemInterface@@SA_NPEAVQWindow@@KPEBVQPointingDevice@@AEBVQPointF@@2V?$QFlags@W4MouseButton@Qt@@@@W4MouseButton@Qt@@W4Type@QEvent@@V?$QFlags@W4KeyboardModifier@Qt@@@@W4MouseEventSource@6@@Z"
"??$handleMouseEvent@UAsynchronousDelivery@QWindowSystemInterface@@@QWindowSystemInterface@@SA_NPEAVQWindow@@PEBVQPointingDevice@@AEBVQPointF@@2V?$QFlags@W4MouseButton@Qt@@@@W4MouseButton@Qt@@W4Type@QEvent@@V?$QFlags@W4KeyboardModifier@Qt@@@@W4MouseEventSource@6@@Z"
"??$handleMouseEvent@UDefaultDelivery@QWindowSystemInterface@@@QWindowSystemInterface@@SA_NPEAVQWindow@@AEBVQPointF@@1V?$QFlags@W4MouseButton@Qt@@@@W4MouseButton@Qt@@W4Type@QEvent@@V?$QFlags@W4KeyboardModifier@Qt@@@@W4MouseEventSource@5@@Z"
"??$handleMouseEvent@UDefaultDelivery@QWindowSystemInterface@@@QWindowSystemInterface@@SA_NPEAVQWindow@@KAEBVQPointF@@1V?$QFlags@W4MouseButton@Qt@@@@W4MouseButton@Qt@@W4Type@QEvent@@V?$QFlags@W4KeyboardModifier@Qt@@@@W4MouseEventSource@5@@Z"
"??$handleMouseEvent@UDefaultDelivery@QWindowSystemInterface@@@QWindowSystemInterface@@SA_NPEAVQWindow@@KPEBVQPointingDevice@@AEBVQPointF@@2V?$QFlags@W4MouseButton@Qt@@@@W4MouseButton@Qt@@W4Type@QEvent@@V?$QFlags@W4KeyboardModifier@Qt@@@@W4MouseEventSource@6@@Z"
"??$handleMouseEvent@UDefaultDelivery@QWindowSystemInterface@@@QWindowSystemInterface@@SA_NPEAVQWindow@@PEBVQPointingDevice@@AEBVQPointF@@2V?$QFlags@W4MouseButton@Qt@@@@W4MouseButton@Qt@@W4Type@QEvent@@V?$QFlags@W4KeyboardModifier@Qt@@@@W4MouseEventSource@6@@Z"
"??$handleMouseEvent@USynchronousDelivery@QWindowSystemInterface@@@QWindowSystemInterface@@SA_NPEAVQWindow@@AEBVQPointF@@1V?$QFlags@W4MouseButton@Qt@@@@W4MouseButton@Qt@@W4Type@QEvent@@V?$QFlags@W4KeyboardModifier@Qt@@@@W4MouseEventSource@5@@Z"
"??$handleMouseEvent@USynchronousDelivery@QWindowSystemInterface@@@QWindowSystemInterface@@SA_NPEAVQWindow@@KAEBVQPointF@@1V?$QFlags@W4MouseButton@Qt@@@@W4MouseButton@Qt@@W4Type@QEvent@@V?$QFlags@W4KeyboardModifier@Qt@@@@W4MouseEventSource@5@@Z"
"??$handleMouseEvent@USynchronousDelivery@QWindowSystemInterface@@@QWindowSystemInterface@@SA_NPEAVQWindow@@KPEBVQPointingDevice@@AEBVQPointF@@2V?$QFlags@W4MouseButton@Qt@@@@W4MouseButton@Qt@@W4Type@QEvent@@V?$QFlags@W4KeyboardModifier@Qt@@@@W4MouseEventSource@6@@Z"
"??$handleMouseEvent@USynchronousDelivery@QWindowSystemInterface@@@QWindowSystemInterface@@SA_NPEAVQWindow@@PEBVQPointingDevice@@AEBVQPointF@@2V?$QFlags@W4MouseButton@Qt@@@@W4MouseButton@Qt@@W4Type@QEvent@@V?$QFlags@W4KeyboardModifier@Qt@@@@W4MouseEventSource@6@@Z"
"??$handlePaintEvent@UAsynchronousDelivery@QWindowSystemInterface@@@QWindowSystemInterface@@SA_NPEAVQWindow@@AEBVQRegion@@@Z"
"??$handlePaintEvent@UDefaultDelivery@QWindowSystemInterface@@@QWindowSystemInterface@@SA_NPEAVQWindow@@AEBVQRegion@@@Z"
"??$handlePaintEvent@USynchronousDelivery@QWindowSystemInterface@@@QWindowSystemInterface@@SA_NPEAVQWindow@@AEBVQRegion@@@Z"
"??$handleSafeAreaMarginsChanged@UAsynchronousDelivery@QWindowSystemInterface@@@QWindowSystemInterface@@SAXPEAVQWindow@@@Z"
"??$handleSafeAreaMarginsChanged@UDefaultDelivery@QWindowSystemInterface@@@QWindowSystemInterface@@SAXPEAVQWindow@@@Z"
"??$handleSafeAreaMarginsChanged@USynchronousDelivery@QWindowSystemInterface@@@QWindowSystemInterface@@SAXPEAVQWindow@@@Z"
"??$handleThemeChange@UAsynchronousDelivery@QWindowSystemInterface@@@QWindowSystemInterface@@SAXPEAVQWindow@@@Z"
"??$handleThemeChange@UDefaultDelivery@QWindowSystemInterface@@@QWindowSystemInterface@@SAXPEAVQWindow@@@Z"
"??$handleThemeChange@USynchronousDelivery@QWindowSystemInterface@@@QWindowSystemInterface@@SAXPEAVQWindow@@@Z"
"??$handleTouchCancelEvent@UAsynchronousDelivery@QWindowSystemInterface@@@QWindowSystemInterface@@SA_NPEAVQWindow@@KPEBVQPointingDevice@@V?$QFlags@W4KeyboardModifier@Qt@@@@@Z"
"??$handleTouchCancelEvent@UAsynchronousDelivery@QWindowSystemInterface@@@QWindowSystemInterface@@SA_NPEAVQWindow@@PEBVQPointingDevice@@V?$QFlags@W4KeyboardModifier@Qt@@@@@Z"
"??$handleTouchCancelEvent@UDefaultDelivery@QWindowSystemInterface@@@QWindowSystemInterface@@SA_NPEAVQWindow@@KPEBVQPointingDevice@@V?$QFlags@W4KeyboardModifier@Qt@@@@@Z"
"??$handleTouchCancelEvent@UDefaultDelivery@QWindowSystemInterface@@@QWindowSystemInterface@@SA_NPEAVQWindow@@PEBVQPointingDevice@@V?$QFlags@W4KeyboardModifier@Qt@@@@@Z"
"??$handleTouchCancelEvent@USynchronousDelivery@QWindowSystemInterface@@@QWindowSystemInterface@@SA_NPEAVQWindow@@KPEBVQPointingDevice@@V?$QFlags@W4KeyboardModifier@Qt@@@@@Z"
"??$handleTouchCancelEvent@USynchronousDelivery@QWindowSystemInterface@@@QWindowSystemInterface@@SA_NPEAVQWindow@@PEBVQPointingDevice@@V?$QFlags@W4KeyboardModifier@Qt@@@@@Z"
"??$handleTouchEvent@UAsynchronousDelivery@QWindowSystemInterface@@@QWindowSystemInterface@@SA_NPEAVQWindow@@KPEBVQPointingDevice@@AEBV?$QList@UTouchPoint@QWindowSystemInterface@@@@V?$QFlags@W4KeyboardModifier@Qt@@@@@Z"
"??$handleTouchEvent@UAsynchronousDelivery@QWindowSystemInterface@@@QWindowSystemInterface@@SA_NPEAVQWindow@@PEBVQPointingDevice@@AEBV?$QList@UTouchPoint@QWindowSystemInterface@@@@V?$QFlags@W4KeyboardModifier@Qt@@@@@Z"
"??$handleTouchEvent@UDefaultDelivery@QWindowSystemInterface@@@QWindowSystemInterface@@SA_NPEAVQWindow@@KPEBVQPointingDevice@@AEBV?$QList@UTouchPoint@QWindowSystemInterface@@@@V?$QFlags@W4KeyboardModifier@Qt@@@@@Z"
"??$handleTouchEvent@UDefaultDelivery@QWindowSystemInterface@@@QWindowSystemInterface@@SA_NPEAVQWindow@@PEBVQPointingDevice@@AEBV?$QList@UTouchPoint@QWindowSystemInterface@@@@V?$QFlags@W4KeyboardModifier@Qt@@@@@Z"
"??$handleTouchEvent@USynchronousDelivery@QWindowSystemInterface@@@QWindowSystemInterface@@SA_NPEAVQWindow@@KPEBVQPointingDevice@@AEBV?$QList@UTouchPoint@QWindowSystemInterface@@@@V?$QFlags@W4KeyboardModifier@Qt@@@@@Z"
"??$handleTouchEvent@USynchronousDelivery@QWindowSystemInterface@@@QWindowSystemInterface@@SA_NPEAVQWindow@@PEBVQPointingDevice@@AEBV?$QList@UTouchPoint@QWindowSystemInterface@@@@V?$QFlags@W4KeyboardModifier@Qt@@@@@Z"
"??$handleWindowDevicePixelRatioChanged@UAsynchronousDelivery@QWindowSystemInterface@@@QWindowSystemInterface@@SAXPEAVQWindow@@@Z"
"??$handleWindowDevicePixelRatioChanged@UDefaultDelivery@QWindowSystemInterface@@@QWindowSystemInterface@@SAXPEAVQWindow@@@Z"
"??$handleWindowDevicePixelRatioChanged@USynchronousDelivery@QWindowSystemInterface@@@QWindowSystemInterface@@SAXPEAVQWindow@@@Z"
"??$handleWindowScreenChanged@UAsynchronousDelivery@QWindowSystemInterface@@@QWindowSystemInterface@@SAXPEAVQWindow@@PEAVQScreen@@@Z"
"??$handleWindowScreenChanged@UDefaultDelivery@QWindowSystemInterface@@@QWindowSystemInterface@@SAXPEAVQWindow@@PEAVQScreen@@@Z"
"??$handleWindowScreenChanged@USynchronousDelivery@QWindowSystemInterface@@@QWindowSystemInterface@@SAXPEAVQWindow@@PEAVQScreen@@@Z"
"??$handleWindowStateChanged@UAsynchronousDelivery@QWindowSystemInterface@@@QWindowSystemInterface@@SAXPEAVQWindow@@V?$QFlags@W4WindowState@Qt@@@@H@Z"
"??$handleWindowStateChanged@UDefaultDelivery@QWindowSystemInterface@@@QWindowSystemInterface@@SAXPEAVQWindow@@V?$QFlags@W4WindowState@Qt@@@@H@Z"
"??$handleWindowStateChanged@USynchronousDelivery@QWindowSystemInterface@@@QWindowSystemInterface@@SAXPEAVQWindow@@V?$QFlags@W4WindowState@Qt@@@@H@Z"
"??0ActivationObserver@QAccessible@@QEAA@AEBV01@@Z"
"??0ActivationObserver@QAccessible@@QEAA@XZ"
"??0Declaration@QCss@@QEAA@$$QEAU01@@Z"
"??0Declaration@QCss@@QEAA@AEBU01@@Z"
"??0Declaration@QCss@@QEAA@XZ"
"??0Gpu@QOpenGLConfig@@QEAA@$$QEAU01@@Z"
"??0Gpu@QOpenGLConfig@@QEAA@AEBU01@@Z"
"??0Gpu@QOpenGLConfig@@QEAA@XZ"
"??0Key@QPixmapCache@@QEAA@$$QEAV01@@Z"
"??0Key@QPixmapCache@@QEAA@AEBV01@@Z"
"??0Key@QPixmapCache@@QEAA@XZ"
"??0LayoutData@QTextEngine@@QEAA@AEBU01@@Z"
"??0LayoutData@QTextEngine@@QEAA@AEBVQString@@PEAPEAX_J@Z"
"??0LayoutData@QTextEngine@@QEAA@XZ"
"??0Parser@QCss@@QEAA@$$QEAV01@@Z"
"??0Parser@QCss@@QEAA@AEBV01@@Z"
"??0Parser@QCss@@QEAA@AEBVQString@@_N@Z"
"??0Parser@QCss@@QEAA@XZ"
"??0ProgramDesc@QOpenGLProgramBinaryCache@@QEAA@$$QEAU01@@Z"
"??0ProgramDesc@QOpenGLProgramBinaryCache@@QEAA@AEBU01@@Z"
"??0ProgramDesc@QOpenGLProgramBinaryCache@@QEAA@XZ"
"??0QAbstractFileIconEngine@@QEAA@$$QEAV0@@Z"
"??0QAbstractFileIconEngine@@QEAA@AEBV0@@Z"
"??0QAbstractFileIconEngine@@QEAA@AEBVQFileInfo@@V?$QFlags@W4IconOption@QPlatformTheme@@@@@Z"
"??0QAbstractFileIconProvider@@IEAA@AEAVQAbstractFileIconProviderPrivate@@@Z"
"??0QAbstractFileIconProvider@@QEAA@XZ"
"??0QAbstractFileIconProviderPrivate@@QEAA@PEAVQAbstractFileIconProvider@@@Z"
"??0QAbstractLayoutStyleInfo@@QEAA@AEBV0@@Z"
"??0QAbstractLayoutStyleInfo@@QEAA@XZ"
"??0QAbstractTextDocumentLayout@@IEAA@AEAVQAbstractTextDocumentLayoutPrivate@@PEAVQTextDocument@@@Z"
"??0QAbstractTextDocumentLayout@@QEAA@PEAVQTextDocument@@@Z"
"??0QAbstractTextDocumentLayoutPrivate@@QEAA@XZ"
"??0QAbstractUndoItem@@QEAA@AEBV0@@Z"
"??0QAbstractUndoItem@@QEAA@XZ"
"??0QAccessible@@AEAA@XZ"
"??0QAccessibleActionInterface@@QEAA@AEBV0@@Z"
"??0QAccessibleActionInterface@@QEAA@XZ"
"??0QAccessibleAnnouncementEvent@@QEAA@PEAVQAccessibleInterface@@AEBVQString@@@Z"
"??0QAccessibleAnnouncementEvent@@QEAA@PEAVQObject@@AEBVQString@@@Z"
"??0QAccessibleApplication@@QEAA@XZ"
"??0QAccessibleAttributesInterface@@QEAA@AEBV0@@Z"
"??0QAccessibleAttributesInterface@@QEAA@XZ"
"??0QAccessibleBridge@@QEAA@AEBV0@@Z"
"??0QAccessibleBridge@@QEAA@XZ"
"??0QAccessibleBridgePlugin@@QEAA@PEAVQObject@@@Z"
"??0QAccessibleCache@@QEAA@XZ"
"??0QAccessibleEditableTextInterface@@QEAA@AEBV0@@Z"
"??0QAccessibleEditableTextInterface@@QEAA@XZ"
"??0QAccessibleEvent@@QEAA@PEAVQAccessibleInterface@@W4Event@QAccessible@@@Z"
"??0QAccessibleEvent@@QEAA@PEAVQObject@@W4Event@QAccessible@@@Z"
"??0QAccessibleHyperlinkInterface@@QEAA@AEBV0@@Z"
"??0QAccessibleHyperlinkInterface@@QEAA@XZ"
"??0QAccessibleImageInterface@@QEAA@AEBV0@@Z"
"??0QAccessibleImageInterface@@QEAA@XZ"
"??0QAccessibleInterface@@QEAA@AEBV0@@Z"
"??0QAccessibleInterface@@QEAA@XZ"
"??0QAccessibleObject@@QEAA@PEAVQObject@@@Z"
"??0QAccessiblePlugin@@QEAA@PEAVQObject@@@Z"
"??0QAccessibleSelectionInterface@@QEAA@AEBV0@@Z"
"??0QAccessibleSelectionInterface@@QEAA@XZ"
"??0QAccessibleStateChangeEvent@@QEAA@PEAVQAccessibleInterface@@UState@QAccessible@@@Z"
"??0QAccessibleStateChangeEvent@@QEAA@PEAVQObject@@UState@QAccessible@@@Z"
"??0QAccessibleTableCellInterface@@QEAA@AEBV0@@Z"
"??0QAccessibleTableCellInterface@@QEAA@XZ"
"??0QAccessibleTableInterface@@QEAA@AEBV0@@Z"
"??0QAccessibleTableInterface@@QEAA@XZ"
"??0QAccessibleTableModelChangeEvent@@QEAA@PEAVQAccessibleInterface@@W4ModelChangeType@0@@Z"
"??0QAccessibleTableModelChangeEvent@@QEAA@PEAVQObject@@W4ModelChangeType@0@@Z"
"??0QAccessibleTextCursorEvent@@QEAA@PEAVQAccessibleInterface@@H@Z"
"??0QAccessibleTextCursorEvent@@QEAA@PEAVQObject@@H@Z"
"??0QAccessibleTextInsertEvent@@QEAA@PEAVQAccessibleInterface@@HAEBVQString@@@Z"
"??0QAccessibleTextInsertEvent@@QEAA@PEAVQObject@@HAEBVQString@@@Z"
"??0QAccessibleTextInterface@@QEAA@AEBV0@@Z"
"??0QAccessibleTextInterface@@QEAA@XZ"
"??0QAccessibleTextRemoveEvent@@QEAA@PEAVQAccessibleInterface@@HAEBVQString@@@Z"
"??0QAccessibleTextRemoveEvent@@QEAA@PEAVQObject@@HAEBVQString@@@Z"
"??0QAccessibleTextSelectionEvent@@QEAA@PEAVQAccessibleInterface@@HH@Z"
"??0QAccessibleTextSelectionEvent@@QEAA@PEAVQObject@@HH@Z"
"??0QAccessibleTextUpdateEvent@@QEAA@PEAVQAccessibleInterface@@HAEBVQString@@1@Z"
"??0QAccessibleTextUpdateEvent@@QEAA@PEAVQObject@@HAEBVQString@@1@Z"
"??0QAccessibleValueChangeEvent@@QEAA@PEAVQAccessibleInterface@@AEBVQVariant@@@Z"
"??0QAccessibleValueChangeEvent@@QEAA@PEAVQObject@@AEBVQVariant@@@Z"
"??0QAccessibleValueInterface@@QEAA@AEBV0@@Z"
"??0QAccessibleValueInterface@@QEAA@XZ"
"??0QAction@@IEAA@AEAVQActionPrivate@@PEAVQObject@@@Z"
"??0QAction@@QEAA@AEBVQIcon@@AEBVQString@@PEAVQObject@@@Z"
"??0QAction@@QEAA@AEBVQString@@PEAVQObject@@@Z"
"??0QAction@@QEAA@PEAVQObject@@@Z"
"??0QActionEvent@@IEAA@AEBV0@@Z"
"??0QActionEvent@@QEAA@HPEAVQAction@@0@Z"
"??0QActionGroup@@IEAA@AEAVQActionGroupPrivate@@PEAVQObject@@@Z"
"??0QActionGroup@@QEAA@PEAVQObject@@@Z"
"??0QActionGroupPrivate@@QEAA@XZ"
"??0QActionPrivate@@QEAA@XZ"
"??0QApplicationStateChangeEvent@@IEAA@AEBV0@@Z"
"??0QApplicationStateChangeEvent@@QEAA@W4ApplicationState@Qt@@@Z"
"??0QBackingStore@@QEAA@PEAVQWindow@@@Z"
"??0QBackingStoreRhiSupport@@QEAA@AEBV0@@Z"
"??0QBackingStoreRhiSupport@@QEAA@XZ"
"??0QBasicDrag@@IEAA@XZ"
"??0QBitmap@@QEAA@AEBV0@@Z"
"??0QBitmap@@QEAA@AEBVQPixmap@@@Z"
"??0QBitmap@@QEAA@AEBVQSize@@@Z"
"??0QBitmap@@QEAA@AEBVQString@@PEBD@Z"
"??0QBitmap@@QEAA@HH@Z"
"??0QBitmap@@QEAA@XZ"
"??0QBlittable@@QEAA@AEBV0@@Z"
"??0QBlittable@@QEAA@AEBVQSize@@V?$QFlags@W4Capability@QBlittable@@@@@Z"
"??0QBlittablePlatformPixmap@@QEAA@XZ"
"??0QBlitterPaintEngine@@QEAA@PEAVQBlittablePlatformPixmap@@@Z"
"??0QBrush@@QEAA@AEBV0@@Z"
"??0QBrush@@QEAA@AEBVQColor@@AEBVQPixmap@@@Z"
"??0QBrush@@QEAA@AEBVQColor@@W4BrushStyle@Qt@@@Z"
"??0QBrush@@QEAA@AEBVQGradient@@@Z"
"??0QBrush@@QEAA@AEBVQImage@@@Z"
"??0QBrush@@QEAA@AEBVQPixmap@@@Z"
"??0QBrush@@QEAA@W4BrushStyle@Qt@@@Z"
"??0QBrush@@QEAA@W4GlobalColor@Qt@@AEBVQPixmap@@@Z"
"??0QBrush@@QEAA@W4GlobalColor@Qt@@W4BrushStyle@2@@Z"
"??0QBrush@@QEAA@XZ"
"??0QChildWindowEvent@@IEAA@AEBV0@@Z"
"??0QChildWindowEvent@@QEAA@W4Type@QEvent@@PEAVQWindow@@@Z"
"??0QClipboard@@AEAA@PEAVQObject@@@Z"
"??0QCloseEvent@@IEAA@AEBV0@@Z"
"??0QCloseEvent@@QEAA@XZ"
"??0QColor@@QEAA@AEBVQString@@@Z"
"??0QColor@@QEAA@HHHH@Z"
"??0QColor@@QEAA@I@Z"
"??0QColor@@QEAA@PEBD@Z"
"??0QColor@@QEAA@VQLatin1String@@@Z"
"??0QColor@@QEAA@VQRgba64@@@Z"
"??0QColor@@QEAA@VQStringView@@@Z"
"??0QColor@@QEAA@W4GlobalColor@Qt@@@Z"
"??0QColor@@QEAA@W4Spec@0@@Z"
"??0QColor@@QEAA@W4Spec@0@GGGGG@Z"
"??0QColor@@QEAA@XZ"
"??0QColorDialogOptions@@IEAA@PEAVQColorDialogOptionsPrivate@@@Z"
"??0QColorSpace@@QEAA@$$QEAV0@@Z"
"??0QColorSpace@@QEAA@AEBV0@@Z"
"??0QColorSpace@@QEAA@AEBVQPointF@@000AEBV?$QList@G@@11@Z"
"??0QColorSpace@@QEAA@AEBVQPointF@@000AEBV?$QList@G@@@Z"
"??0QColorSpace@@QEAA@AEBVQPointF@@000W4TransferFunction@0@M@Z"
"??0QColorSpace@@QEAA@VQPointF@@AEBV?$QList@G@@@Z"
"??0QColorSpace@@QEAA@VQPointF@@W4TransferFunction@0@M@Z"
"??0QColorSpace@@QEAA@W4NamedColorSpace@0@@Z"
"??0QColorSpace@@QEAA@W4Primaries@0@AEBV?$QList@G@@@Z"
"??0QColorSpace@@QEAA@W4Primaries@0@M@Z"
"??0QColorSpace@@QEAA@W4Primaries@0@W4TransferFunction@0@M@Z"
"??0QColorSpace@@QEAA@XZ"
"??0QColorTransferTable@@QEAA@$$QEAV0@@Z"
"??0QColorTransferTable@@QEAA@AEBV0@@Z"
"??0QColorTransferTable@@QEAA@IAEBV?$QList@E@@W4Type@0@@Z"
"??0QColorTransferTable@@QEAA@IAEBV?$QList@G@@W4Type@0@@Z"
"??0QColorTransferTable@@QEAA@XZ"
"??0QColorTransform@@QEAA@AEBV0@@Z"
"??0QColorTrc@@QEAA@$$QEAV0@@Z"
"??0QColorTrc@@QEAA@$$QEAVQColorTransferFunction@@@Z"
"??0QColorTrc@@QEAA@$$QEAVQColorTransferGenericFunction@@@Z"
"??0QColorTrc@@QEAA@$$QEAVQColorTransferTable@@@Z"
"??0QColorTrc@@QEAA@AEBV0@@Z"
"??0QColorTrc@@QEAA@AEBVQColorTransferFunction@@@Z"
"??0QColorTrc@@QEAA@AEBVQColorTransferGenericFunction@@@Z"
"??0QColorTrc@@QEAA@AEBVQColorTransferTable@@@Z"
"??0QColorTrc@@QEAA@XZ"
"??0QColorTrcLut@@AEAA@XZ"
"??0QColorTrcLut@@QEAA@$$QEAV0@@Z"
"??0QConicalGradient@@QEAA@AEBV0@@Z"
"??0QConicalGradient@@QEAA@AEBVQPointF@@N@Z"
"??0QConicalGradient@@QEAA@NNN@Z"
"??0QConicalGradient@@QEAA@XZ"
"??0QContextMenuEvent@@IEAA@AEBV0@@Z"
"??0QContextMenuEvent@@QEAA@W4Reason@0@AEBVQPoint@@1V?$QFlags@W4KeyboardModifier@Qt@@@@@Z"
"??0QContextMenuEvent@@QEAA@W4Reason@0@AEBVQPoint@@@Z"
"??0QCursor@@QEAA@$$QEAV0@@Z"
"??0QCursor@@QEAA@AEBV0@@Z"
"??0QCursor@@QEAA@AEBVQBitmap@@0HH@Z"
"??0QCursor@@QEAA@AEBVQPixmap@@HH@Z"
"??0QCursor@@QEAA@W4CursorShape@Qt@@@Z"
"??0QCursor@@QEAA@XZ"
"??0QDashStroker@@QEAA@PEAVQStroker@@@Z"
"??0QDashedStrokeProcessor@@QEAA@XZ"
"??0QDistanceField@@AEAA@PEAVQDistanceFieldData@@@Z"
"??0QDistanceField@@QEAA@$$QEAV0@@Z"
"??0QDistanceField@@QEAA@AEBV0@@Z"
"??0QDistanceField@@QEAA@AEBVQPainterPath@@I_N@Z"
"??0QDistanceField@@QEAA@AEBVQRawFont@@I_N@Z"
"??0QDistanceField@@QEAA@HH@Z"
"??0QDistanceField@@QEAA@PEAVQFontEngine@@I_N@Z"
"??0QDistanceField@@QEAA@VQSize@@AEBVQPainterPath@@I_N@Z"
"??0QDistanceField@@QEAA@XZ"
"??0QDistanceFieldData@@QEAA@AEBV0@@Z"
"??0QDistanceFieldData@@QEAA@XZ"
"??0QDoubleValidator@@QEAA@NNHPEAVQObject@@@Z"
"??0QDoubleValidator@@QEAA@PEAVQObject@@@Z"
"??0QDrag@@QEAA@PEAVQObject@@@Z"
"??0QDragEnterEvent@@IEAA@AEBV0@@Z"
"??0QDragEnterEvent@@QEAA@AEBVQPoint@@V?$QFlags@W4DropAction@Qt@@@@PEBVQMimeData@@V?$QFlags@W4MouseButton@Qt@@@@V?$QFlags@W4KeyboardModifier@Qt@@@@@Z"
"??0QDragLeaveEvent@@IEAA@AEBV0@@Z"
"??0QDragLeaveEvent@@QEAA@XZ"
"??0QDragManager@@QEAA@XZ"
"??0QDragMoveEvent@@IEAA@AEBV0@@Z"
"??0QDragMoveEvent@@QEAA@AEBVQPoint@@V?$QFlags@W4DropAction@Qt@@@@PEBVQMimeData@@V?$QFlags@W4MouseButton@Qt@@@@V?$QFlags@W4KeyboardModifier@Qt@@@@W4Type@QEvent@@@Z"
"??0QDropEvent@@IEAA@AEBV0@@Z"
"??0QDropEvent@@QEAA@AEBVQPointF@@V?$QFlags@W4DropAction@Qt@@@@PEBVQMimeData@@V?$QFlags@W4MouseButton@Qt@@@@V?$QFlags@W4KeyboardModifier@Qt@@@@W4Type@QEvent@@@Z"
"??0QEdidParser@@QEAA@$$QEAV0@@Z"
"??0QEdidParser@@QEAA@AEBV0@@Z"
"??0QEdidParser@@QEAA@XZ"
"??0QEnterEvent@@IEAA@AEBV0@@Z"
"??0QEnterEvent@@QEAA@AEBVQPointF@@00PEBVQPointingDevice@@@Z"
"??0QEventPoint@@QEAA@$$QEAV0@@Z"
"??0QEventPoint@@QEAA@AEBV0@@Z"
"??0QEventPoint@@QEAA@HPEBVQPointingDevice@@@Z"
"??0QEventPoint@@QEAA@HW4State@0@AEBVQPointF@@1@Z"
"??0QExposeEvent@@IEAA@AEBV0@@Z"
"??0QExposeEvent@@QEAA@AEBVQRegion@@@Z"
"??0QFileDialogOptions@@IEAA@PEAVQFileDialogOptionsPrivate@@@Z"
"??0QFileInfoGatherer@@QEAA@PEAVQObject@@@Z"
"??0QFileOpenEvent@@IEAA@AEBV0@@Z"
"??0QFileOpenEvent@@QEAA@AEBVQString@@@Z"
"??0QFileOpenEvent@@QEAA@AEBVQUrl@@@Z"
"??0QFileSystemModel@@IEAA@AEAVQFileSystemModelPrivate@@PEAVQObject@@@Z"
"??0QFileSystemModel@@QEAA@PEAVQObject@@@Z"
"??0QFileSystemModelPrivate@@QEAA@XZ"
"??0QFocusEvent@@IEAA@AEBV0@@Z"
"??0QFocusEvent@@QEAA@W4Type@QEvent@@W4FocusReason@Qt@@@Z"
"??0QFont@@AEAA@PEAVQFontPrivate@@@Z"
"??0QFont@@QEAA@AEBV0@@Z"
"??0QFont@@QEAA@AEBV0@PEBVQPaintDevice@@@Z"
"??0QFont@@QEAA@AEBV?$QList@VQString@@@@HH_N@Z"
"??0QFont@@QEAA@AEBVQString@@HH_N@Z"
"??0QFont@@QEAA@XZ"
"??0QFontCache@@QEAA@XZ"
"??0QFontDatabasePrivate@@QEAA@XZ"
"??0QFontDialogOptions@@IEAA@PEAVQFontDialogOptionsPrivate@@@Z"
"??0QFontEngine@@IEAA@W4Type@0@@Z"
"??0QFontEngineGlyphCache@@QEAA@AEBV0@@Z"
"??0QFontEngineGlyphCache@@QEAA@W4GlyphFormat@QFontEngine@@AEBVQTransform@@AEBVQColor@@@Z"
"??0QFontEngineMulti@@QEAA@PEAVQFontEngine@@HAEBV?$QList@VQString@@@@@Z"
"??0QFontInfo@@QEAA@AEBV0@@Z"
"??0QFontInfo@@QEAA@AEBVQFont@@@Z"
"??0QFontMetrics@@QEAA@AEBV0@@Z"
"??0QFontMetrics@@QEAA@AEBVQFont@@@Z"
"??0QFontMetrics@@QEAA@AEBVQFont@@PEBVQPaintDevice@@@Z"
"??0QFontMetricsF@@QEAA@AEBV0@@Z"
"??0QFontMetricsF@@QEAA@AEBVQFont@@@Z"
"??0QFontMetricsF@@QEAA@AEBVQFont@@PEBVQPaintDevice@@@Z"
"??0QFontMetricsF@@QEAA@AEBVQFontMetrics@@@Z"
"??0QFontPrivate@@QEAA@AEBV0@@Z"
"??0QFontPrivate@@QEAA@XZ"
"??0QGenericPlugin@@QEAA@PEAVQObject@@@Z"
"??0QGlyphRun@@QEAA@AEBV0@@Z"
"??0QGlyphRun@@QEAA@XZ"
"??0QGradient@@QEAA@AEBV0@@Z"
"??0QGradient@@QEAA@W4Preset@0@@Z"
"??0QGradient@@QEAA@XZ"
"??0QGridLayoutBox@@QEAA@XZ"
"??0QGridLayoutEngine@@QEAA@AEBV0@@Z"
"??0QGridLayoutEngine@@QEAA@V?$QFlags@W4AlignmentFlag@Qt@@@@_N@Z"
"??0QGridLayoutItem@@QEAA@AEBV0@@Z"
"??0QGridLayoutItem@@QEAA@HHHHV?$QFlags@W4AlignmentFlag@Qt@@@@@Z"
"??0QGuiApplication@@IEAA@AEAVQGuiApplicationPrivate@@@Z"
"??0QGuiApplication@@QEAA@AEAHPEAPEADH@Z"
"??0QGuiApplicationPrivate@@QEAA@AEAHPEAPEAD@Z"
"??0QHelpEvent@@IEAA@AEBV0@@Z"
"??0QHelpEvent@@QEAA@W4Type@QEvent@@AEBVQPoint@@1@Z"
"??0QHideEvent@@IEAA@AEBV0@@Z"
"??0QHideEvent@@QEAA@XZ"
"??0QHoverEvent@@IEAA@AEBV0@@Z"
"??0QHoverEvent@@QEAA@W4Type@QEvent@@AEBVQPointF@@11V?$QFlags@W4KeyboardModifier@Qt@@@@PEBVQPointingDevice@@@Z"
"??0QHoverEvent@@QEAA@W4Type@QEvent@@AEBVQPointF@@1V?$QFlags@W4KeyboardModifier@Qt@@@@PEBVQPointingDevice@@@Z"
"??0QIcon@@QEAA@$$QEAV0@@Z"
"??0QIcon@@QEAA@AEBV0@@Z"
"??0QIcon@@QEAA@AEBVQPixmap@@@Z"
"??0QIcon@@QEAA@AEBVQString@@@Z"
"??0QIcon@@QEAA@PEAVQIconEngine@@@Z"
"??0QIcon@@QEAA@XZ"
"??0QIconDragEvent@@IEAA@AEBV0@@Z"
"??0QIconDragEvent@@QEAA@XZ"
"??0QIconEngine@@IEAA@AEBV0@@Z"
"??0QIconEngine@@QEAA@XZ"
"??0QIconEnginePlugin@@QEAA@PEAVQObject@@@Z"
"??0QIconLoader@@QEAA@$$QEAV0@@Z"
"??0QIconLoader@@QEAA@AEBV0@@Z"
"??0QIconLoader@@QEAA@XZ"
"??0QImage@@QEAA@$$QEAV0@@Z"
"??0QImage@@QEAA@AEBV0@@Z"
"??0QImage@@QEAA@AEBVQSize@@W4Format@0@@Z"
"??0QImage@@QEAA@AEBVQString@@PEBD@Z"
"??0QImage@@QEAA@HHW4Format@0@@Z"
"??0QImage@@QEAA@PEAEHHW4Format@0@P6AXPEAX@Z2@Z"
"??0QImage@@QEAA@PEAEHH_JW4Format@0@P6AXPEAX@Z3@Z"
"??0QImage@@QEAA@PEBEHHW4Format@0@P6AXPEAX@Z2@Z"
"??0QImage@@QEAA@PEBEHH_JW4Format@0@P6AXPEAX@Z3@Z"
"??0QImage@@QEAA@QEBQEBD@Z"
"??0QImage@@QEAA@XZ"
"??0QImageData@@QEAA@AEBU0@@Z"
"??0QImageData@@QEAA@XZ"
"??0QImageIOHandler@@IEAA@AEAVQImageIOHandlerPrivate@@@Z"
"??0QImageIOHandler@@QEAA@XZ"
"??0QImageIOPlugin@@QEAA@PEAVQObject@@@Z"
"??0QImagePixmapCleanupHooks@@QEAA@$$QEAV0@@Z"
"??0QImagePixmapCleanupHooks@@QEAA@AEBV0@@Z"
"??0QImagePixmapCleanupHooks@@QEAA@XZ"
"??0QImageReader@@QEAA@AEBVQString@@AEBVQByteArray@@@Z"
"??0QImageReader@@QEAA@PEAVQIODevice@@AEBVQByteArray@@@Z"
"??0QImageReader@@QEAA@XZ"
"??0QImageTextureGlyphCache@@QEAA@AEBV0@@Z"
"??0QImageTextureGlyphCache@@QEAA@W4GlyphFormat@QFontEngine@@AEBVQTransform@@AEBVQColor@@@Z"
"??0QImageWriter@@QEAA@AEBVQString@@AEBVQByteArray@@@Z"
"??0QImageWriter@@QEAA@PEAVQIODevice@@AEBVQByteArray@@@Z"
"??0QImageWriter@@QEAA@XZ"
"??0QInputControl@@IEAA@W4Type@0@AEAVQObjectPrivate@@PEAVQObject@@@Z"
"??0QInputControl@@QEAA@W4Type@0@PEAVQObject@@@Z"
"??0QInputDevice@@IEAA@AEAVQInputDevicePrivate@@PEAVQObject@@@Z"
"??0QInputDevice@@QEAA@AEBVQString@@_JW4DeviceType@0@0PEAVQObject@@@Z"
"??0QInputDevice@@QEAA@PEAVQObject@@@Z"
"??0QInputDeviceManager@@QEAA@PEAVQObject@@@Z"
"??0QInputDeviceManagerPrivate@@QEAA@XZ"
"??0QInputDevicePrivate@@QEAA@AEBVQString@@_JW4DeviceType@QInputDevice@@V?$QFlags@W4Capability@QInputDevice@@@@0@Z"
"??0QInputEvent@@IEAA@AEBV0@@Z"
"??0QInputEvent@@IEAA@W4Type@QEvent@@UPointerEventTag@2@PEBVQInputDevice@@V?$QFlags@W4KeyboardModifier@Qt@@@@@Z"
"??0QInputEvent@@IEAA@W4Type@QEvent@@USinglePointEventTag@2@PEBVQInputDevice@@V?$QFlags@W4KeyboardModifier@Qt@@@@@Z"
"??0QInputEvent@@QEAA@W4Type@QEvent@@PEBVQInputDevice@@V?$QFlags@W4KeyboardModifier@Qt@@@@@Z"
"??0QInputMethod@@AEAA@XZ"
"??0QInputMethodEvent@@IEAA@AEBV0@@Z"
"??0QInputMethodEvent@@QEAA@AEBVQString@@AEBV?$QList@VAttribute@QInputMethodEvent@@@@@Z"
"??0QInputMethodEvent@@QEAA@XZ"
"??0QInputMethodQueryEvent@@IEAA@AEBV0@@Z"
"??0QInputMethodQueryEvent@@QEAA@V?$QFlags@W4InputMethodQuery@Qt@@@@@Z"
"??0QIntValidator@@QEAA@HHPEAVQObject@@@Z"
"??0QIntValidator@@QEAA@PEAVQObject@@@Z"
"??0QInternalMimeData@@QEAA@XZ"
"??0QKeyEvent@@IEAA@AEBV0@@Z"
"??0QKeyEvent@@QEAA@W4Type@QEvent@@HV?$QFlags@W4KeyboardModifier@Qt@@@@AEBVQString@@_NG@Z"
"??0QKeyEvent@@QEAA@W4Type@QEvent@@HV?$QFlags@W4KeyboardModifier@Qt@@@@IIIAEBVQString@@_NGPEBVQInputDevice@@@Z"
"??0QKeyMapper@@QEAA@XZ"
"??0QKeySequence@@QEAA@AEBV0@@Z"
"??0QKeySequence@@QEAA@AEBVQString@@W4SequenceFormat@0@@Z"
"??0QKeySequence@@QEAA@HHHH@Z"
"??0QKeySequence@@QEAA@VQKeyCombination@@000@Z"
"??0QKeySequence@@QEAA@W4StandardKey@0@@Z"
"??0QKeySequence@@QEAA@XZ"
"??0QLinearGradient@@QEAA@AEBV0@@Z"
"??0QLinearGradient@@QEAA@AEBVQPointF@@0@Z"
"??0QLinearGradient@@QEAA@NNNN@Z"
"??0QLinearGradient@@QEAA@XZ"
"??0QMatrix4x4@@QEAA@AEBVQTransform@@@Z"
"??0QMatrix4x4@@QEAA@MMMMMMMMMMMMMMMM@Z"
"??0QMatrix4x4@@QEAA@PEBM@Z"
"??0QMatrix4x4@@QEAA@PEBMHH@Z"
"??0QMatrix4x4@@QEAA@W4Initialization@Qt@@@Z"
"??0QMatrix4x4@@QEAA@XZ"
"??0QMessageDialogOptions@@IEAA@PEAVQMessageDialogOptionsPrivate@@@Z"
"??0QMouseEvent@@IEAA@AEBV0@@Z"
"??0QMouseEvent@@QEAA@W4Type@QEvent@@AEBVQPointF@@11W4MouseButton@Qt@@V?$QFlags@W4MouseButton@Qt@@@@V?$QFlags@W4KeyboardModifier@Qt@@@@PEBVQPointingDevice@@@Z"
"??0QMouseEvent@@QEAA@W4Type@QEvent@@AEBVQPointF@@11W4MouseButton@Qt@@V?$QFlags@W4MouseButton@Qt@@@@V?$QFlags@W4KeyboardModifier@Qt@@@@W4MouseEventSource@5@PEBVQPointingDevice@@@Z"
"??0QMouseEvent@@QEAA@W4Type@QEvent@@AEBVQPointF@@1W4MouseButton@Qt@@V?$QFlags@W4MouseButton@Qt@@@@V?$QFlags@W4KeyboardModifier@Qt@@@@PEBVQPointingDevice@@@Z"
"??0QMouseEvent@@QEAA@W4Type@QEvent@@AEBVQPointF@@W4MouseButton@Qt@@V?$QFlags@W4MouseButton@Qt@@@@V?$QFlags@W4KeyboardModifier@Qt@@@@PEBVQPointingDevice@@@Z"
"??0QMoveEvent@@IEAA@AEBV0@@Z"
"??0QMoveEvent@@QEAA@AEBVQPoint@@0@Z"
"??0QMovie@@QEAA@AEBVQString@@AEBVQByteArray@@PEAVQObject@@@Z"
"??0QMovie@@QEAA@PEAVQIODevice@@AEBVQByteArray@@PEAVQObject@@@Z"
"??0QMovie@@QEAA@PEAVQObject@@@Z"
"??0QMutableSinglePointEvent@@QEAA@AEBV0@@Z"
"??0QMutableSinglePointEvent@@QEAA@AEBVQSinglePointEvent@@@Z"
"??0QMutableSinglePointEvent@@QEAA@W4Type@QEvent@@PEBVQPointingDevice@@AEBVQEventPoint@@W4MouseButton@Qt@@V?$QFlags@W4MouseButton@Qt@@@@V?$QFlags@W4KeyboardModifier@Qt@@@@W4MouseEventSource@6@@Z"
"??0QMutableTouchEvent@@QEAA@AEBV0@@Z"
"??0QMutableTouchEvent@@QEAA@W4Type@QEvent@@PEBVQPointingDevice@@V?$QFlags@W4KeyboardModifier@Qt@@@@AEBV?$QList@VQEventPoint@@@@@Z"
"??0QNativeGestureEvent@@IEAA@AEBV0@@Z"
"??0QNativeGestureEvent@@QEAA@W4NativeGestureType@Qt@@PEBVQPointingDevice@@AEBVQPointF@@22N_K3@Z"
"??0QNativeGestureEvent@@QEAA@W4NativeGestureType@Qt@@PEBVQPointingDevice@@HAEBVQPointF@@22N2_K@Z"
"??0QOffscreenSurface@@QEAA@PEAVQScreen@@PEAVQObject@@@Z"
"??0QOffscreenSurfacePrivate@@QEAA@XZ"
"??0QOpenGLContext@@QEAA@PEAVQObject@@@Z"
"??0QOpenGLContextGroup@@AEAA@XZ"
"??0QOpenGLContextGroupPrivate@@QEAA@XZ"
"??0QOpenGLContextPrivate@@QEAA@XZ"
"??0QOpenGLContextVersionFunctionHelper@@QEAA@AEBV0@@Z"
"??0QOpenGLContextVersionFunctionHelper@@QEAA@XZ"
"??0QOpenGLExtensionMatcher@@QEAA@$$QEAV0@@Z"
"??0QOpenGLExtensionMatcher@@QEAA@AEBV0@@Z"
"??0QOpenGLExtensionMatcher@@QEAA@XZ"
"??0QOpenGLExtensions@@QEAA@PEAVQOpenGLContext@@@Z"
"??0QOpenGLExtensions@@QEAA@XZ"
"??0QOpenGLExtraFunctions@@QEAA@PEAVQOpenGLContext@@@Z"
"??0QOpenGLExtraFunctions@@QEAA@XZ"
"??0QOpenGLFunctions@@QEAA@PEAVQOpenGLContext@@@Z"
"??0QOpenGLFunctions@@QEAA@XZ"
"??0QOpenGLMultiGroupSharedResource@@QEAA@XZ"
"??0QOpenGLProgramBinaryCache@@QEAA@XZ"
"??0QOpenGLProgramBinarySupportCheck@@QEAA@PEAVQOpenGLContext@@@Z"
"??0QOpenGLSharedResource@@QEAA@PEAVQOpenGLContextGroup@@@Z"
"??0QOpenGLSharedResourceGuard@@QEAA@PEAVQOpenGLContext@@IP6AXPEAVQOpenGLFunctions@@I@Z@Z"
"??0QPageLayout@@QEAA@AEBV0@@Z"
"??0QPageLayout@@QEAA@AEBVQPageSize@@W4Orientation@0@AEBVQMarginsF@@W4Unit@0@2@Z"
"??0QPageLayout@@QEAA@XZ"
"??0QPageRanges@@QEAA@$$QEAV0@@Z"
"??0QPageRanges@@QEAA@AEBV0@@Z"
"??0QPageRanges@@QEAA@XZ"
"??0QPageSize@@AEAA@AEAVQPageSizePrivate@@@Z"
"??0QPageSize@@AEAA@AEBVQString@@AEBVQSize@@0@Z"
"??0QPageSize@@AEAA@HAEBVQSize@@AEBVQString@@@Z"
"??0QPageSize@@QEAA@AEBV0@@Z"
"??0QPageSize@@QEAA@AEBVQSize@@AEBVQString@@W4SizeMatchPolicy@0@@Z"
"??0QPageSize@@QEAA@AEBVQSizeF@@W4Unit@0@AEBVQString@@W4SizeMatchPolicy@0@@Z"
"??0QPageSize@@QEAA@W4PageSizeId@0@@Z"
"??0QPageSize@@QEAA@XZ"
"??0QPagedPaintDevice@@IEAA@PEAVQPagedPaintDevicePrivate@@@Z"
"??0QPagedPaintDevicePrivate@@QEAA@AEBV0@@Z"
"??0QPagedPaintDevicePrivate@@QEAA@XZ"
"??0QPaintDevice@@IEAA@XZ"
"??0QPaintDeviceWindow@@IEAA@AEAVQPaintDeviceWindowPrivate@@PEAVQWindow@@@Z"
"??0QPaintDeviceWindowPrivate@@QEAA@XZ"
"??0QPaintEngine@@IEAA@AEAVQPaintEnginePrivate@@V?$QFlags@W4PaintEngineFeature@QPaintEngine@@@@@Z"
"??0QPaintEngine@@QEAA@V?$QFlags@W4PaintEngineFeature@QPaintEngine@@@@@Z"
"??0QPaintEngineEx@@IEAA@AEAVQPaintEngineExPrivate@@@Z"
"??0QPaintEngineEx@@QEAA@XZ"
"??0QPaintEngineExPrivate@@QEAA@XZ"
"??0QPaintEnginePrivate@@QEAA@AEBV0@@Z"
"??0QPaintEnginePrivate@@QEAA@XZ"
"??0QPaintEngineState@@QEAA@XZ"
"??0QPaintEvent@@IEAA@AEBV0@@Z"
"??0QPaintEvent@@QEAA@AEBVQRect@@@Z"
"??0QPaintEvent@@QEAA@AEBVQRegion@@@Z"
"??0QPainter@@QEAA@PEAVQPaintDevice@@@Z"
"??0QPainter@@QEAA@XZ"
"??0QPainterPath@@QEAA@AEBV0@@Z"
"??0QPainterPath@@QEAA@AEBVQPointF@@@Z"
"??0QPainterPath@@QEAA@XZ"
"??0QPainterPathStroker@@QEAA@AEBVQPen@@@Z"
"??0QPainterPathStroker@@QEAA@XZ"
"??0QPainterState@@QEAA@AEBV0@@Z"
"??0QPainterState@@QEAA@PEBV0@@Z"
"??0QPainterState@@QEAA@XZ"
"??0QPalette@@QEAA@$$QEAV0@@Z"
"??0QPalette@@QEAA@AEBV0@@Z"
"??0QPalette@@QEAA@AEBVQBrush@@00000000@Z"
"??0QPalette@@QEAA@AEBVQColor@@000000@Z"
"??0QPalette@@QEAA@AEBVQColor@@0@Z"
"??0QPalette@@QEAA@AEBVQColor@@@Z"
"??0QPalette@@QEAA@W4GlobalColor@Qt@@@Z"
"??0QPalette@@QEAA@XZ"
"??0QPalettePrivate@@QEAA@$$QEAV0@@Z"
"??0QPalettePrivate@@QEAA@AEBV0@@Z"
"??0QPalettePrivate@@QEAA@AEBV?$QExplicitlySharedDataPointer@VData@QPalettePrivate@@@@@Z"
"??0QPalettePrivate@@QEAA@XZ"
"??0QPathClipper@@QEAA@AEBVQPainterPath@@0@Z"
"??0QPen@@QEAA@$$QEAV0@@Z"
"??0QPen@@QEAA@AEBV0@@Z"
"??0QPen@@QEAA@AEBVQBrush@@NW4PenStyle@Qt@@W4PenCapStyle@3@W4PenJoinStyle@3@@Z"
"??0QPen@@QEAA@AEBVQColor@@@Z"
"??0QPen@@QEAA@W4PenStyle@Qt@@@Z"
"??0QPen@@QEAA@XZ"
"??0QPicture@@IEAA@AEAVQPicturePrivate@@@Z"
"??0QPicture@@QEAA@AEBV0@@Z"
"??0QPicture@@QEAA@H@Z"
"??0QPixmap@@AEAA@AEBVQSize@@H@Z"
"??0QPixmap@@QEAA@$$QEAV0@@Z"
"??0QPixmap@@QEAA@AEBV0@@Z"
"??0QPixmap@@QEAA@AEBVQSize@@@Z"
"??0QPixmap@@QEAA@AEBVQString@@PEBDV?$QFlags@W4ImageConversionFlag@Qt@@@@@Z"
"??0QPixmap@@QEAA@HH@Z"
"??0QPixmap@@QEAA@PEAVQPlatformPixmap@@@Z"
"??0QPixmap@@QEAA@QEBQEBD@Z"
"??0QPixmap@@QEAA@XZ"
"??0QPixmapIconEngine@@QEAA@AEBV0@@Z"
"??0QPixmapIconEngine@@QEAA@XZ"
"??0QPlatformAccessibility@@QEAA@AEBV0@@Z"
"??0QPlatformAccessibility@@QEAA@XZ"
"??0QPlatformBackingStore@@QEAA@AEBV0@@Z"
"??0QPlatformBackingStore@@QEAA@PEAVQWindow@@@Z"
"??0QPlatformBackingStoreRhiConfig@@QEAA@W4Api@0@@Z"
"??0QPlatformBackingStoreRhiConfig@@QEAA@XZ"
"??0QPlatformClipboard@@QEAA@XZ"
"??0QPlatformColorDialogHelper@@QEAA@XZ"
"??0QPlatformCursor@@QEAA@XZ"
"??0QPlatformCursorImage@@QEAA@$$QEAV0@@Z"
"??0QPlatformCursorImage@@QEAA@AEBV0@@Z"
"??0QPlatformCursorImage@@QEAA@PEBE0HHHH@Z"
"??0QPlatformDialogHelper@@QEAA@XZ"
"??0QPlatformDrag@@QEAA@XZ"
"??0QPlatformDragQtResponse@@QEAA@_NW4DropAction@Qt@@VQRect@@@Z"
"??0QPlatformDropQtResponse@@QEAA@_NW4DropAction@Qt@@@Z"
"??0QPlatformFileDialogHelper@@QEAA@XZ"
"??0QPlatformFontDatabase@@QEAA@AEBV0@@Z"
"??0QPlatformFontDatabase@@QEAA@XZ"
"??0QPlatformFontDialogHelper@@QEAA@XZ"
"??0QPlatformGraphicsBuffer@@IEAA@AEBVQSize@@AEBVQPixelFormat@@@Z"
"??0QPlatformInputContext@@QEAA@XZ"
"??0QPlatformInputContextPlugin@@QEAA@PEAVQObject@@@Z"
"??0QPlatformIntegration@@IEAA@XZ"
"??0QPlatformIntegrationPlugin@@QEAA@PEAVQObject@@@Z"
"??0QPlatformKeyMapper@@QEAA@AEBV0@@Z"
"??0QPlatformKeyMapper@@QEAA@XZ"
"??0QPlatformMenu@@QEAA@XZ"
"??0QPlatformMenuBar@@QEAA@XZ"
"??0QPlatformMenuItem@@QEAA@XZ"
"??0QPlatformMessageDialogHelper@@QEAA@XZ"
"??0QPlatformNativeInterface@@QEAA@XZ"
"??0QPlatformOffscreenSurface@@QEAA@PEAVQOffscreenSurface@@@Z"
"??0QPlatformOpenGLContext@@QEAA@XZ"
"??0QPlatformPixmap@@QEAA@AEBV0@@Z"
"??0QPlatformPixmap@@QEAA@W4PixelType@0@H@Z"
"??0QPlatformPlaceholderScreen@@QEAA@_N@Z"
"??0QPlatformScreen@@QEAA@XZ"
"??0QPlatformServiceColorPicker@@IEAA@AEAVQObjectPrivate@@PEAVQObject@@@Z"
"??0QPlatformServiceColorPicker@@QEAA@PEAVQObject@@@Z"
"??0QPlatformServiceColorPicker@@QEAA@XZ"
"??0QPlatformServices@@QEAA@XZ"
"??0QPlatformSessionManager@@QEAA@AEBVQString@@0@Z"
"??0QPlatformSharedGraphicsCache@@QEAA@PEAVQObject@@@Z"
"??0QPlatformSurface@@AEAA@PEAVQSurface@@@Z"
"??0QPlatformSurfaceEvent@@IEAA@AEBV0@@Z"
"??0QPlatformSurfaceEvent@@QEAA@W4SurfaceEventType@0@@Z"
"??0QPlatformSystemTrayIcon@@QEAA@XZ"
"??0QPlatformTextureList@@QEAA@PEAVQObject@@@Z"
"??0QPlatformTheme@@IEAA@PEAVQPlatformThemePrivate@@@Z"
"??0QPlatformTheme@@QEAA@XZ"
"??0QPlatformThemePlugin@@QEAA@PEAVQObject@@@Z"
"??0QPlatformThemePrivate@@QEAA@AEBV0@@Z"
"??0QPlatformThemePrivate@@QEAA@XZ"
"??0QPlatformWindow@@QEAA@PEAVQWindow@@@Z"
"??0QPointerEvent@@IEAA@AEBV0@@Z"
"??0QPointerEvent@@IEAA@W4Type@QEvent@@USinglePointEventTag@2@PEBVQInputDevice@@V?$QFlags@W4KeyboardModifier@Qt@@@@@Z"
"??0QPointerEvent@@QEAA@W4Type@QEvent@@PEBVQPointingDevice@@V?$QFlags@W4KeyboardModifier@Qt@@@@AEBV?$QList@VQEventPoint@@@@@Z"
"??0QPointingDevice@@IEAA@AEAVQPointingDevicePrivate@@PEAVQObject@@@Z"
"??0QPointingDevice@@QEAA@AEBVQString@@_JW4DeviceType@QInputDevice@@W4PointerType@0@V?$QFlags@W4Capability@QInputDevice@@@@HH0VQPointingDeviceUniqueId@@PEAVQObject@@@Z"
"??0QPointingDevice@@QEAA@PEAVQObject@@@Z"
"??0QPointingDevicePrivate@@QEAA@AEBVQString@@_JW4DeviceType@QInputDevice@@W4PointerType@QPointingDevice@@V?$QFlags@W4Capability@QInputDevice@@@@HH0VQPointingDeviceUniqueId@@@Z"
"??0QPointingDeviceUniqueId@@QEAA@XZ"
"??0QPolygon@@QEAA@AEBVQRect@@_N@Z"
"??0QPolygon@@QEAA@HPEBH@Z"
"??0QPolygonF@@QEAA@AEBVQPolygon@@@Z"
"??0QPolygonF@@QEAA@AEBVQRectF@@@Z"
"??0QQuaternion@@QEAA@AEBVQVector4D@@@Z"
"??0QQuaternion@@QEAA@MAEBVQVector3D@@@Z"
"??0QQuaternion@@QEAA@MMMM@Z"
"??0QQuaternion@@QEAA@W4Initialization@Qt@@@Z"
"??0QQuaternion@@QEAA@XZ"
"??0QRadialGradient@@QEAA@AEBV0@@Z"
"??0QRadialGradient@@QEAA@AEBVQPointF@@N0@Z"
"??0QRadialGradient@@QEAA@AEBVQPointF@@N0N@Z"
"??0QRadialGradient@@QEAA@AEBVQPointF@@N@Z"
"??0QRadialGradient@@QEAA@NNN@Z"
"??0QRadialGradient@@QEAA@NNNNN@Z"
"??0QRadialGradient@@QEAA@NNNNNN@Z"
"??0QRadialGradient@@QEAA@XZ"
"??0QRasterPaintEngine@@IEAA@AEAVQRasterPaintEnginePrivate@@PEAVQPaintDevice@@@Z"
"??0QRasterPaintEngine@@QEAA@PEAVQPaintDevice@@@Z"
"??0QRasterPlatformPixmap@@QEAA@AEBV0@@Z"
"??0QRasterPlatformPixmap@@QEAA@W4PixelType@QPlatformPixmap@@@Z"
"??0QRasterWindow@@QEAA@PEAVQWindow@@@Z"
"??0QRawFont@@QEAA@AEBV0@@Z"
"??0QRawFont@@QEAA@AEBVQByteArray@@NW4HintingPreference@QFont@@@Z"
"??0QRawFont@@QEAA@AEBVQString@@NW4HintingPreference@QFont@@@Z"
"??0QRawFont@@QEAA@XZ"
"??0QRawFontPrivate@@QEAA@AEBV0@@Z"
"??0QRawFontPrivate@@QEAA@XZ"
"??0QRegion@@QEAA@$$QEAV0@@Z"
"??0QRegion@@QEAA@AEBV0@@Z"
"??0QRegion@@QEAA@AEBVQBitmap@@@Z"
"??0QRegion@@QEAA@AEBVQPolygon@@W4FillRule@Qt@@@Z"
"??0QRegion@@QEAA@AEBVQRect@@W4RegionType@0@@Z"
"??0QRegion@@QEAA@HHHHW4RegionType@0@@Z"
"??0QRegion@@QEAA@XZ"
"??0QRegularExpressionValidator@@QEAA@AEBVQRegularExpression@@PEAVQObject@@@Z"
"??0QRegularExpressionValidator@@QEAA@PEAVQObject@@@Z"
"??0QResizeEvent@@IEAA@AEBV0@@Z"
"??0QResizeEvent@@QEAA@AEBVQSize@@0@Z"
"??0QRhi@@IEAA@XZ"
"??0QRhiBuffer@@IEAA@PEAVQRhiImplementation@@W4Type@0@V?$QFlags@W4UsageFlag@QRhiBuffer@@@@I@Z"
"??0QRhiColorAttachment@@QEAA@PEAVQRhiRenderBuffer@@@Z"
"??0QRhiColorAttachment@@QEAA@PEAVQRhiTexture@@@Z"
"??0QRhiColorAttachment@@QEAA@XZ"
"??0QRhiCommandBuffer@@IEAA@PEAVQRhiImplementation@@@Z"
"??0QRhiComputePipeline@@IEAA@PEAVQRhiImplementation@@@Z"
"??0QRhiD3D11InitParams@@QEAA@XZ"
"??0QRhiD3D11NativeHandles@@QEAA@XZ"
"??0QRhiD3D12CommandBufferNativeHandles@@QEAA@XZ"
"??0QRhiD3D12InitParams@@QEAA@XZ"
"??0QRhiD3D12NativeHandles@@QEAA@XZ"
"??0QRhiDepthStencilClearValue@@QEAA@MI@Z"
"??0QRhiDepthStencilClearValue@@QEAA@XZ"
"??0QRhiDriverInfo@@QEAA@$$QEAU0@@Z"
"??0QRhiDriverInfo@@QEAA@AEBU0@@Z"
"??0QRhiDriverInfo@@QEAA@XZ"
"??0QRhiGles2InitParams@@QEAA@$$QEAU0@@Z"
"??0QRhiGles2InitParams@@QEAA@AEBU0@@Z"
"??0QRhiGles2InitParams@@QEAA@XZ"
"??0QRhiGles2NativeHandles@@QEAA@XZ"
"??0QRhiGraphicsPipeline@@IEAA@PEAVQRhiImplementation@@@Z"
"??0QRhiReadbackDescription@@QEAA@PEAVQRhiTexture@@@Z"
"??0QRhiReadbackDescription@@QEAA@XZ"
"??0QRhiReadbackResult@@QEAA@$$QEAU0@@Z"
"??0QRhiReadbackResult@@QEAA@AEBU0@@Z"
"??0QRhiReadbackResult@@QEAA@XZ"
"??0QRhiRenderBuffer@@IEAA@PEAVQRhiImplementation@@W4Type@0@AEBVQSize@@HV?$QFlags@W4Flag@QRhiRenderBuffer@@@@W4Format@QRhiTexture@@@Z"
"??0QRhiRenderPassDescriptor@@IEAA@PEAVQRhiImplementation@@@Z"
"??0QRhiRenderTarget@@IEAA@PEAVQRhiImplementation@@@Z"
"??0QRhiResource@@IEAA@PEAVQRhiImplementation@@@Z"
"??0QRhiResourceUpdateBatch@@AEAA@PEAVQRhiImplementation@@@Z"
"??0QRhiSampler@@IEAA@PEAVQRhiImplementation@@W4Filter@0@11W4AddressMode@0@22@Z"
"??0QRhiScissor@@QEAA@HHHH@Z"
"??0QRhiScissor@@QEAA@XZ"
"??0QRhiShaderResourceBinding@@QEAA@XZ"
"??0QRhiShaderResourceBindings@@IEAA@PEAVQRhiImplementation@@@Z"
"??0QRhiShaderStage@@QEAA@$$QEAV0@@Z"
"??0QRhiShaderStage@@QEAA@AEBV0@@Z"
"??0QRhiShaderStage@@QEAA@W4Type@0@AEBVQShader@@W4Variant@2@@Z"
"??0QRhiShaderStage@@QEAA@XZ"
"??0QRhiStats@@QEAA@XZ"
"??0QRhiSwapChain@@IEAA@PEAVQRhiImplementation@@@Z"
"??0QRhiSwapChainRenderTarget@@IEAA@PEAVQRhiImplementation@@PEAVQRhiSwapChain@@@Z"
"??0QRhiTexture@@IEAA@PEAVQRhiImplementation@@W4Format@0@AEBVQSize@@HHHV?$QFlags@W4Flag@QRhiTexture@@@@@Z"
"??0QRhiTextureCopyDescription@@QEAA@XZ"
"??0QRhiTextureRenderTarget@@IEAA@PEAVQRhiImplementation@@AEBVQRhiTextureRenderTargetDescription@@V?$QFlags@W4Flag@QRhiTextureRenderTarget@@@@@Z"
"??0QRhiTextureRenderTargetDescription@@QEAA@$$QEAV0@@Z"
"??0QRhiTextureRenderTargetDescription@@QEAA@AEBV0@@Z"
"??0QRhiTextureRenderTargetDescription@@QEAA@AEBVQRhiColorAttachment@@@Z"
"??0QRhiTextureRenderTargetDescription@@QEAA@AEBVQRhiColorAttachment@@PEAVQRhiRenderBuffer@@@Z"
"??0QRhiTextureRenderTargetDescription@@QEAA@AEBVQRhiColorAttachment@@PEAVQRhiTexture@@@Z"
"??0QRhiTextureRenderTargetDescription@@QEAA@XZ"
"??0QRhiTextureSubresourceUploadDescription@@QEAA@$$QEAV0@@Z"
"??0QRhiTextureSubresourceUploadDescription@@QEAA@AEBV0@@Z"
"??0QRhiTextureSubresourceUploadDescription@@QEAA@AEBVQByteArray@@@Z"
"??0QRhiTextureSubresourceUploadDescription@@QEAA@AEBVQImage@@@Z"
"??0QRhiTextureSubresourceUploadDescription@@QEAA@PEBXI@Z"
"??0QRhiTextureSubresourceUploadDescription@@QEAA@XZ"
"??0QRhiTextureUploadDescription@@QEAA@$$QEAV0@@Z"
"??0QRhiTextureUploadDescription@@QEAA@AEBV0@@Z"
"??0QRhiTextureUploadDescription@@QEAA@AEBVQRhiTextureUploadEntry@@@Z"
"??0QRhiTextureUploadDescription@@QEAA@V?$initializer_list@VQRhiTextureUploadEntry@@@std@@@Z"
"??0QRhiTextureUploadDescription@@QEAA@XZ"
"??0QRhiTextureUploadEntry@@QEAA@$$QEAV0@@Z"
"??0QRhiTextureUploadEntry@@QEAA@AEBV0@@Z"
"??0QRhiTextureUploadEntry@@QEAA@HHAEBVQRhiTextureSubresourceUploadDescription@@@Z"
"??0QRhiTextureUploadEntry@@QEAA@XZ"
"??0QRhiVertexInputAttribute@@QEAA@HHW4Format@0@IH@Z"
"??0QRhiVertexInputAttribute@@QEAA@XZ"
"??0QRhiVertexInputBinding@@QEAA@IW4Classification@0@I@Z"
"??0QRhiVertexInputBinding@@QEAA@XZ"
"??0QRhiVertexInputLayout@@QEAA@$$QEAV0@@Z"
"??0QRhiVertexInputLayout@@QEAA@AEBV0@@Z"
"??0QRhiVertexInputLayout@@QEAA@XZ"
"??0QRhiViewport@@QEAA@MMMMMM@Z"
"??0QRhiViewport@@QEAA@XZ"
"??0QScreen@@AEAA@PEAVQPlatformScreen@@@Z"
"??0QScreenOrientationChangeEvent@@IEAA@AEBV0@@Z"
"??0QScreenOrientationChangeEvent@@QEAA@PEAVQScreen@@W4ScreenOrientation@Qt@@@Z"
"??0QScrollEvent@@IEAA@AEBV0@@Z"
"??0QScrollEvent@@QEAA@AEBVQPointF@@0W4ScrollState@0@@Z"
"??0QScrollPrepareEvent@@IEAA@AEBV0@@Z"
"??0QScrollPrepareEvent@@QEAA@AEBVQPointF@@@Z"
"??0QSessionManager@@AEAA@PEAVQGuiApplication@@AEAVQString@@1@Z"
"??0QSessionManagerPrivate@@QEAA@AEBVQString@@0@Z"
"??0QShader@@QEAA@$$QEAV0@@Z"
"??0QShader@@QEAA@AEBV0@@Z"
"??0QShader@@QEAA@XZ"
"??0QShaderCode@@QEAA@$$QEAV0@@Z"
"??0QShaderCode@@QEAA@AEBV0@@Z"
"??0QShaderCode@@QEAA@AEBVQByteArray@@0@Z"
"??0QShaderCode@@QEAA@XZ"
"??0QShaderDescription@@QEAA@AEBV0@@Z"
"??0QShaderDescription@@QEAA@XZ"
"??0QShaderDescriptionPrivate@@QEAA@AEBU0@@Z"
"??0QShaderDescriptionPrivate@@QEAA@XZ"
"??0QShaderKey@@QEAA@W4Source@QShader@@AEBVQShaderVersion@@W4Variant@2@@Z"
"??0QShaderKey@@QEAA@XZ"
"??0QShaderPrivate@@QEAA@AEBU0@@Z"
"??0QShaderPrivate@@QEAA@XZ"
"??0QShaderVersion@@QEAA@HV?$QFlags@W4Flag@QShaderVersion@@@@@Z"
"??0QShaderVersion@@QEAA@XZ"
"??0QShortcut@@QEAA@AEBVQKeySequence@@PEAVQObject@@PEBD2W4ShortcutContext@Qt@@@Z"
"??0QShortcut@@QEAA@PEAVQObject@@@Z"
"??0QShortcut@@QEAA@W4StandardKey@QKeySequence@@PEAVQObject@@PEBD2W4ShortcutContext@Qt@@@Z"
"??0QShortcutEvent@@IEAA@AEBV0@@Z"
"??0QShortcutEvent@@QEAA@AEBVQKeySequence@@H_N@Z"
"??0QShortcutEvent@@QEAA@AEBVQKeySequence@@PEBVQShortcut@@_N@Z"
"??0QShortcutMap@@QEAA@XZ"
"??0QShortcutPrivate@@QEAA@XZ"
"??0QShowEvent@@IEAA@AEBV0@@Z"
"??0QShowEvent@@QEAA@XZ"
"??0QSimpleDrag@@QEAA@XZ"
"??0QSinglePointEvent@@IEAA@AEBV0@@Z"
"??0QSinglePointEvent@@IEAA@W4Type@QEvent@@PEBVQPointingDevice@@AEBVQEventPoint@@W4MouseButton@Qt@@V?$QFlags@W4MouseButton@Qt@@@@V?$QFlags@W4KeyboardModifier@Qt@@@@W4MouseEventSource@6@@Z"
"??0QSinglePointEvent@@IEAA@W4Type@QEvent@@PEBVQPointingDevice@@AEBVQPointF@@22W4MouseButton@Qt@@V?$QFlags@W4MouseButton@Qt@@@@V?$QFlags@W4KeyboardModifier@Qt@@@@W4MouseEventSource@6@@Z"
"??0QStackTextEngine@@QEAA@$$QEAV0@@Z"
"??0QStackTextEngine@@QEAA@AEBV0@@Z"
"??0QStackTextEngine@@QEAA@AEBVQString@@AEBVQFont@@@Z"
"??0QStandardItem@@IEAA@AEAVQStandardItemPrivate@@@Z"
"??0QStandardItem@@IEAA@AEBV0@@Z"
"??0QStandardItem@@QEAA@AEBVQIcon@@AEBVQString@@@Z"
"??0QStandardItem@@QEAA@AEBVQString@@@Z"
"??0QStandardItem@@QEAA@HH@Z"
"??0QStandardItem@@QEAA@XZ"
"??0QStandardItemModel@@IEAA@AEAVQStandardItemModelPrivate@@PEAVQObject@@@Z"
"??0QStandardItemModel@@QEAA@HHPEAVQObject@@@Z"
"??0QStandardItemModel@@QEAA@PEAVQObject@@@Z"
"??0QStaticText@@QEAA@AEBV0@@Z"
"??0QStaticText@@QEAA@AEBVQString@@@Z"
"??0QStaticText@@QEAA@XZ"
"??0QStaticTextItem@@QEAA@$$QEAV0@@Z"
"??0QStaticTextItem@@QEAA@AEBV0@@Z"
"??0QStaticTextItem@@QEAA@XZ"
"??0QStaticTextUserData@@QEAA@AEBV0@@Z"
"??0QStaticTextUserData@@QEAA@W4Type@0@@Z"
"??0QStatusTipEvent@@IEAA@AEBV0@@Z"
"??0QStatusTipEvent@@QEAA@AEBVQString@@@Z"
"??0QStroker@@QEAA@XZ"
"??0QStrokerOps@@QEAA@XZ"
"??0QStyleHints@@AEAA@XZ"
"??0QSupportedWritingSystems@@QEAA@AEBV0@@Z"
"??0QSupportedWritingSystems@@QEAA@XZ"
"??0QSurface@@IEAA@W4SurfaceClass@0@@Z"
"??0QSurface@@QEAA@AEBV0@@Z"
"??0QSurfaceFormat@@QEAA@AEBV0@@Z"
"??0QSurfaceFormat@@QEAA@V?$QFlags@W4FormatOption@QSurfaceFormat@@@@@Z"
"??0QSurfaceFormat@@QEAA@XZ"
"??0QSyntaxHighlighter@@QEAA@PEAVQObject@@@Z"
"??0QSyntaxHighlighter@@QEAA@PEAVQTextDocument@@@Z"
"??0QTabletEvent@@IEAA@AEBV0@@Z"
"??0QTabletEvent@@QEAA@W4Type@QEvent@@PEBVQPointingDevice@@AEBVQPointF@@2NMMMNMV?$QFlags@W4KeyboardModifier@Qt@@@@W4MouseButton@Qt@@V?$QFlags@W4MouseButton@Qt@@@@@Z"
"??0QTextBlock@@QEAA@AEBV0@@Z"
"??0QTextBlock@@QEAA@PEAVQTextDocumentPrivate@@H@Z"
"??0QTextBlock@@QEAA@XZ"
"??0QTextBlockFormat@@IEAA@AEBVQTextFormat@@@Z"
"??0QTextBlockFormat@@QEAA@$$QEAV0@@Z"
"??0QTextBlockFormat@@QEAA@AEBV0@@Z"
"??0QTextBlockFormat@@QEAA@XZ"
"??0QTextBlockGroup@@IEAA@AEAVQTextBlockGroupPrivate@@PEAVQTextDocument@@@Z"
"??0QTextBlockGroup@@IEAA@PEAVQTextDocument@@@Z"
"??0QTextBlockUserData@@QEAA@AEBV0@@Z"
"??0QTextBlockUserData@@QEAA@XZ"
"??0QTextCharFormat@@IEAA@AEBVQTextFormat@@@Z"
"??0QTextCharFormat@@QEAA@$$QEAV0@@Z"
"??0QTextCharFormat@@QEAA@AEBV0@@Z"
"??0QTextCharFormat@@QEAA@XZ"
"??0QTextCursor@@QEAA@AEBV0@@Z"
"??0QTextCursor@@QEAA@AEBVQTextBlock@@@Z"
"??0QTextCursor@@QEAA@PEAVQTextCursorPrivate@@@Z"
"??0QTextCursor@@QEAA@PEAVQTextDocument@@@Z"
"??0QTextCursor@@QEAA@PEAVQTextDocumentPrivate@@H@Z"
"??0QTextCursor@@QEAA@PEAVQTextFrame@@@Z"
"??0QTextCursor@@QEAA@XZ"
"??0QTextCursorPrivate@@QEAA@AEBV0@@Z"
"??0QTextCursorPrivate@@QEAA@PEAVQTextDocumentPrivate@@@Z"
"??0QTextDocument@@IEAA@AEAVQTextDocumentPrivate@@PEAVQObject@@@Z"
"??0QTextDocument@@QEAA@AEBVQString@@PEAVQObject@@@Z"
"??0QTextDocument@@QEAA@PEAVQObject@@@Z"
"??0QTextDocumentFragment@@QEAA@AEBV0@@Z"
"??0QTextDocumentFragment@@QEAA@AEBVQTextCursor@@@Z"
"??0QTextDocumentFragment@@QEAA@PEBVQTextDocument@@@Z"
"??0QTextDocumentFragment@@QEAA@XZ"
"??0QTextDocumentLayout@@QEAA@PEAVQTextDocument@@@Z"
"??0QTextDocumentPrivate@@QEAA@XZ"
"??0QTextDocumentWriter@@QEAA@AEBVQString@@AEBVQByteArray@@@Z"
"??0QTextDocumentWriter@@QEAA@PEAVQIODevice@@AEBVQByteArray@@@Z"
"??0QTextDocumentWriter@@QEAA@XZ"
"??0QTextEngine@@QEAA@AEBV0@@Z"
"??0QTextEngine@@QEAA@AEBVQString@@AEBVQFont@@@Z"
"??0QTextEngine@@QEAA@XZ"
"??0QTextFormat@@QEAA@AEBV0@@Z"
"??0QTextFormat@@QEAA@H@Z"
"??0QTextFormat@@QEAA@XZ"
"??0QTextFormatCollection@@QEAA@XZ"
"??0QTextFragment@@QEAA@AEBV0@@Z"
"??0QTextFragment@@QEAA@PEBVQTextDocumentPrivate@@HH@Z"
"??0QTextFragment@@QEAA@XZ"
"??0QTextFrame@@IEAA@AEAVQTextFramePrivate@@PEAVQTextDocument@@@Z"
"??0QTextFrame@@QEAA@PEAVQTextDocument@@@Z"
"??0QTextFrameFormat@@IEAA@AEBVQTextFormat@@@Z"
"??0QTextFrameFormat@@QEAA@$$QEAV0@@Z"
"??0QTextFrameFormat@@QEAA@AEBV0@@Z"
"??0QTextFrameFormat@@QEAA@XZ"
"??0QTextFrameLayoutData@@QEAA@AEBV0@@Z"
"??0QTextFrameLayoutData@@QEAA@XZ"
"??0QTextImageFormat@@IEAA@AEBVQTextFormat@@@Z"
"??0QTextImageFormat@@QEAA@$$QEAV0@@Z"
"??0QTextImageFormat@@QEAA@AEBV0@@Z"
"??0QTextImageFormat@@QEAA@XZ"
"??0QTextImageHandler@@QEAA@PEAVQObject@@@Z"
"??0QTextInlineObject@@QEAA@HPEAVQTextEngine@@@Z"
"??0QTextInlineObject@@QEAA@XZ"
"??0QTextLayout@@AEAA@PEAVQTextEngine@@@Z"
"??0QTextLayout@@QEAA@AEBVQString@@@Z"
"??0QTextLayout@@QEAA@AEBVQString@@AEBVQFont@@PEBVQPaintDevice@@@Z"
"??0QTextLayout@@QEAA@AEBVQTextBlock@@@Z"
"??0QTextLayout@@QEAA@XZ"
"??0QTextLength@@QEAA@W4Type@0@N@Z"
"??0QTextLength@@QEAA@XZ"
"??0QTextLine@@AEAA@HPEAVQTextEngine@@@Z"
"??0QTextLine@@QEAA@XZ"
"??0QTextList@@QEAA@PEAVQTextDocument@@@Z"
"??0QTextListFormat@@IEAA@AEBVQTextFormat@@@Z"
"??0QTextListFormat@@QEAA@$$QEAV0@@Z"
"??0QTextListFormat@@QEAA@AEBV0@@Z"
"??0QTextListFormat@@QEAA@XZ"
"??0QTextMarkdownImporter@@QEAA@$$QEAV0@@Z"
"??0QTextMarkdownImporter@@QEAA@AEBV0@@Z"
"??0QTextMarkdownImporter@@QEAA@PEAVQTextDocument@@V?$QFlags@W4Feature@QTextMarkdownImporter@@@@@Z"
"??0QTextMarkdownImporter@@QEAA@PEAVQTextDocument@@V?$QFlags@W4MarkdownFeature@QTextDocument@@@@@Z"
"??0QTextMarkdownWriter@@QEAA@$$QEAV0@@Z"
"??0QTextMarkdownWriter@@QEAA@AEAVQTextStream@@V?$QFlags@W4MarkdownFeature@QTextDocument@@@@@Z"
"??0QTextMarkdownWriter@@QEAA@AEBV0@@Z"
"??0QTextObject@@IEAA@AEAVQTextObjectPrivate@@PEAVQTextDocument@@@Z"
"??0QTextObject@@IEAA@PEAVQTextDocument@@@Z"
"??0QTextObjectInterface@@QEAA@AEBV0@@Z"
"??0QTextObjectInterface@@QEAA@XZ"
"??0QTextOption@@QEAA@AEBV0@@Z"
"??0QTextOption@@QEAA@V?$QFlags@W4AlignmentFlag@Qt@@@@@Z"
"??0QTextOption@@QEAA@XZ"
"??0QTextTable@@QEAA@PEAVQTextDocument@@@Z"
"??0QTextTableCell@@AEAA@PEBVQTextTable@@H@Z"
"??0QTextTableCell@@QEAA@AEBV0@@Z"
"??0QTextTableCell@@QEAA@XZ"
"??0QTextTableCellFormat@@IEAA@AEBVQTextFormat@@@Z"
"??0QTextTableCellFormat@@QEAA@$$QEAV0@@Z"
"??0QTextTableCellFormat@@QEAA@AEBV0@@Z"
"??0QTextTableCellFormat@@QEAA@XZ"
"??0QTextTableFormat@@IEAA@AEBVQTextFormat@@@Z"
"??0QTextTableFormat@@QEAA@$$QEAV0@@Z"
"??0QTextTableFormat@@QEAA@AEBV0@@Z"
"??0QTextTableFormat@@QEAA@XZ"
"??0QTextureFileData@@QEAA@AEBV0@@Z"
"??0QTextureFileData@@QEAA@W4Mode@0@@Z"
"??0QTextureFileReader@@QEAA@AEBV0@@Z"
"??0QTextureFileReader@@QEAA@PEAVQIODevice@@AEBVQString@@@Z"
"??0QTextureGlyphCache@@QEAA@AEBV0@@Z"
"??0QTextureGlyphCache@@QEAA@W4GlyphFormat@QFontEngine@@AEBVQTransform@@AEBVQColor@@@Z"
"??0QToolBarChangeEvent@@IEAA@AEBV0@@Z"
"??0QToolBarChangeEvent@@QEAA@_N@Z"
"??0QTouchEvent@@IEAA@AEBV0@@Z"
"??0QTouchEvent@@QEAA@W4Type@QEvent@@PEBVQPointingDevice@@V?$QFlags@W4KeyboardModifier@Qt@@@@AEBV?$QList@VQEventPoint@@@@@Z"
"??0QTouchEvent@@QEAA@W4Type@QEvent@@PEBVQPointingDevice@@V?$QFlags@W4KeyboardModifier@Qt@@@@V?$QFlags@W4State@QEventPoint@@@@AEBV?$QList@VQEventPoint@@@@@Z"
"??0QTouchEventSequence@QTest@@IEAA@PEAVQWindow@@PEAVQPointingDevice@@_N@Z"
"??0QTouchEventSequence@QTest@@QEAA@AEBV01@@Z"
"??0QTransform@@QEAA@$$QEAV0@@Z"
"??0QTransform@@QEAA@AEBV0@@Z"
"??0QTransform@@QEAA@NNNNNN@Z"
"??0QTransform@@QEAA@NNNNNNNNN@Z"
"??0QTransform@@QEAA@W4Initialization@Qt@@@Z"
"??0QTransform@@QEAA@XZ"
"??0QTriangulatingStroker@@QEAA@XZ"
"??0QUndoCommand@@QEAA@AEBVQString@@PEAV0@@Z"
"??0QUndoCommand@@QEAA@PEAV0@@Z"
"??0QUndoGroup@@QEAA@PEAVQObject@@@Z"
"??0QUndoStack@@QEAA@PEAVQObject@@@Z"
"??0QValidator@@IEAA@AEAVQObjectPrivate@@PEAVQObject@@@Z"
"??0QValidator@@IEAA@AEAVQValidatorPrivate@@PEAVQObject@@@Z"
"??0QValidator@@QEAA@PEAVQObject@@@Z"
"??0QVectorPath@@QEAA@PEBNHPEBW4ElementType@QPainterPath@@I@Z"
"??0QWGLContext@QNativeInterface@@QEAA@XZ"
"??0QWhatsThisClickedEvent@@IEAA@AEBV0@@Z"
"??0QWhatsThisClickedEvent@@QEAA@AEBVQString@@@Z"
"??0QWheelEvent@@IEAA@AEBV0@@Z"
"??0QWheelEvent@@QEAA@AEBVQPointF@@0VQPoint@@1V?$QFlags@W4MouseButton@Qt@@@@V?$QFlags@W4KeyboardModifier@Qt@@@@W4ScrollPhase@Qt@@_NW4MouseEventSource@6@PEBVQPointingDevice@@@Z"
"??0QWindow@@IEAA@AEAVQWindowPrivate@@PEAV0@@Z"
"??0QWindow@@QEAA@PEAV0@@Z"
"??0QWindow@@QEAA@PEAVQScreen@@@Z"
"??0QWindowPrivate@@QEAA@XZ"
"??0QWindowStateChangeEvent@@IEAA@AEBV0@@Z"
"??0QWindowStateChangeEvent@@QEAA@V?$QFlags@W4WindowState@Qt@@@@_N@Z"
"??0QWindowSystemEventHandler@@QEAA@AEBV0@@Z"
"??0QWindowSystemEventHandler@@QEAA@XZ"
"??0QWindowsApplication@Private@QNativeInterface@@QEAA@XZ"
"??0QWindowsDirectWriteFontDatabase@@QEAA@XZ"
"??0QWindowsFontDatabase@@QEAA@XZ"
"??0QWindowsFontDatabaseBase@@QEAA@XZ"
"??0QWindowsFontEngineDirectWrite@@QEAA@PEAUIDWriteFontFace@@NAEBV?$QSharedPointer@VQWindowsFontEngineData@@@@@Z"
"??0QWindowsGLIntegration@Private@QNativeInterface@@QEAA@XZ"
"??0QWindowsGuiEventDispatcher@@QEAA@PEAVQObject@@@Z"
"??0QWindowsMimeConverter@@QEAA@XZ"
"??0QWindowsNativeImage@@QEAA@HHW4Format@QImage@@@Z"
"??0QWindowsScreen@QNativeInterface@@QEAA@XZ"
"??0QWindowsWindow@Private@QNativeInterface@@QEAA@XZ"
"??0QtFontFamily@@QEAA@AEBU0@@Z"
"??0QtFontFamily@@QEAA@AEBVQString@@@Z"
"??0QtFontFoundry@@QEAA@AEBU0@@Z"
"??0QtFontFoundry@@QEAA@AEBVQString@@@Z"
"??0QtFontStyle@@QEAA@AEBU0@@Z"
"??0QtFontStyle@@QEAA@AEBUKey@0@@Z"
"??0Selector@QCss@@QEAA@$$QEAU01@@Z"
"??0Selector@QCss@@QEAA@AEBU01@@Z"
"??0Selector@QCss@@QEAA@XZ"
"??0ShaderDesc@QOpenGLProgramBinaryCache@@QEAA@$$QEAU01@@Z"
"??0ShaderDesc@QOpenGLProgramBinaryCache@@QEAA@AEBU01@@Z"
"??0ShaderDesc@QOpenGLProgramBinaryCache@@QEAA@W4Stage@QShader@@AEBVQByteArray@@@Z"
"??0ShaderDesc@QOpenGLProgramBinaryCache@@QEAA@XZ"
"??0StyleSelector@QCss@@QEAA@AEBV01@@Z"
"??0StyleSelector@QCss@@QEAA@XZ"
"??0Tab@QTextOption@@QEAA@NW4TabType@1@VQChar@@@Z"
"??0Tab@QTextOption@@QEAA@XZ"
"??0TabletEvent@QWindowSystemInterfacePrivate@@QEAA@$$QEAV01@@Z"
"??0TabletEvent@QWindowSystemInterfacePrivate@@QEAA@AEBV01@@Z"
"??0TabletEvent@QWindowSystemInterfacePrivate@@QEAA@PEAVQWindow@@KAEBVQPointF@@1PEBVQPointingDevice@@V?$QFlags@W4MouseButton@Qt@@@@NHHNNHV?$QFlags@W4KeyboardModifier@Qt@@@@@Z"
"??0ValueExtractor@QCss@@QEAA@$$QEAU01@@Z"
"??0ValueExtractor@QCss@@QEAA@AEBU01@@Z"
"??0ValueExtractor@QCss@@QEAA@AEBV?$QList@UDeclaration@QCss@@@@AEBVQPalette@@@Z"
"??0glyph_metrics_t@@QEAA@UQFixed@@00000@Z"
"??0glyph_metrics_t@@QEAA@XZ"
"??1?$QExplicitlySharedDataPointer@VQColorSpacePrivate@@@@QEAA@XZ"
"??1?$QExplicitlySharedDataPointer@VQColorTransformPrivate@@@@QEAA@XZ"
"??1?$QExplicitlySharedDataPointer@VQEventPointPrivate@@@@QEAA@XZ"
"??1?$QExplicitlySharedDataPointer@VQPageRangesPrivate@@@@QEAA@XZ"
"??1?$QExplicitlySharedDataPointer@VQPenPrivate@@@@QEAA@XZ"
"??1?$QExplicitlySharedDataPointer@VQPlatformPixmap@@@@QEAA@XZ"
"??1ActivationObserver@QAccessible@@UEAA@XZ"
"??1Declaration@QCss@@QEAA@XZ"
"??1Gpu@QOpenGLConfig@@QEAA@XZ"
"??1Key@QPixmapCache@@QEAA@XZ"
"??1LayoutData@QTextEngine@@QEAA@XZ"
"??1Parser@QCss@@QEAA@XZ"
"??1ProgramDesc@QOpenGLProgramBinaryCache@@QEAA@XZ"
"??1QAbstractFileIconEngine@@UEAA@XZ"
"??1QAbstractFileIconProvider@@UEAA@XZ"
"??1QAbstractFileIconProviderPrivate@@UEAA@XZ"
"??1QAbstractLayoutStyleInfo@@UEAA@XZ"
"??1QAbstractTextDocumentLayout@@UEAA@XZ"
"??1QAbstractTextDocumentLayoutPrivate@@UEAA@XZ"
"??1QAbstractUndoItem@@UEAA@XZ"
"??1QAccessibleActionInterface@@UEAA@XZ"
"??1QAccessibleAnnouncementEvent@@UEAA@XZ"
"??1QAccessibleApplication@@UEAA@XZ"
"??1QAccessibleAttributesInterface@@UEAA@XZ"
"??1QAccessibleBridge@@UEAA@XZ"
"??1QAccessibleBridgePlugin@@UEAA@XZ"
"??1QAccessibleCache@@UEAA@XZ"
"??1QAccessibleEditableTextInterface@@UEAA@XZ"
"??1QAccessibleEvent@@UEAA@XZ"
"??1QAccessibleHyperlinkInterface@@UEAA@XZ"
"??1QAccessibleImageInterface@@UEAA@XZ"
"??1QAccessibleInterface@@MEAA@XZ"
"??1QAccessibleObject@@MEAA@XZ"
"??1QAccessiblePlugin@@UEAA@XZ"
"??1QAccessibleSelectionInterface@@UEAA@XZ"
"??1QAccessibleStateChangeEvent@@UEAA@XZ"
"??1QAccessibleTableCellInterface@@UEAA@XZ"
"??1QAccessibleTableInterface@@UEAA@XZ"
"??1QAccessibleTableModelChangeEvent@@UEAA@XZ"
"??1QAccessibleTextCursorEvent@@UEAA@XZ"
"??1QAccessibleTextInsertEvent@@UEAA@XZ"
"??1QAccessibleTextInterface@@UEAA@XZ"
"??1QAccessibleTextRemoveEvent@@UEAA@XZ"
"??1QAccessibleTextSelectionEvent@@UEAA@XZ"
"??1QAccessibleTextUpdateEvent@@UEAA@XZ"
"??1QAccessibleValueChangeEvent@@UEAA@XZ"
"??1QAccessibleValueInterface@@UEAA@XZ"
"??1QAction@@UEAA@XZ"
"??1QActionEvent@@UEAA@XZ"
"??1QActionGroup@@UEAA@XZ"
"??1QActionGroupPrivate@@UEAA@XZ"
"??1QActionPrivate@@UEAA@XZ"
"??1QApplicationStateChangeEvent@@UEAA@XZ"
"??1QBackingStore@@QEAA@XZ"
"??1QBackingStoreRhiSupport@@QEAA@XZ"
"??1QBasicDrag@@UEAA@XZ"
"??1QBitmap@@UEAA@XZ"
"??1QBlittable@@UEAA@XZ"
"??1QBlittablePlatformPixmap@@UEAA@XZ"
"??1QBlitterPaintEngine@@UEAA@XZ"
"??1QBrush@@QEAA@XZ"
"??1QChildWindowEvent@@UEAA@XZ"
"??1QClipboard@@EEAA@XZ"
"??1QCloseEvent@@UEAA@XZ"
"??1QColorDialogOptions@@IEAA@XZ"
"??1QColorSpace@@QEAA@XZ"
"??1QColorTransferTable@@QEAA@XZ"
"??1QColorTransform@@QEAA@XZ"
"??1QColorTrc@@QEAA@XZ"
"??1QColorTrcLut@@QEAA@XZ"
"??1QConicalGradient@@QEAA@XZ"
"??1QContextMenuEvent@@UEAA@XZ"
"??1QCursor@@QEAA@XZ"
"??1QDashStroker@@UEAA@XZ"
"??1QDashedStrokeProcessor@@QEAA@XZ"
"??1QDistanceField@@QEAA@XZ"
"??1QDistanceFieldData@@QEAA@XZ"
"??1QDoubleValidator@@UEAA@XZ"
"??1QDrag@@UEAA@XZ"
"??1QDragEnterEvent@@UEAA@XZ"
"??1QDragLeaveEvent@@UEAA@XZ"
"??1QDragManager@@UEAA@XZ"
"??1QDragMoveEvent@@UEAA@XZ"
"??1QDropEvent@@UEAA@XZ"
"??1QEdidParser@@QEAA@XZ"
"??1QEnterEvent@@UEAA@XZ"
"??1QEventPoint@@QEAA@XZ"
"??1QExposeEvent@@UEAA@XZ"
"??1QFileDialogOptions@@IEAA@XZ"
"??1QFileInfoGatherer@@UEAA@XZ"
"??1QFileOpenEvent@@UEAA@XZ"
"??1QFileSystemModel@@UEAA@XZ"
"??1QFileSystemModelPrivate@@UEAA@XZ"
"??1QFocusEvent@@UEAA@XZ"
"??1QFont@@QEAA@XZ"
"??1QFontCache@@UEAA@XZ"
"??1QFontDatabasePrivate@@QEAA@XZ"
"??1QFontDialogOptions@@IEAA@XZ"
"??1QFontEngine@@UEAA@XZ"
"??1QFontEngineGlyphCache@@UEAA@XZ"
"??1QFontEngineMulti@@UEAA@XZ"
"??1QFontInfo@@QEAA@XZ"
"??1QFontMetrics@@QEAA@XZ"
"??1QFontMetricsF@@QEAA@XZ"
"??1QFontPrivate@@QEAA@XZ"
"??1QGenericPlugin@@UEAA@XZ"
"??1QGlyphRun@@QEAA@XZ"
"??1QGradient@@QEAA@XZ"
"??1QGridLayoutEngine@@QEAA@XZ"
"??1QGridLayoutItem@@UEAA@XZ"
"??1QGuiApplication@@UEAA@XZ"
"??1QGuiApplicationPrivate@@UEAA@XZ"
"??1QHelpEvent@@UEAA@XZ"
"??1QHideEvent@@UEAA@XZ"
"??1QHoverEvent@@UEAA@XZ"
"??1QIcon@@QEAA@XZ"
"??1QIconDragEvent@@UEAA@XZ"
"??1QIconEngine@@UEAA@XZ"
"??1QIconEnginePlugin@@UEAA@XZ"
"??1QIconLoader@@QEAA@XZ"
"??1QImage@@UEAA@XZ"
"??1QImageData@@QEAA@XZ"
"??1QImageIOHandler@@UEAA@XZ"
"??1QImageIOPlugin@@UEAA@XZ"
"??1QImagePixmapCleanupHooks@@QEAA@XZ"
"??1QImageReader@@QEAA@XZ"
"??1QImageTextureGlyphCache@@UEAA@XZ"
"??1QImageWriter@@QEAA@XZ"
"??1QInputControl@@UEAA@XZ"
"??1QInputDevice@@UEAA@XZ"
"??1QInputDeviceManager@@UEAA@XZ"
"??1QInputDeviceManagerPrivate@@UEAA@XZ"
"??1QInputDevicePrivate@@UEAA@XZ"
"??1QInputEvent@@UEAA@XZ"
"??1QInputMethod@@EEAA@XZ"
"??1QInputMethodEvent@@UEAA@XZ"
"??1QInputMethodQueryEvent@@UEAA@XZ"
"??1QIntValidator@@UEAA@XZ"
"??1QInternalMimeData@@UEAA@XZ"
"??1QKeyEvent@@UEAA@XZ"
"??1QKeyMapper@@UEAA@XZ"
"??1QKeySequence@@QEAA@XZ"
"??1QLinearGradient@@QEAA@XZ"
"??1QMessageDialogOptions@@IEAA@XZ"
"??1QMouseEvent@@UEAA@XZ"
"??1QMoveEvent@@UEAA@XZ"
"??1QMovie@@UEAA@XZ"
"??1QMutableSinglePointEvent@@UEAA@XZ"
"??1QMutableTouchEvent@@UEAA@XZ"
"??1QNativeGestureEvent@@UEAA@XZ"
"??1QOffscreenSurface@@UEAA@XZ"
"??1QOffscreenSurfacePrivate@@UEAA@XZ"
"??1QOpenGLContext@@UEAA@XZ"
"??1QOpenGLContextGroup@@UEAA@XZ"
"??1QOpenGLContextGroupPrivate@@UEAA@XZ"
"??1QOpenGLContextPrivate@@UEAA@XZ"
"??1QOpenGLContextVersionFunctionHelper@@UEAA@XZ"
"??1QOpenGLExtensionMatcher@@QEAA@XZ"
"??1QOpenGLExtensions@@QEAA@XZ"
"??1QOpenGLExtraFunctions@@QEAA@XZ"
"??1QOpenGLFunctions@@QEAA@XZ"
"??1QOpenGLMultiGroupSharedResource@@QEAA@XZ"
"??1QOpenGLProgramBinaryCache@@QEAA@XZ"
"??1QOpenGLProgramBinarySupportCheck@@UEAA@XZ"
"??1QOpenGLSharedResource@@UEAA@XZ"
"??1QOpenGLSharedResourceGuard@@UEAA@XZ"
"??1QPageLayout@@QEAA@XZ"
"??1QPageRanges@@QEAA@XZ"
"??1QPageSize@@QEAA@XZ"
"??1QPagedPaintDevice@@UEAA@XZ"
"??1QPagedPaintDevicePrivate@@UEAA@XZ"
"??1QPaintDevice@@UEAA@XZ"
"??1QPaintDeviceWindow@@UEAA@XZ"
"??1QPaintDeviceWindowPrivate@@UEAA@XZ"
"??1QPaintEngine@@UEAA@XZ"
"??1QPaintEngineEx@@UEAA@XZ"
"??1QPaintEngineExPrivate@@UEAA@XZ"
"??1QPaintEnginePrivate@@UEAA@XZ"
"??1QPaintEvent@@UEAA@XZ"
"??1QPainter@@QEAA@XZ"
"??1QPainterPath@@QEAA@XZ"
"??1QPainterPathStroker@@QEAA@XZ"
"??1QPainterState@@UEAA@XZ"
"??1QPalette@@QEAA@XZ"
"??1QPalettePrivate@@QEAA@XZ"
"??1QPathClipper@@QEAA@XZ"
"??1QPen@@QEAA@XZ"
"??1QPicture@@UEAA@XZ"
"??1QPixmap@@UEAA@XZ"
"??1QPixmapIconEngine@@UEAA@XZ"
"??1QPlatformAccessibility@@UEAA@XZ"
"??1QPlatformBackingStore@@UEAA@XZ"
"??1QPlatformClipboard@@UEAA@XZ"
"??1QPlatformColorDialogHelper@@UEAA@XZ"
"??1QPlatformCursor@@UEAA@XZ"
"??1QPlatformCursorImage@@QEAA@XZ"
"??1QPlatformDialogHelper@@UEAA@XZ"
"??1QPlatformDrag@@UEAA@XZ"
"??1QPlatformFileDialogHelper@@UEAA@XZ"
"??1QPlatformFontDatabase@@UEAA@XZ"
"??1QPlatformFontDialogHelper@@UEAA@XZ"
"??1QPlatformGraphicsBuffer@@UEAA@XZ"
"??1QPlatformInputContext@@UEAA@XZ"
"??1QPlatformInputContextPlugin@@UEAA@XZ"
"??1QPlatformIntegration@@UEAA@XZ"
"??1QPlatformIntegrationPlugin@@UEAA@XZ"
"??1QPlatformKeyMapper@@UEAA@XZ"
"??1QPlatformMenu@@UEAA@XZ"
"??1QPlatformMenuBar@@UEAA@XZ"
"??1QPlatformMenuItem@@UEAA@XZ"
"??1QPlatformMessageDialogHelper@@UEAA@XZ"
"??1QPlatformNativeInterface@@UEAA@XZ"
"??1QPlatformOffscreenSurface@@UEAA@XZ"
"??1QPlatformOpenGLContext@@UEAA@XZ"
"??1QPlatformPixmap@@UEAA@XZ"
"??1QPlatformPlaceholderScreen@@UEAA@XZ"
"??1QPlatformScreen@@UEAA@XZ"
"??1QPlatformServiceColorPicker@@UEAA@XZ"
"??1QPlatformServices@@UEAA@XZ"
"??1QPlatformSessionManager@@UEAA@XZ"
"??1QPlatformSharedGraphicsCache@@UEAA@XZ"
"??1QPlatformSurface@@UEAA@XZ"
"??1QPlatformSurfaceEvent@@UEAA@XZ"
"??1QPlatformSystemTrayIcon@@UEAA@XZ"
"??1QPlatformTextureList@@UEAA@XZ"
"??1QPlatformTheme@@UEAA@XZ"
"??1QPlatformThemePlugin@@UEAA@XZ"
"??1QPlatformThemePrivate@@UEAA@XZ"
"??1QPlatformWindow@@UEAA@XZ"
"??1QPointerEvent@@UEAA@XZ"
"??1QPointingDevice@@UEAA@XZ"
"??1QPointingDevicePrivate@@UEAA@XZ"
"??1QRadialGradient@@QEAA@XZ"
"??1QRasterPaintEngine@@UEAA@XZ"
"??1QRasterPlatformPixmap@@UEAA@XZ"
"??1QRasterWindow@@UEAA@XZ"
"??1QRawFont@@QEAA@XZ"
"??1QRawFontPrivate@@QEAA@XZ"
"??1QRegion@@QEAA@XZ"
"??1QRegularExpressionValidator@@UEAA@XZ"
"??1QResizeEvent@@UEAA@XZ"
"??1QRhi@@QEAA@XZ"
"??1QRhiBuffer@@UEAA@XZ"
"??1QRhiCommandBuffer@@UEAA@XZ"
"??1QRhiComputePipeline@@UEAA@XZ"
"??1QRhiDriverInfo@@QEAA@XZ"
"??1QRhiGles2InitParams@@QEAA@XZ"
"??1QRhiGraphicsPipeline@@UEAA@XZ"
"??1QRhiReadbackResult@@QEAA@XZ"
"??1QRhiRenderBuffer@@UEAA@XZ"
"??1QRhiRenderPassDescriptor@@UEAA@XZ"
"??1QRhiRenderTarget@@UEAA@XZ"
"??1QRhiResource@@UEAA@XZ"
"??1QRhiResourceUpdateBatch@@QEAA@XZ"
"??1QRhiSampler@@UEAA@XZ"
"??1QRhiShaderResourceBindings@@UEAA@XZ"
"??1QRhiShaderStage@@QEAA@XZ"
"??1QRhiSwapChain@@UEAA@XZ"
"??1QRhiSwapChainRenderTarget@@UEAA@XZ"
"??1QRhiTexture@@UEAA@XZ"
"??1QRhiTextureRenderTarget@@UEAA@XZ"
"??1QRhiTextureRenderTargetDescription@@QEAA@XZ"
"??1QRhiTextureSubresourceUploadDescription@@QEAA@XZ"
"??1QRhiTextureUploadDescription@@QEAA@XZ"
"??1QRhiTextureUploadEntry@@QEAA@XZ"
"??1QRhiVertexInputLayout@@QEAA@XZ"
"??1QScreen@@UEAA@XZ"
"??1QScreenOrientationChangeEvent@@UEAA@XZ"
"??1QScrollEvent@@UEAA@XZ"
"??1QScrollPrepareEvent@@UEAA@XZ"
"??1QSessionManager@@EEAA@XZ"
"??1QSessionManagerPrivate@@UEAA@XZ"
"??1QShader@@QEAA@XZ"
"??1QShaderCode@@QEAA@XZ"
"??1QShaderDescription@@QEAA@XZ"
"??1QShaderDescriptionPrivate@@QEAA@XZ"
"??1QShaderPrivate@@QEAA@XZ"
"??1QShortcut@@UEAA@XZ"
"??1QShortcutEvent@@UEAA@XZ"
"??1QShortcutMap@@QEAA@XZ"
"??1QShortcutPrivate@@UEAA@XZ"
"??1QShowEvent@@UEAA@XZ"
"??1QSimpleDrag@@UEAA@XZ"
"??1QSinglePointEvent@@UEAA@XZ"
"??1QStackTextEngine@@QEAA@XZ"
"??1QStandardItem@@UEAA@XZ"
"??1QStandardItemModel@@UEAA@XZ"
"??1QStaticText@@QEAA@XZ"
"??1QStaticTextItem@@QEAA@XZ"
"??1QStaticTextUserData@@UEAA@XZ"
"??1QStatusTipEvent@@UEAA@XZ"
"??1QStroker@@UEAA@XZ"
"??1QStrokerOps@@UEAA@XZ"
"??1QStyleHints@@UEAA@XZ"
"??1QSupportedWritingSystems@@QEAA@XZ"
"??1QSurface@@UEAA@XZ"
"??1QSurfaceFormat@@QEAA@XZ"
"??1QSyntaxHighlighter@@UEAA@XZ"
"??1QTabletEvent@@UEAA@XZ"
"??1QTextBlockFormat@@QEAA@XZ"
"??1QTextBlockGroup@@MEAA@XZ"
"??1QTextBlockUserData@@UEAA@XZ"
"??1QTextCharFormat@@QEAA@XZ"
"??1QTextCursor@@QEAA@XZ"
"??1QTextCursorPrivate@@QEAA@XZ"
"??1QTextDocument@@UEAA@XZ"
"??1QTextDocumentFragment@@QEAA@XZ"
"??1QTextDocumentLayout@@UEAA@XZ"
"??1QTextDocumentPrivate@@UEAA@XZ"
"??1QTextDocumentWriter@@QEAA@XZ"
"??1QTextEngine@@QEAA@XZ"
"??1QTextFormat@@QEAA@XZ"
"??1QTextFormatCollection@@QEAA@XZ"
"??1QTextFrame@@UEAA@XZ"
"??1QTextFrameFormat@@QEAA@XZ"
"??1QTextFrameLayoutData@@UEAA@XZ"
"??1QTextImageFormat@@QEAA@XZ"
"??1QTextImageHandler@@UEAA@XZ"
"??1QTextLayout@@QEAA@XZ"
"??1QTextList@@UEAA@XZ"
"??1QTextListFormat@@QEAA@XZ"
"??1QTextMarkdownImporter@@QEAA@XZ"
"??1QTextMarkdownWriter@@QEAA@XZ"
"??1QTextObject@@MEAA@XZ"
"??1QTextObjectInterface@@UEAA@XZ"
"??1QTextOption@@QEAA@XZ"
"??1QTextTable@@UEAA@XZ"
"??1QTextTableCell@@QEAA@XZ"
"??1QTextTableCellFormat@@QEAA@XZ"
"??1QTextTableFormat@@QEAA@XZ"
"??1QTextureFileData@@QEAA@XZ"
"??1QTextureFileReader@@QEAA@XZ"
"??1QTextureGlyphCache@@UEAA@XZ"
"??1QToolBarChangeEvent@@UEAA@XZ"
"??1QTouchEvent@@UEAA@XZ"
"??1QTouchEventSequence@QTest@@UEAA@XZ"
"??1QTriangulatingStroker@@QEAA@XZ"
"??1QUndoCommand@@UEAA@XZ"
"??1QUndoGroup@@UEAA@XZ"
"??1QUndoStack@@UEAA@XZ"
"??1QValidator@@UEAA@XZ"
"??1QVectorPath@@QEAA@XZ"
"??1QWGLContext@QNativeInterface@@MEAA@XZ"
"??1QWhatsThisClickedEvent@@UEAA@XZ"
"??1QWheelEvent@@UEAA@XZ"
"??1QWindow@@UEAA@XZ"
"??1QWindowPrivate@@UEAA@XZ"
"??1QWindowStateChangeEvent@@UEAA@XZ"
"??1QWindowSystemEventHandler@@UEAA@XZ"
"??1QWindowsApplication@Private@QNativeInterface@@MEAA@XZ"
"??1QWindowsDirectWriteFontDatabase@@UEAA@XZ"
"??1QWindowsFontDatabase@@UEAA@XZ"
"??1QWindowsFontDatabaseBase@@UEAA@XZ"
"??1QWindowsFontEngineDirectWrite@@UEAA@XZ"
"??1QWindowsGLIntegration@Private@QNativeInterface@@MEAA@XZ"
"??1QWindowsGuiEventDispatcher@@UEAA@XZ"
"??1QWindowsMimeConverter@@UEAA@XZ"
"??1QWindowsNativeImage@@QEAA@XZ"
"??1QWindowsScreen@QNativeInterface@@MEAA@XZ"
"??1QWindowsWindow@Private@QNativeInterface@@MEAA@XZ"
"??1QtFontFamily@@QEAA@XZ"
"??1QtFontFoundry@@QEAA@XZ"
"??1QtFontStyle@@QEAA@XZ"
"??1Selector@QCss@@QEAA@XZ"
"??1ShaderDesc@QOpenGLProgramBinaryCache@@QEAA@XZ"
"??1StyleSelector@QCss@@UEAA@XZ"
"??1TabletEvent@QWindowSystemInterfacePrivate@@UEAA@XZ"
"??1ValueExtractor@QCss@@QEAA@XZ"
"??4ActivationObserver@QAccessible@@QEAAAEAV01@AEBV01@@Z"
"??4Declaration@QCss@@QEAAAEAU01@$$QEAU01@@Z"
"??4Declaration@QCss@@QEAAAEAU01@AEBU01@@Z"
"??4Gpu@QOpenGLConfig@@QEAAAEAU01@$$QEAU01@@Z"
"??4Gpu@QOpenGLConfig@@QEAAAEAU01@AEBU01@@Z"
"??4Key@QPixmapCache@@QEAAAEAV01@$$QEAV01@@Z"
"??4Key@QPixmapCache@@QEAAAEAV01@AEBV01@@Z"
"??4LayoutData@QTextEngine@@QEAAAEAU01@AEBU01@@Z"
"??4Parser@QCss@@QEAAAEAV01@$$QEAV01@@Z"
"??4Parser@QCss@@QEAAAEAV01@AEBV01@@Z"
"??4ProgramDesc@QOpenGLProgramBinaryCache@@QEAAAEAU01@$$QEAU01@@Z"
"??4ProgramDesc@QOpenGLProgramBinaryCache@@QEAAAEAU01@AEBU01@@Z"
"??4QAbstractLayoutStyleInfo@@QEAAAEAV0@AEBV0@@Z"
"??4QAbstractUndoItem@@QEAAAEAV0@AEBV0@@Z"
"??4QAccessible@@QEAAAEAV0@$$QEAV0@@Z"
"??4QAccessible@@QEAAAEAV0@AEBV0@@Z"
"??4QAccessibleActionInterface@@QEAAAEAV0@AEBV0@@Z"
"??4QAccessibleAttributesInterface@@QEAAAEAV0@AEBV0@@Z"
"??4QAccessibleBridge@@QEAAAEAV0@AEBV0@@Z"
"??4QAccessibleEditableTextInterface@@QEAAAEAV0@AEBV0@@Z"
"??4QAccessibleHyperlinkInterface@@QEAAAEAV0@AEBV0@@Z"
"??4QAccessibleImageInterface@@QEAAAEAV0@AEBV0@@Z"
"??4QAccessibleInterface@@QEAAAEAV0@AEBV0@@Z"
"??4QAccessibleSelectionInterface@@QEAAAEAV0@AEBV0@@Z"
"??4QAccessibleTableCellInterface@@QEAAAEAV0@AEBV0@@Z"
"??4QAccessibleTableInterface@@QEAAAEAV0@AEBV0@@Z"
"??4QAccessibleTextInterface@@QEAAAEAV0@AEBV0@@Z"
"??4QAccessibleValueInterface@@QEAAAEAV0@AEBV0@@Z"
"??4QActionEvent@@IEAAAEAV0@AEBV0@@Z"
"??4QApplicationStateChangeEvent@@IEAAAEAV0@AEBV0@@Z"
"??4QBackingStoreRhiSupport@@QEAAAEAV0@AEBV0@@Z"
"??4QBezier@@QEAAAEAV0@$$QEAV0@@Z"
"??4QBezier@@QEAAAEAV0@AEBV0@@Z"
"??4QBitmap@@QEAAAEAV0@AEBV0@@Z"
"??4QBitmap@@QEAAAEAV0@AEBVQPixmap@@@Z"
"??4QBlittable@@QEAAAEAV0@AEBV0@@Z"
"??4QBrush@@QEAAAEAV0@$$QEAV0@@Z"
"??4QBrush@@QEAAAEAV0@AEBV0@@Z"
"??4QChildWindowEvent@@IEAAAEAV0@AEBV0@@Z"
"??4QCloseEvent@@IEAAAEAV0@AEBV0@@Z"
"??4QColor@@QEAAAEAV0@$$QEAV0@@Z"
"??4QColor@@QEAAAEAV0@AEBV0@@Z"
"??4QColor@@QEAAAEAV0@W4GlobalColor@Qt@@@Z"
"??4QColorSpace@@QEAAAEAV0@$$QEAV0@@Z"
"??4QColorSpace@@QEAAAEAV0@AEBV0@@Z"
"??4QColorTransferTable@@QEAAAEAV0@$$QEAV0@@Z"
"??4QColorTransferTable@@QEAAAEAV0@AEBV0@@Z"
"??4QColorTrc@@QEAAAEAV0@$$QEAV0@@Z"
"??4QColorTrc@@QEAAAEAV0@AEBV0@@Z"
"??4QColorTrcLut@@QEAAAEAV0@$$QEAV0@@Z"
"??4QConicalGradient@@QEAAAEAV0@AEBV0@@Z"
"??4QContextMenuEvent@@IEAAAEAV0@AEBV0@@Z"
"??4QCursor@@QEAAAEAV0@$$QEAV0@@Z"
"??4QCursor@@QEAAAEAV0@AEBV0@@Z"
"??4QDesktopServices@@QEAAAEAV0@$$QEAV0@@Z"
"??4QDesktopServices@@QEAAAEAV0@AEBV0@@Z"
"??4QDistanceField@@QEAAAEAV0@$$QEAV0@@Z"
"??4QDistanceField@@QEAAAEAV0@AEBV0@@Z"
"??4QDragEnterEvent@@IEAAAEAV0@AEBV0@@Z"
"??4QDragLeaveEvent@@IEAAAEAV0@AEBV0@@Z"
"??4QDragMoveEvent@@IEAAAEAV0@AEBV0@@Z"
"??4QDropEvent@@IEAAAEAV0@AEBV0@@Z"
"??4QEdidParser@@QEAAAEAV0@$$QEAV0@@Z"
"??4QEdidParser@@QEAAAEAV0@AEBV0@@Z"
"??4QEnterEvent@@IEAAAEAV0@AEBV0@@Z"
"??4QEventPoint@@QEAAAEAV0@$$QEAV0@@Z"
"??4QEventPoint@@QEAAAEAV0@AEBV0@@Z"
"??4QExposeEvent@@IEAAAEAV0@AEBV0@@Z"
"??4QFileOpenEvent@@IEAAAEAV0@AEBV0@@Z"
"??4QFocusEvent@@IEAAAEAV0@AEBV0@@Z"
"??4QFont@@QEAAAEAV0@$$QEAV0@@Z"
"??4QFont@@QEAAAEAV0@AEBV0@@Z"
"??4QFontDatabase@@QEAAAEAV0@$$QEAV0@@Z"
"??4QFontDatabase@@QEAAAEAV0@AEBV0@@Z"
"??4QFontInfo@@QEAAAEAV0@AEBV0@@Z"
"??4QFontMetrics@@QEAAAEAV0@$$QEAV0@@Z"
"??4QFontMetrics@@QEAAAEAV0@AEBV0@@Z"
"??4QFontMetricsF@@QEAAAEAV0@$$QEAV0@@Z"
"??4QFontMetricsF@@QEAAAEAV0@AEBV0@@Z"
"??4QFontMetricsF@@QEAAAEAV0@AEBVQFontMetrics@@@Z"
"??4QFontPrivate@@AEAAAEAV0@AEBV0@@Z"
"??4QGenericPluginFactory@@QEAAAEAV0@$$QEAV0@@Z"
"??4QGenericPluginFactory@@QEAAAEAV0@AEBV0@@Z"
"??4QGlyphRun@@QEAAAEAV0@$$QEAV0@@Z"
"??4QGlyphRun@@QEAAAEAV0@AEBV0@@Z"
"??4QGradient@@QEAAAEAV0@AEBV0@@Z"
"??4QGridLayoutBox@@QEAAAEAV0@$$QEAV0@@Z"
"??4QGridLayoutBox@@QEAAAEAV0@AEBV0@@Z"
"??4QGridLayoutEngine@@QEAAAEAV0@AEBV0@@Z"
"??4QGridLayoutItem@@QEAAAEAV0@AEBV0@@Z"
"??4QHelpEvent@@IEAAAEAV0@AEBV0@@Z"
"??4QHideEvent@@IEAAAEAV0@AEBV0@@Z"
"??4QHoverEvent@@IEAAAEAV0@AEBV0@@Z"
"??4QIcon@@QEAAAEAV0@$$QEAV0@@Z"
"??4QIcon@@QEAAAEAV0@AEBV0@@Z"
"??4QIconDragEvent@@IEAAAEAV0@AEBV0@@Z"
"??4QIconLoader@@QEAAAEAV0@$$QEAV0@@Z"
"??4QIconLoader@@QEAAAEAV0@AEBV0@@Z"
"??4QImage@@QEAAAEAV0@$$QEAV0@@Z"
"??4QImage@@QEAAAEAV0@AEBV0@@Z"
"??4QImageData@@QEAAAEAU0@AEBU0@@Z"
"??4QImagePixmapCleanupHooks@@QEAAAEAV0@$$QEAV0@@Z"
"??4QImagePixmapCleanupHooks@@QEAAAEAV0@AEBV0@@Z"
"??4QInputEvent@@IEAAAEAV0@AEBV0@@Z"
"??4QInputMethodEvent@@IEAAAEAV0@AEBV0@@Z"
"??4QInputMethodQueryEvent@@IEAAAEAV0@AEBV0@@Z"
"??4QKeyEvent@@IEAAAEAV0@AEBV0@@Z"
"??4QKeySequence@@QEAAAEAV0@$$QEAV0@@Z"
"??4QKeySequence@@QEAAAEAV0@AEBV0@@Z"
"??4QLinearGradient@@QEAAAEAV0@AEBV0@@Z"
"??4QMatrix4x4@@QEAAAEAV0@$$QEAV0@@Z"
"??4QMatrix4x4@@QEAAAEAV0@AEBV0@@Z"
"??4QMouseEvent@@IEAAAEAV0@AEBV0@@Z"
"??4QMoveEvent@@IEAAAEAV0@AEBV0@@Z"
"??4QMutableSinglePointEvent@@QEAAAEAV0@AEBV0@@Z"
"??4QMutableTouchEvent@@QEAAAEAV0@AEBV0@@Z"
"??4QNativeGestureEvent@@IEAAAEAV0@AEBV0@@Z"
"??4QOpenGLConfig@@QEAAAEAV0@$$QEAV0@@Z"
"??4QOpenGLConfig@@QEAAAEAV0@AEBV0@@Z"
"??4QOpenGLContextVersionFunctionHelper@@QEAAAEAV0@AEBV0@@Z"
"??4QOpenGLExtensionMatcher@@QEAAAEAV0@$$QEAV0@@Z"
"??4QOpenGLExtensionMatcher@@QEAAAEAV0@AEBV0@@Z"
"??4QOpenGLExtensions@@QEAAAEAV0@AEBV0@@Z"
"??4QOpenGLExtraFunctions@@QEAAAEAV0@AEBV0@@Z"
"??4QOpenGLFunctions@@QEAAAEAV0@AEBV0@@Z"
"??4QPageLayout@@QEAAAEAV0@$$QEAV0@@Z"
"??4QPageLayout@@QEAAAEAV0@AEBV0@@Z"
"??4QPageRanges@@QEAAAEAV0@$$QEAV0@@Z"
"??4QPageRanges@@QEAAAEAV0@AEBV0@@Z"
"??4QPageSize@@QEAAAEAV0@$$QEAV0@@Z"
"??4QPageSize@@QEAAAEAV0@AEBV0@@Z"
"??4QPagedPaintDevicePrivate@@QEAAAEAV0@AEBV0@@Z"
"??4QPaintEnginePrivate@@QEAAAEAV0@AEBV0@@Z"
"??4QPaintEngineState@@QEAAAEAV0@$$QEAV0@@Z"
"??4QPaintEngineState@@QEAAAEAV0@AEBV0@@Z"
"??4QPaintEvent@@IEAAAEAV0@AEBV0@@Z"
"??4QPainterPath@@QEAAAEAV0@$$QEAV0@@Z"
"??4QPainterPath@@QEAAAEAV0@AEBV0@@Z"
"??4QPainterState@@QEAAAEAV0@AEBV0@@Z"
"??4QPalette@@QEAAAEAV0@$$QEAV0@@Z"
"??4QPalette@@QEAAAEAV0@AEBV0@@Z"
"??4QPalettePrivate@@QEAAAEAV0@$$QEAV0@@Z"
"??4QPalettePrivate@@QEAAAEAV0@AEBV0@@Z"
"??4QPen@@QEAAAEAV0@$$QEAV0@@Z"
"??4QPen@@QEAAAEAV0@AEBV0@@Z"
"??4QPicture@@QEAAAEAV0@$$QEAV0@@Z"
"??4QPicture@@QEAAAEAV0@AEBV0@@Z"
"??4QPixmap@@QEAAAEAV0@$$QEAV0@@Z"
"??4QPixmap@@QEAAAEAV0@AEBV0@@Z"
"??4QPixmapCache@@QEAAAEAV0@$$QEAV0@@Z"
"??4QPixmapCache@@QEAAAEAV0@AEBV0@@Z"
"??4QPlatformAccessibility@@QEAAAEAV0@AEBV0@@Z"
"??4QPlatformBackingStore@@QEAAAEAV0@AEBV0@@Z"
"??4QPlatformBackingStoreRhiConfig@@QEAAAEAU0@$$QEAU0@@Z"
"??4QPlatformBackingStoreRhiConfig@@QEAAAEAU0@AEBU0@@Z"
"??4QPlatformCursorImage@@QEAAAEAV0@$$QEAV0@@Z"
"??4QPlatformCursorImage@@QEAAAEAV0@AEBV0@@Z"
"??4QPlatformDragQtResponse@@QEAAAEAV0@$$QEAV0@@Z"
"??4QPlatformDragQtResponse@@QEAAAEAV0@AEBV0@@Z"
"??4QPlatformDropQtResponse@@QEAAAEAV0@$$QEAV0@@Z"
"??4QPlatformDropQtResponse@@QEAAAEAV0@AEBV0@@Z"
"??4QPlatformFontDatabase@@QEAAAEAV0@AEBV0@@Z"
"??4QPlatformInputContextFactory@@QEAAAEAV0@$$QEAV0@@Z"
"??4QPlatformInputContextFactory@@QEAAAEAV0@AEBV0@@Z"
"??4QPlatformIntegrationFactory@@QEAAAEAV0@$$QEAV0@@Z"
"??4QPlatformIntegrationFactory@@QEAAAEAV0@AEBV0@@Z"
"??4QPlatformKeyMapper@@QEAAAEAV0@AEBV0@@Z"
"??4QPlatformPixmap@@QEAAAEAV0@AEBV0@@Z"
"??4QPlatformSurfaceEvent@@IEAAAEAV0@AEBV0@@Z"
"??4QPlatformThemeFactory@@QEAAAEAV0@$$QEAV0@@Z"
"??4QPlatformThemeFactory@@QEAAAEAV0@AEBV0@@Z"
"??4QPlatformThemePrivate@@QEAAAEAV0@AEBV0@@Z"
"??4QPointerEvent@@IEAAAEAV0@AEBV0@@Z"
"??4QPointingDeviceUniqueId@@QEAAAEAV0@$$QEAV0@@Z"
"??4QPointingDeviceUniqueId@@QEAAAEAV0@AEBV0@@Z"
"??4QQuaternion@@QEAAAEAV0@$$QEAV0@@Z"
"??4QQuaternion@@QEAAAEAV0@AEBV0@@Z"
"??4QRadialGradient@@QEAAAEAV0@AEBV0@@Z"
"??4QRasterPlatformPixmap@@QEAAAEAV0@AEBV0@@Z"
"??4QRawFont@@QEAAAEAV0@$$QEAV0@@Z"
"??4QRawFont@@QEAAAEAV0@AEBV0@@Z"
"??4QRawFontPrivate@@QEAAAEAV0@AEBV0@@Z"
"??4QRegion@@QEAAAEAV0@$$QEAV0@@Z"
"??4QRegion@@QEAAAEAV0@AEBV0@@Z"
"??4QResizeEvent@@IEAAAEAV0@AEBV0@@Z"
"??4QRhiColorAttachment@@QEAAAEAV0@$$QEAV0@@Z"
"??4QRhiColorAttachment@@QEAAAEAV0@AEBV0@@Z"
"??4QRhiD3D11InitParams@@QEAAAEAU0@$$QEAU0@@Z"
"??4QRhiD3D11InitParams@@QEAAAEAU0@AEBU0@@Z"
"??4QRhiD3D11NativeHandles@@QEAAAEAU0@$$QEAU0@@Z"
"??4QRhiD3D11NativeHandles@@QEAAAEAU0@AEBU0@@Z"
"??4QRhiD3D12CommandBufferNativeHandles@@QEAAAEAU0@$$QEAU0@@Z"
"??4QRhiD3D12CommandBufferNativeHandles@@QEAAAEAU0@AEBU0@@Z"
"??4QRhiD3D12InitParams@@QEAAAEAU0@$$QEAU0@@Z"
"??4QRhiD3D12InitParams@@QEAAAEAU0@AEBU0@@Z"
"??4QRhiD3D12NativeHandles@@QEAAAEAU0@$$QEAU0@@Z"
"??4QRhiD3D12NativeHandles@@QEAAAEAU0@AEBU0@@Z"
"??4QRhiDepthStencilClearValue@@QEAAAEAV0@$$QEAV0@@Z"
"??4QRhiDepthStencilClearValue@@QEAAAEAV0@AEBV0@@Z"
"??4QRhiDriverInfo@@QEAAAEAU0@$$QEAU0@@Z"
"??4QRhiDriverInfo@@QEAAAEAU0@AEBU0@@Z"
"??4QRhiGles2InitParams@@QEAAAEAU0@$$QEAU0@@Z"
"??4QRhiGles2InitParams@@QEAAAEAU0@AEBU0@@Z"
"??4QRhiGles2NativeHandles@@QEAAAEAU0@$$QEAU0@@Z"
"??4QRhiGles2NativeHandles@@QEAAAEAU0@AEBU0@@Z"
"??4QRhiInitParams@@QEAAAEAU0@$$QEAU0@@Z"
"??4QRhiInitParams@@QEAAAEAU0@AEBU0@@Z"
"??4QRhiNativeHandles@@QEAAAEAU0@$$QEAU0@@Z"
"??4QRhiNativeHandles@@QEAAAEAU0@AEBU0@@Z"
"??4QRhiNullInitParams@@QEAAAEAU0@$$QEAU0@@Z"
"??4QRhiNullInitParams@@QEAAAEAU0@AEBU0@@Z"
"??4QRhiNullNativeHandles@@QEAAAEAU0@$$QEAU0@@Z"
"??4QRhiNullNativeHandles@@QEAAAEAU0@AEBU0@@Z"
"??4QRhiReadbackDescription@@QEAAAEAV0@$$QEAV0@@Z"
"??4QRhiReadbackDescription@@QEAAAEAV0@AEBV0@@Z"
"??4QRhiReadbackResult@@QEAAAEAU0@$$QEAU0@@Z"
"??4QRhiReadbackResult@@QEAAAEAU0@AEBU0@@Z"
"??4QRhiScissor@@QEAAAEAV0@$$QEAV0@@Z"
"??4QRhiScissor@@QEAAAEAV0@AEBV0@@Z"
"??4QRhiShaderResourceBinding@@QEAAAEAV0@$$QEAV0@@Z"
"??4QRhiShaderResourceBinding@@QEAAAEAV0@AEBV0@@Z"
"??4QRhiShaderStage@@QEAAAEAV0@$$QEAV0@@Z"
"??4QRhiShaderStage@@QEAAAEAV0@AEBV0@@Z"
"??4QRhiStats@@QEAAAEAU0@$$QEAU0@@Z"
"??4QRhiStats@@QEAAAEAU0@AEBU0@@Z"
"??4QRhiTextureCopyDescription@@QEAAAEAV0@$$QEAV0@@Z"
"??4QRhiTextureCopyDescription@@QEAAAEAV0@AEBV0@@Z"
"??4QRhiTextureRenderTargetDescription@@QEAAAEAV0@$$QEAV0@@Z"
"??4QRhiTextureRenderTargetDescription@@QEAAAEAV0@AEBV0@@Z"
"??4QRhiTextureSubresourceUploadDescription@@QEAAAEAV0@$$QEAV0@@Z"
"??4QRhiTextureSubresourceUploadDescription@@QEAAAEAV0@AEBV0@@Z"
"??4QRhiTextureUploadDescription@@QEAAAEAV0@$$QEAV0@@Z"
"??4QRhiTextureUploadDescription@@QEAAAEAV0@AEBV0@@Z"
"??4QRhiTextureUploadEntry@@QEAAAEAV0@$$QEAV0@@Z"
"??4QRhiTextureUploadEntry@@QEAAAEAV0@AEBV0@@Z"
"??4QRhiVertexInputAttribute@@QEAAAEAV0@$$QEAV0@@Z"
"??4QRhiVertexInputAttribute@@QEAAAEAV0@AEBV0@@Z"
"??4QRhiVertexInputBinding@@QEAAAEAV0@$$QEAV0@@Z"
"??4QRhiVertexInputBinding@@QEAAAEAV0@AEBV0@@Z"
"??4QRhiVertexInputLayout@@QEAAAEAV0@$$QEAV0@@Z"
"??4QRhiVertexInputLayout@@QEAAAEAV0@AEBV0@@Z"
"??4QRhiViewport@@QEAAAEAV0@$$QEAV0@@Z"
"??4QRhiViewport@@QEAAAEAV0@AEBV0@@Z"
"??4QScreenOrientationChangeEvent@@IEAAAEAV0@AEBV0@@Z"
"??4QScrollEvent@@IEAAAEAV0@AEBV0@@Z"
"??4QScrollPrepareEvent@@IEAAAEAV0@AEBV0@@Z"
"??4QShader@@QEAAAEAV0@$$QEAV0@@Z"
"??4QShader@@QEAAAEAV0@AEBV0@@Z"
"??4QShaderCode@@QEAAAEAV0@$$QEAV0@@Z"
"??4QShaderCode@@QEAAAEAV0@AEBV0@@Z"
"??4QShaderDescription@@QEAAAEAV0@AEBV0@@Z"
"??4QShaderDescriptionPrivate@@QEAAAEAU0@AEBU0@@Z"
"??4QShaderKey@@QEAAAEAV0@$$QEAV0@@Z"
"??4QShaderKey@@QEAAAEAV0@AEBV0@@Z"
"??4QShaderPrivate@@QEAAAEAU0@AEBU0@@Z"
"??4QShaderVersion@@QEAAAEAV0@$$QEAV0@@Z"
"??4QShaderVersion@@QEAAAEAV0@AEBV0@@Z"
"??4QShortcutEvent@@IEAAAEAV0@AEBV0@@Z"
"??4QShowEvent@@IEAAAEAV0@AEBV0@@Z"
"??4QSinglePointEvent@@IEAAAEAV0@AEBV0@@Z"
"??4QStackTextEngine@@QEAAAEAV0@$$QEAV0@@Z"
"??4QStackTextEngine@@QEAAAEAV0@AEBV0@@Z"
"??4QStandardItem@@IEAAAEAV0@AEBV0@@Z"
"??4QStaticText@@QEAAAEAV0@$$QEAV0@@Z"
"??4QStaticText@@QEAAAEAV0@AEBV0@@Z"
"??4QStaticTextItem@@QEAAAEAV0@$$QEAV0@@Z"
"??4QStaticTextItem@@QEAAAEAV0@AEBV0@@Z"
"??4QStaticTextUserData@@QEAAAEAV0@AEBV0@@Z"
"??4QStatusTipEvent@@IEAAAEAV0@AEBV0@@Z"
"??4QSupportedWritingSystems@@QEAAAEAV0@AEBV0@@Z"
"??4QSurface@@QEAAAEAV0@AEBV0@@Z"
"??4QSurfaceFormat@@QEAAAEAV0@AEBV0@@Z"
"??4QTabletEvent@@IEAAAEAV0@AEBV0@@Z"
"??4QTextBlock@@QEAAAEAV0@AEBV0@@Z"
"??4QTextBlockFormat@@QEAAAEAV0@$$QEAV0@@Z"
"??4QTextBlockFormat@@QEAAAEAV0@AEBV0@@Z"
"??4QTextBlockUserData@@QEAAAEAV0@AEBV0@@Z"
"??4QTextCharFormat@@QEAAAEAV0@$$QEAV0@@Z"
"??4QTextCharFormat@@QEAAAEAV0@AEBV0@@Z"
"??4QTextCursor@@QEAAAEAV0@$$QEAV0@@Z"
"??4QTextCursor@@QEAAAEAV0@AEBV0@@Z"
"??4QTextDocumentFragment@@QEAAAEAV0@AEBV0@@Z"
"??4QTextEngine@@QEAAAEAV0@AEBV0@@Z"
"??4QTextFormat@@QEAAAEAV0@AEBV0@@Z"
"??4QTextFragment@@QEAAAEAV0@AEBV0@@Z"
"??4QTextFrameFormat@@QEAAAEAV0@$$QEAV0@@Z"
"??4QTextFrameFormat@@QEAAAEAV0@AEBV0@@Z"
"??4QTextFrameLayoutData@@QEAAAEAV0@AEBV0@@Z"
"??4QTextImageFormat@@QEAAAEAV0@$$QEAV0@@Z"
"??4QTextImageFormat@@QEAAAEAV0@AEBV0@@Z"
"??4QTextInlineObject@@QEAAAEAV0@$$QEAV0@@Z"
"??4QTextInlineObject@@QEAAAEAV0@AEBV0@@Z"
"??4QTextItem@@QEAAAEAV0@$$QEAV0@@Z"
"??4QTextItem@@QEAAAEAV0@AEBV0@@Z"
"??4QTextLength@@QEAAAEAV0@$$QEAV0@@Z"
"??4QTextLength@@QEAAAEAV0@AEBV0@@Z"
"??4QTextLine@@QEAAAEAV0@$$QEAV0@@Z"
"??4QTextLine@@QEAAAEAV0@AEBV0@@Z"
"??4QTextListFormat@@QEAAAEAV0@$$QEAV0@@Z"
"??4QTextListFormat@@QEAAAEAV0@AEBV0@@Z"
"??4QTextMarkdownImporter@@QEAAAEAV0@$$QEAV0@@Z"
"??4QTextMarkdownImporter@@QEAAAEAV0@AEBV0@@Z"
"??4QTextObjectInterface@@QEAAAEAV0@AEBV0@@Z"
"??4QTextOption@@QEAAAEAV0@AEBV0@@Z"
"??4QTextTableCell@@QEAAAEAV0@AEBV0@@Z"
"??4QTextTableCellFormat@@QEAAAEAV0@$$QEAV0@@Z"
"??4QTextTableCellFormat@@QEAAAEAV0@AEBV0@@Z"
"??4QTextTableFormat@@QEAAAEAV0@$$QEAV0@@Z"
"??4QTextTableFormat@@QEAAAEAV0@AEBV0@@Z"
"??4QTextureFileData@@QEAAAEAV0@AEBV0@@Z"
"??4QTextureFileReader@@QEAAAEAV0@AEBV0@@Z"
"??4QToolBarChangeEvent@@IEAAAEAV0@AEBV0@@Z"
"??4QTouchEvent@@IEAAAEAV0@AEBV0@@Z"
"??4QTouchEventSequence@QTest@@QEAAAEAV01@AEBV01@@Z"
"??4QTransform@@QEAAAEAV0@$$QEAV0@@Z"
"??4QTransform@@QEAAAEAV0@AEBV0@@Z"
"??4QWhatsThisClickedEvent@@IEAAAEAV0@AEBV0@@Z"
"??4QWheelEvent@@IEAAAEAV0@AEBV0@@Z"
"??4QWindowStateChangeEvent@@IEAAAEAV0@AEBV0@@Z"
"??4QWindowSystemEventHandler@@QEAAAEAV0@AEBV0@@Z"
"??4QWindowSystemInterface@@QEAAAEAV0@$$QEAV0@@Z"
"??4QWindowSystemInterface@@QEAAAEAV0@AEBV0@@Z"
"??4QWindowSystemInterfacePrivate@@QEAAAEAV0@$$QEAV0@@Z"
"??4QWindowSystemInterfacePrivate@@QEAAAEAV0@AEBV0@@Z"
"??4QtFontFamily@@QEAAAEAU0@AEBU0@@Z"
"??4QtFontFoundry@@QEAAAEAU0@AEBU0@@Z"
"??4QtFontSize@@QEAAAEAU0@$$QEAU0@@Z"
"??4QtFontSize@@QEAAAEAU0@AEBU0@@Z"
"??4QtFontStyle@@QEAAAEAU0@AEBU0@@Z"
"??4Scanner@QCss@@QEAAAEAV01@$$QEAV01@@Z"
"??4Scanner@QCss@@QEAAAEAV01@AEBV01@@Z"
"??4Selector@QCss@@QEAAAEAU01@$$QEAU01@@Z"
"??4Selector@QCss@@QEAAAEAU01@AEBU01@@Z"
"??4ShaderDesc@QOpenGLProgramBinaryCache@@QEAAAEAU01@$$QEAU01@@Z"
"??4ShaderDesc@QOpenGLProgramBinaryCache@@QEAAAEAU01@AEBU01@@Z"
"??4StyleSelector@QCss@@QEAAAEAV01@AEBV01@@Z"
"??4Tab@QTextOption@@QEAAAEAU01@$$QEAU01@@Z"
"??4Tab@QTextOption@@QEAAAEAU01@AEBU01@@Z"
"??4TabletEvent@QWindowSystemInterfacePrivate@@QEAAAEAV01@$$QEAV01@@Z"
"??4TabletEvent@QWindowSystemInterfacePrivate@@QEAAAEAV01@AEBV01@@Z"
"??4ValueExtractor@QCss@@QEAAAEAU01@$$QEAU01@@Z"
"??4ValueExtractor@QCss@@QEAAAEAU01@AEBU01@@Z"
"??4glyph_metrics_t@@QEAAAEAU0@$$QEAU0@@Z"
"??4glyph_metrics_t@@QEAAAEAU0@AEBU0@@Z"
"??5@YAAEAVQDataStream@@AEAV0@AEAUAffine@QTransform@@@Z"
"??5@YAAEAVQDataStream@@AEAV0@AEAUTag@QFont@@@Z"
"??5@YAAEAVQDataStream@@AEAV0@AEAVQBrush@@@Z"
"??5@YAAEAVQDataStream@@AEAV0@AEAVQColor@@@Z"
"??5@YAAEAVQDataStream@@AEAV0@AEAVQColorSpace@@@Z"
"??5@YAAEAVQDataStream@@AEAV0@AEAVQCursor@@@Z"
"??5@YAAEAVQDataStream@@AEAV0@AEAVQFont@@@Z"
"??5@YAAEAVQDataStream@@AEAV0@AEAVQIcon@@@Z"
"??5@YAAEAVQDataStream@@AEAV0@AEAVQImage@@@Z"
"??5@YAAEAVQDataStream@@AEAV0@AEAVQKeySequence@@@Z"
"??5@YAAEAVQDataStream@@AEAV0@AEAVQMatrix4x4@@@Z"
"??5@YAAEAVQDataStream@@AEAV0@AEAVQPageRanges@@@Z"
"??5@YAAEAVQDataStream@@AEAV0@AEAVQPainterPath@@@Z"
"??5@YAAEAVQDataStream@@AEAV0@AEAVQPalette@@@Z"
"??5@YAAEAVQDataStream@@AEAV0@AEAVQPen@@@Z"
"??5@YAAEAVQDataStream@@AEAV0@AEAVQPicture@@@Z"
"??5@YAAEAVQDataStream@@AEAV0@AEAVQPixmap@@@Z"
"??5@YAAEAVQDataStream@@AEAV0@AEAVQPolygon@@@Z"
"??5@YAAEAVQDataStream@@AEAV0@AEAVQPolygonF@@@Z"
"??5@YAAEAVQDataStream@@AEAV0@AEAVQQuaternion@@@Z"
"??5@YAAEAVQDataStream@@AEAV0@AEAVQRegion@@@Z"
"??5@YAAEAVQDataStream@@AEAV0@AEAVQStandardItem@@@Z"
"??5@YAAEAVQDataStream@@AEAV0@AEAVQTextBlockFormat@@@Z"
"??5@YAAEAVQDataStream@@AEAV0@AEAVQTextCharFormat@@@Z"
"??5@YAAEAVQDataStream@@AEAV0@AEAVQTextFormat@@@Z"
"??5@YAAEAVQDataStream@@AEAV0@AEAVQTextFrameFormat@@@Z"
"??5@YAAEAVQDataStream@@AEAV0@AEAVQTextLength@@@Z"
"??5@YAAEAVQDataStream@@AEAV0@AEAVQTextListFormat@@@Z"
"??5@YAAEAVQDataStream@@AEAV0@AEAVQTextTableCellFormat@@@Z"
"??5@YAAEAVQDataStream@@AEAV0@AEAVQTransform@@@Z"
"??5@YAAEAVQDataStream@@AEAV0@AEAVQVector2D@@@Z"
"??5@YAAEAVQDataStream@@AEAV0@AEAVQVector3D@@@Z"
"??5@YAAEAVQDataStream@@AEAV0@AEAVQVector4D@@@Z"
"??6@YA?AVQDebug@@V0@AEBUBlockVariable@QShaderDescription@@@Z"
"??6@YA?AVQDebug@@V0@AEBUBuiltinVariable@QShaderDescription@@@Z"
"??6@YA?AVQDebug@@V0@AEBUInOutVariable@QShaderDescription@@@Z"
"??6@YA?AVQDebug@@V0@AEBUPushConstantBlock@QShaderDescription@@@Z"
"??6@YA?AVQDebug@@V0@AEBUQRhiDriverInfo@@@Z"
"??6@YA?AVQDebug@@V0@AEBUQRhiStats@@@Z"
"??6@YA?AVQDebug@@V0@AEBUQRhiSwapChainHdrInfo@@@Z"
"??6@YA?AVQDebug@@V0@AEBUScreenFactor@QHighDpiScaling@@@Z"
"??6@YA?AVQDebug@@V0@AEBUStorageBlock@QShaderDescription@@@Z"
"??6@YA?AVQDebug@@V0@AEBUTouchPoint@QWindowSystemInterface@@@Z"
"??6@YA?AVQDebug@@V0@AEBUUniformBlock@QShaderDescription@@@Z"
"??6@YA?AVQDebug@@V0@AEBVQAccessibleEvent@@@Z"
"??6@YA?AVQDebug@@V0@AEBVQBrush@@@Z"
"??6@YA?AVQDebug@@V0@AEBVQColor@@@Z"
"??6@YA?AVQDebug@@V0@AEBVQColorSpace@@@Z"
"??6@YA?AVQDebug@@V0@AEBVQCursor@@@Z"
"??6@YA?AVQDebug@@V0@AEBVQEventPoint@@@Z"
"??6@YA?AVQDebug@@V0@AEBVQFont@@@Z"
"??6@YA?AVQDebug@@V0@AEBVQIcon@@@Z"
"??6@YA?AVQDebug@@V0@AEBVQImage@@@Z"
"??6@YA?AVQDebug@@V0@AEBVQKeySequence@@@Z"
"??6@YA?AVQDebug@@V0@AEBVQMatrix4x4@@@Z"
"??6@YA?AVQDebug@@V0@AEBVQPageLayout@@@Z"
"??6@YA?AVQDebug@@V0@AEBVQPageRanges@@@Z"
"??6@YA?AVQDebug@@V0@AEBVQPageSize@@@Z"
"??6@YA?AVQDebug@@V0@AEBVQPainterPath@@@Z"
"??6@YA?AVQDebug@@V0@AEBVQPalette@@@Z"
"??6@YA?AVQDebug@@V0@AEBVQPen@@@Z"
"??6@YA?AVQDebug@@V0@AEBVQPixmap@@@Z"
"??6@YA?AVQDebug@@V0@AEBVQPolygon@@@Z"
"??6@YA?AVQDebug@@V0@AEBVQPolygonF@@@Z"
"??6@YA?AVQDebug@@V0@AEBVQQuaternion@@@Z"
"??6@YA?AVQDebug@@V0@AEBVQRegion@@@Z"
"??6@YA?AVQDebug@@V0@AEBVQRhiDepthStencilClearValue@@@Z"
"??6@YA?AVQDebug@@V0@AEBVQRhiScissor@@@Z"
"??6@YA?AVQDebug@@V0@AEBVQRhiShaderResourceBinding@@@Z"
"??6@YA?AVQDebug@@V0@AEBVQRhiShaderResourceBindings@@@Z"
"??6@YA?AVQDebug@@V0@AEBVQRhiShaderStage@@@Z"
"??6@YA?AVQDebug@@V0@AEBVQRhiVertexInputAttribute@@@Z"
"??6@YA?AVQDebug@@V0@AEBVQRhiVertexInputBinding@@@Z"
"??6@YA?AVQDebug@@V0@AEBVQRhiVertexInputLayout@@@Z"
"??6@YA?AVQDebug@@V0@AEBVQRhiViewport@@@Z"
"??6@YA?AVQDebug@@V0@AEBVQShader@@@Z"
"??6@YA?AVQDebug@@V0@AEBVQShaderDescription@@@Z"
"??6@YA?AVQDebug@@V0@AEBVQShaderKey@@@Z"
"??6@YA?AVQDebug@@V0@AEBVQShaderVersion@@@Z"
"??6@YA?AVQDebug@@V0@AEBVQSupportedWritingSystems@@@Z"
"??6@YA?AVQDebug@@V0@AEBVQSurfaceFormat@@@Z"
"??6@YA?AVQDebug@@V0@AEBVQTextFormat@@@Z"
"??6@YA?AVQDebug@@V0@AEBVQTextLength@@@Z"
"??6@YA?AVQDebug@@V0@AEBVQTextureFileData@@@Z"
"??6@YA?AVQDebug@@V0@AEBVQTransform@@@Z"
"??6@YA?AVQDebug@@V0@PEBVQAccessibleInterface@@@Z"
"??6@YA?AVQDebug@@V0@PEBVQAction@@@Z"
"??6@YA?AVQDebug@@V0@PEBVQEvent@@@Z"
"??6@YA?AVQDebug@@V0@PEBVQEventPoint@@@Z"
"??6@YA?AVQDebug@@V0@PEBVQInputDevice@@@Z"
"??6@YA?AVQDebug@@V0@PEBVQOpenGLContext@@@Z"
"??6@YA?AVQDebug@@V0@PEBVQOpenGLContextGroup@@@Z"
"??6@YA?AVQDebug@@V0@PEBVQPlatformSurface@@@Z"
"??6@YA?AVQDebug@@V0@PEBVQPointingDevice@@@Z"
"??6@YA?AVQDebug@@V0@PEBVQScreen@@@Z"
"??6@YA?AVQDebug@@V0@PEBVQWindow@@@Z"
"??6@YA?AVQDebug@@V0@UTag@QFont@@@Z"
"??6@YA?AVQDebug@@V0@VQVector2D@@@Z"
"??6@YA?AVQDebug@@V0@VQVector3D@@@Z"
"??6@YA?AVQDebug@@V0@VQVector4D@@@Z"
"??6@YAAEAVQDataStream@@AEAV0@AEBUAffine@QTransform@@@Z"
"??6@YAAEAVQDataStream@@AEAV0@AEBVQBrush@@@Z"
"??6@YAAEAVQDataStream@@AEAV0@AEBVQColor@@@Z"
"??6@YAAEAVQDataStream@@AEAV0@AEBVQColorSpace@@@Z"
"??6@YAAEAVQDataStream@@AEAV0@AEBVQCursor@@@Z"
"??6@YAAEAVQDataStream@@AEAV0@AEBVQFont@@@Z"
"??6@YAAEAVQDataStream@@AEAV0@AEBVQIcon@@@Z"
"??6@YAAEAVQDataStream@@AEAV0@AEBVQImage@@@Z"
"??6@YAAEAVQDataStream@@AEAV0@AEBVQKeySequence@@@Z"
"??6@YAAEAVQDataStream@@AEAV0@AEBVQMatrix4x4@@@Z"
"??6@YAAEAVQDataStream@@AEAV0@AEBVQPageRanges@@@Z"
"??6@YAAEAVQDataStream@@AEAV0@AEBVQPainterPath@@@Z"
"??6@YAAEAVQDataStream@@AEAV0@AEBVQPalette@@@Z"
"??6@YAAEAVQDataStream@@AEAV0@AEBVQPen@@@Z"
"??6@YAAEAVQDataStream@@AEAV0@AEBVQPicture@@@Z"
"??6@YAAEAVQDataStream@@AEAV0@AEBVQPixmap@@@Z"
"??6@YAAEAVQDataStream@@AEAV0@AEBVQPolygon@@@Z"
"??6@YAAEAVQDataStream@@AEAV0@AEBVQPolygonF@@@Z"
"??6@YAAEAVQDataStream@@AEAV0@AEBVQQuaternion@@@Z"
"??6@YAAEAVQDataStream@@AEAV0@AEBVQRegion@@@Z"
"??6@YAAEAVQDataStream@@AEAV0@AEBVQStandardItem@@@Z"
"??6@YAAEAVQDataStream@@AEAV0@AEBVQTextBlockFormat@@@Z"
"??6@YAAEAVQDataStream@@AEAV0@AEBVQTextCharFormat@@@Z"
"??6@YAAEAVQDataStream@@AEAV0@AEBVQTextFormat@@@Z"
"??6@YAAEAVQDataStream@@AEAV0@AEBVQTextFrameFormat@@@Z"
"??6@YAAEAVQDataStream@@AEAV0@AEBVQTextLength@@@Z"
"??6@YAAEAVQDataStream@@AEAV0@AEBVQTextListFormat@@@Z"
"??6@YAAEAVQDataStream@@AEAV0@AEBVQTextTableCellFormat@@@Z"
"??6@YAAEAVQDataStream@@AEAV0@AEBVQTransform@@@Z"
"??6@YAAEAVQDataStream@@AEAV0@UTag@QFont@@@Z"
"??6@YAAEAVQDataStream@@AEAV0@VQVector2D@@@Z"
"??6@YAAEAVQDataStream@@AEAV0@VQVector3D@@@Z"
"??6@YAAEAVQDataStream@@AEAV0@VQVector4D@@@Z"
"??6@YAAEAVQDebug@@AEAV0@AEBVQVectorPath@@@Z"
"??7QPixmap@@QEBA_NXZ"
"??8@YA_NAEBUBlockVariable@QShaderDescription@@0@Z"
"??8@YA_NAEBUBuiltinVariable@QShaderDescription@@0@Z"
"??8@YA_NAEBUInOutVariable@QShaderDescription@@0@Z"
"??8@YA_NAEBUPushConstantBlock@QShaderDescription@@0@Z"
"??8@YA_NAEBUStorageBlock@QShaderDescription@@0@Z"
"??8@YA_NAEBUUniformBlock@QShaderDescription@@0@Z"
"??8@YA_NAEBVQCursor@@0@Z"
"??8@YA_NAEBVQPageSize@@0@Z"
"??8@YA_NAEBVQRhiShaderResourceBinding@@0@Z"
"??8@YA_NAEBVQShader@@0@Z"
"??8@YA_NAEBVQShaderCode@@0@Z"
"??8@YA_NAEBVQShaderDescription@@0@Z"
"??8@YA_NAEBVQShaderKey@@0@Z"
"??8@YA_NAEBVQShaderVersion@@0@Z"
"??8@YA_NAEBVQSupportedWritingSystems@@0@Z"
"??8Key@QPixmapCache@@QEBA_NAEBV01@@Z"
"??8QBrush@@QEBA_NAEBV0@@Z"
"??8QColor@@QEBA_NAEBV0@@Z"
"??8QEventPoint@@QEBA_NAEBV0@@Z"
"??8QFont@@QEBA_NAEBV0@@Z"
"??8QFontMetrics@@QEBA_NAEBV0@@Z"
"??8QFontMetricsF@@QEBA_NAEBV0@@Z"
"??8QGlyphRun@@QEBA_NAEBV0@@Z"
"??8QGradient@@QEBA_NAEBV0@@Z"
"??8QImage@@QEBA_NAEBV0@@Z"
"??8QInputDevice@@QEBA_NAEBV0@@Z"
"??8QKeySequence@@QEBA_NAEBV0@@Z"
"??8QMatrix4x4@@QEBA_NAEBV0@@Z"
"??8QPainterPath@@QEBA_NAEBV0@@Z"
"??8QPalette@@QEBA_NAEBV0@@Z"
"??8QPen@@QEBA_NAEBV0@@Z"
"??8QPointingDevice@@QEBA_NAEBV0@@Z"
"??8QRawFont@@QEBA_NAEBV0@@Z"
"??8QRegion@@QEBA_NAEBV0@@Z"
"??8QStaticText@@QEBA_NAEBV0@@Z"
"??8QTextBlock@@QEBA_NAEBV0@@Z"
"??8QTextCursor@@QEBA_NAEBV0@@Z"
"??8QTextFormat@@QEBA_NAEBV0@@Z"
"??8QTextFragment@@QEBA_NAEBV0@@Z"
"??8QTextLength@@QEBA_NAEBV0@@Z"
"??8QTextTableCell@@QEBA_NAEBV0@@Z"
"??8QTransform@@QEBA_NAEBV0@@Z"
"??8Tab@QTextOption@@QEBA_NAEBU01@@Z"
"??9@YA_NAEBVQRhiShaderResourceBinding@@0@Z"
"??9@YA_NAEBVQSupportedWritingSystems@@0@Z"
"??9Key@QPixmapCache@@QEBA_NAEBV01@@Z"
"??9QBrush@@QEBA_NAEBV0@@Z"
"??9QColor@@QEBA_NAEBV0@@Z"
"??9QEventPoint@@QEBA_NAEBV0@@Z"
"??9QFont@@QEBA_NAEBV0@@Z"
"??9QFontMetrics@@QEBA_NAEBV0@@Z"
"??9QFontMetricsF@@QEBA_NAEBV0@@Z"
"??9QGlyphRun@@QEBA_NAEBV0@@Z"
"??9QGradient@@QEBA_NAEBV0@@Z"
"??9QImage@@QEBA_NAEBV0@@Z"
"??9QKeySequence@@QEBA_NAEBV0@@Z"
"??9QMatrix4x4@@QEBA_NAEBV0@@Z"
"??9QPainterPath@@QEBA_NAEBV0@@Z"
"??9QPalette@@QEBA_NAEBV0@@Z"
"??9QPen@@QEBA_NAEBV0@@Z"
"??9QRawFont@@QEBA_NAEBV0@@Z"
"??9QRegion@@QEBA_NAEBV0@@Z"
"??9QStaticText@@QEBA_NAEBV0@@Z"
"??9QTextBlock@@QEBA_NAEBV0@@Z"
"??9QTextCursor@@QEBA_NAEBV0@@Z"
"??9QTextFormat@@QEBA_NAEBV0@@Z"
"??9QTextFragment@@QEBA_NAEBV0@@Z"
"??9QTextLength@@QEBA_NAEBV0@@Z"
"??9QTextTableCell@@QEBA_NAEBV0@@Z"
"??9QTransform@@QEBA_NAEBV0@@Z"
"??9Tab@QTextOption@@QEBA_NAEBU01@@Z"
"??AQKeySequence@@QEBA?AVQKeyCombination@@I@Z"
"??BQBitmap@@QEBA?AVQVariant@@XZ"
"??BQBrush@@QEBA?AVQVariant@@XZ"
"??BQColor@@QEBA?AVQVariant@@XZ"
"??BQColorSpace@@QEBA?AVQVariant@@XZ"
"??BQCursor@@QEBA?AVQVariant@@XZ"
"??BQFont@@QEBA?AVQVariant@@XZ"
"??BQIcon@@QEBA?AVQVariant@@XZ"
"??BQImage@@QEBA?AVQVariant@@XZ"
"??BQKeySequence@@QEBA?AVQVariant@@XZ"
"??BQMatrix4x4@@QEBA?AVQVariant@@XZ"
"??BQPalette@@QEBA?AVQVariant@@XZ"
"??BQPen@@QEBA?AVQVariant@@XZ"
"??BQPixmap@@QEBA?AVQVariant@@XZ"
"??BQPolygon@@QEBA?AVQVariant@@XZ"
"??BQPolygonF@@QEBA?AVQVariant@@XZ"
"??BQQuaternion@@QEBA?AVQVariant@@XZ"
"??BQRegion@@QEBA?AVQVariant@@XZ"
"??BQTextFormat@@QEBA?AVQVariant@@XZ"
"??BQTextLength@@QEBA?AVQVariant@@XZ"
"??BQTransform@@QEBA?AVQVariant@@XZ"
"??BQVector2D@@QEBA?AVQVariant@@XZ"
"??BQVector3D@@QEBA?AVQVariant@@XZ"
"??BQVector4D@@QEBA?AVQVariant@@XZ"
"??DQTransform@@QEBA?AV0@AEBV0@@Z"
"??Eiterator@QTextBlock@@QEAAAEAV01@XZ"
"??Eiterator@QTextFrame@@QEAAAEAV01@XZ"
"??Fiterator@QTextBlock@@QEAAAEAV01@XZ"
"??Fiterator@QTextFrame@@QEAAAEAV01@XZ"
"??GQPainterPath@@QEBA?AV0@AEBV0@@Z"
"??GQRegion@@QEBA?AV0@AEBV0@@Z"
"??HQPainterPath@@QEBA?AV0@AEBV0@@Z"
"??HQRegion@@QEBA?AV0@AEBV0@@Z"
"??HQRegion@@QEBA?AV0@AEBVQRect@@@Z"
"??IQPainterPath@@QEBA?AV0@AEBV0@@Z"
"??IQRegion@@QEBA?AV0@AEBV0@@Z"
"??IQRegion@@QEBA?AV0@AEBVQRect@@@Z"
"??K@YA?AVQMatrix4x4@@AEBV0@M@Z"
"??M@YA_NAEBVQShaderKey@@0@Z"
"??M@YA_NAEBVQShaderVersion@@0@Z"
"??MQFont@@QEBA_NAEBV0@@Z"
"??MQKeySequence@@QEBA_NAEBV0@@Z"
"??MQStandardItem@@UEBA_NAEBV0@@Z"
"??MQTextBlock@@QEBA_NAEBV0@@Z"
"??MQTextCursor@@QEBA_NAEBV0@@Z"
"??MQTextFragment@@QEBA_NAEBV0@@Z"
"??NQKeySequence@@QEBA_NAEBV0@@Z"
"??NQTextCursor@@QEBA_NAEBV0@@Z"
"??OQKeySequence@@QEBA_NAEBV0@@Z"
"??OQTextCursor@@QEBA_NAEBV0@@Z"
"??PQKeySequence@@QEBA_NAEBV0@@Z"
"??PQTextCursor@@QEBA_NAEBV0@@Z"
"??RQMatrix4x4@@QEAAAEAMHH@Z"
"??RQMatrix4x4@@QEBAAEBMHH@Z"
"??TQRegion@@QEBA?AV0@AEBV0@@Z"
"??UQPainterPath@@QEBA?AV0@AEBV0@@Z"
"??UQRegion@@QEBA?AV0@AEBV0@@Z"
"??XQMatrix4x4@@QEAAAEAV0@AEBV0@@Z"
"??XQMatrix4x4@@QEAAAEAV0@M@Z"
"??XQQuaternion@@QEAAAEAV0@AEBV0@@Z"
"??XQQuaternion@@QEAAAEAV0@M@Z"
"??XQTransform@@QEAAAEAV0@AEBV0@@Z"
"??XQTransform@@QEAAAEAV0@N@Z"
"??YQMatrix4x4@@QEAAAEAV0@AEBV0@@Z"
"??YQPainterPath@@QEAAAEAV0@AEBV0@@Z"
"??YQQuaternion@@QEAAAEAV0@AEBV0@@Z"
"??YQRegion@@QEAAAEAV0@AEBV0@@Z"
"??YQRegion@@QEAAAEAV0@AEBVQRect@@@Z"
"??YQTransform@@QEAAAEAV0@N@Z"
"??ZQMatrix4x4@@QEAAAEAV0@AEBV0@@Z"
"??ZQPainterPath@@QEAAAEAV0@AEBV0@@Z"
"??ZQQuaternion@@QEAAAEAV0@AEBV0@@Z"
"??ZQRegion@@QEAAAEAV0@AEBV0@@Z"
"??ZQTransform@@QEAAAEAV0@N@Z"
"??_0QMatrix4x4@@QEAAAEAV0@M@Z"
"??_0QQuaternion@@QEAAAEAV0@M@Z"
"??_0QTransform@@QEAAAEAV0@N@Z"
"??_4QPainterPath@@QEAAAEAV0@AEBV0@@Z"
"??_4QRegion@@QEAAAEAV0@AEBV0@@Z"
"??_4QRegion@@QEAAAEAV0@AEBVQRect@@@Z"
"??_5QPainterPath@@QEAAAEAV0@AEBV0@@Z"
"??_5QRegion@@QEAAAEAV0@AEBV0@@Z"
"??_6QRegion@@QEAAAEAV0@AEBV0@@Z"
"??_7ActivationObserver@QAccessible@@6B@"
"??_7QAbstractFileIconEngine@@6B@"
"??_7QAbstractFileIconProvider@@6B@"
"??_7QAbstractFileIconProviderPrivate@@6B@"
"??_7QAbstractLayoutStyleInfo@@6B@"
"??_7QAbstractTextDocumentLayout@@6B@"
"??_7QAbstractTextDocumentLayoutPrivate@@6B@"
"??_7QAbstractUndoItem@@6B@"
"??_7QAccessibleActionInterface@@6B@"
"??_7QAccessibleAnnouncementEvent@@6B@"
"??_7QAccessibleApplication@@6B@"
"??_7QAccessibleAttributesInterface@@6B@"
"??_7QAccessibleBridge@@6B@"
"??_7QAccessibleBridgePlugin@@6B@"
"??_7QAccessibleCache@@6B@"
"??_7QAccessibleEditableTextInterface@@6B@"
"??_7QAccessibleEvent@@6B@"
"??_7QAccessibleHyperlinkInterface@@6B@"
"??_7QAccessibleImageInterface@@6B@"
"??_7QAccessibleInterface@@6B@"
"??_7QAccessibleObject@@6B@"
"??_7QAccessiblePlugin@@6B@"
"??_7QAccessibleSelectionInterface@@6B@"
"??_7QAccessibleStateChangeEvent@@6B@"
"??_7QAccessibleTableCellInterface@@6B@"
"??_7QAccessibleTableInterface@@6B@"
"??_7QAccessibleTableModelChangeEvent@@6B@"
"??_7QAccessibleTextCursorEvent@@6B@"
"??_7QAccessibleTextInsertEvent@@6B@"
"??_7QAccessibleTextInterface@@6B@"
"??_7QAccessibleTextRemoveEvent@@6B@"
"??_7QAccessibleTextSelectionEvent@@6B@"
"??_7QAccessibleTextUpdateEvent@@6B@"
"??_7QAccessibleValueChangeEvent@@6B@"
"??_7QAccessibleValueInterface@@6B@"
"??_7QAction@@6B@"
"??_7QActionEvent@@6B@"
"??_7QActionGroup@@6B@"
"??_7QActionGroupPrivate@@6B@"
"??_7QActionPrivate@@6B@"
"??_7QApplicationStateChangeEvent@@6B@"
"??_7QBasicDrag@@6BQObject@@@"
"??_7QBasicDrag@@6BQPlatformDrag@@@"
"??_7QBitmap@@6B@"
"??_7QBlittable@@6B@"
"??_7QBlittablePlatformPixmap@@6B@"
"??_7QBlitterPaintEngine@@6B@"
"??_7QChildWindowEvent@@6B@"
"??_7QClipboard@@6B@"
"??_7QCloseEvent@@6B@"
"??_7QContextMenuEvent@@6B@"
"??_7QDashStroker@@6B@"
"??_7QDoubleValidator@@6B@"
"??_7QDrag@@6B@"
"??_7QDragEnterEvent@@6B@"
"??_7QDragLeaveEvent@@6B@"
"??_7QDragManager@@6B@"
"??_7QDragMoveEvent@@6B@"
"??_7QDropEvent@@6B@"
"??_7QEnterEvent@@6B@"
"??_7QExposeEvent@@6B@"
"??_7QFileInfoGatherer@@6B@"
"??_7QFileOpenEvent@@6B@"
"??_7QFileSystemModel@@6B@"
"??_7QFileSystemModelPrivate@@6B@"
"??_7QFocusEvent@@6B@"
"??_7QFontCache@@6B@"
"??_7QFontEngine@@6B@"
"??_7QFontEngineGlyphCache@@6B@"
"??_7QFontEngineMulti@@6B@"
"??_7QGenericPlugin@@6B@"
"??_7QGridLayoutItem@@6B@"
"??_7QGuiApplication@@6B@"
"??_7QGuiApplicationPrivate@@6B@"
"??_7QHelpEvent@@6B@"
"??_7QHideEvent@@6B@"
"??_7QHoverEvent@@6B@"
"??_7QIconDragEvent@@6B@"
"??_7QIconEngine@@6B@"
"??_7QIconEnginePlugin@@6B@"
"??_7QImage@@6B@"
"??_7QImageIOHandler@@6B@"
"??_7QImageIOPlugin@@6B@"
"??_7QImageTextureGlyphCache@@6B@"
"??_7QInputControl@@6B@"
"??_7QInputDevice@@6B@"
"??_7QInputDeviceManager@@6B@"
"??_7QInputDeviceManagerPrivate@@6B@"
"??_7QInputDevicePrivate@@6B@"
"??_7QInputEvent@@6B@"
"??_7QInputMethod@@6B@"
"??_7QInputMethodEvent@@6B@"
"??_7QInputMethodQueryEvent@@6B@"
"??_7QIntValidator@@6B@"
"??_7QInternalMimeData@@6B@"
"??_7QKeyEvent@@6B@"
"??_7QKeyMapper@@6B@"
"??_7QMouseEvent@@6B@"
"??_7QMoveEvent@@6B@"
"??_7QMovie@@6B@"
"??_7QMutableSinglePointEvent@@6B@"
"??_7QMutableTouchEvent@@6B@"
"??_7QNativeGestureEvent@@6B@"
"??_7QOffscreenSurface@@6BQObject@@@"
"??_7QOffscreenSurface@@6BQSurface@@@"
"??_7QOffscreenSurfacePrivate@@6B@"
"??_7QOpenGLContext@@6B@"
"??_7QOpenGLContextGroup@@6B@"
"??_7QOpenGLContextGroupPrivate@@6B@"
"??_7QOpenGLContextPrivate@@6B@"
"??_7QOpenGLContextVersionFunctionHelper@@6B@"
"??_7QOpenGLProgramBinarySupportCheck@@6B@"
"??_7QOpenGLSharedResource@@6B@"
"??_7QOpenGLSharedResourceGuard@@6B@"
"??_7QPagedPaintDevice@@6B@"
"??_7QPagedPaintDevicePrivate@@6B@"
"??_7QPaintDevice@@6B@"
"??_7QPaintDeviceWindow@@6B@"
"??_7QPaintDeviceWindow@@6BQObject@@@"
"??_7QPaintDeviceWindow@@6BQSurface@@@"
"??_7QPaintDeviceWindowPrivate@@6B@"
"??_7QPaintEngine@@6B@"
"??_7QPaintEngineEx@@6B@"
"??_7QPaintEngineExPrivate@@6B@"
"??_7QPaintEnginePrivate@@6B@"
"??_7QPaintEvent@@6B@"
"??_7QPainterState@@6B@"
"??_7QPicture@@6B@"
"??_7QPixmap@@6B@"
"??_7QPixmapIconEngine@@6B@"
"??_7QPlatformAccessibility@@6B@"
"??_7QPlatformBackingStore@@6B@"
"??_7QPlatformClipboard@@6B@"
"??_7QPlatformColorDialogHelper@@6B@"
"??_7QPlatformCursor@@6B@"
"??_7QPlatformDialogHelper@@6B@"
"??_7QPlatformDrag@@6B@"
"??_7QPlatformFileDialogHelper@@6B@"
"??_7QPlatformFontDatabase@@6B@"
"??_7QPlatformFontDialogHelper@@6B@"
"??_7QPlatformGraphicsBuffer@@6B@"
"??_7QPlatformInputContext@@6B@"
"??_7QPlatformInputContextPlugin@@6B@"
"??_7QPlatformIntegration@@6B@"
"??_7QPlatformIntegrationPlugin@@6B@"
"??_7QPlatformKeyMapper@@6B@"
"??_7QPlatformMenu@@6B@"
"??_7QPlatformMenuBar@@6B@"
"??_7QPlatformMenuItem@@6B@"
"??_7QPlatformMessageDialogHelper@@6B@"
"??_7QPlatformNativeInterface@@6B@"
"??_7QPlatformOffscreenSurface@@6B@"
"??_7QPlatformOpenGLContext@@6B@"
"??_7QPlatformPixmap@@6B@"
"??_7QPlatformPlaceholderScreen@@6B@"
"??_7QPlatformScreen@@6B@"
"??_7QPlatformServiceColorPicker@@6B@"
"??_7QPlatformServices@@6B@"
"??_7QPlatformSessionManager@@6B@"
"??_7QPlatformSharedGraphicsCache@@6B@"
"??_7QPlatformSurface@@6B@"
"??_7QPlatformSurfaceEvent@@6B@"
"??_7QPlatformSystemTrayIcon@@6B@"
"??_7QPlatformTextureList@@6B@"
"??_7QPlatformTheme@@6B@"
"??_7QPlatformThemePlugin@@6B@"
"??_7QPlatformThemePrivate@@6B@"
"??_7QPlatformWindow@@6B@"
"??_7QPointerEvent@@6B@"
"??_7QPointingDevice@@6B@"
"??_7QPointingDevicePrivate@@6B@"
"??_7QRasterPaintEngine@@6B@"
"??_7QRasterPlatformPixmap@@6B@"
"??_7QRasterWindow@@6B@"
"??_7QRasterWindow@@6BQObject@@@"
"??_7QRasterWindow@@6BQSurface@@@"
"??_7QRegularExpressionValidator@@6B@"
"??_7QResizeEvent@@6B@"
"??_7QRhiBuffer@@6B@"
"??_7QRhiCommandBuffer@@6B@"
"??_7QRhiComputePipeline@@6B@"
"??_7QRhiGraphicsPipeline@@6B@"
"??_7QRhiRenderBuffer@@6B@"
"??_7QRhiRenderPassDescriptor@@6B@"
"??_7QRhiRenderTarget@@6B@"
"??_7QRhiResource@@6B@"
"??_7QRhiSampler@@6B@"
"??_7QRhiShaderResourceBindings@@6B@"
"??_7QRhiSwapChain@@6B@"
"??_7QRhiSwapChainRenderTarget@@6B@"
"??_7QRhiTexture@@6B@"
"??_7QRhiTextureRenderTarget@@6B@"
"??_7QScreen@@6B@"
"??_7QScreenOrientationChangeEvent@@6B@"
"??_7QScrollEvent@@6B@"
"??_7QScrollPrepareEvent@@6B@"
"??_7QSessionManager@@6B@"
"??_7QSessionManagerPrivate@@6B@"
"??_7QShortcut@@6B@"
"??_7QShortcutEvent@@6B@"
"??_7QShortcutPrivate@@6B@"
"??_7QShowEvent@@6B@"
"??_7QSimpleDrag@@6BQObject@@@"
"??_7QSimpleDrag@@6BQPlatformDrag@@@"
"??_7QSinglePointEvent@@6B@"
"??_7QStandardItem@@6B@"
"??_7QStandardItemModel@@6B@"
"??_7QStaticTextUserData@@6B@"
"??_7QStatusTipEvent@@6B@"
"??_7QStroker@@6B@"
"??_7QStrokerOps@@6B@"
"??_7QStyleHints@@6B@"
"??_7QSurface@@6B@"
"??_7QSyntaxHighlighter@@6B@"
"??_7QTabletEvent@@6B@"
"??_7QTextBlockGroup@@6B@"
"??_7QTextBlockUserData@@6B@"
"??_7QTextDocument@@6B@"
"??_7QTextDocumentLayout@@6B@"
"??_7QTextDocumentPrivate@@6B@"
"??_7QTextFrame@@6B@"
"??_7QTextFrameLayoutData@@6B@"
"??_7QTextImageHandler@@6BQObject@@@"
"??_7QTextImageHandler@@6BQTextObjectInterface@@@"
"??_7QTextList@@6B@"
"??_7QTextObject@@6B@"
"??_7QTextObjectInterface@@6B@"
"??_7QTextTable@@6B@"
"??_7QTextureGlyphCache@@6B@"
"??_7QToolBarChangeEvent@@6B@"
"??_7QTouchEvent@@6B@"
"??_7QTouchEventSequence@QTest@@6B@"
"??_7QUndoCommand@@6B@"
"??_7QUndoGroup@@6B@"
"??_7QUndoStack@@6B@"
"??_7QValidator@@6B@"
"??_7QWGLContext@QNativeInterface@@6B@"
"??_7QWhatsThisClickedEvent@@6B@"
"??_7QWheelEvent@@6B@"
"??_7QWindow@@6BQObject@@@"
"??_7QWindow@@6BQSurface@@@"
"??_7QWindowPrivate@@6B@"
"??_7QWindowStateChangeEvent@@6B@"
"??_7QWindowSystemEventHandler@@6B@"
"??_7QWindowsApplication@Private@QNativeInterface@@6B@"
"??_7QWindowsDirectWriteFontDatabase@@6B@"
"??_7QWindowsFontDatabase@@6B@"
"??_7QWindowsFontDatabaseBase@@6B@"
"??_7QWindowsFontEngineDirectWrite@@6B@"
"??_7QWindowsGLIntegration@Private@QNativeInterface@@6B@"
"??_7QWindowsGuiEventDispatcher@@6B@"
"??_7QWindowsMimeConverter@@6B@"
"??_7QWindowsScreen@QNativeInterface@@6B@"
"??_7QWindowsWindow@Private@QNativeInterface@@6B@"
"??_7StyleSelector@QCss@@6B@"
"??_7TabletEvent@QWindowSystemInterfacePrivate@@6B@"
"??_FQAccessibleBridgePlugin@@QEAAXXZ"
"??_FQAccessiblePlugin@@QEAAXXZ"
"??_FQAction@@QEAAXXZ"
"??_FQDoubleValidator@@QEAAXXZ"
"??_FQEventPoint@@QEAAXXZ"
"??_FQFileInfoGatherer@@QEAAXXZ"
"??_FQFileSystemModel@@QEAAXXZ"
"??_FQGenericPlugin@@QEAAXXZ"
"??_FQGridLayoutEngine@@QEAAXXZ"
"??_FQIconEnginePlugin@@QEAAXXZ"
"??_FQImageIOPlugin@@QEAAXXZ"
"??_FQInputDevice@@QEAAXXZ"
"??_FQInputDeviceManager@@QEAAXXZ"
"??_FQIntValidator@@QEAAXXZ"
"??_FQMovie@@QEAAXXZ"
"??_FQMutableSinglePointEvent@@QEAAXXZ"
"??_FQMutableTouchEvent@@QEAAXXZ"
"??_FQOffscreenSurface@@QEAAXXZ"
"??_FQOpenGLContext@@QEAAXXZ"
"??_FQPaintEngine@@QEAAXXZ"
"??_FQPicture@@QEAAXXZ"
"??_FQPlatformInputContextPlugin@@QEAAXXZ"
"??_FQPlatformIntegrationPlugin@@QEAAXXZ"
"??_FQPlatformPlaceholderScreen@@QEAAXXZ"
"??_FQPlatformServiceColorPicker@@QEAAXXZ"
"??_FQPlatformSharedGraphicsCache@@QEAAXXZ"
"??_FQPlatformTextureList@@QEAAXXZ"
"??_FQPlatformThemePlugin@@QEAAXXZ"
"??_FQPointingDevice@@QEAAXXZ"
"??_FQRasterWindow@@QEAAXXZ"
"??_FQRegularExpressionValidator@@QEAAXXZ"
"??_FQStandardItemModel@@QEAAXXZ"
"??_FQTextDocument@@QEAAXXZ"
"??_FQTextImageHandler@@QEAAXXZ"
"??_FQTextureFileData@@QEAAXXZ"
"??_FQUndoCommand@@QEAAXXZ"
"??_FQUndoGroup@@QEAAXXZ"
"??_FQUndoStack@@QEAAXXZ"
"??_FQValidator@@QEAAXXZ"
"??_FQWindow@@QEAAXXZ"
"??_FQWindowsGuiEventDispatcher@@QEAAXXZ"
"?BINDING_PREALLOC@QRhiShaderResourceBindings@@1HB"
"?LAYOUT_DESC_ENTRIES_PER_BINDING@QRhiShaderResourceBinding@@2HB"
"?LOGFONT_to_QFont@QWindowsFontDatabaseBase@@SA?AVQFont@@AEBUtagLOGFONTW@@H@Z"
"?MAX_MIP_LEVELS@QRhi@@2HB"
"?QPixelFormat_createYUV@QtPrivate@@YA?AVQPixelFormat@@W4YUVLayout@2@EW4AlphaUsage@2@W4AlphaPosition@2@W4AlphaPremultiplied@2@W4TypeInterpretation@2@W4ByteOrder@2@@Z"
"?QSB_VERSION@QShaderPrivate@@2HB"
"?QSB_VERSION_WITHOUT_BINDINGS@QShaderPrivate@@2HB"
"?QSB_VERSION_WITHOUT_EXTENDED_STORAGE_BUFFER_INFO@QShaderPrivate@@2HB"
"?QSB_VERSION_WITHOUT_INPUT_OUTPUT_INTERFACE_BLOCKS@QShaderPrivate@@2HB"
"?QSB_VERSION_WITHOUT_NATIVE_SHADER_INFO@QShaderPrivate@@2HB"
"?QSB_VERSION_WITHOUT_SEPARATE_IMAGES_AND_SAMPLERS@QShaderPrivate@@2HB"
"?QSB_VERSION_WITHOUT_VAR_ARRAYDIMS@QShaderPrivate@@2HB"
"?QSB_VERSION_WITH_BINARY_JSON@QShaderPrivate@@2HB"
"?QSB_VERSION_WITH_CBOR@QShaderPrivate@@2HB"
"?QT_DISTANCEFIELD_BASEFONTSIZE@@YAH_N@Z"
"?QT_DISTANCEFIELD_HIGHGLYPHCOUNT@@YAHXZ"
"?QT_DISTANCEFIELD_RADIUS@@YAH_N@Z"
"?QT_DISTANCEFIELD_SCALE@@YAH_N@Z"
"?Resolution@QColorTrcLut@@2_JB"
"?ShiftDown@QColorTrcLut@@2IB"
"?ShiftUp@QColorTrcLut@@2IB"
"?_q_actionChanged@QActionGroup@@AEAAXXZ"
"?_q_actionHovered@QActionGroup@@AEAAXXZ"
"?_q_actionTriggered@QActionGroup@@AEAAXXZ"
"?_q_clearAlert@QWindowPrivate@@QEAAXXZ"
"?_q_dynamicDocumentSizeSlot@QAbstractTextDocumentLayoutPrivate@@QEBA?AVQSizeF@@XZ"
"?_q_dynamicPageCountSlot@QAbstractTextDocumentLayoutPrivate@@QEBAHXZ"
"?_q_handlerDestroyed@QAbstractTextDocumentLayoutPrivate@@QEAAXPEAVQObject@@@Z"
"?_q_screenDestroyed@QOpenGLContextPrivate@@QEAAXPEAVQObject@@@Z"
"?_q_updateFocusObject@QGuiApplicationPrivate@@QEAAXPEAVQObject@@@Z"
"?aboutToBeDestroyed@QOpenGLContext@@QEAAXXZ"
"?aboutToHide@QPlatformMenu@@QEAAXXZ"
"?aboutToRemoveCell@QTextCursorPrivate@@QEAAXHH@Z"
"?aboutToRemoveCell@QTextDocumentPrivate@@QEAAXHH@Z"
"?aboutToShow@QPlatformMenu@@QEAAXXZ"
"?accent@QPalette@@QEBAAEBVQBrush@@XZ"
"?accept@QDragMoveEvent@@QEAAXAEBVQRect@@@Z"
"?accept@QDragMoveEvent@@QEAAXXZ"
"?accept@QPlatformDialogHelper@@QEAAXXZ"
"?acceptMode@QFileDialogOptions@@QEBA?AW4AcceptMode@1@XZ"
"?acceptProposedAction@QDropEvent@@QEAAXXZ"
"?acceptedAction@QPlatformDropQtResponse@@QEBA?AW4DropAction@Qt@@XZ"
"?accessibility@QPlatformIntegration@@UEBAPEAVQPlatformAccessibility@@XZ"
"?accessibleDescription@QStandardItem@@QEBA?AVQString@@XZ"
"?accessibleId@QAccessibleBridgeUtils@@YA?AVQString@@PEAVQAccessibleInterface@@@Z"
"?accessibleInterface@QAccessible@@SAPEAVQAccessibleInterface@@I@Z"
"?accessibleInterface@QAccessibleEvent@@UEBAPEAVQAccessibleInterface@@XZ"
"?accessibleRoot@QWindow@@UEBAPEAVQAccessibleInterface@@XZ"
"?accessibleText@QStandardItem@@QEBA?AVQString@@XZ"
"?acquireId@QAccessibleCache@@AEBAIXZ"
"?action@QActionEvent@@QEBAPEAVQAction@@XZ"
"?actionChanged@QDrag@@QEAAXW4DropAction@Qt@@@Z"
"?actionGroup@QAction@@QEBAPEAVQActionGroup@@XZ"
"?actionInterface@QAccessibleInterface@@QEAAPEAVQAccessibleActionInterface@@XZ"
"?actionText@QUndoCommand@@QEBA?AVQString@@XZ"
"?actions@QActionGroup@@QEBA?AV?$QList@PEAVQAction@@@@XZ"
"?activate@QAction@@QEAAXW4ActionEvent@1@@Z"
"?activatePopup@QGuiApplicationPrivate@@SAXPEAVQWindow@@@Z"
"?activated@QPlatformMenuItem@@QEAAXXZ"
"?activated@QPlatformSystemTrayIcon@@QEAAXW4ActivationReason@1@@Z"
"?activated@QShortcut@@QEAAXXZ"
"?activatedAmbiguously@QShortcut@@QEAAXXZ"
"?activeChanged@QWindow@@QEAAXXZ"
"?activePopupWindow@QGuiApplicationPrivate@@SAPEAVQWindow@@XZ"
"?activeStack@QUndoGroup@@QEBAPEAVQUndoStack@@XZ"
"?activeStackChanged@QUndoGroup@@QEAAXPEAVQUndoStack@@@Z"
"?active_popup_on_press@QGuiApplicationPrivate@@2PEBVQWindow@@EB"
"?actualSize@QAbstractFileIconEngine@@UEAA?AVQSize@@AEBV2@W4Mode@QIcon@@W4State@4@@Z"
"?actualSize@QIcon@@QEBA?AVQSize@@AEBV2@W4Mode@1@W4State@1@@Z"
"?actualSize@QIcon@@QEBA?AVQSize@@PEAVQWindow@@AEBV2@W4Mode@1@W4State@1@@Z"
"?actualSize@QIconEngine@@UEAA?AVQSize@@AEBV2@W4Mode@QIcon@@W4State@4@@Z"
"?actualSize@QPixmapIconEngine@@UEAA?AVQSize@@AEBV2@W4Mode@QIcon@@W4State@4@@Z"
"?add@QGridLayoutBox@@QEAAXAEBV1@HN@Z"
"?add@QTextList@@QEAAXAEBVQTextBlock@@@Z"
"?addAction@QActionGroup@@QEAAPEAVQAction@@AEBVQIcon@@AEBVQString@@@Z"
"?addAction@QActionGroup@@QEAAPEAVQAction@@AEBVQString@@@Z"
"?addAction@QActionGroup@@QEAAPEAVQAction@@PEAV2@@Z"
"?addAppFont@QFontDatabasePrivate@@QEAAHAEBVQByteArray@@AEBVQString@@@Z"
"?addApplicationFallbackFontFamily@QFontDatabase@@SAXW4Script@QChar@@AEBVQString@@@Z"
"?addApplicationFont@QFontDatabase@@SAHAEBVQString@@@Z"
"?addApplicationFont@QPlatformFontDatabase@@UEAA?AV?$QList@VQString@@@@AEBVQByteArray@@AEBVQString@@PEAUApplicationFont@QFontDatabasePrivate@@@Z"
"?addApplicationFont@QWindowsDirectWriteFontDatabase@@UEAA?AV?$QList@VQString@@@@AEBVQByteArray@@AEBVQString@@PEAUApplicationFont@QFontDatabasePrivate@@@Z"
"?addApplicationFont@QWindowsFontDatabase@@UEAA?AV?$QList@VQString@@@@AEBVQByteArray@@AEBVQString@@PEAUApplicationFont@QFontDatabasePrivate@@@Z"
"?addApplicationFontFromData@QFontDatabase@@SAHAEBVQByteArray@@@Z"
"?addBitmapFontToPath@QFontEngine@@QEAAXNNAEBUQGlyphLayout@@PEAVQPainterPath@@V?$QFlags@W4RenderFlag@QTextItem@@@@@Z"
"?addButton@QMessageDialogOptions@@QEAAHAEBVQString@@W4ButtonRole@QPlatformDialogHelper@@PEAXH@Z"
"?addCacheData@QVectorPath@@QEBAPEAUCacheEntry@1@PEAVQPaintEngineEx@@PEAXP6AX01@Z@Z"
"?addCleanupCallback@QRhi@@QEAAXAEBV?$function@$$A6AXPEAVQRhi@@@Z@std@@@Z"
"?addCleanupCallback@QRhi@@QEAAXPEBXAEBV?$function@$$A6AXPEAVQRhi@@@Z@std@@@Z"
"?addContext@QOpenGLContextGroupPrivate@@QEAAXPEAVQOpenGLContext@@@Z"
"?addCursor@QTextDocumentPrivate@@QEAAXPEAVQTextCursorPrivate@@@Z"
"?addDefaultEUDCFont@QWindowsFontDatabase@@AEAAXXZ"
"?addElement@QDashedStrokeProcessor@@QEAAXW4ElementType@QPainterPath@@NN@Z"
"?addEllipse@QPainterPath@@QEAAXAEBVQPointF@@NN@Z"
"?addEllipse@QPainterPath@@QEAAXAEBVQRectF@@@Z"
"?addEllipse@QPainterPath@@QEAAXNNNN@Z"
"?addFile@QIcon@@QEAAXAEBVQString@@AEBVQSize@@W4Mode@1@W4State@1@@Z"
"?addFile@QIconEngine@@UEAAXAEBVQString@@AEBVQSize@@W4Mode@QIcon@@W4State@5@@Z"
"?addFile@QPixmapIconEngine@@UEAAXAEBVQString@@AEBVQSize@@W4Mode@QIcon@@W4State@5@@Z"
"?addGlyphsToPath@QFontEngine@@UEAAXPEAIPEAUQFixedPoint@@HPEAVQPainterPath@@V?$QFlags@W4RenderFlag@QTextItem@@@@@Z"
"?addGlyphsToPath@QWindowsFontEngineDirectWrite@@UEAAXPEAIPEAUQFixedPoint@@HPEAVQPainterPath@@V?$QFlags@W4RenderFlag@QTextItem@@@@@Z"
"?addIfClose@QBezier@@QEBAXPEANN@Z"
"?addImageHook@QImagePixmapCleanupHooks@@QEAAXP6AX_J@Z@Z"
"?addItem@QGridLayoutEngine@@QEAAXPEAVQGridLayoutItem@@@Z"
"?addItemDecoration@QTextEngine@@AEAAXPEAVQPainter@@AEBVQLineF@@PEAV?$QList@UItemDecoration@QTextEngine@@@@@Z"
"?addNode@QFileSystemModelPrivate@@QEAAPEAVQFileSystemNode@1@PEAV21@AEBVQString@@AEBVQFileInfo@@@Z"
"?addOutlineToPath@QFontEngine@@UEAAXNNAEBUQGlyphLayout@@PEAVQPainterPath@@V?$QFlags@W4RenderFlag@QTextItem@@@@@Z"
"?addOutlineToPath@QFontEngineMulti@@UEAAXNNAEBUQGlyphLayout@@PEAVQPainterPath@@V?$QFlags@W4RenderFlag@QTextItem@@@@@Z"
"?addOverline@QTextEngine@@QEAAXPEAVQPainter@@AEBVQLineF@@@Z"
"?addPage@QPageRanges@@QEAAXH@Z"
"?addPassiveGrabber@QPointerEvent@@QEAA_NAEBVQEventPoint@@PEAVQObject@@@Z"
"?addPassiveGrabber@QPointingDevicePrivate@@QEAA_NPEBVQPointerEvent@@AEBVQEventPoint@@PEAVQObject@@@Z"
"?addPath@QPainterPath@@QEAAXAEBV1@@Z"
"?addPixmap@QIcon@@QEAAXAEBVQPixmap@@W4Mode@1@W4State@1@@Z"
"?addPixmap@QIconEngine@@UEAAXAEBVQPixmap@@W4Mode@QIcon@@W4State@4@@Z"
"?addPixmap@QPixmapIconEngine@@UEAAXAEBVQPixmap@@W4Mode@QIcon@@W4State@4@@Z"
"?addPlatformPixmapDestructionHook@QImagePixmapCleanupHooks@@QEAAXP6AXPEAVQPlatformPixmap@@@Z@Z"
"?addPlatformPixmapModificationHook@QImagePixmapCleanupHooks@@QEAAXP6AXPEAVQPlatformPixmap@@@Z@Z"
"?addPoint@QMutableTouchEvent@@QEAAXAEBVQEventPoint@@@Z"
"?addPoint@QMutableTouchEvent@@SAXPEAVQTouchEvent@@AEBVQEventPoint@@@Z"
"?addPolygon@QPainterPath@@QEAAXAEBVQPolygonF@@@Z"
"?addQtOptions@QGuiApplicationPrivate@@UEAAXPEAV?$QList@VQCommandLineOption@@@@@Z"
"?addRange@QPageRanges@@QEAAXHH@Z"
"?addRect@QPainterPath@@QEAAXAEBVQRectF@@@Z"
"?addRect@QPainterPath@@QEAAXNNNN@Z"
"?addRegion@QPainterPath@@QEAAXAEBVQRegion@@@Z"
"?addRequiredBoundaries@QTextEngine@@AEBAXXZ"
"?addResource@QTextDocument@@QEAAXHAEBVQUrl@@AEBVQVariant@@@Z"
"?addRoundedRect@QPainterPath@@QEAAXAEBVQRectF@@NNW4SizeMode@Qt@@@Z"
"?addRoundedRect@QPainterPath@@QEAAXNNNNNNW4SizeMode@Qt@@@Z"
"?addShortcut@QShortcutMap@@QEAAHPEAVQObject@@AEBVQKeySequence@@W4ShortcutContext@Qt@@P6A_N02@Z@Z"
"?addStack@QUndoGroup@@QEAAXPEAVQUndoStack@@@Z"
"?addStrikeOut@QTextEngine@@QEAAXPEAVQPainter@@AEBVQLineF@@@Z"
"?addText@QPainterPath@@QEAAXAEBVQPointF@@AEBVQFont@@AEBVQString@@@Z"
"?addText@QPainterPath@@QEAAXNNAEBVQFont@@AEBVQString@@@Z"
"?addToPolygon@QBezier@@QEBAXAEAV?$QDataBuffer@VQPointF@@@@N@Z"
"?addToPolygon@QBezier@@QEBAXPEAVQPolygonF@@N@Z"
"?addUnderline@QTextEngine@@QEAAXPEAVQPainter@@AEBVQLineF@@@Z"
"?addVisibleFiles@QFileSystemModelPrivate@@QEAAXPEAVQFileSystemNode@1@AEBV?$QList@VQString@@@@@Z"
"?addressU@QRhiSampler@@QEBA?AW4AddressMode@1@XZ"
"?addressV@QRhiSampler@@QEBA?AW4AddressMode@1@XZ"
"?addressW@QRhiSampler@@QEBA?AW4AddressMode@1@XZ"
"?adjoint@QTransform@@QEBA?AV1@XZ"
"?adjustCursor@QTextCursorPrivate@@QEAAXW4MoveOperation@QTextCursor@@@Z"
"?adjustDocumentChangesAndCursors@QTextDocumentPrivate@@AEAAXHHW4Operation@QTextUndoCommand@@@Z"
"?adjustPosition@QTextCursorPrivate@@QEAA?AW4AdjustResult@1@HHW4Operation@QTextUndoCommand@@@Z"
"?adjustSize@QPixmapIconEngine@@SA?AVQSize@@AEBV2@V2@@Z"
"?adjustSize@QTextDocument@@QEAAXXZ"
"?adjustUnderlines@QTextEngine@@AEAAXViterator@?$QList@UItemDecoration@QTextEngine@@@@0NN@Z"
"?adjustUnderlines@QTextEngine@@QEAAXXZ"
"?adopt@QOpenGLContextPrivate@@QEAAXPEAVQPlatformOpenGLContext@@@Z"
"?advancesForGlyphIndexes@QRawFont@@QEBA?AV?$QList@VQPointF@@@@AEBV?$QList@I@@@Z"
"?advancesForGlyphIndexes@QRawFont@@QEBA?AV?$QList@VQPointF@@@@AEBV?$QList@I@@V?$QFlags@W4LayoutFlag@QRawFont@@@@@Z"
"?advancesForGlyphIndexes@QRawFont@@QEBA_NPEBIPEAVQPointF@@H@Z"
"?advancesForGlyphIndexes@QRawFont@@QEBA_NPEBIPEAVQPointF@@HV?$QFlags@W4LayoutFlag@QRawFont@@@@@Z"
"?aggregateEngine@QPaintEnginePrivate@@UEAAPEAVQPaintEngine@@XZ"
"?alert@QWindow@@QEAAXH@Z"
"?alignLine@QTextEngine@@QEAA?AUQFixed@@AEBUQScriptLine@@@Z"
"?alignment@QGridLayoutItem@@QEBA?AV?$QFlags@W4AlignmentFlag@Qt@@@@XZ"
"?alignment@QTextBlockFormat@@QEBA?AV?$QFlags@W4AlignmentFlag@Qt@@@@XZ"
"?alignment@QTextOption@@QEBA?AV?$QFlags@W4AlignmentFlag@Qt@@@@XZ"
"?alignment@QTextTableFormat@@QEBA?AV?$QFlags@W4AlignmentFlag@Qt@@@@XZ"
"?alignmentValue@Declaration@QCss@@QEBA?AV?$QFlags@W4AlignmentFlag@Qt@@@@XZ"
"?allFormats@QTextDocument@@QEBA?AV?$QList@VQTextFormat@@@@XZ"
"?allGray@QImage@@QEBA_NXZ"
"?allPointsAccepted@QPointerEvent@@QEBA_NXZ"
"?allPointsGrabbed@QPointerEvent@@QEBA_NXZ"
"?allWindows@QGuiApplication@@SA?AV?$QList@PEAVQWindow@@@@XZ"
"?allocateImage@QImageIOHandler@@SA_NVQSize@@W4Format@QImage@@PEAV4@@Z"
"?allocationLimit@QImageReader@@SAHXZ"
"?allowsErrorInteraction@QPlatformSessionManager@@UEAA_NXZ"
"?allowsErrorInteraction@QSessionManager@@QEAA_NXZ"
"?allowsInteraction@QPlatformSessionManager@@UEAA_NXZ"
"?allowsInteraction@QSessionManager@@QEAA_NXZ"
"?alpha@QColor@@QEBAHXZ"
"?alphaBufferSize@QSurfaceFormat@@QEBAHXZ"
"?alphaF@QColor@@QEBAMXZ"
"?alphaFillRect@QBlittable@@UEAAXAEBVQRectF@@AEBVQColor@@W4CompositionMode@QPainter@@@Z"
"?alphaMapBoundingBox@QFontEngine@@UEAA?AUglyph_metrics_t@@IAEBUQFixedPoint@@AEBVQTransform@@W4GlyphFormat@1@@Z"
"?alphaMapBoundingBox@QWindowsFontEngineDirectWrite@@UEAA?AUglyph_metrics_t@@IAEBUQFixedPoint@@AEBVQTransform@@W4GlyphFormat@QFontEngine@@@Z"
"?alphaMapForGlyph@QFontEngine@@UEAA?AVQImage@@I@Z"
"?alphaMapForGlyph@QFontEngine@@UEAA?AVQImage@@IAEBUQFixedPoint@@@Z"
"?alphaMapForGlyph@QFontEngine@@UEAA?AVQImage@@IAEBUQFixedPoint@@AEBVQTransform@@@Z"
"?alphaMapForGlyph@QFontEngine@@UEAA?AVQImage@@IAEBVQTransform@@@Z"
"?alphaMapForGlyph@QFontEngineMulti@@UEAA?AVQImage@@I@Z"
"?alphaMapForGlyph@QFontEngineMulti@@UEAA?AVQImage@@IAEBUQFixedPoint@@@Z"
"?alphaMapForGlyph@QFontEngineMulti@@UEAA?AVQImage@@IAEBUQFixedPoint@@AEBVQTransform@@@Z"
"?alphaMapForGlyph@QFontEngineMulti@@UEAA?AVQImage@@IAEBVQTransform@@@Z"
"?alphaMapForGlyph@QRawFont@@QEBA?AVQImage@@IW4AntialiasingType@1@AEBVQTransform@@@Z"
"?alphaMapForGlyph@QWindowsFontEngineDirectWrite@@UEAA?AVQImage@@IAEBUQFixedPoint@@@Z"
"?alphaMapForGlyph@QWindowsFontEngineDirectWrite@@UEAA?AVQImage@@IAEBUQFixedPoint@@AEBVQTransform@@@Z"
"?alphaPenBlt@QRasterPaintEngine@@QEAAXPEBXHHHHHH_N@Z"
"?alphaRGBMapForGlyph@QFontEngine@@UEAA?AVQImage@@IAEBUQFixedPoint@@AEBVQTransform@@@Z"
"?alphaRGBMapForGlyph@QFontEngineMulti@@UEAA?AVQImage@@IAEBUQFixedPoint@@AEBVQTransform@@@Z"
"?alphaRGBMapForGlyph@QWindowsFontEngineDirectWrite@@UEAA?AVQImage@@IAEBUQFixedPoint@@AEBVQTransform@@@Z"
"?alterCharForCapitalization@QFontPrivate@@QEBAXAEAVQChar@@@Z"
"?alternateBase@QPalette@@QEBAAEBVQBrush@@XZ"
"?anchor@QTextCursor@@QEBAHXZ"
"?anchorAt@QAbstractTextDocumentLayout@@QEBA?AVQString@@AEBVQPointF@@@Z"
"?anchorHref@QTextCharFormat@@QEBA?AVQString@@XZ"
"?anchorNames@QTextCharFormat@@QEBA?AV?$QList@VQString@@@@XZ"
"?anchorRectangle@QInputMethod@@QEBA?AVQRectF@@XZ"
"?anchorRectangle@QPlatformInputContext@@SA?AVQRectF@@XZ"
"?anchorRectangleChanged@QInputMethod@@QEAAXXZ"
"?angle@QConicalGradient@@QEBANXZ"
"?angleAtPercent@QPainterPath@@QEBANN@Z"
"?angleBetween@QPlatformScreen@@SAHW4ScreenOrientation@Qt@@0@Z"
"?angleBetween@QScreen@@QEBAHW4ScreenOrientation@Qt@@0@Z"
"?angleDelta@QWheelEvent@@QEBA?AVQPoint@@XZ"
"?animatingChanged@QInputMethod@@QEAAXXZ"
"?answerRect@QDragMoveEvent@@QEBA?AVQRect@@XZ"
"?answerRect@QPlatformDragQtResponse@@QEBA?AVQRect@@XZ"
"?api@QPlatformBackingStoreRhiConfig@@QEBA?AW4Api@1@XZ"
"?apiToRhiBackend@QBackingStoreRhiSupport@@SA?AW4Implementation@QRhi@@W4Api@QPlatformBackingStoreRhiConfig@@@Z"
"?appCommitData@QPlatformSessionManager@@QEAAXXZ"
"?appSaveState@QPlatformSessionManager@@QEAAXXZ"
"?app_font@QGuiApplicationPrivate@@2PEAVQFont@@EA"
"?app_icon@QGuiApplicationPrivate@@2PEAVQIcon@@EA"
"?app_pal@QGuiApplicationPrivate@@2PEAVQPalette@@EA"
"?appendColumn@QStandardItem@@QEAAXAEBV?$QList@PEAVQStandardItem@@@@@Z"
"?appendColumn@QStandardItemModel@@QEAAXAEBV?$QList@PEAVQStandardItem@@@@@Z"
"?appendColumns@QTextTable@@QEAAXH@Z"
"?appendRow@QStandardItem@@QEAAXAEBV?$QList@PEAVQStandardItem@@@@@Z"
"?appendRow@QStandardItem@@QEAAXPEAV1@@Z"
"?appendRow@QStandardItemModel@@QEAAXAEBV?$QList@PEAVQStandardItem@@@@@Z"
"?appendRow@QStandardItemModel@@QEAAXPEAVQStandardItem@@@Z"
"?appendRows@QStandardItem@@QEAAXAEBV?$QList@PEAVQStandardItem@@@@@Z"
"?appendRows@QTextTable@@QEAAXH@Z"
"?appendTexture@QPlatformTextureList@@QEAAXPEAXPEAVQRhiTexture@@1AEBVQRect@@2V?$QFlags@W4Flag@QPlatformTextureList@@@@@Z"
"?appendTexture@QPlatformTextureList@@QEAAXPEAXPEAVQRhiTexture@@AEBVQRect@@2V?$QFlags@W4Flag@QPlatformTextureList@@@@@Z"
"?appendUndoItem@QTextDocument@@QEAAXPEAVQAbstractUndoItem@@@Z"
"?appendUndoItem@QTextDocumentPrivate@@AEAAXAEBVQTextUndoCommand@@@Z"
"?appendUndoItem@QTextDocumentPrivate@@QEAAXPEAVQAbstractUndoItem@@@Z"
"?applicationDisplayName@QGuiApplication@@SA?AVQString@@XZ"
"?applicationDisplayNameChanged@QGuiApplication@@QEAAXXZ"
"?applicationFallbackFontFamilies@QFontDatabase@@SA?AV?$QList@VQString@@@@W4Script@QChar@@@Z"
"?applicationFontFamilies@QFontDatabase@@SA?AV?$QList@VQString@@@@H@Z"
"?applicationState@QApplicationStateChangeEvent@@QEBA?AW4ApplicationState@Qt@@XZ"
"?applicationState@QGuiApplication@@SA?AW4ApplicationState@Qt@@XZ"
"?applicationState@QGuiApplicationPrivate@@2W4ApplicationState@Qt@@A"
"?applicationStateChanged@QGuiApplication@@QEAAXW4ApplicationState@Qt@@@Z"
"?apply@QColorTransferTable@@QEBAMM@Z"
"?apply@QColorTrc@@QEBAMM@Z"
"?applyColorTransform@QImage@@QEAAXAEBVQColorTransform@@@Z"
"?applyColorTransform@QImage@@QEAAXAEBVQColorTransform@@W4Format@1@V?$QFlags@W4ImageConversionFlag@Qt@@@@@Z"
"?applyCursor@QWindowPrivate@@QEAA_NXZ"
"?applyExtended@QColorTrc@@QEBAMM@Z"
"?applyInverse@QColorTransferTable@@QEBAMMM@Z"
"?applyInverse@QColorTrc@@QEBAMM@Z"
"?applyInverseExtended@QColorTrc@@QEBAMM@Z"
"?applyQIconStyleHelper@QGuiApplicationPrivate@@UEBA?AVQPixmap@@W4Mode@QIcon@@AEBV2@@Z"
"?applyWindowGeometrySpecificationTo@QGuiApplicationPrivate@@SAXPEAVQWindow@@@Z"
"?arcMoveTo@QPainterPath@@QEAAXAEBVQRectF@@N@Z"
"?arcMoveTo@QPainterPath@@QEAAXNNNNN@Z"
"?arcPoints@QTriangulatingStroker@@AEAAXMMMMMMAEAV?$QVarLengthArray@M$0BAA@@@@Z"
"?arcTo@QPainterPath@@QEAAXAEBVQRectF@@NN@Z"
"?arcTo@QPainterPath@@QEAAXNNNNNN@Z"
"?areSharing@QOpenGLContext@@SA_NPEAV1@0@Z"
"?arrayRangeLength@QRhiTexture@@QEBAHXZ"
"?arrayRangeStart@QRhiTexture@@QEBAHXZ"
"?arraySize@QRhiTexture@@QEBAHXZ"
"?asAffineMatrix@QTransform@@QEAA@XZ"
"?asColorTransferFunction@QColorTransferTable@@QEAA_NPEAVQColorTransferFunction@@@Z"
"?ascent@QFontEngine@@UEBA?AUQFixed@@XZ"
"?ascent@QFontEngineMulti@@UEBA?AUQFixed@@XZ"
"?ascent@QFontMetrics@@QEBAHXZ"
"?ascent@QFontMetricsF@@QEBANXZ"
"?ascent@QRawFont@@QEBANXZ"
"?ascent@QTextInlineObject@@QEBANXZ"
"?ascent@QTextItem@@QEBANXZ"
"?ascent@QTextLine@@QEBANXZ"
"?assign@QKeySequence@@AEAAHAEBVQString@@@Z"
"?assign@QKeySequence@@AEAAHAEBVQString@@W4SequenceFormat@1@@Z"
"?associatedObjects@QAction@@QEBA?AV?$QList@PEAVQObject@@@@XZ"
"?atBlockEnd@QTextCursor@@QEBA_NXZ"
"?atBlockStart@QTextCursor@@QEBA_NXZ"
"?atEnd@QTextCursor@@QEBA_NXZ"
"?atStart@QTextCursor@@QEBA_NXZ"
"?atWordSeparator@QTextEngine@@QEBA_NH@Z"
"?attachmentValue@Declaration@QCss@@QEBA?AW4Attachment@2@XZ"
"?attributeAt@QRhiVertexInputLayout@@QEBAPEBVQRhiVertexInputAttribute@@_J@Z"
"?attributeCount@QRhiVertexInputLayout@@QEBA_JXZ"
"?attributes@QInputMethodEvent@@QEBAAEBV?$QList@VAttribute@QInputMethodEvent@@@@XZ"
"?attributes@QTextEngine@@QEBAPEBUQCharAttributes@@XZ"
"?attributesInterface@QAccessibleInterface@@QEAAPEAVQAccessibleAttributesInterface@@XZ"
"?autoDestruct@QPaintEngine@@AEBA_NXZ"
"?autoDetectImageFormat@QImageReader@@QEBA_NXZ"
"?autoRepeat@QAction@@QEBA_NXZ"
"?autoRepeat@QShortcut@@QEBA_NXZ"
"?autoTransform@QImageReader@@QEBA_NXZ"
"?availableGeometry@QPlatformPlaceholderScreen@@UEBA?AVQRect@@XZ"
"?availableGeometry@QPlatformScreen@@UEBA?AVQRect@@XZ"
"?availableGeometry@QScreen@@QEBA?AVQRect@@XZ"
"?availableGeometryChanged@QScreen@@QEAAXAEBVQRect@@@Z"
"?availableGlyphs@QTextEngine@@QEBA?AUQGlyphLayout@@PEBUQScriptItem@@@Z"
"?availableRedoSteps@QTextDocument@@QEBAHXZ"
"?availableRedoSteps@QTextDocumentPrivate@@QEBAHXZ"
"?availableShaders@QShader@@QEBA?AV?$QList@VQShaderKey@@@@XZ"
"?availableSize@QScreen@@QEBA?AVQSize@@XZ"
"?availableSizes@QIcon@@QEBA?AV?$QList@VQSize@@@@W4Mode@1@W4State@1@@Z"
"?availableSizes@QIconEngine@@UEAA?AV?$QList@VQSize@@@@W4Mode@QIcon@@W4State@4@@Z"
"?availableSizes@QPixmapIconEngine@@UEAA?AV?$QList@VQSize@@@@W4Mode@QIcon@@W4State@4@@Z"
"?availableUndoSteps@QTextDocument@@QEBAHXZ"
"?availableUndoSteps@QTextDocumentPrivate@@QEBAHXZ"
"?availableVirtualGeometry@QInputDevice@@QEBA?AVQRect@@XZ"
"?availableVirtualGeometry@QScreen@@QEBA?AVQRect@@XZ"
"?availableVirtualGeometryChanged@QInputDevice@@QEAAXVQRect@@@Z"
"?availableVirtualSize@QScreen@@QEBA?AVQSize@@XZ"
"?averageCharWidth@QFontEngine@@UEBA?AUQFixed@@XZ"
"?averageCharWidth@QFontEngineMulti@@UEBA?AUQFixed@@XZ"
"?averageCharWidth@QFontMetrics@@QEBAHXZ"
"?averageCharWidth@QFontMetricsF@@QEBANXZ"
"?averageCharWidth@QRawFont@@QEBANXZ"
"?backend@QRhi@@QEBA?AW4Implementation@1@XZ"
"?backendName@QRhi@@QEBAPEBDXZ"
"?backendName@QRhi@@SAPEBDW4Implementation@1@@Z"
"?background@QPainter@@QEBAAEBVQBrush@@XZ"
"?background@QStandardItem@@QEBA?AVQBrush@@XZ"
"?background@QTextFormat@@QEBA?AVQBrush@@XZ"
"?backgroundBrush@QPaintEngineState@@QEBA?AVQBrush@@XZ"
"?backgroundColor@QAccessibleInterface@@UEBA?AVQColor@@XZ"
"?backgroundColor@QImageReader@@QEBA?AVQColor@@XZ"
"?backgroundColor@QMovie@@QEBA?AVQColor@@XZ"
"?backgroundMode@QPaintEngineState@@QEBA?AW4BGMode@Qt@@XZ"
"?backgroundMode@QPainter@@QEBA?AW4BGMode@Qt@@XZ"
"?backingStore@QPlatformBackingStore@@QEBAPEAVQBackingStore@@XZ"
"?base@QPalette@@QEBAAEBVQBrush@@XZ"
"?basePalette@QGuiApplicationPrivate@@MEBA?AVQPalette@@XZ"
"?baseSize@QWindow@@QEBA?AVQSize@@XZ"
"?baseUrl@QTextDocument@@QEBA?AVQUrl@@XZ"
"?baseUrlChanged@QTextDocument@@QEAAXAEBVQUrl@@@Z"
"?baselineOffset@QTextCharFormat@@QEBANXZ"
"?baselineOffset@QTextDocument@@QEBANXZ"
"?basicSelectorMatches@StyleSelector@QCss@@AEAA_NAEBUBasicSelector@2@TNodePtr@12@@Z"
"?beep@QPlatformIntegration@@UEBAXXZ"
"?before@QActionEvent@@QEBAPEAVQAction@@XZ"
"?begin@QBlitterPaintEngine@@UEAA_NPEAVQPaintDevice@@@Z"
"?begin@QDashStroker@@UEAAXPEAX@Z"
"?begin@QPainter@@QEAA_NPEAVQPaintDevice@@@Z"
"?begin@QRasterPaintEngine@@UEAA_NPEAVQPaintDevice@@@Z"
"?begin@QRegion@@QEBAPEBVQRect@@XZ"
"?begin@QStrokerOps@@UEAAXPEAX@Z"
"?begin@QTextBlock@@QEBA?AViterator@1@XZ"
"?begin@QTextDocument@@QEBA?AVQTextBlock@@XZ"
"?begin@QTextDocumentPrivate@@QEBA?AVConstIterator@?$QFragmentMap@VQTextFragmentData@@@@XZ"
"?begin@QTextFrame@@QEBA?AViterator@1@XZ"
"?begin@QTextTableCell@@QEBA?AViterator@QTextFrame@@XZ"
"?beginComputePass@QRhiCommandBuffer@@QEAAXPEAVQRhiResourceUpdateBatch@@V?$QFlags@W4BeginPassFlag@QRhiCommandBuffer@@@@@Z"
"?beginEditBlock@QTextCursor@@QEAAXXZ"
"?beginEditBlock@QTextDocumentPrivate@@QEAAXXZ"
"?beginExternal@QRhiCommandBuffer@@QEAAXXZ"
"?beginFillTexture@QTextureGlyphCache@@UEAAXXZ"
"?beginFrame@QPlatformOpenGLContext@@UEAAXXZ"
"?beginFrame@QRhi@@QEAA?AW4FrameOpResult@1@PEAVQRhiSwapChain@@V?$QFlags@W4BeginFrameFlag@QRhi@@@@@Z"
"?beginFullDynamicBufferUpdateForCurrentFrame@QRhiBuffer@@UEAAPEADXZ"
"?beginLayout@QTextLayout@@QEAAXXZ"
"?beginMacro@QUndoStack@@QEAAXAEBVQString@@@Z"
"?beginNativePainting@QPaintEngineEx@@UEAAXXZ"
"?beginNativePainting@QPainter@@QEAAXXZ"
"?beginOffscreenFrame@QRhi@@QEAA?AW4FrameOpResult@1@PEAPEAVQRhiCommandBuffer@@V?$QFlags@W4BeginFrameFlag@QRhi@@@@@Z"
"?beginPaint@QBackingStore@@QEAAXAEBVQRegion@@@Z"
"?beginPaint@QPaintDeviceWindowPrivate@@UEAAXAEBVQRegion@@@Z"
"?beginPaint@QPlatformBackingStore@@UEAAXAEBVQRegion@@@Z"
"?beginPass@QRhiCommandBuffer@@QEAAXPEAVQRhiRenderTarget@@AEBVQColor@@AEBVQRhiDepthStencilClearValue@@PEAVQRhiResourceUpdateBatch@@V?$QFlags@W4BeginPassFlag@QRhiCommandBuffer@@@@@Z"
"?beginningOfLine@QTextEngine@@AEAAHH@Z"
"?bestFoundry@QFontDatabasePrivate@@CAIHIHPEBUQtFontFamily@@AEBVQString@@UKey@QtFontStyle@@HDPEAUQtFontDesc@@1@Z"
"?bestMatch@QPixmapIconEngine@@QEAAPEAUQPixmapIconEngineEntry@@AEBVQSize@@NW4Mode@QIcon@@W4State@5@@Z"
"?bezierOnInterval@QBezier@@QEBA?AV1@NN@Z"
"?bidiReorder@QTextEngine@@SAXHPEBEPEAH@Z"
"?bindToTexture@QPlatformGraphicsBuffer@@UEBA_NAEBVQRect@@@Z"
"?bindableCacheMode@QMovie@@QEAA?AV?$QBindable@W4CacheMode@QMovie@@@@XZ"
"?bindableSortRole@QStandardItemModel@@QEAA?AV?$QBindable@H@@XZ"
"?bindableSpeed@QMovie@@QEAA?AV?$QBindable@H@@XZ"
"?binding@QRhiVertexInputAttribute@@QEBAHXZ"
"?bindingAt@QRhiShaderResourceBindings@@QEBAPEBVQRhiShaderResourceBinding@@_J@Z"
"?bindingAt@QRhiVertexInputLayout@@QEBAPEBVQRhiVertexInputBinding@@_J@Z"
"?bindingCount@QRhiShaderResourceBindings@@QEBA_JXZ"
"?bindingCount@QRhiVertexInputLayout@@QEBA_JXZ"
"?bitPlaneCount@QImage@@QEBAHXZ"
"?bitPosition@QPalettePrivate@@SA_KW4ColorGroup@QPalette@@W4ColorRole@3@@Z"
"?bitmap@QCursor@@QEBA?AVQBitmap@@W4ReturnByValueConstant@Qt@@@Z"
"?bitmap@QCursor@@QEBA?AVQBitmap@@XZ"
"?bitmapForGlyph@QFontEngine@@UEAA?AVQImage@@IAEBUQFixedPoint@@AEBVQTransform@@AEBVQColor@@@Z"
"?bitmapForGlyph@QWindowsFontEngineDirectWrite@@UEAA?AVQImage@@IAEBUQFixedPoint@@AEBVQTransform@@AEBVQColor@@@Z"
"?bits@QDistanceField@@QEAAPEAEXZ"
"?bits@QDistanceField@@QEBAPEBEXZ"
"?bits@QImage@@QEAAPEAEXZ"
"?bits@QImage@@QEBAPEBEXZ"
"?black@QColor@@QEBAHXZ"
"?blackF@QColor@@QEBAMXZ"
"?blittable@QBlittablePlatformPixmap@@QEBAPEAVQBlittable@@XZ"
"?block@QTextCursor@@QEBA?AVQTextBlock@@XZ"
"?block@QTextCursorPrivate@@QEBA?AVQTextBlock@@XZ"
"?block@QTextDocumentPrivate@@SAPEBVQTextBlockData@@AEBVQTextBlock@@@Z"
"?blockBoundingRect@QTextDocumentLayout@@UEBA?AVQRectF@@AEBVQTextBlock@@@Z"
"?blockCharFormat@QTextCursor@@QEBA?AVQTextCharFormat@@XZ"
"?blockCharFormatIndex@QTextDocumentPrivate@@QEBAHH@Z"
"?blockCount@QTextDocument@@QEBAHXZ"
"?blockCountChanged@QTextDocument@@QEAAXH@Z"
"?blockFormat@QTextBlock@@QEBA?AVQTextBlockFormat@@XZ"
"?blockFormat@QTextCursor@@QEBA?AVQTextBlockFormat@@XZ"
"?blockFormat@QTextCursorPrivate@@QEBA?AVQTextBlockFormat@@XZ"
"?blockFormat@QTextFormatCollection@@QEBA?AVQTextBlockFormat@@H@Z"
"?blockFormatChanged@QTextBlockGroup@@MEAAXAEBVQTextBlock@@@Z"
"?blockFormatIndex@QTextBlock@@QEBAHXZ"
"?blockInserted@QTextBlockGroup@@MEAAXAEBVQTextBlock@@@Z"
"?blockLayout@QTextCursorPrivate@@QEBAPEAVQTextLayout@@AEAVQTextBlock@@@Z"
"?blockList@QTextBlockGroup@@IEBA?AV?$QList@VQTextBlock@@@@XZ"
"?blockMap@QTextDocumentPrivate@@QEAAAEAV?$QFragmentMap@VQTextBlockData@@@@XZ"
"?blockMap@QTextDocumentPrivate@@QEBAAEBV?$QFragmentMap@VQTextBlockData@@@@XZ"
"?blockNumber@QTextBlock@@QEBAHXZ"
"?blockNumber@QTextCursor@@QEBAHXZ"
"?blockRemoved@QTextBlockGroup@@MEAAXAEBVQTextBlock@@@Z"
"?blockWithMarkerAt@QAbstractTextDocumentLayout@@QEBA?AVQTextBlock@@AEBVQPointF@@@Z"
"?blocksBegin@QTextDocumentPrivate@@QEBA?AVQTextBlock@@XZ"
"?blocksEnd@QTextDocumentPrivate@@QEBA?AVQTextBlock@@XZ"
"?blocksFind@QTextDocumentPrivate@@QEBA?AVQTextBlock@@H@Z"
"?blue@QColor@@QEBAHXZ"
"?blueBufferSize@QSurfaceFormat@@QEBAHXZ"
"?blueF@QColor@@QEBAMXZ"
"?bold@QFont@@QEBA_NXZ"
"?bold@QFontDatabase@@SA_NAEBVQString@@0@Z"
"?bold@QFontInfo@@QEBA_NXZ"
"?boolProperty@QTextFormat@@QEBA_NH@Z"
"?border@QTextFrameFormat@@QEBANXZ"
"?borderBrush@QTextFrameFormat@@QEBA?AVQBrush@@XZ"
"?borderCollapse@QTextTableFormat@@QEBA_NXZ"
"?borderCollapseValue@Declaration@QCss@@QEBA_NXZ"
"?borderImageValue@Declaration@QCss@@QEBAXPEAVQString@@PEAHPEAW4TileMode@2@2@Z"
"?borderStyle@QTextFrameFormat@@QEBA?AW4BorderStyle@1@XZ"
"?borderValue@ValueExtractor@QCss@@AEAAXAEBUDeclaration@2@PEAHPEAW4BorderStyle@2@PEAVQBrush@@@Z"
"?bottom@QDoubleValidator@@QEBANXZ"
"?bottom@QIntValidator@@QEBAHXZ"
"?bottomBorder@QTextTableCellFormat@@QEBANXZ"
"?bottomBorderBrush@QTextTableCellFormat@@QEBA?AVQBrush@@XZ"
"?bottomBorderStyle@QTextTableCellFormat@@QEBA?AW4BorderStyle@QTextFrameFormat@@XZ"
"?bottomChanged@QDoubleValidator@@QEAAXN@Z"
"?bottomChanged@QIntValidator@@QEAAXH@Z"
"?bottomMargin@QTextBlockFormat@@QEBANXZ"
"?bottomMargin@QTextFrameFormat@@QEBANXZ"
"?bottomPadding@QTextTableCellFormat@@QEBANXZ"
"?boundingBox@QFontEngine@@UEAA?AUglyph_metrics_t@@AEBUQGlyphLayout@@@Z"
"?boundingBox@QFontEngine@@UEAA?AUglyph_metrics_t@@IAEBVQTransform@@@Z"
"?boundingBox@QFontEngineMulti@@UEAA?AUglyph_metrics_t@@AEBUQGlyphLayout@@@Z"
"?boundingBox@QFontEngineMulti@@UEAA?AUglyph_metrics_t@@I@Z"
"?boundingBox@QTextEngine@@QEBA?AUglyph_metrics_t@@HH@Z"
"?boundingBox@QWindowsFontEngineDirectWrite@@UEAA?AUglyph_metrics_t@@AEBUQGlyphLayout@@@Z"
"?boundingBox@QWindowsFontEngineDirectWrite@@UEAA?AUglyph_metrics_t@@I@Z"
"?boundingRect@QFontMetrics@@QEBA?AVQRect@@AEBV2@HAEBVQString@@HPEAH@Z"
"?boundingRect@QFontMetrics@@QEBA?AVQRect@@AEBVQString@@@Z"
"?boundingRect@QFontMetrics@@QEBA?AVQRect@@AEBVQString@@AEBVQTextOption@@@Z"
"?boundingRect@QFontMetrics@@QEBA?AVQRect@@HHHHHAEBVQString@@HPEAH@Z"
"?boundingRect@QFontMetrics@@QEBA?AVQRect@@VQChar@@@Z"
"?boundingRect@QFontMetricsF@@QEBA?AVQRectF@@AEBV2@HAEBVQString@@HPEAH@Z"
"?boundingRect@QFontMetricsF@@QEBA?AVQRectF@@AEBVQString@@@Z"
"?boundingRect@QFontMetricsF@@QEBA?AVQRectF@@AEBVQString@@AEBVQTextOption@@@Z"
"?boundingRect@QFontMetricsF@@QEBA?AVQRectF@@VQChar@@@Z"
"?boundingRect@QGlyphRun@@QEBA?AVQRectF@@XZ"
"?boundingRect@QPainter@@QEAA?AVQRect@@AEBV2@HAEBVQString@@@Z"
"?boundingRect@QPainter@@QEAA?AVQRect@@HHHHHAEBVQString@@@Z"
"?boundingRect@QPainter@@QEAA?AVQRectF@@AEBV2@AEBVQString@@AEBVQTextOption@@@Z"
"?boundingRect@QPainter@@QEAA?AVQRectF@@AEBV2@HAEBVQString@@@Z"
"?boundingRect@QPainterPath@@QEBA?AVQRectF@@XZ"
"?boundingRect@QPicture@@QEBA?AVQRect@@XZ"
"?boundingRect@QPolygon@@QEBA?AVQRect@@XZ"
"?boundingRect@QPolygonF@@QEBA?AVQRectF@@XZ"
"?boundingRect@QRawFont@@QEBA?AVQRectF@@I@Z"
"?boundingRect@QRegion@@QEBA?AVQRect@@XZ"
"?boundingRect@QTextLayout@@QEBA?AVQRectF@@XZ"
"?bounds@QBezier@@QEBA?AVQRectF@@XZ"
"?box@QGridLayoutItem@@QEBA?AVQGridLayoutBox@@W4Orientation@Qt@@_NN@Z"
"?brightText@QPalette@@QEBAAEBVQBrush@@XZ"
"?brush@QPaintEngineState@@QEBA?AVQBrush@@XZ"
"?brush@QPainter@@QEBAAEBVQBrush@@XZ"
"?brush@QPalette@@QEBAAEBVQBrush@@W4ColorGroup@1@W4ColorRole@1@@Z"
"?brush@QPalette@@QEBAAEBVQBrush@@W4ColorRole@1@@Z"
"?brush@QPen@@QEBA?AVQBrush@@XZ"
"?brushChanged@QBlitterPaintEngine@@UEAAXXZ"
"?brushChanged@QRasterPaintEngine@@UEAAXXZ"
"?brushNeedsResolving@QPaintEngineState@@QEBA_NXZ"
"?brushOrigin@QPaintEngineState@@QEBA?AVQPointF@@XZ"
"?brushOrigin@QPainter@@QEBA?AVQPoint@@XZ"
"?brushOriginChanged@QRasterPaintEngine@@UEAAXXZ"
"?brushProperty@QTextFormat@@QEBA?AVQBrush@@H@Z"
"?brushValue@Declaration@QCss@@QEBA?AVQBrush@@AEBVQPalette@@@Z"
"?brushValues@Declaration@QCss@@QEBAXPEAVQBrush@@AEBVQPalette@@@Z"
"?buffer@QBlittablePlatformPixmap@@UEAAPEAVQImage@@XZ"
"?buffer@QPlatformPixmap@@UEAAPEAVQImage@@XZ"
"?buffer@QRasterPlatformPixmap@@UEAAPEAVQImage@@XZ"
"?buffer@QTextDocumentPrivate@@QEBA?AVQString@@XZ"
"?bufferLoad@QRhiShaderResourceBinding@@SA?AV1@HV?$QFlags@W4StageFlag@QRhiShaderResourceBinding@@@@PEAVQRhiBuffer@@@Z"
"?bufferLoad@QRhiShaderResourceBinding@@SA?AV1@HV?$QFlags@W4StageFlag@QRhiShaderResourceBinding@@@@PEAVQRhiBuffer@@II@Z"
"?bufferLoadStore@QRhiShaderResourceBinding@@SA?AV1@HV?$QFlags@W4StageFlag@QRhiShaderResourceBinding@@@@PEAVQRhiBuffer@@@Z"
"?bufferLoadStore@QRhiShaderResourceBinding@@SA?AV1@HV?$QFlags@W4StageFlag@QRhiShaderResourceBinding@@@@PEAVQRhiBuffer@@II@Z"
"?bufferStore@QRhiShaderResourceBinding@@SA?AV1@HV?$QFlags@W4StageFlag@QRhiShaderResourceBinding@@@@PEAVQRhiBuffer@@@Z"
"?bufferStore@QRhiShaderResourceBinding@@SA?AV1@HV?$QFlags@W4StageFlag@QRhiShaderResourceBinding@@@@PEAVQRhiBuffer@@II@Z"
"?buildIndexes@StyleSheet@QCss@@QEAAXW4CaseSensitivity@Qt@@@Z"
"?button@QPalette@@QEBAAEBVQBrush@@XZ"
"?button@QSinglePointEvent@@QEBA?AW4MouseButton@Qt@@XZ"
"?buttonCount@QPointingDevice@@QEBAHXZ"
"?buttonLayout@QPlatformDialogHelper@@SAPEBHW4Orientation@Qt@@W4ButtonLayout@1@@Z"
"?buttonRole@QPlatformDialogHelper@@SA?AW4ButtonRole@1@W4StandardButton@1@@Z"
"?buttonText@QPalette@@QEBAAEBVQBrush@@XZ"
"?buttons@QDropEvent@@QEBA?AV?$QFlags@W4MouseButton@Qt@@@@XZ"
"?buttons@QSinglePointEvent@@QEBA?AV?$QFlags@W4MouseButton@Qt@@@@XZ"
"?byteCount@QPlatformGraphicsBuffer@@QEBAHXZ"
"?bytesPerLine@QImage@@QEBA_JXZ"
"?bytesPerLine@QPlatformGraphicsBuffer@@UEBAHXZ"
"?cacheEnabled@QTextLayout@@QEBA_NXZ"
"?cacheFileName@QOpenGLProgramBinaryCache@@AEBA?AVQString@@AEBVQByteArray@@@Z"
"?cacheKey@ProgramDesc@QOpenGLProgramBinaryCache@@QEBA?AVQByteArray@@XZ"
"?cacheKey@QAbstractFileIconEngine@@MEBA?AVQString@@XZ"
"?cacheKey@QIcon@@QEBA_JXZ"
"?cacheKey@QImage@@QEBA_JXZ"
"?cacheKey@QPalette@@QEBA_JXZ"
"?cacheKey@QPixmap@@QEBA_JXZ"
"?cacheKey@QPlatformPixmap@@QEBA_JXZ"
"?cacheLimit@QPixmapCache@@SAHXZ"
"?cacheMode@QMovie@@QEBA?AW4CacheMode@1@XZ"
"?cacheStatistics@QFont@@SAXXZ"
"?calculateImageParameters@QImageData@@SA?AUImageSizeParameters@1@_J00@Z"
"?calculateSubPixelPositionCount@QTextureGlyphCache@@IEBAHI@Z"
"?calculateTabWidth@QTextEngine@@QEBA?AUQFixed@@HU2@@Z"
"?calculatedCapHeight@QFontEngine@@IEBA?AUQFixed@@XZ"
"?canDelete@QTextCursorPrivate@@QEBA_NH@Z"
"?canDrop@QBasicDrag@@IEBA_NXZ"
"?canFetchMore@QFileSystemModel@@UEBA_NAEBVQModelIndex@@@Z"
"?canLayout@QTextDocumentPrivate@@QEBA_NXZ"
"?canQuitAutomatically@QGuiApplicationPrivate@@UEAA_NXZ"
"?canRead@QImageReader@@QEBA_NXZ"
"?canRead@QTextureFileReader@@QEAA_NXZ"
"?canReadData@QInternalMimeData@@SA_NAEBVQString@@@Z"
"?canRedo@QUndoGroup@@QEBA_NXZ"
"?canRedo@QUndoStack@@QEBA_NXZ"
"?canRedoChanged@QUndoGroup@@QEAAX_N@Z"
"?canRedoChanged@QUndoStack@@QEAAX_N@Z"
"?canRender@QFontEngine@@QEBA_NI@Z"
"?canRender@QFontEngine@@UEBA_NPEBVQChar@@H@Z"
"?canRender@QFontEngineMulti@@UEBA_NPEBVQChar@@H@Z"
"?canUndo@QUndoGroup@@QEBA_NXZ"
"?canUndo@QUndoStack@@QEBA_NXZ"
"?canUndoChanged@QUndoGroup@@QEAAX_N@Z"
"?canUndoChanged@QUndoStack@@QEAAX_N@Z"
"?canWrite@QImageWriter@@QEBA_NXZ"
"?cancel@QBasicDrag@@MEAAXXZ"
"?cancel@QDrag@@SAXXZ"
"?cancel@QPlatformSessionManager@@UEAAXXZ"
"?cancel@QSessionManager@@QEAAXXZ"
"?cancel@QSimpleDrag@@MEAAXXZ"
"?cancelDrag@QBasicDrag@@UEAAXXZ"
"?cancelDrag@QPlatformDrag@@UEAAXXZ"
"?capForJoinMode@QStroker@@KA?AW4PenCapStyle@Qt@@W4LineJoinMode@1@@Z"
"?capHeight@QFontEngineMulti@@UEBA?AUQFixed@@XZ"
"?capHeight@QFontMetrics@@QEBAHXZ"
"?capHeight@QFontMetricsF@@QEBANXZ"
"?capHeight@QRawFont@@QEBANXZ"
"?capHeight@QWindowsFontEngineDirectWrite@@UEBA?AUQFixed@@XZ"
"?capStyle@QPainterPathStroker@@QEBA?AW4PenCapStyle@Qt@@XZ"
"?capStyle@QPen@@QEBA?AW4PenCapStyle@Qt@@XZ"
"?capStyle@QStroker@@QEBA?AW4PenCapStyle@Qt@@XZ"
"?capStyleMode@QStroker@@QEBA?AW4LineJoinMode@1@XZ"
"?capabilities@QBlittable@@QEBA?AV?$QFlags@W4Capability@QBlittable@@@@XZ"
"?capabilities@QInputDevice@@QEBA?AV?$QFlags@W4Capability@QInputDevice@@@@XZ"
"?capabilities@QPlatformCursor@@SA?AV?$QFlags@W4Capability@QPlatformCursor@@@@XZ"
"?capacity@QPainterPath@@QEBAHXZ"
"?capitalization@QFont@@QEBA?AW4Capitalization@1@XZ"
"?captureGlobalModifierState@QGuiApplicationPrivate@@SAXPEAVQEvent@@@Z"
"?cbEnterBlock@QTextMarkdownImporter@@QEAAHHPEAX@Z"
"?cbEnterSpan@QTextMarkdownImporter@@QEAAHHPEAX@Z"
"?cbLeaveBlock@QTextMarkdownImporter@@QEAAHHPEAX@Z"
"?cbLeaveSpan@QTextMarkdownImporter@@QEAAHHPEAX@Z"
"?cbText@QTextMarkdownImporter@@QEAAHHPEBDI@Z"
"?cbegin@QRegion@@QEBAPEBVQRect@@XZ"
"?cbeginAttributes@QRhiVertexInputLayout@@QEBAPEBVQRhiVertexInputAttribute@@XZ"
"?cbeginBindings@QRhiShaderResourceBindings@@QEBAPEBVQRhiShaderResourceBinding@@XZ"
"?cbeginBindings@QRhiVertexInputLayout@@QEBAPEBVQRhiVertexInputBinding@@XZ"
"?cbeginColorAttachments@QRhiTextureRenderTargetDescription@@QEBAPEBVQRhiColorAttachment@@XZ"
"?cbeginEntries@QRhiTextureUploadDescription@@QEBAPEBVQRhiTextureUploadEntry@@XZ"
"?cbeginShaderStages@QRhiGraphicsPipeline@@QEBAPEBVQRhiShaderStage@@XZ"
"?cbeginTargetBlends@QRhiGraphicsPipeline@@QEBAPEBUTargetBlend@1@XZ"
"?cellAt@QTextTable@@QEBA?AVQTextTableCell@@AEBVQTextCursor@@@Z"
"?cellAt@QTextTable@@QEBA?AVQTextTableCell@@H@Z"
"?cellAt@QTextTable@@QEBA?AVQTextTableCell@@HH@Z"
"?cellPadding@QTextTableFormat@@QEBANXZ"
"?cellRect@QGridLayoutEngine@@QEBA?AVQRectF@@AEBV2@HHHHPEBVQAbstractLayoutStyleInfo@@@Z"
"?cellSpacing@QTextTableFormat@@QEBANXZ"
"?cend@QRegion@@QEBAPEBVQRect@@XZ"
"?cendAttributes@QRhiVertexInputLayout@@QEBAPEBVQRhiVertexInputAttribute@@XZ"
"?cendBindings@QRhiShaderResourceBindings@@QEBAPEBVQRhiShaderResourceBinding@@XZ"
"?cendBindings@QRhiVertexInputLayout@@QEBAPEBVQRhiVertexInputBinding@@XZ"
"?cendColorAttachments@QRhiTextureRenderTargetDescription@@QEBAPEBVQRhiColorAttachment@@XZ"
"?cendEntries@QRhiTextureUploadDescription@@QEBAPEBVQRhiTextureUploadEntry@@XZ"
"?cendShaderStages@QRhiGraphicsPipeline@@QEBAPEBVQRhiShaderStage@@XZ"
"?cendTargetBlends@QRhiGraphicsPipeline@@QEBAPEBUTargetBlend@1@XZ"
"?center@QConicalGradient@@QEBA?AVQPointF@@XZ"
"?center@QRadialGradient@@QEBA?AVQPointF@@XZ"
"?centerRadius@QRadialGradient@@QEBANXZ"
"?changeObjectFormat@QTextDocumentPrivate@@QEAAXPEAVQTextObject@@H@Z"
"?changeOverrideCursor@QGuiApplication@@SAXAEBVQCursor@@@Z"
"?changePosition@QAccessibleTextInsertEvent@@QEBAHXZ"
"?changePosition@QAccessibleTextRemoveEvent@@QEBAHXZ"
"?changePosition@QAccessibleTextUpdateEvent@@QEBAHXZ"
"?changed@QAction@@QEAAXXZ"
"?changed@QClipboard@@QEAAXW4Mode@1@@Z"
"?changed@QValidator@@QEAAXXZ"
"?changedStates@QAccessibleStateChangeEvent@@QEBA?AUState@QAccessible@@XZ"
"?charFormat@QTextBlock@@QEBA?AVQTextCharFormat@@XZ"
"?charFormat@QTextCursor@@QEBA?AVQTextCharFormat@@XZ"
"?charFormat@QTextFormatCollection@@QEBA?AVQTextCharFormat@@H@Z"
"?charFormat@QTextFragment@@QEBA?AVQTextCharFormat@@XZ"
"?charFormatIndex@QTextBlock@@QEBAHXZ"
"?charFormatIndex@QTextFragment@@QEBAHXZ"
"?characterAt@QTextDocument@@QEBA?AVQChar@@H@Z"
"?characterCount@QTextDocument@@QEBAHXZ"
"?checkBoxLabel@QMessageDialogOptions@@QEBA?AVQString@@XZ"
"?checkBoxState@QMessageDialogOptions@@QEBA?AW4CheckState@Qt@@XZ"
"?checkBoxStateChanged@QPlatformMessageDialogHelper@@QEAAXW4CheckState@Qt@@@Z"
"?checkForAlphaPixels@QImageData@@QEBA_NXZ"
"?checkForceRhi@QBackingStoreRhiSupport@@SA_NPEAUQPlatformBackingStoreRhiConfig@@PEAW4SurfaceType@QSurface@@@Z"
"?checkInvertibility@QColorTransferTable@@QEBA_NXZ"
"?checkState@QStandardItem@@QEBA?AW4CheckState@Qt@@XZ"
"?checkValidity@QColorTransferTable@@QEBA_NXZ"
"?checkableChanged@QAction@@QEAAX_N@Z"
"?checkedAction@QActionGroup@@QEBAPEAVQAction@@XZ"
"?child@QAccessibleApplication@@UEBAPEAVQAccessibleInterface@@H@Z"
"?child@QAccessibleEvent@@QEBAHXZ"
"?child@QChildWindowEvent@@QEBAPEAVQWindow@@XZ"
"?child@QStandardItem@@QEBAPEAV1@HH@Z"
"?child@QUndoCommand@@QEBAPEBV1@H@Z"
"?childAt@QAccessibleObject@@UEBAPEAVQAccessibleInterface@@HH@Z"
"?childCount@QAccessibleApplication@@UEBAHXZ"
"?childCount@QUndoCommand@@QEBAHXZ"
"?childFrames@QTextFrame@@QEBA?AV?$QList@PEAVQTextFrame@@@@XZ"
"?classId@QPlatformPixmap@@QEBA?AW4ClassId@1@XZ"
"?classification@QRhiVertexInputBinding@@QEBA?AW4Classification@1@XZ"
"?cleanChanged@QUndoGroup@@QEAAX_N@Z"
"?cleanChanged@QUndoStack@@QEAAX_N@Z"
"?cleanFilterList@QPlatformFileDialogHelper@@SA?AV?$QList@VQString@@@@AEBVQString@@@Z"
"?cleanIndex@QUndoStack@@QEBAHXZ"
"?cleanUp@QRawFontPrivate@@QEAAXXZ"
"?cleanUp@QRegion@@CAXPEAUQRegionData@1@@Z"
"?cleanup@QAccessible@@SAXXZ"
"?cleanup@QFont@@SAXXZ"
"?cleanup@QFontCache@@SAXXZ"
"?cleanup@QOpenGLContextGroupPrivate@@QEAAXXZ"
"?cleanup@QOpenGLMultiGroupSharedResource@@QEAAXPEAVQOpenGLContextGroup@@PEAVQOpenGLSharedResource@@@Z"
"?cleanup@QPlatformAccessibility@@UEAAXXZ"
"?clear@QBitmap@@QEAAXXZ"
"?clear@QClipboard@@QEAAXW4Mode@1@@Z"
"?clear@QFileInfoGatherer@@QEAAXXZ"
"?clear@QFontCache@@QEAAXXZ"
"?clear@QGlyphRun@@QEAAXXZ"
"?clear@QPageRanges@@QEAAXXZ"
"?clear@QPainterPath@@QEAAXXZ"
"?clear@QPixmapCache@@SAXXZ"
"?clear@QPlatformTextureList@@QEAAXXZ"
"?clear@QStandardItemModel@@QEAAXXZ"
"?clear@QTextDocument@@UEAAXXZ"
"?clear@QTextDocumentPrivate@@QEAAXXZ"
"?clear@QTextFormatCollection@@QEAAXXZ"
"?clear@QTextureFileData@@QEAAXXZ"
"?clear@QUndoStack@@QEAAXXZ"
"?clearAllThemeCaches@QWindowsThemeCache@@YAXXZ"
"?clearBackground@QTextFormat@@QEAAXXZ"
"?clearCells@QTextCursorPrivate@@QEAAXPEAVQTextTable@@HHHHW4Operation@QTextUndoCommand@@@Z"
"?clearColumnWidthConstraints@QTextTableFormat@@QEAAXXZ"
"?clearCustomButtons@QMessageDialogOptions@@QEAAXXZ"
"?clearData@QStandardItem@@QEAAXXZ"
"?clearDecorations@QTextEngine@@QEAAXXZ"
"?clearDirty@QPaintEngine@@QEAAXV?$QFlags@W4DirtyFlag@QPaintEngine@@@@@Z"
"?clearFamilies@QFontDatabasePrivate@@QEAAXXZ"
"?clearFeatures@QFont@@QEAAXXZ"
"?clearFocusObject@QWindowPrivate@@UEAAXXZ"
"?clearForeground@QTextFormat@@QEAAXXZ"
"?clearFormats@QTextLayout@@QEAAXXZ"
"?clearFrame@QTextDocumentPrivate@@CAXPEAVQTextFrame@@@Z"
"?clearGlyphCache@QFontEngine@@QEAAXPEBX@Z"
"?clearIconTypeCache@QAbstractFileIconProviderPrivate@@SAXXZ"
"?clearItemData@QStandardItemModel@@UEAA_NAEBVQModelIndex@@@Z"
"?clearLayout@QTextBlock@@QEAAXXZ"
"?clearLayout@QTextLayout@@QEAAXXZ"
"?clearLineData@QTextEngine@@QEAAXXZ"
"?clearOverrideCursor@QPlatformCursor@@UEAAXXZ"
"?clearPalette@QGuiApplicationPrivate@@CAXXZ"
"?clearPassiveGrabbers@QPointerEvent@@QEAAXAEBVQEventPoint@@@Z"
"?clearPassiveGrabbers@QPointingDevicePrivate@@QEAAXPEBVQPointerEvent@@AEBVQEventPoint@@@Z"
"?clearProperty@QTextFormat@@QEAAXH@Z"
"?clearSelection@QTextCursor@@QEAAXXZ"
"?clearSequence@QShortcutMap@@AEAAXAEAV?$QList@VQKeySequence@@@@@Z"
"?clearThemeCache@QWindowsThemeCache@@YAXPEAUHWND__@@@Z"
"?clearTypeFontsEnabled@QRasterPaintEngine@@SA_NXZ"
"?clearUndoRedoStacks@QTextDocument@@QEAAXW4Stacks@1@@Z"
"?clearUndoRedoStacks@QTextDocumentPrivate@@QEAAXW4Stacks@QTextDocument@@_N@Z"
"?clearVariableAxes@QFont@@QEAAXXZ"
"?clicked@QPlatformMessageDialogHelper@@QEAAXW4StandardButton@QPlatformDialogHelper@@W4ButtonRole@3@@Z"
"?clip@QPaintEngineEx@@UEAAXAEBVQPainterPath@@W4ClipOperation@Qt@@@Z"
"?clip@QPaintEngineEx@@UEAAXAEBVQRect@@W4ClipOperation@Qt@@@Z"
"?clip@QPaintEngineEx@@UEAAXAEBVQRegion@@W4ClipOperation@Qt@@@Z"
"?clip@QPathClipper@@QEAA?AVQPainterPath@@W4Operation@1@@Z"
"?clip@QRasterPaintEngine@@UEAAXAEBVQRect@@W4ClipOperation@Qt@@@Z"
"?clip@QRasterPaintEngine@@UEAAXAEBVQRegion@@W4ClipOperation@Qt@@@Z"
"?clip@QRasterPaintEngine@@UEAAXAEBVQVectorPath@@W4ClipOperation@Qt@@@Z"
"?clipBoundingRect@QPainter@@QEBA?AVQRectF@@XZ"
"?clipBoundingRect@QRasterPaintEngine@@QEBA?AVQRectF@@XZ"
"?clipData@QRasterPaintEngine@@QEBAPEBVQClipData@@XZ"
"?clipEnabledChanged@QBlitterPaintEngine@@UEAAXXZ"
"?clipEnabledChanged@QRasterPaintEngine@@UEAAXXZ"
"?clipOperation@QPaintEngineState@@QEBA?AW4ClipOperation@Qt@@XZ"
"?clipPath@QPaintEngineState@@QEBA?AVQPainterPath@@XZ"
"?clipPath@QPainter@@QEBA?AVQPainterPath@@XZ"
"?clipRect@QImageReader@@QEBA?AVQRect@@XZ"
"?clipRect@QPlatformTextureList@@QEBA?AVQRect@@H@Z"
"?clipRect@QStrokerOps@@QEBA?AVQRectF@@XZ"
"?clipRegion@QPaintEngineState@@QEBA?AVQRegion@@XZ"
"?clipRegion@QPainter@@QEBA?AVQRegion@@XZ"
"?clipSpaceCorrMatrix@QRhi@@QEBA?AVQMatrix4x4@@XZ"
"?clipType@QRasterPaintEngine@@QEBA?AW4ClipType@1@XZ"
"?clipboard@QGuiApplication@@SAPEAVQClipboard@@XZ"
"?clipboard@QPlatformIntegration@@UEBAPEAVQPlatformClipboard@@XZ"
"?clone@QActionEvent@@UEBAPEAV1@XZ"
"?clone@QApplicationStateChangeEvent@@UEBAPEAV1@XZ"
"?clone@QChildWindowEvent@@UEBAPEAV1@XZ"
"?clone@QCloseEvent@@UEBAPEAV1@XZ"
"?clone@QColorDialogOptions@@QEBA?AV?$QSharedPointer@VQColorDialogOptions@@@@XZ"
"?clone@QContextMenuEvent@@UEBAPEAV1@XZ"
"?clone@QDragEnterEvent@@UEBAPEAV1@XZ"
"?clone@QDragLeaveEvent@@UEBAPEAV1@XZ"
"?clone@QDragMoveEvent@@UEBAPEAV1@XZ"
"?clone@QDropEvent@@UEBAPEAV1@XZ"
"?clone@QEnterEvent@@UEBAPEAV1@XZ"
"?clone@QExposeEvent@@UEBAPEAV1@XZ"
"?clone@QFileDialogOptions@@QEBA?AV?$QSharedPointer@VQFileDialogOptions@@@@XZ"
"?clone@QFileOpenEvent@@UEBAPEAV1@XZ"
"?clone@QFocusEvent@@UEBAPEAV1@XZ"
"?clone@QFontDialogOptions@@QEBA?AV?$QSharedPointer@VQFontDialogOptions@@@@XZ"
"?clone@QHelpEvent@@UEBAPEAV1@XZ"
"?clone@QHideEvent@@UEBAPEAV1@XZ"
"?clone@QHoverEvent@@UEBAPEAV1@XZ"
"?clone@QIconDragEvent@@UEBAPEAV1@XZ"
"?clone@QInputEvent@@UEBAPEAV1@XZ"
"?clone@QInputMethodEvent@@UEBAPEAV1@XZ"
"?clone@QInputMethodQueryEvent@@UEBAPEAV1@XZ"
"?clone@QKeyEvent@@UEBAPEAV1@XZ"
"?clone@QMessageDialogOptions@@QEBA?AV?$QSharedPointer@VQMessageDialogOptions@@@@XZ"
"?clone@QMouseEvent@@UEBAPEAV1@XZ"
"?clone@QMoveEvent@@UEBAPEAV1@XZ"
"?clone@QNativeGestureEvent@@UEBAPEAV1@XZ"
"?clone@QPaintEvent@@UEBAPEAV1@XZ"
"?clone@QPixmapIconEngine@@UEBAPEAVQIconEngine@@XZ"
"?clone@QPlatformSurfaceEvent@@UEBAPEAV1@XZ"
"?clone@QPointerEvent@@UEBAPEAV1@XZ"
"?clone@QResizeEvent@@UEBAPEAV1@XZ"
"?clone@QScreenOrientationChangeEvent@@UEBAPEAV1@XZ"
"?clone@QScrollEvent@@UEBAPEAV1@XZ"
"?clone@QScrollPrepareEvent@@UEBAPEAV1@XZ"
"?clone@QShortcutEvent@@UEBAPEAV1@XZ"
"?clone@QShowEvent@@UEBAPEAV1@XZ"
"?clone@QSinglePointEvent@@UEBAPEAV1@XZ"
"?clone@QStandardItem@@UEBAPEAV1@XZ"
"?clone@QStatusTipEvent@@UEBAPEAV1@XZ"
"?clone@QTabletEvent@@UEBAPEAV1@XZ"
"?clone@QTextDocument@@QEBAPEAV1@PEAVQObject@@@Z"
"?clone@QToolBarChangeEvent@@UEBAPEAV1@XZ"
"?clone@QTouchEvent@@UEBAPEAV1@XZ"
"?clone@QWhatsThisClickedEvent@@UEBAPEAV1@XZ"
"?clone@QWheelEvent@@UEBAPEAV1@XZ"
"?clone@QWindowStateChangeEvent@@UEBAPEAV1@XZ"
"?cloneWithSize@QFontEngine@@UEBAPEAV1@N@Z"
"?cloneWithSize@QWindowsFontEngineDirectWrite@@UEBAPEAVQFontEngine@@N@Z"
"?close@QPlatformWindow@@UEAA_NXZ"
"?close@QWindow@@QEAA_NXZ"
"?closeAllPopups@QGuiApplicationPrivate@@SA_NXZ"
"?closeEvent@QWindow@@MEAAXPEAVQCloseEvent@@@Z"
"?closePopup@QGuiApplicationPrivate@@SA_NPEAVQWindow@@@Z"
"?closeSubpath@QPainterPath@@QEAAXXZ"
"?closestAcceptableGeometry@QPlatformWindow@@SA?AVQRectF@@PEBVQWindow@@AEBV2@@Z"
"?closestAcceptableGeometry@QWindowPrivate@@UEBA?AVQRectF@@AEBV2@@Z"
"?coefficients@QBezier@@SAXNAEAN000@Z"
"?collectMetrics@QWindowsFontEngineDirectWrite@@AEAAXXZ"
"?color@QBrush@@QEBAAEBVQColor@@XZ"
"?color@QFontEngineGlyphCache@@QEBAAEBVQColor@@XZ"
"?color@QImage@@QEBAIH@Z"
"?color@QPalette@@QEBAAEBVQColor@@W4ColorGroup@1@W4ColorRole@1@@Z"
"?color@QPalette@@QEBAAEBVQColor@@W4ColorRole@1@@Z"
"?color@QPen@@QEBA?AVQColor@@XZ"
"?colorAttachmentAt@QRhiTextureRenderTargetDescription@@QEBAPEBVQRhiColorAttachment@@_J@Z"
"?colorAttachmentCount@QRhiTextureRenderTargetDescription@@QEBA_JXZ"
"?colorCount@QImage@@QEBAHXZ"
"?colorCount@QPaintDevice@@QEBAHXZ"
"?colorCount@QPlatformPixmap@@QEBAHXZ"
"?colorModel@QColorSpace@@QEBA?AW4ColorModel@1@XZ"
"?colorNames@QColor@@SA?AV?$QList@VQString@@@@XZ"
"?colorPicked@QPlatformServiceColorPicker@@QEAAXAEBVQColor@@@Z"
"?colorPicker@QPlatformServices@@UEAAPEAVQPlatformServiceColorPicker@@PEAVQWindow@@@Z"
"?colorProfileForA32Text@QGuiApplicationPrivate@@QEAAPEBVQColorTrcLut@@XZ"
"?colorProfileForA8Text@QGuiApplicationPrivate@@QEAAPEBVQColorTrcLut@@XZ"
"?colorProperty@QTextFormat@@QEBA?AVQColor@@H@Z"
"?colorRoleOffset@QPalettePrivate@@SA_KW4ColorGroup@QPalette@@@Z"
"?colorScheme@QPlatformTheme@@UEBA?AW4ColorScheme@Qt@@XZ"
"?colorScheme@QStyleHints@@QEBA?AW4ColorScheme@Qt@@XZ"
"?colorSchemeChanged@QStyleHints@@QEAAXW4ColorScheme@Qt@@@Z"
"?colorSelected@QPlatformColorDialogHelper@@QEAAXAEBVQColor@@@Z"
"?colorSpace@QImage@@QEBA?AVQColorSpace@@XZ"
"?colorSpace@QPlatformScreen@@UEBA?AVQColorSpace@@XZ"
"?colorSpace@QSurfaceFormat@@QEBAAEBVQColorSpace@@XZ"
"?colorTable@QImage@@QEBA?AV?$QList@I@@XZ"
"?colorTransformed@QImage@@QEGBA?AV1@AEBVQColorTransform@@@Z"
"?colorTransformed@QImage@@QEGBA?AV1@AEBVQColorTransform@@W4Format@1@V?$QFlags@W4ImageConversionFlag@Qt@@@@@Z"
"?colorTransformed@QImage@@QEHAA?AV1@AEBVQColorTransform@@@Z"
"?colorTransformed@QImage@@QEHAA?AV1@AEBVQColorTransform@@W4Format@1@V?$QFlags@W4ImageConversionFlag@Qt@@@@@Z"
"?colorValue@Declaration@QCss@@QEBA?AVQColor@@AEBVQPalette@@@Z"
"?colorValues@Declaration@QCss@@QEBAXPEAVQColor@@AEBVQPalette@@@Z"
"?column@QMatrix4x4@@QEBA?AVQVector4D@@H@Z"
"?column@QStandardItem@@QEBAHXZ"
"?column@QTextTableCell@@QEBAHXZ"
"?columnCount@QFileSystemModel@@UEBAHAEBVQModelIndex@@@Z"
"?columnCount@QGridLayoutEngine@@QEBAHW4Orientation@Qt@@@Z"
"?columnCount@QGridLayoutEngine@@QEBAHXZ"
"?columnCount@QStandardItem@@QEBAHXZ"
"?columnCount@QStandardItemModel@@UEBAHAEBVQModelIndex@@@Z"
"?columnNumber@QTextCursor@@QEBAHXZ"
"?columnSpan@QGridLayoutItem@@QEBAHW4Orientation@Qt@@@Z"
"?columnSpan@QGridLayoutItem@@QEBAHXZ"
"?columnSpan@QTextTableCell@@QEBAHXZ"
"?columnWidthConstraints@QTextTableFormat@@QEBA?AV?$QList@VQTextLength@@@@XZ"
"?columns@QTextTable@@QEBAHXZ"
"?columns@QTextTableFormat@@QEBAHXZ"
"?combine@QGridLayoutBox@@QEAAXAEBV1@@Z"
"?combinedImageSamplers@QShaderDescription@@QEBA?AV?$QList@UInOutVariable@QShaderDescription@@@@XZ"
"?combinedLayoutSpacing@QAbstractLayoutStyleInfo@@UEBANV?$QFlags@W4ControlType@QLayoutPolicy@@@@0W4Orientation@Qt@@@Z"
"?combinedTransform@QPainter@@QEBA?AVQTransform@@XZ"
"?command@QUndoStack@@QEBAPEBVQUndoCommand@@H@Z"
"?commit@QInputMethod@@QEAAXXZ"
"?commit@QPlatformInputContext@@UEAAXXZ"
"?commit@QTouchEventSequence@QTest@@UEAA_N_N@Z"
"?commitData@QGuiApplicationPrivate@@QEAAXXZ"
"?commitDataRequest@QGuiApplication@@QEAAXAEAVQSessionManager@@@Z"
"?commitString@QInputMethodEvent@@QEBAAEBVQString@@XZ"
"?compare@QColorTransform@@AEBA_NAEBV1@@Z"
"?complexSelectionTable@QTextCursorPrivate@@QEBAPEAVQTextTable@@XZ"
"?compositionMode@QPaintEngineState@@QEBA?AW4CompositionMode@QPainter@@XZ"
"?compositionMode@QPainter@@QEBA?AW4CompositionMode@1@XZ"
"?compositionModeChanged@QBlitterPaintEngine@@UEAAXXZ"
"?compositionModeChanged@QRasterPaintEngine@@UEAAXXZ"
"?compressEvent@QGuiApplication@@MEAA_NPEAVQEvent@@PEAVQObject@@PEAVQPostEventList@@@Z"
"?compressPieceTable@QTextDocumentPrivate@@AEAAXXZ"
"?compression@QImageWriter@@QEBAHXZ"
"?computeBoundingRect@QPainterPath@@AEBAXXZ"
"?computeControlPointRect@QPainterPath@@AEBAXXZ"
"?computeShaderLocalSize@QShaderDescription@@QEBA?AV?$array@I$02@std@@XZ"
"?conjugated@QQuaternion@@QEBA?AV1@XZ"
"?connectPath@QPainterPath@@QEAAXAEBV1@@Z"
"?connectToScreen@QWindowPrivate@@QEAAXPEAVQScreen@@@Z"
"?constBits@QDistanceField@@QEBAPEBEXZ"
"?constBits@QImage@@QEBAPEBEXZ"
"?constData@QMatrix4x4@@QEBAPEBMXZ"
"?constScanLine@QDistanceField@@QEBAPEBEH@Z"
"?constScanLine@QImage@@QEBAPEBEH@Z"
"?constrainWindowSize@QPlatformWindow@@KA?AVQSize@@AEBV2@@Z"
"?constraintOrientation@QGridLayoutEngine@@QEBA?AW4Orientation@Qt@@XZ"
"?contains@QPageRanges@@QEBA_NH@Z"
"?contains@QPainterPath@@QEBA_NAEBV1@@Z"
"?contains@QPainterPath@@QEBA_NAEBVQPointF@@@Z"
"?contains@QPainterPath@@QEBA_NAEBVQRectF@@@Z"
"?contains@QPathClipper@@QEAA_NXZ"
"?contains@QRegion@@QEBA_NAEBVQPoint@@@Z"
"?contains@QRegion@@QEBA_NAEBVQRect@@@Z"
"?contains@QTextBlock@@QEBA_NH@Z"
"?contains@QTextFragment@@QEBA_NH@Z"
"?containsObject@QAccessibleCache@@QEBA_NPEAVQObject@@@Z"
"?containsPoint@QPolygon@@QEBA_NAEBVQPoint@@W4FillRule@Qt@@@Z"
"?containsPoint@QPolygonF@@QEBA_NAEBVQPointF@@W4FillRule@Qt@@@Z"
"?contentHasAlignment@QTextDocumentLayout@@QEBA_NXZ"
"?contentOrientation@QWindow@@QEBA?AW4ScreenOrientation@Qt@@XZ"
"?contentOrientationChanged@QWindow@@QEAAXW4ScreenOrientation@Qt@@@Z"
"?contentPos@QScrollEvent@@QEBA?AVQPointF@@XZ"
"?contentPos@QScrollPrepareEvent@@QEBA?AVQPointF@@XZ"
"?contentPosRange@QScrollPrepareEvent@@QEBA?AVQRectF@@XZ"
"?contentsChange@QTextDocument@@QEAAXHHH@Z"
"?contentsChanged@QTextDocument@@QEAAXXZ"
"?contentsChanged@QTextDocumentPrivate@@AEAAXXZ"
"?context@QPlatformOpenGLContext@@QEBAPEAVQOpenGLContext@@XZ"
"?context@QShortcut@@QEBA?AW4ShortcutContext@Qt@@XZ"
"?contextMatcher@QActionPrivate@@UEBAP6A_NPEAVQObject@@W4ShortcutContext@Qt@@@ZXZ"
"?contextMatcher@QShortcutPrivate@@UEBAP6A_NPEAVQObject@@W4ShortcutContext@Qt@@@ZXZ"
"?contextMenuEventType@QGuiApplicationPrivate@@SA?AW4Type@QEvent@@XZ"
"?contextMenuRequested@QPlatformSystemTrayIcon@@QEAAXVQPoint@@PEBVQPlatformScreen@@@Z"
"?contextMenuTrigger@QStyleHints@@QEBA?AW4ContextMenuTrigger@Qt@@XZ"
"?contextMenuTriggerChanged@QStyleHints@@QEAAXW4ContextMenuTrigger@Qt@@@Z"
"?controlPointRect@QPainterPath@@QEBA?AVQRectF@@XZ"
"?controlPointRect@QVectorPath@@QEBA?AVQRectF@@XZ"
"?controlType@QLayoutPolicy@@QEBA?AW4ControlType@1@XZ"
"?controlTypes@QGridLayoutEngine@@QEBA?AV?$QFlags@W4ControlType@QLayoutPolicy@@@@W4LayoutSide@@@Z"
"?controlTypes@QGridLayoutItem@@UEBA?AV?$QFlags@W4ControlType@QLayoutPolicy@@@@W4LayoutSide@@@Z"
"?convertFromImage@QPixmap@@QEAA_NAEBVQImage@@V?$QFlags@W4ImageConversionFlag@Qt@@@@@Z"
"?convertFromPlainText@Qt@@YA?AVQString@@AEBV2@W4WhiteSpaceMode@1@@Z"
"?convertInPlace@QImageData@@QEAA_NW4Format@QImage@@V?$QFlags@W4ImageConversionFlag@Qt@@@@@Z"
"?convertTo@QColor@@QEBA?AV1@W4Spec@1@@Z"
"?convertTo@QImage@@QEAAXW4Format@1@V?$QFlags@W4ImageConversionFlag@Qt@@@@@Z"
"?convertToColorSpace@QImage@@QEAAXAEBVQColorSpace@@@Z"
"?convertToColorSpace@QImage@@QEAAXAEBVQColorSpace@@W4Format@1@V?$QFlags@W4ImageConversionFlag@Qt@@@@@Z"
"?convertToFormat@QImage@@QEBA?AV1@W4Format@1@AEBV?$QList@I@@V?$QFlags@W4ImageConversionFlag@Qt@@@@@Z"
"?convertToFormat@QImage@@QEGBA?AV1@W4Format@1@V?$QFlags@W4ImageConversionFlag@Qt@@@@@Z"
"?convertToFormat@QImage@@QEHAA?AV1@W4Format@1@V?$QFlags@W4ImageConversionFlag@Qt@@@@@Z"
"?convertToFormat_helper@QImage@@IEBA?AV1@W4Format@1@V?$QFlags@W4ImageConversionFlag@Qt@@@@@Z"
"?convertToFormat_inplace@QImage@@IEAA_NW4Format@1@V?$QFlags@W4ImageConversionFlag@Qt@@@@@Z"
"?convertToPainterPath@QVectorPath@@QEBA?BVQPainterPath@@XZ"
"?convertToPostscriptFontFamilyName@QFontEngine@@SA?AVQByteArray@@AEBV2@@Z"
"?convertWithTable@QColorTrcLut@@CA?AVQRgba64@@V2@PEBG@Z"
"?convertWithTable@QColorTrcLut@@CAIIPEBG@Z"
"?convertedTo@QImage@@QEGBA?AV1@W4Format@1@V?$QFlags@W4ImageConversionFlag@Qt@@@@@Z"
"?convertedTo@QImage@@QEHAA?AV1@W4Format@1@V?$QFlags@W4ImageConversionFlag@Qt@@@@@Z"
"?convertedToColorSpace@QImage@@QEBA?AV1@AEBVQColorSpace@@@Z"
"?convertedToColorSpace@QImage@@QEGBA?AV1@AEBVQColorSpace@@W4Format@1@V?$QFlags@W4ImageConversionFlag@Qt@@@@@Z"
"?convertedToColorSpace@QImage@@QEHAA?AV1@AEBVQColorSpace@@W4Format@1@V?$QFlags@W4ImageConversionFlag@Qt@@@@@Z"
"?coordinateMode@QGradient@@QEBA?AW4CoordinateMode@1@XZ"
"?coordinateOffset@QPaintEngine@@UEBA?AVQPoint@@XZ"
"?coordinateOffset@QRasterPaintEngine@@UEBA?AVQPoint@@XZ"
"?copy@QDistanceField@@QEBA?AV1@AEBVQRect@@@Z"
"?copy@QDistanceField@@QEBA?AV1@HHHH@Z"
"?copy@QImage@@QEBA?AV1@AEBVQRect@@@Z"
"?copy@QImage@@QEBA?AV1@HHHH@Z"
"?copy@QPixmap@@QEBA?AV1@AEBVQRect@@@Z"
"?copy@QPixmap@@QEBA?AV1@HHHH@Z"
"?copy@QPlatformPixmap@@UEAAXPEBV1@AEBVQRect@@@Z"
"?copy@QRasterPlatformPixmap@@UEAAXPEBVQPlatformPixmap@@AEBVQRect@@@Z"
"?copy@QRegion@@AEBA?AV1@XZ"
"?copyDataTo@QMatrix4x4@@QEBAXPEAM@Z"
"?copyTexture@QRhiResourceUpdateBatch@@QEAAXPEAVQRhiTexture@@0AEBVQRhiTextureCopyDescription@@@Z"
"?count@QKeyEvent@@QEBAHXZ"
"?count@QKeySequence@@QEBAHXZ"
"?count@QPlatformTextureList@@QEBAHXZ"
"?count@QTextList@@QEBAHXZ"
"?count@QUndoStack@@QEBAHXZ"
"?crbegin@QRegion@@QEBA?AV?$reverse_iterator@PEBVQRect@@@std@@XZ"
"?create@PixmapFragment@QPainter@@SA?AV12@AEBVQPointF@@AEBVQRectF@@NNNN@Z"
"?create@QBackingStoreRhiSupport@@QEAA_NXZ"
"?create@QColorDialogOptions@@SA?AV?$QSharedPointer@VQColorDialogOptions@@@@XZ"
"?create@QColorTrcLut@@CA?AV?$shared_ptr@VQColorTrcLut@@@std@@XZ"
"?create@QDistanceFieldData@@SAPEAV1@AEBVQPainterPath@@_N@Z"
"?create@QDistanceFieldData@@SAPEAV1@AEBVQSize@@@Z"
"?create@QDistanceFieldData@@SAPEAV1@VQSize@@AEBVQPainterPath@@_N@Z"
"?create@QFileDialogOptions@@SA?AV?$QSharedPointer@VQFileDialogOptions@@@@XZ"
"?create@QFontDialogOptions@@SA?AV?$QSharedPointer@VQFontDialogOptions@@@@XZ"
"?create@QGenericPluginFactory@@SAPEAVQObject@@AEBVQString@@0@Z"
"?create@QImageData@@SAPEAU1@AEBVQSize@@W4Format@QImage@@@Z"
"?create@QImageData@@SAPEAU1@PEAEHH_JW4Format@QImage@@_NP6AXPEAX@Z4@Z"
"?create@QMessageDialogOptions@@SA?AV?$QSharedPointer@VQMessageDialogOptions@@@@XZ"
"?create@QOffscreenSurface@@QEAAXXZ"
"?create@QOpenGLContext@@QEAA_NXZ"
"?create@QPlatformInputContextFactory@@SAPEAVQPlatformInputContext@@AEBV?$QList@VQString@@@@@Z"
"?create@QPlatformInputContextFactory@@SAPEAVQPlatformInputContext@@AEBVQString@@@Z"
"?create@QPlatformInputContextFactory@@SAPEAVQPlatformInputContext@@XZ"
"?create@QPlatformIntegrationFactory@@SAPEAVQPlatformIntegration@@AEBVQString@@AEBV?$QList@VQString@@@@AEAHPEAPEAD0@Z"
"?create@QPlatformIntegrationPlugin@@UEAAPEAVQPlatformIntegration@@AEBVQString@@AEBV?$QList@VQString@@@@@Z"
"?create@QPlatformIntegrationPlugin@@UEAAPEAVQPlatformIntegration@@AEBVQString@@AEBV?$QList@VQString@@@@AEAHPEAPEAD@Z"
"?create@QPlatformPixmap@@SAPEAV1@HHW4PixelType@1@@Z"
"?create@QPlatformThemeFactory@@SAPEAVQPlatformTheme@@AEBVQString@@0@Z"
"?create@QRhi@@SAPEAV1@W4Implementation@1@PEAUQRhiInitParams@@V?$QFlags@W4Flag@QRhi@@@@PEAUQRhiNativeHandles@@@Z"
"?create@QWindow@@QEAAXXZ"
"?create@QWindowPrivate@@QEAAX_N@Z"
"?createActionPrivate@QGuiApplicationPrivate@@UEBAPEAVQActionPrivate@@XZ"
"?createAlphaMask@QImage@@QEBA?AV1@V?$QFlags@W4ImageConversionFlag@Qt@@@@@Z"
"?createCache@QTextureGlyphCache@@QEAAXHH@Z"
"?createCompatiblePlatformPixmap@QPlatformPixmap@@UEBAPEAV1@XZ"
"?createCompatiblePlatformPixmap@QRasterPlatformPixmap@@UEBAPEAVQPlatformPixmap@@XZ"
"?createDirectWriteFace@QWindowsFontDatabaseBase@@IEAAPEAUIDWriteFontFace@@AEBVQByteArray@@@Z"
"?createDirectWriteFaces@QWindowsFontDatabaseBase@@IEBA?AV?$QList@PEAUIDWriteFontFace@@@@AEBVQByteArray@@_N@Z"
"?createDirectWriteFactory@QWindowsFontDatabaseBase@@SAXPEAPEAUIDWriteFactory@@@Z"
"?createEngine@QWindowsFontDatabase@@SAPEAVQFontEngine@@AEBUQFontDef@@AEBVQString@@HAEBV?$QSharedPointer@VQWindowsFontEngineData@@@@@Z"
"?createEventDispatcher@QGuiApplicationPrivate@@UEAAXXZ"
"?createForeignWindow@QPlatformIntegration@@UEBAPEAVQPlatformWindow@@PEAVQWindow@@_K@Z"
"?createFrom@QRhiRenderBuffer@@UEAA_NUNativeRenderBuffer@1@@Z"
"?createFrom@QRhiTexture@@UEAA_NUNativeTexture@1@@Z"
"?createHFONT@QWindowsFontEngineDirectWrite@@QEBAPEAUHFONT__@@XZ"
"?createHeuristicMask@QImage@@QEBA?AV1@_N@Z"
"?createHeuristicMask@QPixmap@@QEBA?AVQBitmap@@_N@Z"
"?createIconEngine@QPlatformTheme@@UEBAPEAVQIconEngine@@AEBVQString@@@Z"
"?createImagePaintEngine@QPlatformIntegration@@UEBAPEAVQPaintEngine@@PEAVQPaintDevice@@@Z"
"?createLine@QTextLayout@@QEAA?AVQTextLine@@XZ"
"?createList@QTextCursor@@QEAAPEAVQTextList@@AEBVQTextListFormat@@@Z"
"?createList@QTextCursor@@QEAAPEAVQTextList@@W4Style@QTextListFormat@@@Z"
"?createMaskFromColor@QImage@@QEBA?AV1@IW4MaskMode@Qt@@@Z"
"?createMaskFromColor@QPixmap@@QEBA?AVQBitmap@@AEBVQColor@@W4MaskMode@Qt@@@Z"
"?createMenu@QPlatformMenuBar@@UEBAPEAVQPlatformMenu@@XZ"
"?createMenu@QPlatformSystemTrayIcon@@UEBAPEAVQPlatformMenu@@XZ"
"?createMenuItem@QPlatformMenu@@UEBAPEAVQPlatformMenuItem@@XZ"
"?createMultiFontEngine@QFontEngineMulti@@SAPEAVQFontEngine@@PEAV2@H@Z"
"?createNewSequences@QShortcutMap@@AEAAXPEAVQKeyEvent@@AEAV?$QList@VQKeySequence@@@@H@Z"
"?createObject@QTextDocument@@MEAAPEAVQTextObject@@AEBVQTextFormat@@@Z"
"?createObject@QTextDocumentPrivate@@QEAAPEAVQTextObject@@AEBVQTextFormat@@H@Z"
"?createObjectIndex@QTextFormatCollection@@QEAAHAEBVQTextFormat@@@Z"
"?createPixmap@QPaintEngine@@UEAA?AVQPixmap@@VQSize@@@Z"
"?createPixmapForImage@QRasterPlatformPixmap@@IEAAXVQImage@@V?$QFlags@W4ImageConversionFlag@Qt@@@@@Z"
"?createPixmapFromImage@QPaintEngine@@UEAA?AVQPixmap@@VQImage@@V?$QFlags@W4ImageConversionFlag@Qt@@@@@Z"
"?createPlatformDialogHelper@QPlatformTheme@@UEBAPEAVQPlatformDialogHelper@@W4DialogType@1@@Z"
"?createPlatformIntegration@QGuiApplicationPrivate@@QEAAXXZ"
"?createPlatformMenu@QPlatformTheme@@UEBAPEAVQPlatformMenu@@XZ"
"?createPlatformMenuBar@QPlatformTheme@@UEBAPEAVQPlatformMenuBar@@XZ"
"?createPlatformMenuItem@QPlatformTheme@@UEBAPEAVQPlatformMenuItem@@XZ"
"?createPlatformOffscreenSurface@QPlatformIntegration@@UEBAPEAVQPlatformOffscreenSurface@@PEAVQOffscreenSurface@@@Z"
"?createPlatformOpenGLContext@QPlatformIntegration@@UEBAPEAVQPlatformOpenGLContext@@PEAVQOpenGLContext@@@Z"
"?createPlatformPixmap@QPlatformIntegration@@UEBAPEAVQPlatformPixmap@@W4PixelType@2@@Z"
"?createPlatformSessionManager@QPlatformIntegration@@UEBAPEAVQPlatformSessionManager@@AEBVQString@@0@Z"
"?createPlatformSharedGraphicsCache@QPlatformIntegration@@UEBAPEAVQPlatformSharedGraphicsCache@@PEBD@Z"
"?createPlatformSystemTrayIcon@QPlatformTheme@@UEBAPEAVQPlatformSystemTrayIcon@@XZ"
"?createPlatformTheme@QPlatformIntegration@@UEBAPEAVQPlatformTheme@@AEBVQString@@@Z"
"?createRedoAction@QUndoGroup@@QEBAPEAVQAction@@PEAVQObject@@AEBVQString@@@Z"
"?createRedoAction@QUndoStack@@QEBAPEAVQAction@@PEAVQObject@@AEBVQString@@@Z"
"?createRhi@QPlatformBackingStore@@QEAAXPEAVQWindow@@UQPlatformBackingStoreRhiConfig@@@Z"
"?createShortcutPrivate@QGuiApplicationPrivate@@UEBAPEAVQShortcutPrivate@@XZ"
"?createState@QPaintEngineEx@@UEBAPEAVQPainterState@@PEAV2@@Z"
"?createState@QRasterPaintEngine@@UEBAPEAVQPainterState@@PEAV2@@Z"
"?createStroke@QPainterPathStroker@@QEBA?AVQPainterPath@@AEBV2@@Z"
"?createSubMenu@QPlatformMenu@@UEBAPEAV1@XZ"
"?createSystemCursor@QPlatformCursorImage@@CAXH@Z"
"?createTextureData@QImageTextureGlyphCache@@UEAAXHH@Z"
"?createTheme@QWindowsThemeCache@@YAPEAXHPEAUHWND__@@@Z"
"?createTouchDevice@QTest@@YAPEAVQPointingDevice@@W4DeviceType@QInputDevice@@V?$QFlags@W4Capability@QInputDevice@@@@@Z"
"?createUndoAction@QUndoGroup@@QEBAPEAVQAction@@PEAVQObject@@AEBVQString@@@Z"
"?createUndoAction@QUndoStack@@QEBAPEAVQAction@@PEAVQObject@@AEBVQString@@@Z"
"?createWatcher@QFileInfoGatherer@@AEAAXXZ"
"?crend@QRegion@@QEBA?AV?$reverse_iterator@PEBVQRect@@@std@@XZ"
"?cubicTo@QPainterPath@@QEAAXAEBVQPointF@@00@Z"
"?cubicTo@QPainterPath@@QEAAXNNNNNN@Z"
"?cubicTo@QStrokerOps@@QEAAXNNNNNN@Z"
"?cubicTo@QTriangulatingStroker@@AEAAXPEBN@Z"
"?cullMode@QRhiGraphicsPipeline@@QEBA?AW4CullMode@1@XZ"
"?currentBlock@QSyntaxHighlighter@@IEBA?AVQTextBlock@@XZ"
"?currentBlock@iterator@QTextFrame@@QEBA?AVQTextBlock@@XZ"
"?currentBlockState@QSyntaxHighlighter@@IEBAHXZ"
"?currentBlockUserData@QSyntaxHighlighter@@IEBAPEAVQTextBlockUserData@@XZ"
"?currentChanged@QPlatformFileDialogHelper@@QEAAXAEBVQUrl@@@Z"
"?currentColorChanged@QPlatformColorDialogHelper@@QEAAXAEBVQColor@@@Z"
"?currentColorGroup@QPalette@@QEBA?AW4ColorGroup@1@XZ"
"?currentContext@QOpenGLContext@@SAPEAV1@XZ"
"?currentContextGroup@QOpenGLContextGroup@@SAPEAV1@XZ"
"?currentDrag@QPlatformDrag@@QEBAPEAVQDrag@@XZ"
"?currentDragWindow@QGuiApplicationPrivate@@2V?$QPointer@VQWindow@@@@A"
"?currentFontChanged@QPlatformFontDialogHelper@@QEAAXAEBVQFont@@@Z"
"?currentFrame@QTextCursor@@QEBAPEAVQTextFrame@@XZ"
"?currentFrameNumber@QMovie@@QEBAHXZ"
"?currentFrameRenderTarget@QRhiSwapChain@@UEAAPEAVQRhiRenderTarget@@W4StereoTargetBuffer@1@@Z"
"?currentFrameSlot@QRhi@@QEBAHXZ"
"?currentImage@QMovie@@QEBA?AVQImage@@XZ"
"?currentImageNumber@QImageIOHandler@@UEBAHXZ"
"?currentImageNumber@QImageReader@@QEBAHXZ"
"?currentImageRect@QImageIOHandler@@UEBA?AVQRect@@XZ"
"?currentImageRect@QImageReader@@QEBA?AVQRect@@XZ"
"?currentKeyPlatforms@QPlatformThemePrivate@@SAIXZ"
"?currentList@QTextCursor@@QEBAPEAVQTextList@@XZ"
"?currentMode@QPlatformScreen@@UEBAHXZ"
"?currentMousePressWindow@QGuiApplicationPrivate@@2PEAVQWindow@@EA"
"?currentMouseWindow@QGuiApplicationPrivate@@2PEAVQWindow@@EA"
"?currentPixelSize@QRhiSwapChain@@QEBA?AVQSize@@XZ"
"?currentPixmap@QMovie@@QEBA?AVQPixmap@@XZ"
"?currentPosition@QPainterPath@@QEBA?AVQPointF@@XZ"
"?currentTable@QTextCursor@@QEBAPEAVQTextTable@@XZ"
"?currentTarget@QDragManager@@QEBAPEAVQObject@@XZ"
"?cursor@QPlatformScreen@@UEBAPEAVQPlatformCursor@@XZ"
"?cursor@QWindow@@QEBA?AVQCursor@@XZ"
"?cursorFlashTime@QStyleHints@@QEBAHXZ"
"?cursorFlashTimeChanged@QStyleHints@@QEAAXH@Z"
"?cursorMoveStyle@QTextLayout@@QEBA?AW4CursorMoveStyle@Qt@@XZ"
"?cursorPosition@QAccessibleTextCursorEvent@@QEBAHXZ"
"?cursorPositionChangeRequested@QInputDeviceManager@@QEAAXAEBVQPoint@@@Z"
"?cursorPositionChanged@QTextDocument@@QEAAXAEBVQTextCursor@@@Z"
"?cursorRectangle@QInputMethod@@QEBA?AVQRectF@@XZ"
"?cursorRectangle@QPlatformInputContext@@SA?AVQRectF@@XZ"
"?cursorRectangleChanged@QInputMethod@@QEAAXXZ"
"?cursorToX@QTextLine@@QEBANHW4Edge@1@@Z"
"?cursorToX@QTextLine@@QEBANPEAHW4Edge@1@@Z"
"?cursorWidth@QTextDocumentLayout@@QEBAHXZ"
"?curveThreshold@QPainterPathStroker@@QEBANXZ"
"?curveThreshold@QStrokerOps@@QEBANXZ"
"?customButton@QMessageDialogOptions@@QEAAPEBUCustomButton@1@H@Z"
"?customButtons@QMessageDialogOptions@@QEAAAEBV?$QList@UCustomButton@QMessageDialogOptions@@@@XZ"
"?customColor@QColorDialogOptions@@SAIH@Z"
"?customColorCount@QColorDialogOptions@@SAHXZ"
"?customColors@QColorDialogOptions@@SAPEAIXZ"
"?cyan@QColor@@QEBAHXZ"
"?cyanF@QColor@@QEBAMXZ"
"?d@QOpenGLExtensions@@QEBAPEAVQOpenGLExtensionsPrivate@@XZ"
"?d_func@QAbstractFileIconProvider@@AEAAPEAVQAbstractFileIconProviderPrivate@@XZ"
"?d_func@QAbstractFileIconProvider@@AEBAPEBVQAbstractFileIconProviderPrivate@@XZ"
"?d_func@QAbstractTextDocumentLayout@@AEAAPEAVQAbstractTextDocumentLayoutPrivate@@XZ"
"?d_func@QAbstractTextDocumentLayout@@AEBAPEBVQAbstractTextDocumentLayoutPrivate@@XZ"
"?d_func@QAction@@AEAAPEAVQActionPrivate@@XZ"
"?d_func@QAction@@AEBAPEBVQActionPrivate@@XZ"
"?d_func@QActionGroup@@AEAAPEAVQActionGroupPrivate@@XZ"
"?d_func@QActionGroup@@AEBAPEBVQActionGroupPrivate@@XZ"
"?d_func@QBlittable@@AEAAPEAVQBlittablePrivate@@XZ"
"?d_func@QBlittable@@AEBAPEBVQBlittablePrivate@@XZ"
"?d_func@QBlitterPaintEngine@@AEAAPEAVQBlitterPaintEnginePrivate@@XZ"
"?d_func@QBlitterPaintEngine@@AEBAPEBVQBlitterPaintEnginePrivate@@XZ"
"?d_func@QDoubleValidator@@AEAAPEAVQDoubleValidatorPrivate@@XZ"
"?d_func@QDoubleValidator@@AEBAPEBVQDoubleValidatorPrivate@@XZ"
"?d_func@QDrag@@AEAAPEAVQDragPrivate@@XZ"
"?d_func@QDrag@@AEBAPEBVQDragPrivate@@XZ"
"?d_func@QFileSystemModel@@AEAAPEAVQFileSystemModelPrivate@@XZ"
"?d_func@QFileSystemModel@@AEBAPEBVQFileSystemModelPrivate@@XZ"
"?d_func@QGuiApplication@@AEAAPEAVQGuiApplicationPrivate@@XZ"
"?d_func@QGuiApplication@@AEBAPEBVQGuiApplicationPrivate@@XZ"
"?d_func@QImageIOHandler@@AEAAPEAVQImageIOHandlerPrivate@@XZ"
"?d_func@QImageIOHandler@@AEBAPEBVQImageIOHandlerPrivate@@XZ"
"?d_func@QInputDevice@@AEAAPEAVQInputDevicePrivate@@XZ"
"?d_func@QInputDevice@@AEBAPEBVQInputDevicePrivate@@XZ"
"?d_func@QInputDeviceManager@@AEAAPEAVQInputDeviceManagerPrivate@@XZ"
"?d_func@QInputDeviceManager@@AEBAPEBVQInputDeviceManagerPrivate@@XZ"
"?d_func@QInputMethod@@AEAAPEAVQInputMethodPrivate@@XZ"
"?d_func@QInputMethod@@AEBAPEBVQInputMethodPrivate@@XZ"
"?d_func@QMovie@@AEAAPEAVQMoviePrivate@@XZ"
"?d_func@QMovie@@AEBAPEBVQMoviePrivate@@XZ"
"?d_func@QOffscreenSurface@@AEAAPEAVQOffscreenSurfacePrivate@@XZ"
"?d_func@QOffscreenSurface@@AEBAPEBVQOffscreenSurfacePrivate@@XZ"
"?d_func@QOpenGLContext@@AEAAPEAVQOpenGLContextPrivate@@XZ"
"?d_func@QOpenGLContext@@AEBAPEBVQOpenGLContextPrivate@@XZ"
"?d_func@QOpenGLContextGroup@@AEAAPEAVQOpenGLContextGroupPrivate@@XZ"
"?d_func@QOpenGLContextGroup@@AEBAPEBVQOpenGLContextGroupPrivate@@XZ"
"?d_func@QOpenGLExtensions@@AEAAPEAVQOpenGLExtensionsPrivate@@XZ"
"?d_func@QOpenGLExtensions@@AEBAPEBVQOpenGLExtensionsPrivate@@XZ"
"?d_func@QOpenGLExtraFunctions@@AEAAPEAVQOpenGLExtraFunctionsPrivate@@XZ"
"?d_func@QOpenGLExtraFunctions@@AEBAPEBVQOpenGLExtraFunctionsPrivate@@XZ"
"?d_func@QPaintDeviceWindow@@AEAAPEAVQPaintDeviceWindowPrivate@@XZ"
"?d_func@QPaintDeviceWindow@@AEBAPEBVQPaintDeviceWindowPrivate@@XZ"
"?d_func@QPaintEngine@@AEAAPEAVQPaintEnginePrivate@@XZ"
"?d_func@QPaintEngine@@AEBAPEBVQPaintEnginePrivate@@XZ"
"?d_func@QPaintEngineEx@@AEAAPEAVQPaintEngineExPrivate@@XZ"
"?d_func@QPaintEngineEx@@AEBAPEBVQPaintEngineExPrivate@@XZ"
"?d_func@QPainter@@AEAAPEAVQPainterPrivate@@XZ"
"?d_func@QPainter@@AEBAPEBVQPainterPrivate@@XZ"
"?d_func@QPainterPath@@AEBAPEAVQPainterPathPrivate@@XZ"
"?d_func@QPainterPathStroker@@AEAAPEAVQPainterPathStrokerPrivate@@XZ"
"?d_func@QPainterPathStroker@@AEBAPEBVQPainterPathStrokerPrivate@@XZ"
"?d_func@QPicture@@AEAAPEAVQPicturePrivate@@XZ"
"?d_func@QPicture@@AEBAPEBVQPicturePrivate@@XZ"
"?d_func@QPlatformDrag@@AEAAPEAVQPlatformDragPrivate@@XZ"
"?d_func@QPlatformDrag@@AEBAPEBVQPlatformDragPrivate@@XZ"
"?d_func@QPlatformInputContext@@AEAAPEAVQPlatformInputContextPrivate@@XZ"
"?d_func@QPlatformInputContext@@AEBAPEBVQPlatformInputContextPrivate@@XZ"
"?d_func@QPlatformOffscreenSurface@@AEAAPEAVQPlatformOffscreenSurfacePrivate@@XZ"
"?d_func@QPlatformOffscreenSurface@@AEBAPEBVQPlatformOffscreenSurfacePrivate@@XZ"
"?d_func@QPlatformOpenGLContext@@AEAAPEAVQPlatformOpenGLContextPrivate@@XZ"
"?d_func@QPlatformOpenGLContext@@AEBAPEBVQPlatformOpenGLContextPrivate@@XZ"
"?d_func@QPlatformScreen@@AEAAPEAVQPlatformScreenPrivate@@XZ"
"?d_func@QPlatformScreen@@AEBAPEBVQPlatformScreenPrivate@@XZ"
"?d_func@QPlatformTextureList@@AEAAPEAVQPlatformTextureListPrivate@@XZ"
"?d_func@QPlatformTextureList@@AEBAPEBVQPlatformTextureListPrivate@@XZ"
"?d_func@QPlatformTheme@@AEAAPEAVQPlatformThemePrivate@@XZ"
"?d_func@QPlatformTheme@@AEBAPEBVQPlatformThemePrivate@@XZ"
"?d_func@QPlatformWindow@@AEAAPEAVQPlatformWindowPrivate@@XZ"
"?d_func@QPlatformWindow@@AEBAPEBVQPlatformWindowPrivate@@XZ"
"?d_func@QPointingDevice@@AEAAPEAVQPointingDevicePrivate@@XZ"
"?d_func@QPointingDevice@@AEBAPEBVQPointingDevicePrivate@@XZ"
"?d_func@QRasterPaintEngine@@AEAAPEAVQRasterPaintEnginePrivate@@XZ"
"?d_func@QRasterPaintEngine@@AEBAPEBVQRasterPaintEnginePrivate@@XZ"
"?d_func@QRasterWindow@@AEAAPEAVQRasterWindowPrivate@@XZ"
"?d_func@QRasterWindow@@AEBAPEBVQRasterWindowPrivate@@XZ"
"?d_func@QRegularExpressionValidator@@AEAAPEAVQRegularExpressionValidatorPrivate@@XZ"
"?d_func@QRegularExpressionValidator@@AEBAPEBVQRegularExpressionValidatorPrivate@@XZ"
"?d_func@QScreen@@AEAAPEAVQScreenPrivate@@XZ"
"?d_func@QScreen@@AEBAPEBVQScreenPrivate@@XZ"
"?d_func@QSessionManager@@AEAAPEAVQSessionManagerPrivate@@XZ"
"?d_func@QSessionManager@@AEBAPEBVQSessionManagerPrivate@@XZ"
"?d_func@QShortcut@@AEAAPEAVQShortcutPrivate@@XZ"
"?d_func@QShortcut@@AEBAPEBVQShortcutPrivate@@XZ"
"?d_func@QShortcutMap@@AEAAPEAVQShortcutMapPrivate@@XZ"
"?d_func@QShortcutMap@@AEBAPEBVQShortcutMapPrivate@@XZ"
"?d_func@QStandardItem@@AEAAPEAVQStandardItemPrivate@@XZ"
"?d_func@QStandardItem@@AEBAPEBVQStandardItemPrivate@@XZ"
"?d_func@QStandardItemModel@@AEAAPEAVQStandardItemModelPrivate@@XZ"
"?d_func@QStandardItemModel@@AEBAPEBVQStandardItemModelPrivate@@XZ"
"?d_func@QStyleHints@@AEAAPEAVQStyleHintsPrivate@@XZ"
"?d_func@QStyleHints@@AEBAPEBVQStyleHintsPrivate@@XZ"
"?d_func@QSyntaxHighlighter@@AEAAPEAVQSyntaxHighlighterPrivate@@XZ"
"?d_func@QSyntaxHighlighter@@AEBAPEBVQSyntaxHighlighterPrivate@@XZ"
"?d_func@QTextBlockGroup@@AEAAPEAVQTextBlockGroupPrivate@@XZ"
"?d_func@QTextBlockGroup@@AEBAPEBVQTextBlockGroupPrivate@@XZ"
"?d_func@QTextDocument@@AEAAPEAVQTextDocumentPrivate@@XZ"
"?d_func@QTextDocument@@AEBAPEBVQTextDocumentPrivate@@XZ"
"?d_func@QTextDocumentLayout@@AEAAPEAVQTextDocumentLayoutPrivate@@XZ"
"?d_func@QTextDocumentLayout@@AEBAPEBVQTextDocumentLayoutPrivate@@XZ"
"?d_func@QTextFrame@@AEAAPEAVQTextFramePrivate@@XZ"
"?d_func@QTextFrame@@AEBAPEBVQTextFramePrivate@@XZ"
"?d_func@QTextList@@AEAAPEAVQTextListPrivate@@XZ"
"?d_func@QTextList@@AEBAPEBVQTextListPrivate@@XZ"
"?d_func@QTextObject@@AEAAPEAVQTextObjectPrivate@@XZ"
"?d_func@QTextObject@@AEBAPEBVQTextObjectPrivate@@XZ"
"?d_func@QTextTable@@AEAAPEAVQTextTablePrivate@@XZ"
"?d_func@QTextTable@@AEBAPEBVQTextTablePrivate@@XZ"
"?d_func@QUndoGroup@@AEAAPEAVQUndoGroupPrivate@@XZ"
"?d_func@QUndoGroup@@AEBAPEBVQUndoGroupPrivate@@XZ"
"?d_func@QUndoStack@@AEAAPEAVQUndoStackPrivate@@XZ"
"?d_func@QUndoStack@@AEBAPEBVQUndoStackPrivate@@XZ"
"?d_func@QValidator@@AEAAPEAVQValidatorPrivate@@XZ"
"?d_func@QValidator@@AEBAPEBVQValidatorPrivate@@XZ"
"?d_func@QWindow@@AEAAPEAVQWindowPrivate@@XZ"
"?d_func@QWindow@@AEBAPEBVQWindowPrivate@@XZ"
"?dark@QPalette@@QEBAAEBVQBrush@@XZ"
"?darker@QColor@@QEBA?AV1@H@Z"
"?dashArray@Declaration@QCss@@QEBA?AV?$QList@N@@XZ"
"?dashOffset@QDashStroker@@QEBANXZ"
"?dashOffset@QPainterPathStroker@@QEBANXZ"
"?dashOffset@QPen@@QEBANXZ"
"?dashPattern@QDashStroker@@QEBA?AV?$QList@N@@XZ"
"?dashPattern@QPainterPathStroker@@QEBA?AV?$QList@N@@XZ"
"?dashPattern@QPen@@QEBA?AV?$QList@N@@XZ"
"?data@QAction@@QEBA?AVQVariant@@XZ"
"?data@QFileSystemModel@@UEBA?AVQVariant@@AEBVQModelIndex@@H@Z"
"?data@QMatrix4x4@@QEAAPEAMXZ"
"?data@QMatrix4x4@@QEBAPEBMXZ"
"?data@QPicture@@QEBAPEBDXZ"
"?data@QPlatformGraphicsBuffer@@UEAAPEAEXZ"
"?data@QPlatformGraphicsBuffer@@UEBAPEBEXZ"
"?data@QRhiTextureSubresourceUploadDescription@@QEBA?AVQByteArray@@XZ"
"?data@QStandardItem@@UEBA?AVQVariant@@H@Z"
"?data@QStandardItemModel@@UEBA?AVQVariant@@AEBVQModelIndex@@H@Z"
"?data@QTextureFileData@@QEBA?AVQByteArray@@XZ"
"?data@QWindowsFontDatabaseBase@@SA?AV?$QSharedPointer@VQWindowsFontEngineData@@@@XZ"
"?dataChanged@QClipboard@@QEAAXXZ"
"?dataLength@QTextureFileData@@QEBAHHH@Z"
"?dataOffset@QTextureFileData@@QEBAHHH@Z"
"?dataStride@QRhiTextureSubresourceUploadDescription@@QEBAIXZ"
"?data_ptr@QBrush@@QEAAAEAV?$unique_ptr@UQBrushData@@UQBrushDataPointerDeleter@@@std@@XZ"
"?data_ptr@QIcon@@QEAAAEAPEAVQIconPrivate@@XZ"
"?data_ptr@QImage@@QEAAAEAPEAUQImageData@@XZ"
"?data_ptr@QKeySequence@@QEAAAEAPEAVQKeySequencePrivate@@XZ"
"?data_ptr@QPen@@QEAAAEAV?$QExplicitlySharedDataPointer@VQPenPrivate@@@@XZ"
"?data_ptr@QPicture@@QEAAAEAV?$QExplicitlySharedDataPointer@VQPicturePrivate@@@@XZ"
"?data_ptr@QPixmap@@QEAAAEAV?$QExplicitlySharedDataPointer@VQPlatformPixmap@@@@XZ"
"?dd@QPagedPaintDevice@@IEAAPEAVQPagedPaintDevicePrivate@@XZ"
"?debugFormat@QWindowsFontDatabase@@SAXAEAVQDebug@@AEBUtagLOGFONTW@@@Z"
"?debugMarkBegin@QRhiCommandBuffer@@QEAAXAEBVQByteArray@@@Z"
"?debugMarkEnd@QRhiCommandBuffer@@QEAAXXZ"
"?debugMarkMsg@QRhiCommandBuffer@@QEAAXAEBVQByteArray@@@Z"
"?decideFormatFromContent@QImageReader@@QEBA_NXZ"
"?decimals@QDoubleValidator@@QEBAHXZ"
"?decimalsChanged@QDoubleValidator@@QEAAXH@Z"
"?declarationsForNode@StyleSelector@QCss@@QEAA?AV?$QList@UDeclaration@QCss@@@@TNodePtr@12@PEBD@Z"
"?decreaseAction@QAccessibleActionInterface@@SAAEBVQString@@XZ"
"?decreaseCache@QFontCache@@AEAAXXZ"
"?decreaseCost@QFontCache@@AEAAXI@Z"
"?defaultAction@QDrag@@QEBA?AW4DropAction@Qt@@XZ"
"?defaultAction@QPlatformDrag@@UEBA?AW4DropAction@Qt@@V?$QFlags@W4DropAction@Qt@@@@V?$QFlags@W4KeyboardModifier@Qt@@@@@Z"
"?defaultButton@QMessageDialogOptions@@QEBAHXZ"
"?defaultCursorMoveStyle@QTextDocument@@QEBA?AW4CursorMoveStyle@Qt@@XZ"
"?defaultDepth@QPixmap@@SAHXZ"
"?defaultFamily@QFont@@QEBA?AVQString@@XZ"
"?defaultFont@QPlatformFontDatabase@@UEBA?AVQFont@@XZ"
"?defaultFont@QTextDocument@@QEBA?AVQFont@@XZ"
"?defaultFont@QTextDocumentPrivate@@QEBA?AVQFont@@XZ"
"?defaultFont@QTextFormatCollection@@QEBA?AVQFont@@XZ"
"?defaultFont@QWindowsFontDatabase@@UEBA?AVQFont@@XZ"
"?defaultFormat@QSurfaceFormat@@SA?AV1@XZ"
"?defaultFramebufferObject@QOpenGLContext@@QEBAIXZ"
"?defaultFramebufferObject@QPlatformOpenGLContext@@UEBAIPEAVQPlatformSurface@@@Z"
"?defaultModality@QGuiApplicationPrivate@@UEBA?AW4WindowModality@Qt@@XZ"
"?defaultNameFilterString@QFileDialogOptions@@SA?AVQString@@XZ"
"?defaultPixmap@QPlatformDrag@@SA?AVQPixmap@@XZ"
"?defaultResourceProvider@QTextDocument@@SA?AV?$function@$$A6A?AVQVariant@@AEBVQUrl@@@Z@std@@XZ"
"?defaultStandardButtonText@QPlatformTheme@@SA?AVQString@@H@Z"
"?defaultStyleHint@QPlatformDialogHelper@@SA?AVQVariant@@W4StyleHint@1@@Z"
"?defaultWindowState@QPlatformIntegration@@UEBA?AW4WindowState@Qt@@V?$QFlags@W4WindowType@Qt@@@@@Z"
"?deferredFlushWindowSystemEvents@QWindowSystemInterface@@SAXV?$QFlags@W4ProcessEventsFlag@QEventLoop@@@@@Z"
"?definitionSize@QPageSize@@QEBA?AVQSizeF@@XZ"
"?definitionSize@QPageSize@@SA?AVQSizeF@@W4PageSizeId@1@@Z"
"?definitionUnits@QPageSize@@QEBA?AW4Unit@1@XZ"
"?definitionUnits@QPageSize@@SA?AW4Unit@1@W4PageSizeId@1@@Z"
"?delayedSort@QFileSystemModelPrivate@@QEAAXXZ"
"?deleteAccessibleInterface@QAccessible@@SAXI@Z"
"?deleteChar@QTextCursor@@QEAAXXZ"
"?deleteInterface@QAccessibleCache@@QEAAXIPEAVQObject@@@Z"
"?deleteItems@QGridLayoutEngine@@QEAAXXZ"
"?deleteLater@QRhiResource@@QEAAXXZ"
"?deleteObject@QTextDocumentPrivate@@QEAAXPEAVQTextObject@@@Z"
"?deletePendingResources@QOpenGLContextGroupPrivate@@QEAAXPEAVQOpenGLContext@@@Z"
"?deletePreviousChar@QTextCursor@@QEAAXXZ"
"?deliverUpdateRequest@QPlatformWindow@@UEAAXXZ"
"?delta@QNativeGestureEvent@@QEBA?AVQPointF@@XZ"
"?depth@QImage@@QEBAHXZ"
"?depth@QPaintDevice@@QEBAHXZ"
"?depth@QPixmap@@QEBAHXZ"
"?depth@QPlatformPixmap@@QEBAHXZ"
"?depth@QPlatformPlaceholderScreen@@UEBAHXZ"
"?depth@QRhiTexture@@QEBAHXZ"
"?depth@QScreen@@QEBAHXZ"
"?depthBias@QRhiGraphicsPipeline@@QEBAHXZ"
"?depthBufferSize@QSurfaceFormat@@QEBAHXZ"
"?depthClearValue@QRhiDepthStencilClearValue@@QEBAMXZ"
"?depthOp@QRhiGraphicsPipeline@@QEBA?AW4CompareOp@1@XZ"
"?depthResolveTexture@QRhiTextureRenderTargetDescription@@QEBAPEAVQRhiTexture@@XZ"
"?depthStencil@QRhiSwapChain@@QEBAPEAVQRhiRenderBuffer@@XZ"
"?depthStencilBuffer@QRhiTextureRenderTargetDescription@@QEBAPEAVQRhiRenderBuffer@@XZ"
"?depthTexture@QRhiTextureRenderTargetDescription@@QEBAPEAVQRhiTexture@@XZ"
"?derefUniqueFont@QWindowsFontDatabase@@QEAAXAEBVQString@@@Z"
"?derivedAt@QBezier@@QEBA?AVQPointF@@N@Z"
"?descent@QFontEngine@@UEBA?AUQFixed@@XZ"
"?descent@QFontEngineMulti@@UEBA?AUQFixed@@XZ"
"?descent@QFontMetrics@@QEBAHXZ"
"?descent@QFontMetricsF@@QEBANXZ"
"?descent@QRawFont@@QEBANXZ"
"?descent@QTextInlineObject@@QEBANXZ"
"?descent@QTextItem@@QEBANXZ"
"?descent@QTextLine@@QEBANXZ"
"?description@QColorSpace@@QEBA?AVQString@@XZ"
"?description@QRhiTextureRenderTarget@@QEBA?AVQRhiTextureRenderTargetDescription@@XZ"
"?description@QRhiTextureUploadEntry@@QEBA?AVQRhiTextureSubresourceUploadDescription@@XZ"
"?description@QShader@@QEBA?AVQShaderDescription@@XZ"
"?deserialize@QShaderDescription@@SA?AV1@PEAVQDataStream@@H@Z"
"?desktopEnvironment@QPlatformServices@@UEBA?AVQByteArray@@XZ"
"?desktopFileName@QGuiApplication@@SA?AVQString@@XZ"
"?desktopFileName@QGuiApplicationPrivate@@2PEAVQString@@EA"
"?desktopSettingsAware@QGuiApplication@@SA_NXZ"
"?destinationLayer@QRhiTextureCopyDescription@@QEBAHXZ"
"?destinationLevel@QRhiTextureCopyDescription@@QEBAHXZ"
"?destinationTopLeft@QRhiTextureCopyDescription@@QEBA?AVQPoint@@XZ"
"?destinationTopLeft@QRhiTextureSubresourceUploadDescription@@QEBA?AVQPoint@@XZ"
"?destroy@QActionPrivate@@UEAAXXZ"
"?destroy@QOffscreenSurface@@QEAAXXZ"
"?destroy@QOpenGLContext@@AEAAXXZ"
"?destroy@QPlatformIntegration@@UEAAXXZ"
"?destroy@QWindow@@QEAAXXZ"
"?destroy@QWindowPrivate@@QEAAXXZ"
"?detach@QBrush@@AEAAXW4BrushStyle@Qt@@@Z"
"?detach@QColorSpace@@QEAAXXZ"
"?detach@QFont@@AEAAXXZ"
"?detach@QGlyphRun@@AEAAXXZ"
"?detach@QIcon@@QEAAXXZ"
"?detach@QImage@@QEAAXXZ"
"?detach@QMutableEventPoint@@SAXAEAVQEventPoint@@@Z"
"?detach@QPageRanges@@QEAAXXZ"
"?detach@QPainterPath@@AEAAXXZ"
"?detach@QPalette@@AEAAXXZ"
"?detach@QPen@@AEAAXXZ"
"?detach@QPicture@@QEAAXXZ"
"?detach@QPixmap@@QEAAXXZ"
"?detach@QRegion@@AEAAXXZ"
"?detach@QShader@@QEAAXXZ"
"?detach@QShaderDescription@@QEAAXXZ"
"?detach@QStaticText@@AEAAXXZ"
"?detach@QSupportedWritingSystems@@AEAAXXZ"
"?detach@QSurfaceFormat@@AEAAXXZ"
"?detachButKeepEngineData@QFontPrivate@@SAXPEAVQFont@@@Z"
"?detachMetadata@QImage@@IEAAX_N@Z"
"?detailedText@QMessageDialogOptions@@QEBA?AVQString@@XZ"
"?determinant@QMatrix4x4@@QEBANXZ"
"?determinant@QTransform@@QEBANXZ"
"?devType@QImage@@UEBAHXZ"
"?devType@QPaintDevice@@UEBAHXZ"
"?devType@QPicture@@UEBAHXZ"
"?devType@QPixmap@@UEBAHXZ"
"?device@QEventPoint@@QEBAPEBVQPointingDevice@@XZ"
"?device@QImageIOHandler@@QEBAPEAVQIODevice@@XZ"
"?device@QImageReader@@QEBAPEAVQIODevice@@XZ"
"?device@QImageWriter@@QEBAPEAVQIODevice@@XZ"
"?device@QInputEvent@@QEBAPEBVQInputDevice@@XZ"
"?device@QMovie@@QEBAPEAVQIODevice@@XZ"
"?device@QPainter@@QEBAPEAVQPaintDevice@@XZ"
"?device@QTextDocumentWriter@@QEBAPEAVQIODevice@@XZ"
"?deviceCount@QInputDeviceManager@@QEBAHW4DeviceType@1@@Z"
"?deviceCount@QInputDeviceManagerPrivate@@QEBAHW4DeviceType@QInputDeviceManager@@@Z"
"?deviceIndependentSize@QImage@@QEBA?AVQSizeF@@XZ"
"?deviceIndependentSize@QPixmap@@QEBA?AVQSizeF@@XZ"
"?deviceListChanged@QInputDeviceManager@@QEAAXW4DeviceType@1@@Z"
"?devicePixelRatio@QBlittablePlatformPixmap@@UEBANXZ"
"?devicePixelRatio@QGuiApplication@@QEBANXZ"
"?devicePixelRatio@QImage@@QEBANXZ"
"?devicePixelRatio@QPaintDevice@@QEBANXZ"
"?devicePixelRatio@QPixmap@@QEBANXZ"
"?devicePixelRatio@QPlatformScreen@@UEBANXZ"
"?devicePixelRatio@QPlatformWindow@@UEBANXZ"
"?devicePixelRatio@QRasterPlatformPixmap@@UEBANXZ"
"?devicePixelRatio@QScreen@@QEBANXZ"
"?devicePixelRatio@QWindow@@QEBANXZ"
"?devicePixelRatioF@QPaintDevice@@QEBANXZ"
"?devicePixelRatioFScale@QPaintDevice@@SANXZ"
"?deviceTransform@QPainter@@QEBAAEBVQTransform@@XZ"
"?deviceType@QInputEvent@@QEBA?AW4DeviceType@QInputDevice@@XZ"
"?devices@QInputDevice@@SA?AV?$QList@PEBVQInputDevice@@@@XZ"
"?directWriteFontFace@QWindowsFontEngineDirectWrite@@QEBAPEAUIDWriteFontFace@@XZ"
"?directoryChanged@QFileSystemModelPrivate@@QEAAXAEBVQString@@AEBV?$QList@VQString@@@@@Z"
"?directoryEntered@QPlatformFileDialogHelper@@QEAAXAEBVQUrl@@@Z"
"?directoryLoaded@QFileInfoGatherer@@QEAAXAEBVQString@@@Z"
"?directoryLoaded@QFileSystemModel@@QEAAXAEBVQString@@@Z"
"?disableEventFilter@QBasicDrag@@AEAAXXZ"
"?discardCommand@QPlatformSessionManager@@UEBA?AV?$QList@VQString@@@@XZ"
"?discardCommand@QSessionManager@@QEBA?AV?$QList@VQString@@@@XZ"
"?discardFramebuffer@QOpenGLExtensions@@QEAAXIHPEBI@Z"
"?disconnectFromScreen@QWindowPrivate@@QEAAXXZ"
"?dismiss@QPlatformMenu@@UEAAXXZ"
"?dispatch@QRhiCommandBuffer@@QEAAXHHH@Z"
"?dispatchEvent@QShortcutMap@@AEAAXPEAVQKeyEvent@@@Z"
"?displayName@QFileSystemModelPrivate@@QEBA?AVQString@@AEBVQModelIndex@@@Z"
"?displayName@QGuiApplicationPrivate@@2PEAVQString@@EA"
"?doClip@QPathClipper@@AEAA_NAEAVQWingedEdge@@W4ClipperMode@1@@Z"
"?doFlush@QPaintDeviceWindowPrivate@@QEAAXAEBVQRegion@@@Z"
"?doImageIO@QImageData@@QEBA_NPEBVQImage@@PEAVQImageWriter@@H@Z"
"?doImageIO@QPixmap@@AEBA_NPEAVQImageWriter@@H@Z"
"?doInit@QPixmap@@AEAAXHHH@Z"
"?doKerning@QFontEngine@@UEBAXPEAUQGlyphLayout@@V?$QFlags@W4ShaperFlag@QFontEngine@@@@@Z"
"?doKerning@QFontEngineMulti@@UEBAXPEAUQGlyphLayout@@V?$QFlags@W4ShaperFlag@QFontEngine@@@@@Z"
"?doLayout@QTextDocumentLayout@@AEAA?AVQRectF@@HHH@Z"
"?do_map@QTransform@@AEBAXNNAEAN0@Z"
"?docLayout@QTextEngine@@QEBAPEAVQAbstractTextDocumentLayout@@XZ"
"?document@QAbstractTextDocumentLayout@@QEBAPEAVQTextDocument@@XZ"
"?document@QSyntaxHighlighter@@QEBAPEAVQTextDocument@@XZ"
"?document@QTextBlock@@QEBAPEBVQTextDocument@@XZ"
"?document@QTextCursor@@QEBAPEAVQTextDocument@@XZ"
"?document@QTextDocumentPrivate@@QEAAPEAVQTextDocument@@XZ"
"?document@QTextDocumentPrivate@@QEBAPEBVQTextDocument@@XZ"
"?document@QTextObject@@QEBAPEAVQTextDocument@@XZ"
"?documentChange@QTextDocumentPrivate@@QEAAXHH@Z"
"?documentChanged@QTextDocumentLayout@@MEAAXHHH@Z"
"?documentLayout@QTextDocument@@QEBAPEAVQAbstractTextDocumentLayout@@XZ"
"?documentLayoutChanged@QTextDocument@@QEAAXXZ"
"?documentMargin@QTextDocument@@QEBANXZ"
"?documentSize@QTextDocumentLayout@@UEBA?AVQSizeF@@XZ"
"?documentSizeChanged@QAbstractTextDocumentLayout@@QEAAXAEBVQSizeF@@@Z"
"?doneCurrent@QOpenGLContext@@QEAAXXZ"
"?dotProduct@QQuaternion@@SAMAEBV1@0@Z"
"?dotsPerMeterX@QImage@@QEBAHXZ"
"?dotsPerMeterY@QImage@@QEBAHXZ"
"?doubleProperty@QTextFormat@@QEBANH@Z"
"?drag@QBasicDrag@@IEBAPEAVQDrag@@XZ"
"?drag@QBasicDrag@@UEAA?AW4DropAction@Qt@@PEAVQDrag@@@Z"
"?drag@QDragManager@@QEAA?AW4DropAction@Qt@@PEAVQDrag@@@Z"
"?drag@QPlatformIntegration@@UEBAPEAVQPlatformDrag@@XZ"
"?dragCursor@QDrag@@QEBA?AVQPixmap@@W4DropAction@Qt@@@Z"
"?draw@QPaintEngineEx@@UEAAXAEBVQVectorPath@@@Z"
"?draw@QRhiCommandBuffer@@QEAAXIIII@Z"
"?draw@QTextDocumentLayout@@UEAAXPEAVQPainter@@AEBUPaintContext@QAbstractTextDocumentLayout@@@Z"
"?draw@QTextLayout@@QEBAXPEAVQPainter@@AEBVQPointF@@AEBV?$QList@UFormatRange@QTextLayout@@@@AEBVQRectF@@@Z"
"?draw@QTextLine@@QEBAXPEAVQPainter@@AEBVQPointF@@@Z"
"?drawArc@QPainter@@QEAAXAEBVQRect@@HH@Z"
"?drawArc@QPainter@@QEAAXAEBVQRectF@@HH@Z"
"?drawArc@QPainter@@QEAAXHHHHHH@Z"
"?drawBitmap@QRasterPaintEngine@@AEAAXAEBVQPointF@@AEBVQImage@@PEAUQSpanData@@@Z"
"?drawBoxTextItem@QPaintEnginePrivate@@QEAAXAEBVQPointF@@AEBVQTextItemInt@@@Z"
"?drawCachedGlyphs@QBlittable@@UEAA_NPEBVQPaintEngineState@@W4GlyphFormat@QFontEngine@@HPEBIPEBUQFixedPoint@@PEAV4@@Z"
"?drawCachedGlyphs@QBlitterPaintEngine@@UEAA_NHPEBIPEBUQFixedPoint@@PEAVQFontEngine@@@Z"
"?drawCachedGlyphs@QRasterPaintEngine@@UEAA_NHPEBIPEBUQFixedPoint@@PEAVQFontEngine@@@Z"
"?drawChord@QPainter@@QEAAXAEBVQRect@@HH@Z"
"?drawChord@QPainter@@QEAAXAEBVQRectF@@HH@Z"
"?drawChord@QPainter@@QEAAXHHHHHH@Z"
"?drawContents@QTextDocument@@QEAAXPEAVQPainter@@AEBVQRectF@@@Z"
"?drawConvexPolygon@QPainter@@QEAAXAEBVQPolygon@@@Z"
"?drawConvexPolygon@QPainter@@QEAAXAEBVQPolygonF@@@Z"
"?drawConvexPolygon@QPainter@@QEAAXPEBVQPoint@@H@Z"
"?drawConvexPolygon@QPainter@@QEAAXPEBVQPointF@@H@Z"
"?drawCursor@QTextLayout@@QEBAXPEAVQPainter@@AEBVQPointF@@H@Z"
"?drawCursor@QTextLayout@@QEBAXPEAVQPainter@@AEBVQPointF@@HH@Z"
"?drawDecorations@QTextEngine@@QEAAXPEAVQPainter@@@Z"
"?drawEllipse@QBlitterPaintEngine@@UEAAXAEBVQRectF@@@Z"
"?drawEllipse@QPaintEngine@@UEAAXAEBVQRect@@@Z"
"?drawEllipse@QPaintEngine@@UEAAXAEBVQRectF@@@Z"
"?drawEllipse@QPaintEngineEx@@UEAAXAEBVQRect@@@Z"
"?drawEllipse@QPaintEngineEx@@UEAAXAEBVQRectF@@@Z"
"?drawEllipse@QPainter@@QEAAXAEBVQPoint@@HH@Z"
"?drawEllipse@QPainter@@QEAAXAEBVQPointF@@NN@Z"
"?drawEllipse@QPainter@@QEAAXAEBVQRect@@@Z"
"?drawEllipse@QPainter@@QEAAXAEBVQRectF@@@Z"
"?drawEllipse@QPainter@@QEAAXHHHH@Z"
"?drawEllipse@QRasterPaintEngine@@UEAAXAEBVQRectF@@@Z"
"?drawGlyphRun@QPainter@@QEAAXAEBVQPointF@@AEBVQGlyphRun@@@Z"
"?drawImage@QBlitterPaintEngine@@UEAAXAEBVQPointF@@AEBVQImage@@@Z"
"?drawImage@QBlitterPaintEngine@@UEAAXAEBVQRectF@@AEBVQImage@@0V?$QFlags@W4ImageConversionFlag@Qt@@@@@Z"
"?drawImage@QPaintEngine@@UEAAXAEBVQRectF@@AEBVQImage@@0V?$QFlags@W4ImageConversionFlag@Qt@@@@@Z"
"?drawImage@QPaintEngineEx@@UEAAXAEBVQPointF@@AEBVQImage@@@Z"
"?drawImage@QPainter@@QEAAXAEBVQPoint@@AEBVQImage@@@Z"
"?drawImage@QPainter@@QEAAXAEBVQPoint@@AEBVQImage@@AEBVQRect@@V?$QFlags@W4ImageConversionFlag@Qt@@@@@Z"
"?drawImage@QPainter@@QEAAXAEBVQPointF@@AEBVQImage@@@Z"
"?drawImage@QPainter@@QEAAXAEBVQPointF@@AEBVQImage@@AEBVQRectF@@V?$QFlags@W4ImageConversionFlag@Qt@@@@@Z"
"?drawImage@QPainter@@QEAAXAEBVQRect@@AEBVQImage@@0V?$QFlags@W4ImageConversionFlag@Qt@@@@@Z"
"?drawImage@QPainter@@QEAAXAEBVQRect@@AEBVQImage@@@Z"
"?drawImage@QPainter@@QEAAXAEBVQRectF@@AEBVQImage@@0V?$QFlags@W4ImageConversionFlag@Qt@@@@@Z"
"?drawImage@QPainter@@QEAAXAEBVQRectF@@AEBVQImage@@@Z"
"?drawImage@QPainter@@QEAAXHHAEBVQImage@@HHHHV?$QFlags@W4ImageConversionFlag@Qt@@@@@Z"
"?drawImage@QRasterPaintEngine@@UEAAXAEBVQPointF@@AEBVQImage@@@Z"
"?drawImage@QRasterPaintEngine@@UEAAXAEBVQRectF@@AEBVQImage@@0V?$QFlags@W4ImageConversionFlag@Qt@@@@@Z"
"?drawIndexed@QRhiCommandBuffer@@QEAAXIIIHI@Z"
"?drawInlineObject@QAbstractTextDocumentLayout@@MEAAXPEAVQPainter@@AEBVQRectF@@VQTextInlineObject@@HAEBVQTextFormat@@@Z"
"?drawInlineObject@QTextDocumentLayout@@MEAAXPEAVQPainter@@AEBVQRectF@@VQTextInlineObject@@HAEBVQTextFormat@@@Z"
"?drawItemDecorationList@QTextEngine@@AEAAXPEAVQPainter@@AEBV?$QList@UItemDecoration@QTextEngine@@@@@Z"
"?drawLine@QPainter@@QEAAXAEBVQLine@@@Z"
"?drawLine@QPainter@@QEAAXAEBVQLineF@@@Z"
"?drawLine@QPainter@@QEAAXAEBVQPoint@@0@Z"
"?drawLine@QPainter@@QEAAXAEBVQPointF@@0@Z"
"?drawLine@QPainter@@QEAAXHHHH@Z"
"?drawLines@QPaintEngine@@UEAAXPEBVQLine@@H@Z"
"?drawLines@QPaintEngine@@UEAAXPEBVQLineF@@H@Z"
"?drawLines@QPaintEngineEx@@UEAAXPEBVQLine@@H@Z"
"?drawLines@QPaintEngineEx@@UEAAXPEBVQLineF@@H@Z"
"?drawLines@QPainter@@QEAAXAEBV?$QList@VQLine@@@@@Z"
"?drawLines@QPainter@@QEAAXAEBV?$QList@VQLineF@@@@@Z"
"?drawLines@QPainter@@QEAAXAEBV?$QList@VQPoint@@@@@Z"
"?drawLines@QPainter@@QEAAXAEBV?$QList@VQPointF@@@@@Z"
"?drawLines@QPainter@@QEAAXPEBVQLine@@H@Z"
"?drawLines@QPainter@@QEAAXPEBVQLineF@@H@Z"
"?drawLines@QPainter@@QEAAXPEBVQPoint@@H@Z"
"?drawLines@QPainter@@QEAAXPEBVQPointF@@H@Z"
"?drawLines@QRasterPaintEngine@@UEAAXPEBVQLine@@H@Z"
"?drawLines@QRasterPaintEngine@@UEAAXPEBVQLineF@@H@Z"
"?drawObject@QTextImageHandler@@UEAAXPEAVQPainter@@AEBVQRectF@@PEAVQTextDocument@@HAEBVQTextFormat@@@Z"
"?drawPath@QPaintEngine@@UEAAXAEBVQPainterPath@@@Z"
"?drawPath@QPaintEngineEx@@UEAAXAEBVQPainterPath@@@Z"
"?drawPath@QPainter@@QEAAXAEBVQPainterPath@@@Z"
"?drawPicture@QPainter@@QEAAXAEBVQPoint@@AEBVQPicture@@@Z"
"?drawPicture@QPainter@@QEAAXAEBVQPointF@@AEBVQPicture@@@Z"
"?drawPicture@QPainter@@QEAAXHHAEBVQPicture@@@Z"
"?drawPie@QPainter@@QEAAXAEBVQRect@@HH@Z"
"?drawPie@QPainter@@QEAAXAEBVQRectF@@HH@Z"
"?drawPie@QPainter@@QEAAXHHHHHH@Z"
"?drawPixmap@QBlitterPaintEngine@@UEAAXAEBVQPointF@@AEBVQPixmap@@@Z"
"?drawPixmap@QBlitterPaintEngine@@UEAAXAEBVQRectF@@AEBVQPixmap@@0@Z"
"?drawPixmap@QPaintEngineEx@@UEAAXAEBVQPointF@@AEBVQPixmap@@@Z"
"?drawPixmap@QPainter@@QEAAXAEBVQPoint@@AEBVQPixmap@@@Z"
"?drawPixmap@QPainter@@QEAAXAEBVQPoint@@AEBVQPixmap@@AEBVQRect@@@Z"
"?drawPixmap@QPainter@@QEAAXAEBVQPointF@@AEBVQPixmap@@@Z"
"?drawPixmap@QPainter@@QEAAXAEBVQPointF@@AEBVQPixmap@@AEBVQRectF@@@Z"
"?drawPixmap@QPainter@@QEAAXAEBVQRect@@AEBVQPixmap@@0@Z"
"?drawPixmap@QPainter@@QEAAXAEBVQRect@@AEBVQPixmap@@@Z"
"?drawPixmap@QPainter@@QEAAXAEBVQRectF@@AEBVQPixmap@@0@Z"
"?drawPixmap@QPainter@@QEAAXHHAEBVQPixmap@@@Z"
"?drawPixmap@QPainter@@QEAAXHHAEBVQPixmap@@HHHH@Z"
"?drawPixmap@QPainter@@QEAAXHHHHAEBVQPixmap@@@Z"
"?drawPixmap@QPainter@@QEAAXHHHHAEBVQPixmap@@HHHH@Z"
"?drawPixmap@QRasterPaintEngine@@UEAAXAEBVQPointF@@AEBVQPixmap@@@Z"
"?drawPixmap@QRasterPaintEngine@@UEAAXAEBVQRectF@@AEBVQPixmap@@0@Z"
"?drawPixmapFragments@QPaintEngineEx@@UEAAXPEBVPixmapFragment@QPainter@@HAEBVQPixmap@@V?$QFlags@W4PixmapFragmentHint@QPainter@@@@@Z"
"?drawPixmapFragments@QPainter@@QEAAXPEBVPixmapFragment@1@HAEBVQPixmap@@V?$QFlags@W4PixmapFragmentHint@QPainter@@@@@Z"
"?drawPixmapOpacity@QBlittable@@UEAAXAEBVQRectF@@AEBVQPixmap@@0W4CompositionMode@QPainter@@N@Z"
"?drawPoint@QPainter@@QEAAXAEBVQPoint@@@Z"
"?drawPoint@QPainter@@QEAAXAEBVQPointF@@@Z"
"?drawPoint@QPainter@@QEAAXHH@Z"
"?drawPoints@QBlitterPaintEngine@@UEAAXPEBVQPoint@@H@Z"
"?drawPoints@QBlitterPaintEngine@@UEAAXPEBVQPointF@@H@Z"
"?drawPoints@QPaintEngine@@UEAAXPEBVQPoint@@H@Z"
"?drawPoints@QPaintEngine@@UEAAXPEBVQPointF@@H@Z"
"?drawPoints@QPaintEngineEx@@UEAAXPEBVQPoint@@H@Z"
"?drawPoints@QPaintEngineEx@@UEAAXPEBVQPointF@@H@Z"
"?drawPoints@QPainter@@QEAAXAEBVQPolygon@@@Z"
"?drawPoints@QPainter@@QEAAXAEBVQPolygonF@@@Z"
"?drawPoints@QPainter@@QEAAXPEBVQPoint@@H@Z"
"?drawPoints@QPainter@@QEAAXPEBVQPointF@@H@Z"
"?drawPoints@QRasterPaintEngine@@UEAAXPEBVQPoint@@H@Z"
"?drawPoints@QRasterPaintEngine@@UEAAXPEBVQPointF@@H@Z"
"?drawPolygon@QBlitterPaintEngine@@UEAAXPEBVQPoint@@HW4PolygonDrawMode@QPaintEngine@@@Z"
"?drawPolygon@QBlitterPaintEngine@@UEAAXPEBVQPointF@@HW4PolygonDrawMode@QPaintEngine@@@Z"
"?drawPolygon@QPaintEngine@@UEAAXPEBVQPoint@@HW4PolygonDrawMode@1@@Z"
"?drawPolygon@QPaintEngine@@UEAAXPEBVQPointF@@HW4PolygonDrawMode@1@@Z"
"?drawPolygon@QPaintEngineEx@@UEAAXPEBVQPoint@@HW4PolygonDrawMode@QPaintEngine@@@Z"
"?drawPolygon@QPaintEngineEx@@UEAAXPEBVQPointF@@HW4PolygonDrawMode@QPaintEngine@@@Z"
"?drawPolygon@QPainter@@QEAAXAEBVQPolygon@@W4FillRule@Qt@@@Z"
"?drawPolygon@QPainter@@QEAAXAEBVQPolygonF@@W4FillRule@Qt@@@Z"
"?drawPolygon@QPainter@@QEAAXPEBVQPoint@@HW4FillRule@Qt@@@Z"
"?drawPolygon@QPainter@@QEAAXPEBVQPointF@@HW4FillRule@Qt@@@Z"
"?drawPolygon@QRasterPaintEngine@@UEAAXPEBVQPoint@@HW4PolygonDrawMode@QPaintEngine@@@Z"
"?drawPolygon@QRasterPaintEngine@@UEAAXPEBVQPointF@@HW4PolygonDrawMode@QPaintEngine@@@Z"
"?drawPolyline@QPainter@@QEAAXAEBVQPolygon@@@Z"
"?drawPolyline@QPainter@@QEAAXAEBVQPolygonF@@@Z"
"?drawPolyline@QPainter@@QEAAXPEBVQPoint@@H@Z"
"?drawPolyline@QPainter@@QEAAXPEBVQPointF@@H@Z"
"?drawRect@QPainter@@QEAAXAEBVQRect@@@Z"
"?drawRect@QPainter@@QEAAXAEBVQRectF@@@Z"
"?drawRect@QPainter@@QEAAXHHHH@Z"
"?drawRects@QBlitterPaintEngine@@UEAAXPEBVQRect@@H@Z"
"?drawRects@QBlitterPaintEngine@@UEAAXPEBVQRectF@@H@Z"
"?drawRects@QPaintEngine@@UEAAXPEBVQRect@@H@Z"
"?drawRects@QPaintEngine@@UEAAXPEBVQRectF@@H@Z"
"?drawRects@QPaintEngineEx@@UEAAXPEBVQRect@@H@Z"
"?drawRects@QPaintEngineEx@@UEAAXPEBVQRectF@@H@Z"
"?drawRects@QPainter@@QEAAXAEBV?$QList@VQRect@@@@@Z"
"?drawRects@QPainter@@QEAAXAEBV?$QList@VQRectF@@@@@Z"
"?drawRects@QPainter@@QEAAXPEBVQRect@@H@Z"
"?drawRects@QPainter@@QEAAXPEBVQRectF@@H@Z"
"?drawRects@QRasterPaintEngine@@UEAAXPEBVQRect@@H@Z"
"?drawRects@QRasterPaintEngine@@UEAAXPEBVQRectF@@H@Z"
"?drawRoundedRect@QPaintEngineEx@@UEAAXAEBVQRectF@@NNW4SizeMode@Qt@@@Z"
"?drawRoundedRect@QPainter@@QEAAXAEBVQRect@@NNW4SizeMode@Qt@@@Z"
"?drawRoundedRect@QPainter@@QEAAXAEBVQRectF@@NNW4SizeMode@Qt@@@Z"
"?drawRoundedRect@QPainter@@QEAAXHHHHNNW4SizeMode@Qt@@@Z"
"?drawStaticText@QPainter@@QEAAXAEBVQPoint@@AEBVQStaticText@@@Z"
"?drawStaticText@QPainter@@QEAAXAEBVQPointF@@AEBVQStaticText@@@Z"
"?drawStaticText@QPainter@@QEAAXHHAEBVQStaticText@@@Z"
"?drawStaticTextItem@QBlitterPaintEngine@@UEAAXPEAVQStaticTextItem@@@Z"
"?drawStaticTextItem@QPaintEngineEx@@UEAAXPEAVQStaticTextItem@@@Z"
"?drawStaticTextItem@QRasterPaintEngine@@UEAAXPEAVQStaticTextItem@@@Z"
"?drawText@QPainter@@QEAAXAEBVQPoint@@AEBVQString@@@Z"
"?drawText@QPainter@@QEAAXAEBVQPointF@@AEBVQString@@@Z"
"?drawText@QPainter@@QEAAXAEBVQPointF@@AEBVQString@@HH@Z"
"?drawText@QPainter@@QEAAXAEBVQRect@@HAEBVQString@@PEAV2@@Z"
"?drawText@QPainter@@QEAAXAEBVQRectF@@AEBVQString@@AEBVQTextOption@@@Z"
"?drawText@QPainter@@QEAAXAEBVQRectF@@HAEBVQString@@PEAV2@@Z"
"?drawText@QPainter@@QEAAXHHAEBVQString@@@Z"
"?drawText@QPainter@@QEAAXHHHHHAEBVQString@@PEAVQRect@@@Z"
"?drawTextItem@QBlitterPaintEngine@@UEAAXAEBVQPointF@@AEBVQTextItem@@@Z"
"?drawTextItem@QPaintEngine@@UEAAXAEBVQPointF@@AEBVQTextItem@@@Z"
"?drawTextItem@QPainter@@QEAAXAEBVQPoint@@AEBVQTextItem@@@Z"
"?drawTextItem@QPainter@@QEAAXAEBVQPointF@@AEBVQTextItem@@@Z"
"?drawTextItem@QPainter@@QEAAXHHAEBVQTextItem@@@Z"
"?drawTextItem@QRasterPaintEngine@@UEAAXAEBVQPointF@@AEBVQTextItem@@@Z"
"?drawTiledPixmap@QBlitterPaintEngine@@UEAAXAEBVQRectF@@AEBVQPixmap@@AEBVQPointF@@@Z"
"?drawTiledPixmap@QPaintEngine@@UEAAXAEBVQRectF@@AEBVQPixmap@@AEBVQPointF@@@Z"
"?drawTiledPixmap@QPaintEngineEx@@UEAAXAEBVQRectF@@AEBVQPixmap@@AEBVQPointF@@@Z"
"?drawTiledPixmap@QPainter@@QEAAXAEBVQRect@@AEBVQPixmap@@AEBVQPoint@@@Z"
"?drawTiledPixmap@QPainter@@QEAAXAEBVQRectF@@AEBVQPixmap@@AEBVQPointF@@@Z"
"?drawTiledPixmap@QPainter@@QEAAXHHHHAEBVQPixmap@@HH@Z"
"?drawTiledPixmap@QRasterPaintEngine@@UEAAXAEBVQRectF@@AEBVQPixmap@@AEBVQPointF@@@Z"
"?draw_internal@QTextLine@@AEBAXPEAVQPainter@@AEBVQPointF@@PEBUFormatRange@QTextLayout@@@Z"
"?driveAdded@QFileInfoGatherer@@AEAAXXZ"
"?driveRemoved@QFileInfoGatherer@@AEAAXXZ"
"?driverInfo@QRhi@@QEBA?AUQRhiDriverInfo@@XZ"
"?drop@QBasicDrag@@MEAAXAEBVQPoint@@V?$QFlags@W4MouseButton@Qt@@@@V?$QFlags@W4KeyboardModifier@Qt@@@@@Z"
"?drop@QSimpleDrag@@MEAAXAEBVQPoint@@V?$QFlags@W4MouseButton@Qt@@@@V?$QFlags@W4KeyboardModifier@Qt@@@@@Z"
"?dropAction@QDropEvent@@QEBA?AW4DropAction@Qt@@XZ"
"?dropMimeData@QFileSystemModel@@UEAA_NPEBVQMimeData@@W4DropAction@Qt@@HHAEBVQModelIndex@@@Z"
"?dropMimeData@QStandardItemModel@@UEAA_NPEBVQMimeData@@W4DropAction@Qt@@HHAEBVQModelIndex@@@Z"
"?dx@QTransform@@QEBANXZ"
"?dy@QTransform@@QEBANXZ"
"?dynamicConstraintOrientation@QGridLayoutItem@@UEBA?AW4Orientation@Qt@@XZ"
"?dynamicDocumentSize@QTextDocumentLayout@@QEBA?AVQSizeF@@XZ"
"?dynamicPageCount@QTextDocumentLayout@@QEBAHXZ"
"?editableTextInterface@QAccessibleInterface@@QEAAPEAVQAccessibleEditableTextInterface@@XZ"
"?effectiveActionNames@QAccessibleBridgeUtils@@YA?AV?$QList@VQString@@@@PEAVQAccessibleInterface@@@Z"
"?effectiveAlignment@QGridLayoutEngine@@QEBA?AV?$QFlags@W4AlignmentFlag@Qt@@@@PEBVQGridLayoutItem@@@Z"
"?effectiveFirstRow@QGridLayoutEngine@@QEBAHW4Orientation@Qt@@@Z"
"?effectiveLastRow@QGridLayoutEngine@@QEBAHW4Orientation@Qt@@@Z"
"?effectiveLogicalDpi@QHighDpiScaling@@CA?AU?$pair@NN@std@@PEBVQPlatformScreen@@NN@Z"
"?effectiveMaxSize@QGridLayoutItem@@QEBA?AVQSizeF@@AEBV2@@Z"
"?effectiveState@QWindowPrivate@@SA?AW4WindowState@Qt@@V?$QFlags@W4WindowState@Qt@@@@@Z"
"?elementAt@QPainterPath@@QEBA?AVElement@1@H@Z"
"?elementCount@QDashedStrokeProcessor@@QEBAHXZ"
"?elementCount@QPainterPath@@QEBAHXZ"
"?elementCount@QVectorPath@@QEBAHXZ"
"?elementTypes@QDashedStrokeProcessor@@QEBAPEAW4ElementType@QPainterPath@@XZ"
"?elements@QVectorPath@@QEBAPEBW4ElementType@QPainterPath@@XZ"
"?elidedText@QFontMetrics@@QEBA?AVQString@@AEBV2@W4TextElideMode@Qt@@HH@Z"
"?elidedText@QFontMetricsF@@QEBA?AVQString@@AEBV2@W4TextElideMode@Qt@@NH@Z"
"?elidedText@QTextEngine@@QEBA?AVQString@@W4TextElideMode@Qt@@UQFixed@@HHH@Z"
"?ellipseDiameters@QEventPoint@@QEBA?AVQSizeF@@XZ"
"?emSquareSize@QFontEngine@@UEBA?AUQFixed@@XZ"
"?emSquareSize@QWindowsFontEngineDirectWrite@@UEBA?AUQFixed@@XZ"
"?emitAnimatingChanged@QPlatformInputContext@@QEAAXXZ"
"?emitChanged@QClipboard@@AEAAXW4Mode@1@@Z"
"?emitChanged@QPlatformClipboard@@QEAAXW4Mode@QClipboard@@@Z"
"?emitCubicTo@QStroker@@QEAAXNNNNNN@Z"
"?emitCubicTo@QStrokerOps@@IEAAXNNNNNN@Z"
"?emitDataChanged@QStandardItem@@IEAAXXZ"
"?emitInputDirectionChanged@QPlatformInputContext@@QEAAXW4LayoutDirection@Qt@@@Z"
"?emitInputPanelVisibleChanged@QPlatformInputContext@@QEAAXXZ"
"?emitKeyboardRectChanged@QPlatformInputContext@@QEAAXXZ"
"?emitLineSegment@QTriangulatingStroker@@AEAAXMMMM@Z"
"?emitLineTo@QStroker@@QEAAXNN@Z"
"?emitLineTo@QStrokerOps@@IEAAXNN@Z"
"?emitLocaleChanged@QPlatformInputContext@@QEAAXXZ"
"?emitMoveTo@QStroker@@QEAAXNN@Z"
"?emitMoveTo@QStrokerOps@@IEAAXNN@Z"
"?emitRedoAvailable@QTextDocumentPrivate@@QEAAX_N@Z"
"?emitScreenChangedRecursion@QWindowPrivate@@QEAAXPEAVQScreen@@@Z"
"?emitSignal@QActionGroupPrivate@@UEAAXW4Signal@1@PEAVQAction@@@Z"
"?emitUndoAvailable@QTextDocumentPrivate@@QEAAX_N@Z"
"?enableCleanupHooks@QImagePixmapCleanupHooks@@SAXAEBVQImage@@@Z"
"?enableCleanupHooks@QImagePixmapCleanupHooks@@SAXAEBVQPixmap@@@Z"
"?enableCleanupHooks@QImagePixmapCleanupHooks@@SAXPEAVQPlatformPixmap@@@Z"
"?enableDelayDecorations@QTextEngine@@QEAAX_N@Z"
"?enableEventFilter@QBasicDrag@@AEAAXXZ"
"?enableUndoRedo@QTextDocumentPrivate@@QEAAX_N@Z"
"?enabledChanged@QAction@@QEAAX_N@Z"
"?encodeMetricF@QPaintDevice@@SAHW4PaintDeviceMetric@1@N@Z"
"?end@QBlitterPaintEngine@@UEAA_NXZ"
"?end@QDashStroker@@UEAAXXZ"
"?end@QPainter@@QEAA_NXZ"
"?end@QRasterPaintEngine@@UEAA_NXZ"
"?end@QRegion@@QEBAPEBVQRect@@XZ"
"?end@QStrokerOps@@UEAAXXZ"
"?end@QTextBlock@@QEBA?AViterator@1@XZ"
"?end@QTextDocument@@QEBA?AVQTextBlock@@XZ"
"?end@QTextDocumentPrivate@@QEBA?AVConstIterator@?$QFragmentMap@VQTextFragmentData@@@@XZ"
"?end@QTextFrame@@QEBA?AViterator@1@XZ"
"?end@QTextTableCell@@QEBA?AViterator@QTextFrame@@XZ"
"?endCap@QTriangulatingStroker@@AEAAXPEBN@Z"
"?endCapOrJoinClosed@QTriangulatingStroker@@AEAAXPEBN0_N1@Z"
"?endComputePass@QRhiCommandBuffer@@QEAAXPEAVQRhiResourceUpdateBatch@@@Z"
"?endDrag@QBasicDrag@@MEAAXXZ"
"?endEditBlock@QTextCursor@@QEAAXXZ"
"?endEditBlock@QTextDocumentPrivate@@QEAAXXZ"
"?endExternal@QRhiCommandBuffer@@QEAAXXZ"
"?endFillTexture@QTextureGlyphCache@@UEAAXXZ"
"?endFrame@QPlatformOpenGLContext@@UEAAXXZ"
"?endFrame@QRhi@@QEAA?AW4FrameOpResult@1@PEAVQRhiSwapChain@@V?$QFlags@W4EndFrameFlag@QRhi@@@@@Z"
"?endFullDynamicBufferUpdateForCurrentFrame@QRhiBuffer@@UEAAXXZ"
"?endLayout@QTextLayout@@QEAAXXZ"
"?endMacro@QUndoStack@@QEAAXXZ"
"?endNativePainting@QPaintEngineEx@@UEAAXXZ"
"?endNativePainting@QPainter@@QEAAXXZ"
"?endOfLine@QTextEngine@@AEAAHH@Z"
"?endOffscreenFrame@QRhi@@QEAA?AW4FrameOpResult@1@V?$QFlags@W4EndFrameFlag@QRhi@@@@@Z"
"?endPaint@QBackingStore@@QEAAXXZ"
"?endPaint@QPaintDeviceWindowPrivate@@UEAAXXZ"
"?endPaint@QPlatformBackingStore@@UEAAXXZ"
"?endPass@QRhiCommandBuffer@@QEAAXPEAVQRhiResourceUpdateBatch@@@Z"
"?endTangent@QBezier@@QEBA?AVQLineF@@XZ"
"?engine@QFontEngineMulti@@QEBAPEAVQFontEngine@@H@Z"
"?engine@QTextLayout@@QEBAPEAVQTextEngine@@XZ"
"?engineForScript@QFontPrivate@@QEBAPEAVQFontEngine@@H@Z"
"?ensureBrush@QRasterPaintEngine@@AEAAXAEBVQBrush@@@Z"
"?ensureBrush@QRasterPaintEngine@@AEAAXXZ"
"?ensureColumnAndRowData@QGridLayoutEngine@@AEBAXPEAVQGridLayoutRowData@@PEAVQGridLayoutBox@@PEBN2W4Orientation@Qt@@PEBVQAbstractLayoutStyleInfo@@@Z"
"?ensureData@QPainterPath@@AEAAXXZ"
"?ensureData_helper@QPainterPath@@AEAAXXZ"
"?ensureDynamicConstraint@QGridLayoutEngine@@QEBA_NXZ"
"?ensureEffectiveFirstAndLastRows@QGridLayoutEngine@@AEBAXXZ"
"?ensureEngineAt@QFontEngineMulti@@QEAAXH@Z"
"?ensureFallbackFamiliesQueried@QFontEngineMulti@@MEAAXXZ"
"?ensureFontDatabase@QFontDatabasePrivate@@SAPEAV1@XZ"
"?ensureGeometries@QGridLayoutEngine@@AEBAXAEBVQSizeF@@PEBVQAbstractLayoutStyleInfo@@@Z"
"?ensureInitialized@QIconLoader@@QEAAXXZ"
"?ensureLayouted@QTextDocumentLayout@@QEAAXN@Z"
"?ensureMaximumBlockCount@QTextDocumentPrivate@@QEAA_NXZ"
"?ensureOutlineMapper@QRasterPaintEngine@@AEAAXXZ"
"?ensurePen@QRasterPaintEngine@@AEAAXAEBVQPen@@@Z"
"?ensurePen@QRasterPaintEngine@@AEAAXXZ"
"?ensurePopulated@QtFontFamily@@QEAA_NXZ"
"?ensureRasterState@QRasterPaintEngine@@AEAAXXZ"
"?ensureSpace@QTextEngine@@QEBA_NH@Z"
"?entryAt@QRhiTextureUploadDescription@@QEBAPEBVQRhiTextureUploadEntry@@_J@Z"
"?entryCount@QRhiTextureUploadDescription@@QEBA_JXZ"
"?entryForSize@QIconLoaderEngine@@SAPEAVQIconLoaderEngineEntry@@AEBUQThemeIconInfo@@AEBVQSize@@H@Z"
"?entryPoint@QShaderCode@@QEBA?AVQByteArray@@XZ"
"?equals@Gpu@QOpenGLConfig@@QEBA_NAEBU12@@Z"
"?equals@QColorSpace@@AEBA_NAEBV1@@Z"
"?equals@QPageLayout@@AEBA_NAEBV1@@Z"
"?equals@QPageSize@@AEBA_NAEBV1@@Z"
"?equals@QSurfaceFormat@@AEBA_NAEBV1@@Z"
"?eraseRect@QPainter@@QEAAXAEBVQRect@@@Z"
"?eraseRect@QPainter@@QEAAXAEBVQRectF@@@Z"
"?eraseRect@QPainter@@QEAAXHHHH@Z"
"?error@QImageReader@@QEBA?AW4ImageReaderError@1@XZ"
"?error@QImageWriter@@QEBA?AW4ImageWriterError@1@XZ"
"?error@QMovie@@QEAAXW4ImageReaderError@QImageReader@@@Z"
"?errorString@QImageReader@@QEBA?AVQString@@XZ"
"?errorString@QImageWriter@@QEBA?AVQString@@XZ"
"?errorSymbol@Parser@QCss@@QEAA?AUSymbol@2@XZ"
"?escapeButton@QMessageDialogOptions@@QEBAHXZ"
"?event@QAction@@MEAA_NPEAVQEvent@@@Z"
"?event@QFileInfoGatherer@@MEAA_NPEAVQEvent@@@Z"
"?event@QFileSystemModel@@MEAA_NPEAVQEvent@@@Z"
"?event@QGuiApplication@@MEAA_NPEAVQEvent@@@Z"
"?event@QPaintDeviceWindow@@MEAA_NPEAVQEvent@@@Z"
"?event@QShortcut@@MEAA_NPEAVQEvent@@@Z"
"?event@QWindow@@MEAA_NPEAVQEvent@@@Z"
"?eventAccepted@QWindowSystemInterfacePrivate@@2VQAtomicInt@@A"
"?eventDispatcherReady@QGuiApplicationPrivate@@UEAAXXZ"
"?eventFilter@QBasicDrag@@UEAA_NPEAVQObject@@PEAVQEvent@@@Z"
"?eventHandler@QWindowSystemInterfacePrivate@@2PEAVQWindowSystemEventHandler@@EA"
"?eventReceiver@QWindowPrivate@@UEAAPEAVQWindow@@XZ"
"?eventTime@QWindowSystemInterfacePrivate@@2VQElapsedTimer@@A"
"?eventsFlushed@QWindowSystemInterfacePrivate@@2VQWaitCondition@@A"
"?exactMatch@QFont@@QEBA_NXZ"
"?exactMatch@QFontInfo@@QEBA_NXZ"
"?exclusionPolicy@QActionGroup@@QEBA?AW4ExclusionPolicy@1@XZ"
"?exclusiveGrabber@QPointerEvent@@QEBAPEAVQObject@@AEBVQEventPoint@@@Z"
"?exclusivePointGrabber@QSinglePointEvent@@QEBAPEAVQObject@@XZ"
"?exec@QDrag@@QEAA?AW4DropAction@Qt@@V?$QFlags@W4DropAction@Qt@@@@@Z"
"?exec@QDrag@@QEAA?AW4DropAction@Qt@@V?$QFlags@W4DropAction@Qt@@@@W423@@Z"
"?exec@QGuiApplication@@SAHXZ"
"?exec@QPicture@@AEAA_NPEAVQPainter@@AEAVQDataStream@@H@Z"
"?exec@QRegion@@AEAAXAEBVQByteArray@@HW4ByteOrder@QDataStream@@@Z"
"?executeImageHooks@QImagePixmapCleanupHooks@@SAX_J@Z"
"?executePlatformPixmapDestructionHooks@QImagePixmapCleanupHooks@@SAXPEAVQPlatformPixmap@@@Z"
"?executePlatformPixmapModificationHooks@QImagePixmapCleanupHooks@@SAXPEAVQPlatformPixmap@@@Z"
"?executedDropAction@QBasicDrag@@IEBA?AW4DropAction@Qt@@XZ"
"?exitDndEventLoop@QBasicDrag@@AEAAXXZ"
"?expectsGammaCorrectedBlending@QFontEngine@@UEBA_NXZ"
"?exposeEvent@QPaintDeviceWindow@@MEAAXPEAVQExposeEvent@@@Z"
"?exposeEvent@QWindow@@MEAAXPEAVQExposeEvent@@@Z"
"?extensions@QOpenGLContext@@QEBA?AV?$QSet@VQByteArray@@@@XZ"
"?extensions@QOpenGLExtensionMatcher@@QEBA?AV?$QSet@VQByteArray@@@@XZ"
"?extraFunctions@QOpenGLContext@@QEBAPEAVQOpenGLExtraFunctions@@XZ"
"?extraTryFontsForFamily@QWindowsFontDatabaseBase@@SA?AV?$QList@VQString@@@@AEBVQString@@@Z"
"?extractBackground@ValueExtractor@QCss@@QEAA_NPEAVQBrush@@PEAVQString@@PEAW4Repeat@2@PEAV?$QFlags@W4AlignmentFlag@Qt@@@@PEAW4Origin@2@PEAW4Attachment@2@4@Z"
"?extractBorder@ValueExtractor@QCss@@QEAA_NPEAHPEAVQBrush@@PEAW4BorderStyle@2@PEAVQSize@@@Z"
"?extractBox@ValueExtractor@QCss@@QEAA_NPEAH00@Z"
"?extractFont@ValueExtractor@QCss@@AEAAXXZ"
"?extractFont@ValueExtractor@QCss@@QEAA_NPEAVQFont@@PEAH@Z"
"?extractGeometry@ValueExtractor@QCss@@QEAA_NPEAH00000@Z"
"?extractIcon@ValueExtractor@QCss@@QEAA_NPEAVQIcon@@PEAVQSize@@@Z"
"?extractImage@ValueExtractor@QCss@@QEAA_NPEAVQIcon@@PEAV?$QFlags@W4AlignmentFlag@Qt@@@@PEAVQSize@@@Z"
"?extractOutline@ValueExtractor@QCss@@QEAA_NPEAHPEAVQBrush@@PEAW4BorderStyle@2@PEAVQSize@@0@Z"
"?extractPalette@ValueExtractor@QCss@@QEAA_NPEAVQBrush@@00000@Z"
"?extractPosition@ValueExtractor@QCss@@QEAA_NPEAH000PEAW4Origin@2@PEAV?$QFlags@W4AlignmentFlag@Qt@@@@PEAW4PositionMode@2@2@Z"
"?extractStyleFeatures@ValueExtractor@QCss@@QEAAHXZ"
"?faceId@QFontEngine@@UEBA?AUFaceId@1@XZ"
"?faceId@QWindowsFontEngineDirectWrite@@UEBA?AUFaceId@QFontEngine@@XZ"
"?fallbackFamilyAt@QFontEngineMulti@@QEBA?AVQString@@H@Z"
"?fallbackFamilyCount@QFontEngineMulti@@QEBAHXZ"
"?fallbackSearchPaths@QIcon@@SA?AV?$QList@VQString@@@@XZ"
"?fallbackSearchPaths@QIconLoader@@QEBA?AV?$QList@VQString@@@@XZ"
"?fallbackThemeName@QIcon@@SA?AVQString@@XZ"
"?fallbackThemeName@QIconLoader@@QEBA?AVQString@@XZ"
"?fallbacksForFamily@QPlatformFontDatabase@@UEBA?AV?$QList@VQString@@@@AEBVQString@@W4Style@QFont@@W4StyleHint@5@W4Script@QChar@@@Z"
"?fallbacksForFamily@QWindowsDirectWriteFontDatabase@@UEBA?AV?$QList@VQString@@@@AEBVQString@@W4Style@QFont@@W4StyleHint@5@W4Script@QChar@@@Z"
"?fallbacksForFamily@QWindowsFontDatabase@@UEBA?AV?$QList@VQString@@@@AEBVQString@@W4Style@QFont@@W4StyleHint@5@W4Script@QChar@@@Z"
"?families@QFont@@QEBA?AV?$QList@VQString@@@@XZ"
"?families@QFontDatabase@@SA?AV?$QList@VQString@@@@W4WritingSystem@1@@Z"
"?family@QFont@@QEBA?AVQString@@XZ"
"?family@QFontDatabasePrivate@@QEAAPEAUQtFontFamily@@AEBVQString@@W4FamilyRequestFlags@1@@Z"
"?family@QFontInfo@@QEBA?AVQString@@XZ"
"?familyForStyleHint@QWindowsFontDatabaseBase@@SA?AVQString@@W4StyleHint@QFont@@@Z"
"?familyName@QRawFont@@QEBA?AVQString@@XZ"
"?featureTags@QFont@@QEBA?AV?$QList@UTag@QFont@@@@XZ"
"?featureValue@QFont@@QEBAIUTag@1@@Z"
"?fetch@QFileInfoGatherer@@AEAAXAEBVQFileInfo@@AEAVQElapsedTimer@@AEA_NAEAV?$QList@U?$pair@VQString@@VQFileInfo@@@std@@@@AEBVQString@@@Z"
"?fetchExtendedInformation@QFileInfoGatherer@@QEAAXAEBVQString@@AEBV?$QList@VQString@@@@@Z"
"?fetchMore@QFileSystemModel@@UEAAXAEBVQModelIndex@@@Z"
"?file@QFileOpenEvent@@QEBA?AVQString@@XZ"
"?fileIcon@QFileSystemModel@@QEBA?AVQIcon@@AEBVQModelIndex@@@Z"
"?fileIcon@QPlatformTheme@@UEBA?AVQIcon@@AEBVQFileInfo@@V?$QFlags@W4IconOption@QPlatformTheme@@@@@Z"
"?fileInfo@QAbstractFileIconEngine@@QEBA?AVQFileInfo@@XZ"
"?fileInfo@QFileSystemModel@@QEBA?AVQFileInfo@@AEBVQModelIndex@@@Z"
"?fileMode@QFileDialogOptions@@QEBA?AW4FileMode@1@XZ"
"?fileName@QFileSystemModel@@QEBA?AVQString@@AEBVQModelIndex@@@Z"
"?fileName@QImageReader@@QEBA?AVQString@@XZ"
"?fileName@QImageWriter@@QEBA?AVQString@@XZ"
"?fileName@QMovie@@QEBA?AVQString@@XZ"
"?fileName@QTextDocumentWriter@@QEBA?AVQString@@XZ"
"?filePath@QFileSystemModel@@QEBA?AVQString@@AEBVQModelIndex@@@Z"
"?filePath@QFileSystemModelPrivate@@QEBA?AVQString@@AEBVQModelIndex@@@Z"
"?filePath@QWindow@@QEBA?AVQString@@XZ"
"?fileRenamed@QFileSystemModel@@QEAAXAEBVQString@@00@Z"
"?fileSelected@QPlatformFileDialogHelper@@QEAAXAEBVQUrl@@@Z"
"?fileSystemChanged@QFileSystemModelPrivate@@QEAAXAEBVQString@@AEBV?$QList@U?$pair@VQString@@VQFileInfo@@@std@@@@@Z"
"?filenameFromFontFile@QWindowsFontEngineDirectWrite@@CA?AVQString@@PEAUIDWriteFontFile@@@Z"
"?filesSelected@QPlatformFileDialogHelper@@QEAAXAEBV?$QList@VQUrl@@@@@Z"
"?fill@QBlittablePlatformPixmap@@UEAAXAEBVQColor@@@Z"
"?fill@QBlitterPaintEngine@@UEAAXAEBVQVectorPath@@AEBVQBrush@@@Z"
"?fill@QImage@@QEAAXAEBVQColor@@@Z"
"?fill@QImage@@QEAAXI@Z"
"?fill@QImage@@QEAAXW4GlobalColor@Qt@@@Z"
"?fill@QMatrix4x4@@QEAAXM@Z"
"?fill@QPixmap@@QEAAXAEBVQColor@@@Z"
"?fill@QRasterPaintEngine@@UEAAXAEBVQVectorPath@@AEBVQBrush@@@Z"
"?fill@QRasterPlatformPixmap@@UEAAXAEBVQColor@@@Z"
"?fillInPendingGlyphs@QTextureGlyphCache@@QEAAXXZ"
"?fillPath@QBlitterPaintEngine@@UEAAXAEBVQPainterPath@@PEAUQSpanData@@@Z"
"?fillPath@QPainter@@QEAAXAEBVQPainterPath@@AEBVQBrush@@@Z"
"?fillPath@QRasterPaintEngine@@UEAAXAEBVQPainterPath@@PEAUQSpanData@@@Z"
"?fillPolygon@QBlitterPaintEngine@@UEAAXPEBVQPointF@@HW4PolygonDrawMode@QPaintEngine@@@Z"
"?fillPolygon@QRasterPaintEngine@@UEAAXPEBVQPointF@@HW4PolygonDrawMode@QPaintEngine@@@Z"
"?fillRect@QBlitterPaintEngine@@UEAAXAEBVQRectF@@AEBVQBrush@@@Z"
"?fillRect@QBlitterPaintEngine@@UEAAXAEBVQRectF@@AEBVQColor@@@Z"
"?fillRect@QPaintEngineEx@@UEAAXAEBVQRectF@@AEBVQBrush@@@Z"
"?fillRect@QPaintEngineEx@@UEAAXAEBVQRectF@@AEBVQColor@@@Z"
"?fillRect@QPainter@@QEAAXAEBVQRect@@AEBVQBrush@@@Z"
"?fillRect@QPainter@@QEAAXAEBVQRect@@AEBVQColor@@@Z"
"?fillRect@QPainter@@QEAAXAEBVQRect@@W4BrushStyle@Qt@@@Z"
"?fillRect@QPainter@@QEAAXAEBVQRect@@W4GlobalColor@Qt@@@Z"
"?fillRect@QPainter@@QEAAXAEBVQRect@@W4Preset@QGradient@@@Z"
"?fillRect@QPainter@@QEAAXAEBVQRectF@@AEBVQBrush@@@Z"
"?fillRect@QPainter@@QEAAXAEBVQRectF@@AEBVQColor@@@Z"
"?fillRect@QPainter@@QEAAXAEBVQRectF@@W4BrushStyle@Qt@@@Z"
"?fillRect@QPainter@@QEAAXAEBVQRectF@@W4GlobalColor@Qt@@@Z"
"?fillRect@QPainter@@QEAAXAEBVQRectF@@W4Preset@QGradient@@@Z"
"?fillRect@QPainter@@QEAAXHHHHAEBVQBrush@@@Z"
"?fillRect@QPainter@@QEAAXHHHHAEBVQColor@@@Z"
"?fillRect@QPainter@@QEAAXHHHHW4BrushStyle@Qt@@@Z"
"?fillRect@QPainter@@QEAAXHHHHW4GlobalColor@Qt@@@Z"
"?fillRect@QPainter@@QEAAXHHHHW4Preset@QGradient@@@Z"
"?fillRect@QRasterPaintEngine@@AEAAXAEBVQRectF@@PEAUQSpanData@@@Z"
"?fillRect@QRasterPaintEngine@@UEAAXAEBVQRectF@@AEBVQBrush@@@Z"
"?fillRect@QRasterPaintEngine@@UEAAXAEBVQRectF@@AEBVQColor@@@Z"
"?fillRowData@QGridLayoutEngine@@AEBAXPEAVQGridLayoutRowData@@PEBN1W4Orientation@Qt@@PEBVQAbstractLayoutStyleInfo@@@Z"
"?fillRule@QPainterPath@@QEBA?AW4FillRule@Qt@@XZ"
"?fillTexture@QImageTextureGlyphCache@@UEAAXAEBUCoord@QTextureGlyphCache@@IAEBUQFixedPoint@@@Z"
"?filter@QFileDialogOptions@@QEBA?AV?$QFlags@W4Filter@QDir@@@@XZ"
"?filter@QFileSystemModel@@QEBA?AV?$QFlags@W4Filter@QDir@@@@XZ"
"?filterEvent@QPlatformInputContext@@UEAA_NPEBVQEvent@@@Z"
"?filterRegExp@QPlatformFileDialogHelper@@2QBDB"
"?filterSelected@QPlatformFileDialogHelper@@QEAAXAEBVQString@@@Z"
"?filtersAcceptsNode@QFileSystemModelPrivate@@QEBA_NPEBVQFileSystemNode@1@@Z"
"?finalStop@QLinearGradient@@QEBA?AVQPointF@@XZ"
"?find@QPixmapCache@@SA_NAEBVKey@1@PEAVQPixmap@@@Z"
"?find@QPixmapCache@@SA_NAEBVQString@@PEAVQPixmap@@@Z"
"?find@QShortcutMap@@AEAA?AW4SequenceMatch@QKeySequence@@PEAVQKeyEvent@@H@Z"
"?find@QTextDocument@@QEBA?AVQTextCursor@@AEBVQRegularExpression@@AEBV2@V?$QFlags@W4FindFlag@QTextDocument@@@@@Z"
"?find@QTextDocument@@QEBA?AVQTextCursor@@AEBVQRegularExpression@@HV?$QFlags@W4FindFlag@QTextDocument@@@@@Z"
"?find@QTextDocument@@QEBA?AVQTextCursor@@AEBVQString@@AEBV2@V?$QFlags@W4FindFlag@QTextDocument@@@@@Z"
"?find@QTextDocument@@QEBA?AVQTextCursor@@AEBVQString@@HV?$QFlags@W4FindFlag@QTextDocument@@@@@Z"
"?find@QTextDocumentPrivate@@QEBA?AVConstIterator@?$QFragmentMap@VQTextFragmentData@@@@H@Z"
"?findBlock@QTextDocument@@QEBA?AVQTextBlock@@H@Z"
"?findBlockByLineNumber@QTextDocument@@QEBA?AVQTextBlock@@H@Z"
"?findBlockByNumber@QTextDocument@@QEBA?AVQTextBlock@@H@Z"
"?findBufferChanged@QClipboard@@QEAAXXZ"
"?findEngine@QFontCache@@QEAAPEAVQFontEngine@@AEBUKey@1@@Z"
"?findEngineData@QFontCache@@QEBAPEAVQFontEngineData@@AEBUQFontDef@@@Z"
"?findFont@QFontDatabasePrivate@@SAPEAVQFontEngine@@AEBUQFontDef@@H_N@Z"
"?findIconHelper@QIconLoader@@AEBA?AUQThemeIconInfo@@AEBVQString@@0AEAV?$QList@VQString@@@@W4DashRule@1@@Z"
"?findItem@QTextEngine@@QEBAHHH@Z"
"?findItems@QStandardItemModel@@QEBA?AV?$QList@PEAVQStandardItem@@@@AEBVQString@@V?$QFlags@W4MatchFlag@Qt@@@@H@Z"
"?fingerCount@QNativeGestureEvent@@QEBAHXZ"
"?finish@QRhi@@QEAA?AW4FrameOpResult@1@XZ"
"?finishEdit@QTextDocumentPrivate@@QEAAXXZ"
"?finished@QMovie@@QEAAXXZ"
"?firstActiveTarget@QPointingDevicePrivate@@QEBAPEAVQObject@@XZ"
"?firstActiveWindow@QPointingDevicePrivate@@QEBAPEAVQWindow@@XZ"
"?firstBlock@QTextDocument@@QEBA?AVQTextBlock@@XZ"
"?firstColumn@QAccessibleTableModelChangeEvent@@QEBAHXZ"
"?firstColumn@QGridLayoutItem@@QEBAHW4Orientation@Qt@@@Z"
"?firstColumn@QGridLayoutItem@@QEBAHXZ"
"?firstCursorPosition@QTextFrame@@QEBA?AVQTextCursor@@XZ"
"?firstCursorPosition@QTextTableCell@@QEBA?AVQTextCursor@@XZ"
"?firstLeftBearing@QFontEngine@@IEAA?AUQFixed@@AEBUQGlyphLayout@@@Z"
"?firstLineNumber@QTextBlock@@QEBAHXZ"
"?firstPage@QPageRanges@@QEBAHXZ"
"?firstPointExclusiveGrabber@QPointingDevicePrivate@@QEBAPEAVQObject@@XZ"
"?firstPosition@QTextFrame@@QEBAHXZ"
"?firstPosition@QTextTableCell@@QEBAHXZ"
"?firstRow@QAccessibleTableModelChangeEvent@@QEBAHXZ"
"?firstRow@QGridLayoutItem@@QEBAHW4Orientation@Qt@@@Z"
"?firstRow@QGridLayoutItem@@QEBAHXZ"
"?fix_neg_rect@QPaintEngine@@QEAAXPEAH000@Z"
"?fixedPitch@QFont@@QEBA_NXZ"
"?fixedPitch@QFontInfo@@QEBA_NXZ"
"?fixup@QDoubleValidator@@UEBAXAEAVQString@@@Z"
"?fixup@QIntValidator@@UEBAXAEAVQString@@@Z"
"?fixup@QValidator@@UEBAXAEAVQString@@@Z"
"?flags@QFileSystemModel@@UEBA?AV?$QFlags@W4ItemFlag@Qt@@@@AEBVQModelIndex@@@Z"
"?flags@QGlyphRun@@QEBA?AV?$QFlags@W4GlyphRunFlag@QGlyphRun@@@@XZ"
"?flags@QMatrix4x4@@QEBA?AV?$QFlags@W4Flag@QMatrix4x4@@@@XZ"
"?flags@QMouseEvent@@QEBA?AV?$QFlags@W4MouseEventFlag@Qt@@@@XZ"
"?flags@QPaintEngineEx@@UEBAIXZ"
"?flags@QPlatformTextureList@@QEBA?AV?$QFlags@W4Flag@QPlatformTextureList@@@@H@Z"
"?flags@QRhiComputePipeline@@QEBA?AV?$QFlags@W4Flag@QRhiComputePipeline@@@@XZ"
"?flags@QRhiGraphicsPipeline@@QEBA?AV?$QFlags@W4Flag@QRhiGraphicsPipeline@@@@XZ"
"?flags@QRhiRenderBuffer@@QEBA?AV?$QFlags@W4Flag@QRhiRenderBuffer@@@@XZ"
"?flags@QRhiSwapChain@@QEBA?AV?$QFlags@W4Flag@QRhiSwapChain@@@@XZ"
"?flags@QRhiTexture@@QEBA?AV?$QFlags@W4Flag@QRhiTexture@@@@XZ"
"?flags@QRhiTextureRenderTarget@@QEBA?AV?$QFlags@W4Flag@QRhiTextureRenderTarget@@@@XZ"
"?flags@QShaderVersion@@QEBA?AV?$QFlags@W4Flag@QShaderVersion@@@@XZ"
"?flags@QStandardItem@@QEBA?AV?$QFlags@W4ItemFlag@Qt@@@@XZ"
"?flags@QStandardItemModel@@UEBA?AV?$QFlags@W4ItemFlag@Qt@@@@AEBVQModelIndex@@@Z"
"?flags@QTextOption@@QEBA?AV?$QFlags@W4Flag@QTextOption@@@@XZ"
"?flags@QWindow@@QEBA?AV?$QFlags@W4WindowType@Qt@@@@XZ"
"?flipCoordinates@QMatrix4x4@@QEAAXXZ"
"?flush@QBackingStore@@QEAAXAEBVQRegion@@PEAVQWindow@@AEBVQPoint@@@Z"
"?flush@QPaintDeviceWindowPrivate@@UEAAXAEBVQRegion@@@Z"
"?flush@QPlatformBackingStore@@UEAAXPEAVQWindow@@AEBVQRegion@@AEBVQPoint@@@Z"
"?flushEventMutex@QWindowSystemInterfacePrivate@@2VQMutex@@A"
"?flushShared@QOpenGLExtensions@@QEAAXXZ"
"?flushWindowSystemEvents@QWindowSystemInterface@@SA_NV?$QFlags@W4ProcessEventsFlag@QEventLoop@@@@@Z"
"?focalPoint@QRadialGradient@@QEBA?AVQPointF@@XZ"
"?focalRadius@QRadialGradient@@QEBANXZ"
"?focusChild@QAccessibleApplication@@UEBAPEAVQAccessibleInterface@@XZ"
"?focusChild@QAccessibleInterface@@UEBAPEAV1@XZ"
"?focusInEvent@QWindow@@MEAAXPEAVQFocusEvent@@@Z"
"?focusObject@QGuiApplication@@SAPEAVQObject@@XZ"
"?focusObject@QWindow@@UEBAPEAVQObject@@XZ"
"?focusObjectChanged@QGuiApplication@@QEAAXPEAVQObject@@@Z"
"?focusObjectChanged@QWindow@@QEAAXPEAVQObject@@@Z"
"?focusOutEvent@QWindow@@MEAAXPEAVQFocusEvent@@@Z"
"?focusWindow@QGuiApplication@@SAPEAVQWindow@@XZ"
"?focusWindowChanged@QGuiApplication@@QEAAXPEAVQWindow@@@Z"
"?focus_window@QGuiApplicationPrivate@@2PEAVQWindow@@EA"
"?font@QAction@@QEBA?AVQFont@@XZ"
"?font@QFontDatabase@@SA?AVQFont@@AEBVQString@@0H@Z"
"?font@QGuiApplication@@SA?AVQFont@@XZ"
"?font@QPaintEngineState@@QEBA?AVQFont@@XZ"
"?font@QPainter@@QEBAAEBVQFont@@XZ"
"?font@QPlatformTheme@@UEBAPEBVQFont@@W4Font@1@@Z"
"?font@QStandardItem@@QEBA?AVQFont@@XZ"
"?font@QTextCharFormat@@QEBA?AVQFont@@XZ"
"?font@QTextEngine@@QEBA?AVQFont@@AEBUQScriptItem@@@Z"
"?font@QTextEngine@@QEBA?AVQFont@@XZ"
"?font@QTextItem@@QEBA?AVQFont@@XZ"
"?font@QTextLayout@@QEBA?AVQFont@@XZ"
"?fontCapitalization@QTextCharFormat@@QEBA?AW4Capitalization@QFont@@XZ"
"?fontChanged@QGuiApplication@@QEAAXAEBVQFont@@@Z"
"?fontDatabase@QPlatformIntegration@@UEBAPEAVQPlatformFontDatabase@@XZ"
"?fontDatabaseChanged@QGuiApplication@@QEAAXXZ"
"?fontDefToLOGFONT@QWindowsFontDatabaseBase@@SA?AUtagLOGFONTW@@AEBUQFontDef@@AEBVQString@@@Z"
"?fontDir@QPlatformFontDatabase@@UEBA?AVQString@@XZ"
"?fontDir@QWindowsFontDatabase@@UEBA?AVQString@@XZ"
"?fontDpi@QFontMetrics@@QEBANXZ"
"?fontDpi@QFontMetricsF@@QEBANXZ"
"?fontEngine@QPlatformFontDatabase@@UEAAPEAVQFontEngine@@AEBUQFontDef@@PEAX@Z"
"?fontEngine@QPlatformFontDatabase@@UEAAPEAVQFontEngine@@AEBVQByteArray@@NW4HintingPreference@QFont@@@Z"
"?fontEngine@QStaticTextItem@@QEBAPEAVQFontEngine@@XZ"
"?fontEngine@QTextEngine@@QEBAPEAVQFontEngine@@AEBUQScriptItem@@PEAUQFixed@@11@Z"
"?fontEngine@QWindowsDirectWriteFontDatabase@@UEAAPEAVQFontEngine@@AEBUQFontDef@@PEAX@Z"
"?fontEngine@QWindowsDirectWriteFontDatabase@@UEAAPEAVQFontEngine@@AEBVQByteArray@@NW4HintingPreference@QFont@@@Z"
"?fontEngine@QWindowsFontDatabase@@UEAAPEAVQFontEngine@@AEBUQFontDef@@PEAX@Z"
"?fontEngine@QWindowsFontDatabase@@UEAAPEAVQFontEngine@@AEBVQByteArray@@NW4HintingPreference@QFont@@@Z"
"?fontEngine@QWindowsFontDatabaseBase@@UEAAPEAVQFontEngine@@AEBUQFontDef@@PEAX@Z"
"?fontEngine@QWindowsFontDatabaseBase@@UEAAPEAVQFontEngine@@AEBVQByteArray@@NW4HintingPreference@QFont@@@Z"
"?fontEngineData@QWindowsFontEngineDirectWrite@@QEBAAEBV?$QSharedPointer@VQWindowsFontEngineData@@@@XZ"
"?fontEngineMulti@QPlatformFontDatabase@@UEAAPEAVQFontEngineMulti@@PEAVQFontEngine@@W4Script@QChar@@@Z"
"?fontFamilies@QTextCharFormat@@QEBA?AVQVariant@@XZ"
"?fontFamily@QTextCharFormat@@QEBA?AVQString@@XZ"
"?fontFixedPitch@QTextCharFormat@@QEBA_NXZ"
"?fontHintingPreference@QTextCharFormat@@QEBA?AW4HintingPreference@QFont@@XZ"
"?fontInfo@QPainter@@QEBA?AVQFontInfo@@XZ"
"?fontItalic@QTextCharFormat@@QEBA_NXZ"
"?fontKerning@QTextCharFormat@@QEBA_NXZ"
"?fontLetterSpacing@QTextCharFormat@@QEBANXZ"
"?fontLetterSpacingType@QTextCharFormat@@QEBA?AW4SpacingType@QFont@@XZ"
"?fontMetrics@QPainter@@QEBA?AVQFontMetrics@@XZ"
"?fontNameSubstitute@QWindowsFontEngineDirectWrite@@SA?AVQString@@AEBV2@@Z"
"?fontOptions@QWindowsFontDatabase@@SAIXZ"
"?fontOverline@QTextCharFormat@@QEBA_NXZ"
"?fontPointSize@QTextCharFormat@@QEBANXZ"
"?fontSelected@QPlatformFontDialogHelper@@QEAAXAEBVQFont@@@Z"
"?fontSmoothingGamma@QStyleHints@@QEBANXZ"
"?fontSmoothingGamma@QWindowsFontDatabase@@SANXZ"
"?fontStretch@QTextCharFormat@@QEBAHXZ"
"?fontStrikeOut@QTextCharFormat@@QEBA_NXZ"
"?fontStyleHint@QTextCharFormat@@QEBA?AW4StyleHint@QFont@@XZ"
"?fontStyleName@QTextCharFormat@@QEBA?AVQVariant@@XZ"
"?fontStyleStrategy@QTextCharFormat@@QEBA?AW4StyleStrategy@QFont@@XZ"
"?fontTable@QRawFont@@QEBA?AVQByteArray@@PEBD@Z"
"?fontTable@QRawFont@@QEBA?AVQByteArray@@UTag@QFont@@@Z"
"?fontUnderline@QTextCharFormat@@QEBA_NXZ"
"?fontWeight@QTextCharFormat@@QEBAHXZ"
"?fontWordSpacing@QTextCharFormat@@QEBANXZ"
"?fontsAlwaysScalable@QPlatformFontDatabase@@UEBA_NXZ"
"?fontsAlwaysScalable@QWindowsFontDatabase@@UEBA_NXZ"
"?forceOpen@QStroker@@QEBA_NXZ"
"?foreground@QStandardItem@@QEBA?AVQBrush@@XZ"
"?foreground@QTextFormat@@QEBA?AVQBrush@@XZ"
"?foregroundColor@QAccessibleInterface@@UEBA?AVQColor@@XZ"
"?format@QAbstractTextDocumentLayout@@IEAA?AVQTextCharFormat@@H@Z"
"?format@QImage@@QEBA?AW4Format@1@XZ"
"?format@QImageIOHandler@@QEBA?AVQByteArray@@XZ"
"?format@QImageReader@@QEBA?AVQByteArray@@XZ"
"?format@QImageWriter@@QEBA?AVQByteArray@@XZ"
"?format@QMovie@@QEBA?AVQByteArray@@XZ"
"?format@QOffscreenSurface@@UEBA?AVQSurfaceFormat@@XZ"
"?format@QOpenGLContext@@QEBA?AVQSurfaceFormat@@XZ"
"?format@QPlatformGraphicsBuffer@@QEBA?AVQPixelFormat@@XZ"
"?format@QPlatformOffscreenSurface@@UEBA?AVQSurfaceFormat@@XZ"
"?format@QPlatformPlaceholderScreen@@UEBA?AW4Format@QImage@@XZ"
"?format@QPlatformWindow@@UEBA?AVQSurfaceFormat@@XZ"
"?format@QRhiSwapChain@@QEBA?AW4Format@1@XZ"
"?format@QRhiTexture@@QEBA?AW4Format@1@XZ"
"?format@QRhiVertexInputAttribute@@QEBA?AW4Format@1@XZ"
"?format@QSyntaxHighlighter@@IEBA?AVQTextCharFormat@@H@Z"
"?format@QTextDocumentWriter@@QEBA?AVQByteArray@@XZ"
"?format@QTextEngine@@QEBA?AVQTextCharFormat@@PEBUQScriptItem@@@Z"
"?format@QTextFormatCollection@@QEBA?AVQTextFormat@@H@Z"
"?format@QTextInlineObject@@QEBA?AVQTextFormat@@XZ"
"?format@QTextList@@QEBA?AVQTextListFormat@@XZ"
"?format@QTextObject@@QEBA?AVQTextFormat@@XZ"
"?format@QTextTable@@QEBA?AVQTextTableFormat@@XZ"
"?format@QTextTableCell@@QEBA?AVQTextCharFormat@@XZ"
"?format@QWindow@@UEBA?AVQSurfaceFormat@@XZ"
"?formatAt@QAbstractTextDocumentLayout@@QEBA?AVQTextFormat@@AEBVQPointF@@@Z"
"?formatCollection@QTextDocumentPrivate@@QEAAPEAVQTextFormatCollection@@XZ"
"?formatCollection@QTextDocumentPrivate@@QEBAPEBVQTextFormatCollection@@XZ"
"?formatCollection@QTextEngine@@QEBAPEAVQTextFormatCollection@@XZ"
"?formatIndex@QAbstractTextDocumentLayout@@IEAAHH@Z"
"?formatIndex@QTextEngine@@QEBAHPEBUQScriptItem@@@Z"
"?formatIndex@QTextInlineObject@@QEBAHXZ"
"?formatIndex@QTextObject@@QEBAHXZ"
"?formatWindowTitle@QPlatformWindow@@KA?AVQString@@AEBV2@0@Z"
"?formats@QInternalMimeData@@UEBA?AV?$QList@VQString@@@@XZ"
"?formats@QTextEngine@@QEBA?AV?$QList@UFormatRange@QTextLayout@@@@XZ"
"?formats@QTextLayout@@QEBA?AV?$QList@UFormatRange@QTextLayout@@@@XZ"
"?formatsHelper@QInternalMimeData@@SA?AV?$QList@VQString@@@@PEBVQMimeData@@@Z"
"?forwardToPopup@QWindowPrivate@@QEAAPEBVQWindow@@PEAVQEvent@@PEBV2@@Z"
"?foundry@QtFontFamily@@QEAAPEAUQtFontFoundry@@AEBVQString@@_N@Z"
"?fragment@iterator@QTextBlock@@QEBA?AVQTextFragment@@XZ"
"?fragmentIndex@QTextBlock@@QEBAHXZ"
"?fragmentMap@QTextDocumentPrivate@@QEAAAEAV?$QFragmentMap@VQTextFragmentData@@@@XZ"
"?fragmentMap@QTextDocumentPrivate@@QEBAAEBV?$QFragmentMap@VQTextFragmentData@@@@XZ"
"?frameAt@QTextDocument@@QEBAPEAVQTextFrame@@H@Z"
"?frameAt@QTextDocumentPrivate@@QEBAPEAVQTextFrame@@H@Z"
"?frameBoundingRect@QTextDocumentLayout@@UEBA?AVQRectF@@PEAVQTextFrame@@@Z"
"?frameChanged@QMovie@@QEAAXH@Z"
"?frameCount@QMovie@@QEBAHXZ"
"?frameFormat@QTextFrame@@QEBA?AVQTextFrameFormat@@XZ"
"?frameGeometry@QWindow@@QEBA?AVQRect@@XZ"
"?frameMargins@QPlatformWindow@@UEBA?AVQMargins@@XZ"
"?frameMargins@QWindow@@QEBA?AVQMargins@@XZ"
"?framePosition@QWindow@@QEBA?AVQPoint@@XZ"
"?frameRect@QMovie@@QEBA?AVQRect@@XZ"
"?frameStrutEventsEnabled@QPlatformWindow@@UEBA_NXZ"
"?free@QOpenGLSharedResource@@QEAAXXZ"
"?freeMemory@QTextEngine@@QEAAXXZ"
"?freeResource@QOpenGLProgramBinarySupportCheck@@UEAAXPEAVQOpenGLContext@@@Z"
"?freeResource@QOpenGLSharedResourceGuard@@MEAAXPEAVQOpenGLContext@@@Z"
"?from@QMutableSinglePointEvent@@SAAEAV1@AEAVQSinglePointEvent@@@Z"
"?from@QMutableSinglePointEvent@@SAPEAV1@PEAVQSinglePointEvent@@@Z"
"?from@QMutableTouchEvent@@SAAEAV1@AEAVQTouchEvent@@@Z"
"?from@QMutableTouchEvent@@SAPEAV1@PEAVQTouchEvent@@@Z"
"?fromAxes@QQuaternion@@SA?AV1@AEBVQVector3D@@00@Z"
"?fromAxisAndAngle@QQuaternion@@SA?AV1@AEBVQVector3D@@M@Z"
"?fromAxisAndAngle@QQuaternion@@SA?AV1@MMMM@Z"
"?fromCmyk@QColor@@SA?AV1@HHHHH@Z"
"?fromCmykF@QColor@@SA?AV1@MMMMM@Z"
"?fromContext@Gpu@QOpenGLConfig@@SA?AU12@XZ"
"?fromData@QBitmap@@SA?AV1@AEBVQSize@@PEBEW4Format@QImage@@@Z"
"?fromData@QImage@@SA?AV1@AEBVQByteArray@@PEBD@Z"
"?fromData@QImage@@SA?AV1@PEBEHPEBD@Z"
"?fromData@QImage@@SA?AV1@VQByteArrayView@@PEBD@Z"
"?fromData@QPlatformPixmap@@UEAA_NPEBEIPEBDV?$QFlags@W4ImageConversionFlag@Qt@@@@@Z"
"?fromData@QRasterPlatformPixmap@@UEAA_NPEBEIPEBDV?$QFlags@W4ImageConversionFlag@Qt@@@@@Z"
"?fromDevice@Gpu@QOpenGLConfig@@SA?AU12@IIVQVersionNumber@@AEBVQByteArray@@@Z"
"?fromDirection@QQuaternion@@SA?AV1@AEBVQVector3D@@0@Z"
"?fromEulerAngles@QQuaternion@@SA?AV1@AEBVQVector3D@@@Z"
"?fromEulerAngles@QQuaternion@@SA?AV1@MMM@Z"
"?fromFile@QPlatformPixmap@@UEAA_NAEBVQString@@PEBDV?$QFlags@W4ImageConversionFlag@Qt@@@@@Z"
"?fromFont@QRawFont@@SA?AV1@AEBVQFont@@W4WritingSystem@QFontDatabase@@@Z"
"?fromGLVendor@Gpu@QOpenGLConfig@@SA?AU12@AEBVQByteArray@@@Z"
"?fromGamma@QColorTrcLut@@SA?AV?$shared_ptr@VQColorTrcLut@@@std@@MW4Direction@1@@Z"
"?fromHBITMAP@QImage@@SA?AV1@PEAUHBITMAP__@@@Z"
"?fromHICON@QImage@@SA?AV1@PEAUHICON__@@@Z"
"?fromHRGN@QRegion@@SA?AV1@PEAUHRGN__@@@Z"
"?fromHsl@QColor@@SA?AV1@HHHH@Z"
"?fromHslF@QColor@@SA?AV1@MMMM@Z"
"?fromHsv@QColor@@SA?AV1@HHHH@Z"
"?fromHsvF@QColor@@SA?AV1@MMMM@Z"
"?fromHtml@QTextDocumentFragment@@SA?AV1@AEBVQString@@PEBVQTextDocument@@@Z"
"?fromIccProfile@QColorSpace@@SA?AV1@AEBVQByteArray@@@Z"
"?fromId@QInputDevicePrivate@@SAPEBVQInputDevice@@_J@Z"
"?fromImage@QBitmap@@SA?AV1@$$QEAVQImage@@V?$QFlags@W4ImageConversionFlag@Qt@@@@@Z"
"?fromImage@QBitmap@@SA?AV1@AEBVQImage@@V?$QFlags@W4ImageConversionFlag@Qt@@@@@Z"
"?fromImage@QBlittablePlatformPixmap@@UEAAXAEBVQImage@@V?$QFlags@W4ImageConversionFlag@Qt@@@@@Z"
"?fromImage@QPixmap@@SA?AV1@$$QEAVQImage@@V?$QFlags@W4ImageConversionFlag@Qt@@@@@Z"
"?fromImage@QPixmap@@SA?AV1@AEBVQImage@@V?$QFlags@W4ImageConversionFlag@Qt@@@@@Z"
"?fromImage@QRasterPlatformPixmap@@UEAAXAEBVQImage@@V?$QFlags@W4ImageConversionFlag@Qt@@@@@Z"
"?fromImageInPlace@QPixmap@@KA?AV1@AEAVQImage@@V?$QFlags@W4ImageConversionFlag@Qt@@@@@Z"
"?fromImageInPlace@QPlatformPixmap@@UEAAXAEAVQImage@@V?$QFlags@W4ImageConversionFlag@Qt@@@@@Z"
"?fromImageInPlace@QRasterPlatformPixmap@@UEAAXAEAVQImage@@V?$QFlags@W4ImageConversionFlag@Qt@@@@@Z"
"?fromImageReader@QPixmap@@SA?AV1@PEAVQImageReader@@V?$QFlags@W4ImageConversionFlag@Qt@@@@@Z"
"?fromImageReader@QPlatformPixmap@@UEAAXPEAVQImageReader@@V?$QFlags@W4ImageConversionFlag@Qt@@@@@Z"
"?fromImageReader@QRasterPlatformPixmap@@UEAAXPEAVQImageReader@@V?$QFlags@W4ImageConversionFlag@Qt@@@@@Z"
"?fromLinear64@QColorTrcLut@@QEBAIVQRgba64@@@Z"
"?fromLinear@QColorTrcLut@@QEBA?AVQRgba64@@V2@@Z"
"?fromLinear@QColorTrcLut@@QEBAII@Z"
"?fromLinear@QColorTrcLut@@QEBAMM@Z"
"?fromMarkdown@QTextDocumentFragment@@SA?AV1@AEBVQString@@V?$QFlags@W4MarkdownFeature@QTextDocument@@@@@Z"
"?fromNative@QWGLContext@QNativeInterface@@SAPEAVQOpenGLContext@@PEAUHGLRC__@@PEAUHWND__@@PEAV3@@Z"
"?fromNativeTouchPoints@QWindowSystemInterfacePrivate@@SA?AV?$QList@VQEventPoint@@@@AEBV?$QList@UTouchPoint@QWindowSystemInterface@@@@PEBVQWindow@@PEAW4Type@QEvent@@@Z"
"?fromNumericId@QPointingDeviceUniqueId@@SA?AV1@_J@Z"
"?fromPixmap@QBitmap@@SA?AV1@AEBVQPixmap@@@Z"
"?fromPlainText@QTextDocumentFragment@@SA?AV1@AEBVQString@@@Z"
"?fromPoints@QBezier@@SA?AV1@AEBVQPointF@@000@Z"
"?fromPosition@QTextCursorPrivate@@SA?AVQTextCursor@@PEAVQTextDocumentPrivate@@H@Z"
"?fromRgb@QColor@@SA?AV1@HHHH@Z"
"?fromRgb@QColor@@SA?AV1@I@Z"
"?fromRgbF@QColor@@SA?AV1@MMMM@Z"
"?fromRgba64@QColor@@SA?AV1@GGGG@Z"
"?fromRgba64@QColor@@SA?AV1@VQRgba64@@@Z"
"?fromRgba@QColor@@SA?AV1@I@Z"
"?fromRotationMatrix@QQuaternion@@SA?AV1@AEBV?$QGenericMatrix@$02$02M@@@Z"
"?fromScale@QTransform@@SA?AV1@NN@Z"
"?fromSerialized@QShader@@SA?AV1@AEBVQByteArray@@@Z"
"?fromString@QColor@@SA?AV1@VQAnyStringView@@@Z"
"?fromString@QFont@@QEAA_NAEBVQString@@@Z"
"?fromString@QKeySequence@@SA?AV1@AEBVQString@@W4SequenceFormat@1@@Z"
"?fromString@QPageRanges@@SA?AV1@AEBVQString@@@Z"
"?fromString@Tag@QFont@@SA?AV?$optional@UTag@QFont@@@std@@VQAnyStringView@@@Z"
"?fromTheme@QIcon@@SA?AV1@AEBVQString@@@Z"
"?fromTheme@QIcon@@SA?AV1@AEBVQString@@AEBV1@@Z"
"?fromTheme@QIcon@@SA?AV1@W4ThemeIcon@1@@Z"
"?fromTheme@QIcon@@SA?AV1@W4ThemeIcon@1@AEBV1@@Z"
"?fromTranslate@QTransform@@SA?AV1@NN@Z"
"?fromTrc@QColorTrcLut@@SA?AV?$shared_ptr@VQColorTrcLut@@@std@@AEBVQColorTrc@@W4Direction@1@@Z"
"?fromWinId@QWindow@@SAPEAV1@_K@Z"
"?frontFace@QRhiGraphicsPipeline@@QEBA?AW4FrontFace@1@XZ"
"?frustum@QMatrix4x4@@QEAAXMMMMMM@Z"
"?fullDynamicBufferUpdateForCurrentFrame@QRhiBuffer@@UEAAXPEBXI@Z"
"?fullRect@QPageLayout@@QEBA?AVQRectF@@W4Unit@1@@Z"
"?fullRect@QPageLayout@@QEBA?AVQRectF@@XZ"
"?fullRectPixels@QPageLayout@@QEBA?AVQRect@@H@Z"
"?fullRectPoints@QPageLayout@@QEBA?AVQRect@@XZ"
"?fun@QColorTrc@@QEBAAEBVQColorTransferFunction@@XZ"
"?functions@QOpenGLContext@@QEBAPEAVQOpenGLFunctions@@XZ"
"?gamma@QColorSpace@@QEBAMXZ"
"?generateMips@QRhiResourceUpdateBatch@@QEAAXPEAVQRhiTexture@@@Z"
"?generic_plugin_list@QGuiApplicationPrivate@@2V?$QList@PEAVQObject@@@@A"
"?geometry@QPlatformPlaceholderScreen@@UEBA?AVQRect@@XZ"
"?geometry@QPlatformTextureList@@QEBA?AVQRect@@H@Z"
"?geometry@QPlatformWindow@@UEBA?AVQRect@@XZ"
"?geometry@QScreen@@QEBA?AVQRect@@XZ"
"?geometry@QWindow@@QEBA?AVQRect@@XZ"
"?geometryChanged@QScreen@@QEAAXAEBVQRect@@@Z"
"?geometryWithin@QGridLayoutItem@@QEBA?AVQRectF@@NNNNNV?$QFlags@W4AlignmentFlag@Qt@@@@_N@Z"
"?gestureType@QNativeGestureEvent@@QEBA?AW4NativeGestureType@Qt@@XZ"
"?get@QAbstractTextDocumentLayoutPrivate@@SAPEAV1@PEAVQAbstractTextDocumentLayout@@@Z"
"?get@QActionPrivate@@SAPEAV1@PEAVQAction@@@Z"
"?get@QFontPrivate@@SAPEAV1@AEBVQFont@@@Z"
"?get@QImageData@@SAPEAU1@AEAVQImage@@@Z"
"?get@QImageData@@SAPEBU1@AEBVQImage@@@Z"
"?get@QInputDeviceManagerPrivate@@SAPEAV1@PEAVQInputDeviceManager@@@Z"
"?get@QInputDevicePrivate@@SAPEAV1@PEAVQInputDevice@@@Z"
"?get@QInputDevicePrivate@@SAPEBV1@PEBVQInputDevice@@@Z"
"?get@QOffscreenSurfacePrivate@@SAPEAV1@PEAVQOffscreenSurface@@@Z"
"?get@QOpenGLContextPrivate@@SAPEAV1@PEAVQOpenGLContext@@@Z"
"?get@QPagedPaintDevicePrivate@@SAPEAV1@PEAVQPagedPaintDevice@@@Z"
"?get@QPaintEnginePrivate@@SAPEAV1@PEAVQPaintEngine@@@Z"
"?get@QPointingDevicePrivate@@SAPEAV1@PEAVQPointingDevice@@@Z"
"?get@QPointingDevicePrivate@@SAPEBV1@PEBVQPointingDevice@@@Z"
"?get@QRawFontPrivate@@SAPEAV1@AEBVQRawFont@@@Z"
"?get@QShaderDescriptionPrivate@@SAPEAU1@PEAVQShaderDescription@@@Z"
"?get@QShaderDescriptionPrivate@@SAPEBU1@PEBVQShaderDescription@@@Z"
"?get@QShaderPrivate@@SAPEAU1@PEAVQShader@@@Z"
"?get@QShaderPrivate@@SAPEBU1@PEBVQShader@@@Z"
"?get@QTextDocumentPrivate@@SAPEAV1@AEAVQTextBlock@@@Z"
"?get@QTextDocumentPrivate@@SAPEAV1@PEAVQTextDocument@@@Z"
"?get@QTextDocumentPrivate@@SAPEAV1@PEAVQTextObject@@@Z"
"?get@QTextDocumentPrivate@@SAPEBV1@AEBVQTextBlock@@@Z"
"?get@QTextDocumentPrivate@@SAPEBV1@PEBVQTextDocument@@@Z"
"?get@QTextDocumentPrivate@@SAPEBV1@PEBVQTextObject@@@Z"
"?get@QWindowPrivate@@SAPEAV1@PEAVQWindow@@@Z"
"?getAxes@QQuaternion@@QEBAXPEAVQVector3D@@00@Z"
"?getAxisAndAngle@QQuaternion@@QEBAXPEAM000@Z"
"?getAxisAndAngle@QQuaternion@@QEBAXPEAVQVector3D@@PEAM@Z"
"?getCMap@QFontEngine@@SAPEBEPEBEIPEA_NPEAH@Z"
"?getClusterLength@QTextEngine@@AEAAHPEAGPEBUQCharAttributes@@HHHPEAH@Z"
"?getCmyk@QColor@@QEBAXPEAH0000@Z"
"?getCmykF@QColor@@QEBAXPEAM0000@Z"
"?getDC@QRasterPaintEngine@@QEBAPEAUHDC__@@XZ"
"?getDataView@QTextureFileData@@QEBA?AVQByteArrayView@@HH@Z"
"?getDecodedMetricF@QPaintDevice@@IEBANW4PaintDeviceMetric@1@0@Z"
"?getEulerAngles@QQuaternion@@QEBAXPEAM00@Z"
"?getFileInfos@QFileInfoGatherer@@AEAAXAEBVQString@@AEBV?$QList@VQString@@@@@Z"
"?getFileType@QAbstractFileIconProviderPrivate@@SA?AVQString@@AEBVQFileInfo@@@Z"
"?getGlyphBearings@QFontEngine@@UEAAXIPEAN0@Z"
"?getGlyphBearings@QFontEngineMulti@@UEAAXIPEAN0@Z"
"?getGlyphPositions@QFontEngine@@QEAAXAEBUQGlyphLayout@@AEBVQTransform@@V?$QFlags@W4RenderFlag@QTextItem@@@@AEAV?$QVarLengthArray@I$0BAA@@@AEAV?$QVarLengthArray@UQFixedPoint@@$0BAA@@@@Z"
"?getHsl@QColor@@QEBAXPEAH000@Z"
"?getHslF@QColor@@QEBAXPEAM000@Z"
"?getHsv@QColor@@QEBAXPEAH000@Z"
"?getHsvF@QColor@@QEBAXPEAM000@Z"
"?getIconThemeIcon@QAbstractFileIconProviderPrivate@@QEBA?AVQIcon@@AEBVQFileInfo@@@Z"
"?getIconThemeIcon@QAbstractFileIconProviderPrivate@@QEBA?AVQIcon@@W4IconType@QAbstractFileIconProvider@@@Z"
"?getInfo@QFileInfoGatherer@@QEBA?AVQExtendedInformation@@AEBVQFileInfo@@@Z"
"?getNonUserInputWindowSystemEvent@QWindowSystemInterfacePrivate@@SAPEAVWindowSystemEvent@1@XZ"
"?getPixmapCursor@QGuiApplicationPrivate@@QEAA?AVQPixmap@@W4CursorShape@Qt@@@Z"
"?getPlatformThemeIcon@QAbstractFileIconProviderPrivate@@QEBA?AVQIcon@@AEBVQFileInfo@@@Z"
"?getPlatformThemeIcon@QAbstractFileIconProviderPrivate@@QEBA?AVQIcon@@W4IconType@QAbstractFileIconProvider@@@Z"
"?getPointInOutline@QFontEngine@@UEAAHIHIPEAUQFixed@@0PEAI@Z"
"?getPrivate@QTextCursorPrivate@@SAPEAV1@PEAVQTextCursor@@@Z"
"?getProcAddress@QOpenGLContext@@QEBAP6AXXZAEBVQByteArray@@@Z"
"?getProcAddress@QOpenGLContext@@QEBAP6AXXZPEBD@Z"
"?getRgb@QColor@@QEBAXPEAH000@Z"
"?getRgbF@QColor@@QEBAXPEAM000@Z"
"?getSfntTable@QFontEngine@@QEBA?AVQByteArray@@I@Z"
"?getSfntTableData@QFontEngine@@UEBA_NIPEAEPEAI@Z"
"?getSfntTableData@QWindowsFontEngineDirectWrite@@UEBA_NIPEAEPEAI@Z"
"?getSubRange@QBezier@@QEBA?AV1@NN@Z"
"?getTrueTypeGlyphIndex@QFontEngine@@SAIPEBEHI@Z"
"?getUnscaledGlyph@QFontEngine@@UEAAXIPEAVQPainterPath@@PEAUglyph_metrics_t@@@Z"
"?getUnscaledGlyph@QWindowsFontEngineDirectWrite@@UEAAXIPEAVQPainterPath@@PEAUglyph_metrics_t@@@Z"
"?getWindowSystemEvent@QWindowSystemInterfacePrivate@@SAPEAVWindowSystemEvent@1@XZ"
"?glActiveShaderProgram@QOpenGLExtraFunctions@@QEAAXII@Z"
"?glActiveTexture@QOpenGLFunctions@@QEAAXI@Z"
"?glAttachShader@QOpenGLFunctions@@QEAAXII@Z"
"?glBaseInternalFormat@QTextureFileData@@QEBAIXZ"
"?glBeginQuery@QOpenGLExtraFunctions@@QEAAXII@Z"
"?glBeginTransformFeedback@QOpenGLExtraFunctions@@QEAAXI@Z"
"?glBindAttribLocation@QOpenGLFunctions@@QEAAXIIPEBD@Z"
"?glBindBuffer@QOpenGLFunctions@@QEAAXII@Z"
"?glBindBufferBase@QOpenGLExtraFunctions@@QEAAXIII@Z"
"?glBindBufferRange@QOpenGLExtraFunctions@@QEAAXIII_J0@Z"
"?glBindFramebuffer@QOpenGLFunctions@@QEAAXII@Z"
"?glBindImageTexture@QOpenGLExtraFunctions@@QEAAXIIHEHII@Z"
"?glBindProgramPipeline@QOpenGLExtraFunctions@@QEAAXI@Z"
"?glBindRenderbuffer@QOpenGLFunctions@@QEAAXII@Z"
"?glBindSampler@QOpenGLExtraFunctions@@QEAAXII@Z"
"?glBindTexture@QOpenGLFunctions@@QEAAXII@Z"
"?glBindTransformFeedback@QOpenGLExtraFunctions@@QEAAXII@Z"
"?glBindVertexArray@QOpenGLExtraFunctions@@QEAAXI@Z"
"?glBindVertexBuffer@QOpenGLExtraFunctions@@QEAAXII_JH@Z"
"?glBlendBarrier@QOpenGLExtraFunctions@@QEAAXXZ"
"?glBlendColor@QOpenGLFunctions@@QEAAXMMMM@Z"
"?glBlendEquation@QOpenGLFunctions@@QEAAXI@Z"
"?glBlendEquationSeparate@QOpenGLFunctions@@QEAAXII@Z"
"?glBlendEquationSeparatei@QOpenGLExtraFunctions@@QEAAXIII@Z"
"?glBlendEquationi@QOpenGLExtraFunctions@@QEAAXII@Z"
"?glBlendFunc@QOpenGLFunctions@@QEAAXII@Z"
"?glBlendFuncSeparate@QOpenGLFunctions@@QEAAXIIII@Z"
"?glBlendFuncSeparatei@QOpenGLExtraFunctions@@QEAAXIIIII@Z"
"?glBlendFunci@QOpenGLExtraFunctions@@QEAAXIII@Z"
"?glBlitFramebuffer@QOpenGLExtraFunctions@@QEAAXHHHHHHHHII@Z"
"?glBufferData@QOpenGLFunctions@@QEAAXI_JPEBXI@Z"
"?glBufferSubData@QOpenGLFunctions@@QEAAXI_J0PEBX@Z"
"?glCheckFramebufferStatus@QOpenGLFunctions@@QEAAII@Z"
"?glClear@QOpenGLFunctions@@QEAAXI@Z"
"?glClearBufferfi@QOpenGLExtraFunctions@@QEAAXIHMH@Z"
"?glClearBufferfv@QOpenGLExtraFunctions@@QEAAXIHPEBM@Z"
"?glClearBufferiv@QOpenGLExtraFunctions@@QEAAXIHPEBH@Z"
"?glClearBufferuiv@QOpenGLExtraFunctions@@QEAAXIHPEBI@Z"
"?glClearColor@QOpenGLFunctions@@QEAAXMMMM@Z"
"?glClearDepthf@QOpenGLFunctions@@QEAAXM@Z"
"?glClearStencil@QOpenGLFunctions@@QEAAXH@Z"
"?glClientWaitSync@QOpenGLExtraFunctions@@QEAAIPEAU__GLsync@@I_K@Z"
"?glColorMask@QOpenGLFunctions@@QEAAXEEEE@Z"
"?glColorMaski@QOpenGLExtraFunctions@@QEAAXIEEEE@Z"
"?glCompileShader@QOpenGLFunctions@@QEAAXI@Z"
"?glCompressedTexImage2D@QOpenGLFunctions@@QEAAXIHIHHHHPEBX@Z"
"?glCompressedTexImage3D@QOpenGLExtraFunctions@@QEAAXIHIHHHHHPEBX@Z"
"?glCompressedTexSubImage2D@QOpenGLFunctions@@QEAAXIHHHHHIHPEBX@Z"
"?glCompressedTexSubImage3D@QOpenGLExtraFunctions@@QEAAXIHHHHHHHIHPEBX@Z"
"?glCopyBufferSubData@QOpenGLExtraFunctions@@QEAAXII_J00@Z"
"?glCopyImageSubData@QOpenGLExtraFunctions@@QEAAXIIHHHHIIHHHHHHH@Z"
"?glCopyTexImage2D@QOpenGLFunctions@@QEAAXIHIHHHHH@Z"
"?glCopyTexSubImage2D@QOpenGLFunctions@@QEAAXIHHHHHHH@Z"
"?glCopyTexSubImage3D@QOpenGLExtraFunctions@@QEAAXIHHHHHHHH@Z"
"?glCreateProgram@QOpenGLFunctions@@QEAAIXZ"
"?glCreateShader@QOpenGLFunctions@@QEAAII@Z"
"?glCreateShaderProgramv@QOpenGLExtraFunctions@@QEAAIIHPEBQEBD@Z"
"?glCullFace@QOpenGLFunctions@@QEAAXI@Z"
"?glDebugMessageCallback@QOpenGLExtraFunctions@@QEAAXP6AXIIIIHPEBDPEBX@Z1@Z"
"?glDebugMessageControl@QOpenGLExtraFunctions@@QEAAXIIIHPEBIE@Z"
"?glDebugMessageInsert@QOpenGLExtraFunctions@@QEAAXIIIIHPEBD@Z"
"?glDeleteBuffers@QOpenGLFunctions@@QEAAXHPEBI@Z"
"?glDeleteFramebuffers@QOpenGLFunctions@@QEAAXHPEBI@Z"
"?glDeleteProgram@QOpenGLFunctions@@QEAAXI@Z"
"?glDeleteProgramPipelines@QOpenGLExtraFunctions@@QEAAXHPEBI@Z"
"?glDeleteQueries@QOpenGLExtraFunctions@@QEAAXHPEBI@Z"
"?glDeleteRenderbuffers@QOpenGLFunctions@@QEAAXHPEBI@Z"
"?glDeleteSamplers@QOpenGLExtraFunctions@@QEAAXHPEBI@Z"
"?glDeleteShader@QOpenGLFunctions@@QEAAXI@Z"
"?glDeleteSync@QOpenGLExtraFunctions@@QEAAXPEAU__GLsync@@@Z"
"?glDeleteTextures@QOpenGLFunctions@@QEAAXHPEBI@Z"
"?glDeleteTransformFeedbacks@QOpenGLExtraFunctions@@QEAAXHPEBI@Z"
"?glDeleteVertexArrays@QOpenGLExtraFunctions@@QEAAXHPEBI@Z"
"?glDepthFunc@QOpenGLFunctions@@QEAAXI@Z"
"?glDepthMask@QOpenGLFunctions@@QEAAXE@Z"
"?glDepthRangef@QOpenGLFunctions@@QEAAXMM@Z"
"?glDetachShader@QOpenGLFunctions@@QEAAXII@Z"
"?glDisable@QOpenGLFunctions@@QEAAXI@Z"
"?glDisableVertexAttribArray@QOpenGLFunctions@@QEAAXI@Z"
"?glDisablei@QOpenGLExtraFunctions@@QEAAXII@Z"
"?glDispatchCompute@QOpenGLExtraFunctions@@QEAAXIII@Z"
"?glDispatchComputeIndirect@QOpenGLExtraFunctions@@QEAAX_J@Z"
"?glDrawArrays@QOpenGLFunctions@@QEAAXIHH@Z"
"?glDrawArraysIndirect@QOpenGLExtraFunctions@@QEAAXIPEBX@Z"
"?glDrawArraysInstanced@QOpenGLExtraFunctions@@QEAAXIHHH@Z"
"?glDrawBuffers@QOpenGLExtraFunctions@@QEAAXHPEBI@Z"
"?glDrawElements@QOpenGLFunctions@@QEAAXIHIPEBX@Z"
"?glDrawElementsBaseVertex@QOpenGLExtraFunctions@@QEAAXIHIPEBXH@Z"
"?glDrawElementsIndirect@QOpenGLExtraFunctions@@QEAAXIIPEBX@Z"
"?glDrawElementsInstanced@QOpenGLExtraFunctions@@QEAAXIHIPEBXH@Z"
"?glDrawElementsInstancedBaseVertex@QOpenGLExtraFunctions@@QEAAXIHIPEBXHH@Z"
"?glDrawRangeElements@QOpenGLExtraFunctions@@QEAAXIIIHIPEBX@Z"
"?glDrawRangeElementsBaseVertex@QOpenGLExtraFunctions@@QEAAXIIIHIPEBXH@Z"
"?glEnable@QOpenGLFunctions@@QEAAXI@Z"
"?glEnableVertexAttribArray@QOpenGLFunctions@@QEAAXI@Z"
"?glEnablei@QOpenGLExtraFunctions@@QEAAXII@Z"
"?glEndQuery@QOpenGLExtraFunctions@@QEAAXI@Z"
"?glEndTransformFeedback@QOpenGLExtraFunctions@@QEAAXXZ"
"?glFenceSync@QOpenGLExtraFunctions@@QEAAPEAU__GLsync@@II@Z"
"?glFinish@QOpenGLFunctions@@QEAAXXZ"
"?glFlush@QOpenGLFunctions@@QEAAXXZ"
"?glFlushMappedBufferRange@QOpenGLExtraFunctions@@QEAAXI_J0@Z"
"?glFormat@QTextureFileData@@QEBAIXZ"
"?glFramebufferParameteri@QOpenGLExtraFunctions@@QEAAXIIH@Z"
"?glFramebufferRenderbuffer@QOpenGLFunctions@@QEAAXIIII@Z"
"?glFramebufferTexture2D@QOpenGLFunctions@@QEAAXIIIIH@Z"
"?glFramebufferTexture@QOpenGLExtraFunctions@@QEAAXIIIH@Z"
"?glFramebufferTextureLayer@QOpenGLExtraFunctions@@QEAAXIIIHH@Z"
"?glFrontFace@QOpenGLFunctions@@QEAAXI@Z"
"?glGenBuffers@QOpenGLFunctions@@QEAAXHPEAI@Z"
"?glGenFramebuffers@QOpenGLFunctions@@QEAAXHPEAI@Z"
"?glGenProgramPipelines@QOpenGLExtraFunctions@@QEAAXHPEAI@Z"
"?glGenQueries@QOpenGLExtraFunctions@@QEAAXHPEAI@Z"
"?glGenRenderbuffers@QOpenGLFunctions@@QEAAXHPEAI@Z"
"?glGenSamplers@QOpenGLExtraFunctions@@QEAAXHPEAI@Z"
"?glGenTextures@QOpenGLFunctions@@QEAAXHPEAI@Z"
"?glGenTransformFeedbacks@QOpenGLExtraFunctions@@QEAAXHPEAI@Z"
"?glGenVertexArrays@QOpenGLExtraFunctions@@QEAAXHPEAI@Z"
"?glGenerateMipmap@QOpenGLFunctions@@QEAAXI@Z"
"?glGetActiveAttrib@QOpenGLFunctions@@QEAAXIIHPEAH0PEAIPEAD@Z"
"?glGetActiveUniform@QOpenGLFunctions@@QEAAXIIHPEAH0PEAIPEAD@Z"
"?glGetActiveUniformBlockName@QOpenGLExtraFunctions@@QEAAXIIHPEAHPEAD@Z"
"?glGetActiveUniformBlockiv@QOpenGLExtraFunctions@@QEAAXIIIPEAH@Z"
"?glGetActiveUniformsiv@QOpenGLExtraFunctions@@QEAAXIHPEBIIPEAH@Z"
"?glGetAttachedShaders@QOpenGLFunctions@@QEAAXIHPEAHPEAI@Z"
"?glGetAttribLocation@QOpenGLFunctions@@QEAAHIPEBD@Z"
"?glGetBooleani_v@QOpenGLExtraFunctions@@QEAAXIIPEAE@Z"
"?glGetBooleanv@QOpenGLFunctions@@QEAAXIPEAE@Z"
"?glGetBufferParameteri64v@QOpenGLExtraFunctions@@QEAAXIIPEA_J@Z"
"?glGetBufferParameteriv@QOpenGLFunctions@@QEAAXIIPEAH@Z"
"?glGetBufferPointerv@QOpenGLExtraFunctions@@QEAAXIIPEAPEAX@Z"
"?glGetBufferSubData@QOpenGLExtensions@@QEAAXI_J0PEAX@Z"
"?glGetDebugMessageLog@QOpenGLExtraFunctions@@QEAAIIHPEAI000PEAHPEAD@Z"
"?glGetError@QOpenGLFunctions@@QEAAIXZ"
"?glGetFloatv@QOpenGLFunctions@@QEAAXIPEAM@Z"
"?glGetFragDataLocation@QOpenGLExtraFunctions@@QEAAHIPEBD@Z"
"?glGetFramebufferAttachmentParameteriv@QOpenGLFunctions@@QEAAXIIIPEAH@Z"
"?glGetFramebufferParameteriv@QOpenGLExtraFunctions@@QEAAXIIPEAH@Z"
"?glGetGraphicsResetStatus@QOpenGLExtraFunctions@@QEAAIXZ"
"?glGetInteger64i_v@QOpenGLExtraFunctions@@QEAAXIIPEA_J@Z"
"?glGetInteger64v@QOpenGLExtraFunctions@@QEAAXIPEA_J@Z"
"?glGetIntegeri_v@QOpenGLExtraFunctions@@QEAAXIIPEAH@Z"
"?glGetIntegerv@QOpenGLFunctions@@QEAAXIPEAH@Z"
"?glGetInternalformativ@QOpenGLExtraFunctions@@QEAAXIIIHPEAH@Z"
"?glGetMultisamplefv@QOpenGLExtraFunctions@@QEAAXIIPEAM@Z"
"?glGetObjectLabel@QOpenGLExtraFunctions@@QEAAXIIHPEAHPEAD@Z"
"?glGetObjectPtrLabel@QOpenGLExtraFunctions@@QEAAXPEBXHPEAHPEAD@Z"
"?glGetPointerv@QOpenGLExtraFunctions@@QEAAXIPEAPEAX@Z"
"?glGetProgramBinary@QOpenGLExtraFunctions@@QEAAXIHPEAHPEAIPEAX@Z"
"?glGetProgramInfoLog@QOpenGLFunctions@@QEAAXIHPEAHPEAD@Z"
"?glGetProgramInterfaceiv@QOpenGLExtraFunctions@@QEAAXIIIPEAH@Z"
"?glGetProgramPipelineInfoLog@QOpenGLExtraFunctions@@QEAAXIHPEAHPEAD@Z"
"?glGetProgramPipelineiv@QOpenGLExtraFunctions@@QEAAXIIPEAH@Z"
"?glGetProgramResourceIndex@QOpenGLExtraFunctions@@QEAAIIIPEBD@Z"
"?glGetProgramResourceLocation@QOpenGLExtraFunctions@@QEAAHIIPEBD@Z"
"?glGetProgramResourceName@QOpenGLExtraFunctions@@QEAAXIIIHPEAHPEAD@Z"
"?glGetProgramResourceiv@QOpenGLExtraFunctions@@QEAAXIIIHPEBIHPEAH1@Z"
"?glGetProgramiv@QOpenGLFunctions@@QEAAXIIPEAH@Z"
"?glGetQueryObjectuiv@QOpenGLExtraFunctions@@QEAAXIIPEAI@Z"
"?glGetQueryiv@QOpenGLExtraFunctions@@QEAAXIIPEAH@Z"
"?glGetRenderbufferParameteriv@QOpenGLFunctions@@QEAAXIIPEAH@Z"
"?glGetSamplerParameterIiv@QOpenGLExtraFunctions@@QEAAXIIPEAH@Z"
"?glGetSamplerParameterIuiv@QOpenGLExtraFunctions@@QEAAXIIPEAI@Z"
"?glGetSamplerParameterfv@QOpenGLExtraFunctions@@QEAAXIIPEAM@Z"
"?glGetSamplerParameteriv@QOpenGLExtraFunctions@@QEAAXIIPEAH@Z"
"?glGetShaderInfoLog@QOpenGLFunctions@@QEAAXIHPEAHPEAD@Z"
"?glGetShaderPrecisionFormat@QOpenGLFunctions@@QEAAXIIPEAH0@Z"
"?glGetShaderSource@QOpenGLFunctions@@QEAAXIHPEAHPEAD@Z"
"?glGetShaderiv@QOpenGLFunctions@@QEAAXIIPEAH@Z"
"?glGetString@QOpenGLFunctions@@QEAAPEBEI@Z"
"?glGetStringi@QOpenGLExtraFunctions@@QEAAPEBEII@Z"
"?glGetSynciv@QOpenGLExtraFunctions@@QEAAXPEAU__GLsync@@IHPEAH1@Z"
"?glGetTexLevelParameterfv@QOpenGLExtraFunctions@@QEAAXIHIPEAM@Z"
"?glGetTexLevelParameteriv@QOpenGLExtraFunctions@@QEAAXIHIPEAH@Z"
"?glGetTexParameterIiv@QOpenGLExtraFunctions@@QEAAXIIPEAH@Z"
"?glGetTexParameterIuiv@QOpenGLExtraFunctions@@QEAAXIIPEAI@Z"
"?glGetTexParameterfv@QOpenGLFunctions@@QEAAXIIPEAM@Z"
"?glGetTexParameteriv@QOpenGLFunctions@@QEAAXIIPEAH@Z"
"?glGetTransformFeedbackVarying@QOpenGLExtraFunctions@@QEAAXIIHPEAH0PEAIPEAD@Z"
"?glGetUniformBlockIndex@QOpenGLExtraFunctions@@QEAAIIPEBD@Z"
"?glGetUniformIndices@QOpenGLExtraFunctions@@QEAAXIHPEBQEBDPEAI@Z"
"?glGetUniformLocation@QOpenGLFunctions@@QEAAHIPEBD@Z"
"?glGetUniformfv@QOpenGLFunctions@@QEAAXIHPEAM@Z"
"?glGetUniformiv@QOpenGLFunctions@@QEAAXIHPEAH@Z"
"?glGetUniformuiv@QOpenGLExtraFunctions@@QEAAXIHPEAI@Z"
"?glGetVertexAttribIiv@QOpenGLExtraFunctions@@QEAAXIIPEAH@Z"
"?glGetVertexAttribIuiv@QOpenGLExtraFunctions@@QEAAXIIPEAI@Z"
"?glGetVertexAttribPointerv@QOpenGLFunctions@@QEAAXIIPEAPEAX@Z"
"?glGetVertexAttribfv@QOpenGLFunctions@@QEAAXIIPEAM@Z"
"?glGetVertexAttribiv@QOpenGLFunctions@@QEAAXIIPEAH@Z"
"?glGetnUniformfv@QOpenGLExtraFunctions@@QEAAXIHHPEAM@Z"
"?glGetnUniformiv@QOpenGLExtraFunctions@@QEAAXIHHPEAH@Z"
"?glGetnUniformuiv@QOpenGLExtraFunctions@@QEAAXIHHPEAI@Z"
"?glHint@QOpenGLFunctions@@QEAAXII@Z"
"?glInternalFormat@QTextureFileData@@QEBAIXZ"
"?glInvalidateFramebuffer@QOpenGLExtraFunctions@@QEAAXIHPEBI@Z"
"?glInvalidateSubFramebuffer@QOpenGLExtraFunctions@@QEAAXIHPEBIHHHH@Z"
"?glIsBuffer@QOpenGLFunctions@@QEAAEI@Z"
"?glIsEnabled@QOpenGLFunctions@@QEAAEI@Z"
"?glIsEnabledi@QOpenGLExtraFunctions@@QEAAEII@Z"
"?glIsFramebuffer@QOpenGLFunctions@@QEAAEI@Z"
"?glIsProgram@QOpenGLFunctions@@QEAAEI@Z"
"?glIsProgramPipeline@QOpenGLExtraFunctions@@QEAAEI@Z"
"?glIsQuery@QOpenGLExtraFunctions@@QEAAEI@Z"
"?glIsRenderbuffer@QOpenGLFunctions@@QEAAEI@Z"
"?glIsSampler@QOpenGLExtraFunctions@@QEAAEI@Z"
"?glIsShader@QOpenGLFunctions@@QEAAEI@Z"
"?glIsSync@QOpenGLExtraFunctions@@QEAAEPEAU__GLsync@@@Z"
"?glIsTexture@QOpenGLFunctions@@QEAAEI@Z"
"?glIsTransformFeedback@QOpenGLExtraFunctions@@QEAAEI@Z"
"?glIsVertexArray@QOpenGLExtraFunctions@@QEAAEI@Z"
"?glLineWidth@QOpenGLFunctions@@QEAAXM@Z"
"?glLinkProgram@QOpenGLFunctions@@QEAAXI@Z"
"?glMapBuffer@QOpenGLExtensions@@QEAAPEAXII@Z"
"?glMapBufferRange@QOpenGLExtraFunctions@@QEAAPEAXI_J0I@Z"
"?glMemoryBarrier@QOpenGLExtraFunctions@@QEAAXI@Z"
"?glMemoryBarrierByRegion@QOpenGLExtraFunctions@@QEAAXI@Z"
"?glMinSampleShading@QOpenGLExtraFunctions@@QEAAXM@Z"
"?glObjectLabel@QOpenGLExtraFunctions@@QEAAXIIHPEBD@Z"
"?glObjectPtrLabel@QOpenGLExtraFunctions@@QEAAXPEBXHPEBD@Z"
"?glPatchParameteri@QOpenGLExtraFunctions@@QEAAXIH@Z"
"?glPauseTransformFeedback@QOpenGLExtraFunctions@@QEAAXXZ"
"?glPixelStorei@QOpenGLFunctions@@QEAAXIH@Z"
"?glPolygonOffset@QOpenGLFunctions@@QEAAXMM@Z"
"?glPopDebugGroup@QOpenGLExtraFunctions@@QEAAXXZ"
"?glPrimitiveBoundingBox@QOpenGLExtraFunctions@@QEAAXMMMMMMMM@Z"
"?glProgramBinary@QOpenGLExtraFunctions@@QEAAXIIPEBXH@Z"
"?glProgramParameteri@QOpenGLExtraFunctions@@QEAAXIIH@Z"
"?glProgramUniform1f@QOpenGLExtraFunctions@@QEAAXIHM@Z"
"?glProgramUniform1fv@QOpenGLExtraFunctions@@QEAAXIHHPEBM@Z"
"?glProgramUniform1i@QOpenGLExtraFunctions@@QEAAXIHH@Z"
"?glProgramUniform1iv@QOpenGLExtraFunctions@@QEAAXIHHPEBH@Z"
"?glProgramUniform1ui@QOpenGLExtraFunctions@@QEAAXIHI@Z"
"?glProgramUniform1uiv@QOpenGLExtraFunctions@@QEAAXIHHPEBI@Z"
"?glProgramUniform2f@QOpenGLExtraFunctions@@QEAAXIHMM@Z"
"?glProgramUniform2fv@QOpenGLExtraFunctions@@QEAAXIHHPEBM@Z"
"?glProgramUniform2i@QOpenGLExtraFunctions@@QEAAXIHHH@Z"
"?glProgramUniform2iv@QOpenGLExtraFunctions@@QEAAXIHHPEBH@Z"
"?glProgramUniform2ui@QOpenGLExtraFunctions@@QEAAXIHII@Z"
"?glProgramUniform2uiv@QOpenGLExtraFunctions@@QEAAXIHHPEBI@Z"
"?glProgramUniform3f@QOpenGLExtraFunctions@@QEAAXIHMMM@Z"
"?glProgramUniform3fv@QOpenGLExtraFunctions@@QEAAXIHHPEBM@Z"
"?glProgramUniform3i@QOpenGLExtraFunctions@@QEAAXIHHHH@Z"
"?glProgramUniform3iv@QOpenGLExtraFunctions@@QEAAXIHHPEBH@Z"
"?glProgramUniform3ui@QOpenGLExtraFunctions@@QEAAXIHIII@Z"
"?glProgramUniform3uiv@QOpenGLExtraFunctions@@QEAAXIHHPEBI@Z"
"?glProgramUniform4f@QOpenGLExtraFunctions@@QEAAXIHMMMM@Z"
"?glProgramUniform4fv@QOpenGLExtraFunctions@@QEAAXIHHPEBM@Z"
"?glProgramUniform4i@QOpenGLExtraFunctions@@QEAAXIHHHHH@Z"
"?glProgramUniform4iv@QOpenGLExtraFunctions@@QEAAXIHHPEBH@Z"
"?glProgramUniform4ui@QOpenGLExtraFunctions@@QEAAXIHIIII@Z"
"?glProgramUniform4uiv@QOpenGLExtraFunctions@@QEAAXIHHPEBI@Z"
"?glProgramUniformMatrix2fv@QOpenGLExtraFunctions@@QEAAXIHHEPEBM@Z"
"?glProgramUniformMatrix2x3fv@QOpenGLExtraFunctions@@QEAAXIHHEPEBM@Z"
"?glProgramUniformMatrix2x4fv@QOpenGLExtraFunctions@@QEAAXIHHEPEBM@Z"
"?glProgramUniformMatrix3fv@QOpenGLExtraFunctions@@QEAAXIHHEPEBM@Z"
"?glProgramUniformMatrix3x2fv@QOpenGLExtraFunctions@@QEAAXIHHEPEBM@Z"
"?glProgramUniformMatrix3x4fv@QOpenGLExtraFunctions@@QEAAXIHHEPEBM@Z"
"?glProgramUniformMatrix4fv@QOpenGLExtraFunctions@@QEAAXIHHEPEBM@Z"
"?glProgramUniformMatrix4x2fv@QOpenGLExtraFunctions@@QEAAXIHHEPEBM@Z"
"?glProgramUniformMatrix4x3fv@QOpenGLExtraFunctions@@QEAAXIHHEPEBM@Z"
"?glPushDebugGroup@QOpenGLExtraFunctions@@QEAAXIIHPEBD@Z"
"?glReadBuffer@QOpenGLExtraFunctions@@QEAAXI@Z"
"?glReadPixels@QOpenGLFunctions@@QEAAXHHHHIIPEAX@Z"
"?glReadnPixels@QOpenGLExtraFunctions@@QEAAXHHHHIIHPEAX@Z"
"?glReleaseShaderCompiler@QOpenGLFunctions@@QEAAXXZ"
"?glRenderbufferStorage@QOpenGLFunctions@@QEAAXIIHH@Z"
"?glRenderbufferStorageMultisample@QOpenGLExtraFunctions@@QEAAXIHIHH@Z"
"?glResumeTransformFeedback@QOpenGLExtraFunctions@@QEAAXXZ"
"?glSampleCoverage@QOpenGLFunctions@@QEAAXME@Z"
"?glSampleMaski@QOpenGLExtraFunctions@@QEAAXII@Z"
"?glSamplerParameterIiv@QOpenGLExtraFunctions@@QEAAXIIPEBH@Z"
"?glSamplerParameterIuiv@QOpenGLExtraFunctions@@QEAAXIIPEBI@Z"
"?glSamplerParameterf@QOpenGLExtraFunctions@@QEAAXIIM@Z"
"?glSamplerParameterfv@QOpenGLExtraFunctions@@QEAAXIIPEBM@Z"
"?glSamplerParameteri@QOpenGLExtraFunctions@@QEAAXIIH@Z"
"?glSamplerParameteriv@QOpenGLExtraFunctions@@QEAAXIIPEBH@Z"
"?glScissor@QOpenGLFunctions@@QEAAXHHHH@Z"
"?glShaderBinary@QOpenGLFunctions@@QEAAXHPEBIIPEBXH@Z"
"?glShaderSource@QOpenGLFunctions@@QEAAXIHPEAPEBDPEBH@Z"
"?glStencilFunc@QOpenGLFunctions@@QEAAXIHI@Z"
"?glStencilFuncSeparate@QOpenGLFunctions@@QEAAXIIHI@Z"
"?glStencilMask@QOpenGLFunctions@@QEAAXI@Z"
"?glStencilMaskSeparate@QOpenGLFunctions@@QEAAXII@Z"
"?glStencilOp@QOpenGLFunctions@@QEAAXIII@Z"
"?glStencilOpSeparate@QOpenGLFunctions@@QEAAXIIII@Z"
"?glTexBuffer@QOpenGLExtraFunctions@@QEAAXIII@Z"
"?glTexBufferRange@QOpenGLExtraFunctions@@QEAAXIII_J0@Z"
"?glTexImage2D@QOpenGLFunctions@@QEAAXIHHHHHIIPEBX@Z"
"?glTexImage3D@QOpenGLExtraFunctions@@QEAAXIHHHHHHIIPEBX@Z"
"?glTexParameterIiv@QOpenGLExtraFunctions@@QEAAXIIPEBH@Z"
"?glTexParameterIuiv@QOpenGLExtraFunctions@@QEAAXIIPEBI@Z"
"?glTexParameterf@QOpenGLFunctions@@QEAAXIIM@Z"
"?glTexParameterfv@QOpenGLFunctions@@QEAAXIIPEBM@Z"
"?glTexParameteri@QOpenGLFunctions@@QEAAXIIH@Z"
"?glTexParameteriv@QOpenGLFunctions@@QEAAXIIPEBH@Z"
"?glTexStorage2D@QOpenGLExtraFunctions@@QEAAXIHIHH@Z"
"?glTexStorage2DMultisample@QOpenGLExtraFunctions@@QEAAXIHIHHE@Z"
"?glTexStorage3D@QOpenGLExtraFunctions@@QEAAXIHIHHH@Z"
"?glTexStorage3DMultisample@QOpenGLExtraFunctions@@QEAAXIHIHHHE@Z"
"?glTexSubImage2D@QOpenGLFunctions@@QEAAXIHHHHHIIPEBX@Z"
"?glTexSubImage3D@QOpenGLExtraFunctions@@QEAAXIHHHHHHHIIPEBX@Z"
"?glTransformFeedbackVaryings@QOpenGLExtraFunctions@@QEAAXIHPEBQEBDI@Z"
"?glUniform1f@QOpenGLFunctions@@QEAAXHM@Z"
"?glUniform1fv@QOpenGLFunctions@@QEAAXHHPEBM@Z"
"?glUniform1i@QOpenGLFunctions@@QEAAXHH@Z"
"?glUniform1iv@QOpenGLFunctions@@QEAAXHHPEBH@Z"
"?glUniform1ui@QOpenGLExtraFunctions@@QEAAXHI@Z"
"?glUniform1uiv@QOpenGLExtraFunctions@@QEAAXHHPEBI@Z"
"?glUniform2f@QOpenGLFunctions@@QEAAXHMM@Z"
"?glUniform2fv@QOpenGLFunctions@@QEAAXHHPEBM@Z"
"?glUniform2i@QOpenGLFunctions@@QEAAXHHH@Z"
"?glUniform2iv@QOpenGLFunctions@@QEAAXHHPEBH@Z"
"?glUniform2ui@QOpenGLExtraFunctions@@QEAAXHII@Z"
"?glUniform2uiv@QOpenGLExtraFunctions@@QEAAXHHPEBI@Z"
"?glUniform3f@QOpenGLFunctions@@QEAAXHMMM@Z"
"?glUniform3fv@QOpenGLFunctions@@QEAAXHHPEBM@Z"
"?glUniform3i@QOpenGLFunctions@@QEAAXHHHH@Z"
"?glUniform3iv@QOpenGLFunctions@@QEAAXHHPEBH@Z"
"?glUniform3ui@QOpenGLExtraFunctions@@QEAAXHIII@Z"
"?glUniform3uiv@QOpenGLExtraFunctions@@QEAAXHHPEBI@Z"
"?glUniform4f@QOpenGLFunctions@@QEAAXHMMMM@Z"
"?glUniform4fv@QOpenGLFunctions@@QEAAXHHPEBM@Z"
"?glUniform4i@QOpenGLFunctions@@QEAAXHHHHH@Z"
"?glUniform4iv@QOpenGLFunctions@@QEAAXHHPEBH@Z"
"?glUniform4ui@QOpenGLExtraFunctions@@QEAAXHIIII@Z"
"?glUniform4uiv@QOpenGLExtraFunctions@@QEAAXHHPEBI@Z"
"?glUniformBlockBinding@QOpenGLExtraFunctions@@QEAAXIII@Z"
"?glUniformMatrix2fv@QOpenGLFunctions@@QEAAXHHEPEBM@Z"
"?glUniformMatrix2x3fv@QOpenGLExtraFunctions@@QEAAXHHEPEBM@Z"
"?glUniformMatrix2x4fv@QOpenGLExtraFunctions@@QEAAXHHEPEBM@Z"
"?glUniformMatrix3fv@QOpenGLFunctions@@QEAAXHHEPEBM@Z"
"?glUniformMatrix3x2fv@QOpenGLExtraFunctions@@QEAAXHHEPEBM@Z"
"?glUniformMatrix3x4fv@QOpenGLExtraFunctions@@QEAAXHHEPEBM@Z"
"?glUniformMatrix4fv@QOpenGLFunctions@@QEAAXHHEPEBM@Z"
"?glUniformMatrix4x2fv@QOpenGLExtraFunctions@@QEAAXHHEPEBM@Z"
"?glUniformMatrix4x3fv@QOpenGLExtraFunctions@@QEAAXHHEPEBM@Z"
"?glUnmapBuffer@QOpenGLExtraFunctions@@QEAAEI@Z"
"?glUseProgram@QOpenGLFunctions@@QEAAXI@Z"
"?glUseProgramStages@QOpenGLExtraFunctions@@QEAAXIII@Z"
"?glValidateProgram@QOpenGLFunctions@@QEAAXI@Z"
"?glValidateProgramPipeline@QOpenGLExtraFunctions@@QEAAXI@Z"
"?glVertexAttrib1f@QOpenGLFunctions@@QEAAXIM@Z"
"?glVertexAttrib1fv@QOpenGLFunctions@@QEAAXIPEBM@Z"
"?glVertexAttrib2f@QOpenGLFunctions@@QEAAXIMM@Z"
"?glVertexAttrib2fv@QOpenGLFunctions@@QEAAXIPEBM@Z"
"?glVertexAttrib3f@QOpenGLFunctions@@QEAAXIMMM@Z"
"?glVertexAttrib3fv@QOpenGLFunctions@@QEAAXIPEBM@Z"
"?glVertexAttrib4f@QOpenGLFunctions@@QEAAXIMMMM@Z"
"?glVertexAttrib4fv@QOpenGLFunctions@@QEAAXIPEBM@Z"
"?glVertexAttribBinding@QOpenGLExtraFunctions@@QEAAXII@Z"
"?glVertexAttribDivisor@QOpenGLExtraFunctions@@QEAAXII@Z"
"?glVertexAttribFormat@QOpenGLExtraFunctions@@QEAAXIHIEI@Z"
"?glVertexAttribI4i@QOpenGLExtraFunctions@@QEAAXIHHHH@Z"
"?glVertexAttribI4iv@QOpenGLExtraFunctions@@QEAAXIPEBH@Z"
"?glVertexAttribI4ui@QOpenGLExtraFunctions@@QEAAXIIIII@Z"
"?glVertexAttribI4uiv@QOpenGLExtraFunctions@@QEAAXIPEBI@Z"
"?glVertexAttribIFormat@QOpenGLExtraFunctions@@QEAAXIHII@Z"
"?glVertexAttribIPointer@QOpenGLExtraFunctions@@QEAAXIHIHPEBX@Z"
"?glVertexAttribPointer@QOpenGLFunctions@@QEAAXIHIEHPEBX@Z"
"?glVertexBindingDivisor@QOpenGLExtraFunctions@@QEAAXII@Z"
"?glViewport@QOpenGLFunctions@@QEAAXHHHH@Z"
"?glWaitSync@QOpenGLExtraFunctions@@QEAAXPEAU__GLsync@@I_K@Z"
"?globalGrabPosition@QEventPoint@@QEBA?AVQPointF@@XZ"
"?globalLastPosition@QEventPoint@@QEBA?AVQPointF@@XZ"
"?globalPos@QContextMenuEvent@@QEBAAEBVQPoint@@XZ"
"?globalPos@QEnterEvent@@QEBA?AVQPoint@@XZ"
"?globalPos@QHelpEvent@@QEBAAEBVQPoint@@XZ"
"?globalPos@QMouseEvent@@QEBA?AVQPoint@@XZ"
"?globalPos@QNativeGestureEvent@@QEBA?BVQPoint@@XZ"
"?globalPos@QTabletEvent@@QEBA?AVQPoint@@XZ"
"?globalPosF@QTabletEvent@@QEBA?BVQPointF@@XZ"
"?globalPosition@QEventPoint@@QEBA?AVQPointF@@XZ"
"?globalPosition@QSinglePointEvent@@QEBA?AVQPointF@@XZ"
"?globalPosition@QWindowPrivate@@QEBA?AVQPoint@@XZ"
"?globalPressPosition@QEventPoint@@QEBA?AVQPointF@@XZ"
"?globalResourceId@QRhiResource@@QEBA_KXZ"
"?globalShareContext@QOpenGLContext@@SAPEAV1@XZ"
"?globalX@QContextMenuEvent@@QEBAHXZ"
"?globalX@QEnterEvent@@QEBAHXZ"
"?globalX@QHelpEvent@@QEBAHXZ"
"?globalX@QMouseEvent@@QEBAHXZ"
"?globalX@QTabletEvent@@QEBAHXZ"
"?globalY@QContextMenuEvent@@QEBAHXZ"
"?globalY@QEnterEvent@@QEBAHXZ"
"?globalY@QHelpEvent@@QEBAHXZ"
"?globalY@QMouseEvent@@QEBAHXZ"
"?globalY@QTabletEvent@@QEBAHXZ"
"?glyph@QDistanceField@@QEBAIXZ"
"?glyphCache@QFontEngine@@QEBAPEAVQFontEngineGlyphCache@@PEBXW4GlyphFormat@1@AEBVQTransform@@AEBVQColor@@@Z"
"?glyphCount@QFontEngine@@UEBAHXZ"
"?glyphData@QFontEngine@@UEAAPEAUGlyph@1@IAEBUQFixedPoint@@W4GlyphFormat@1@AEBVQTransform@@@Z"
"?glyphFormat@QFontEngineGlyphCache@@QEBA?AW4GlyphFormat@QFontEngine@@XZ"
"?glyphIndex@QFontEngineMulti@@UEBAII@Z"
"?glyphIndex@QWindowsFontEngineDirectWrite@@UEBAII@Z"
"?glyphIndexes@QGlyphRun@@QEBA?AV?$QList@I@@XZ"
"?glyphIndexesForChars@QRawFont@@QEBA_NPEBVQChar@@HPEAIPEAH@Z"
"?glyphIndexesForString@QRawFont@@QEBA?AV?$QList@I@@AEBVQString@@@Z"
"?glyphMargin@QFontEngine@@UEAAHW4GlyphFormat@1@@Z"
"?glyphPadding@QTextureGlyphCache@@UEBAHXZ"
"?glyphRuns@QTextFragment@@QEBA?AV?$QList@VQGlyphRun@@@@HH@Z"
"?glyphRuns@QTextLayout@@QEBA?AV?$QList@VQGlyphRun@@@@HH@Z"
"?glyphRuns@QTextLayout@@QEBA?AV?$QList@VQGlyphRun@@@@HHV?$QFlags@W4GlyphRunRetrievalFlag@QTextLayout@@@@@Z"
"?glyphRuns@QTextLine@@QEBA?AV?$QList@VQGlyphRun@@@@HH@Z"
"?glyphRuns@QTextLine@@QEBA?AV?$QList@VQGlyphRun@@@@HHV?$QFlags@W4GlyphRunRetrievalFlag@QTextLayout@@@@@Z"
"?gotFocus@QFocusEvent@@QEBA_NXZ"
"?gpuFeatures@QOpenGLConfig@@SA?AV?$QSet@VQString@@@@AEBUGpu@1@AEBVQJsonDocument@@@Z"
"?gpuFeatures@QOpenGLConfig@@SA?AV?$QSet@VQString@@@@AEBUGpu@1@AEBVQString@@@Z"
"?gpuFeatures@QOpenGLConfig@@SA?AV?$QSet@VQString@@@@AEBUGpu@1@AEBVQString@@AEBVQVersionNumber@@11@Z"
"?gpuFeatures@QOpenGLConfig@@SA?AV?$QSet@VQString@@@@AEBUGpu@1@AEBVQString@@AEBVQVersionNumber@@1AEBVQJsonDocument@@@Z"
"?grabChanged@QPointingDevice@@QEBAXPEAVQObject@@W4GrabTransition@1@PEBVQPointerEvent@@AEBVQEventPoint@@@Z"
"?grabPosition@QEventPoint@@QEBA?AVQPointF@@XZ"
"?grabWindow@QPlatformScreen@@UEBA?AVQPixmap@@_KHHHH@Z"
"?grabWindow@QScreen@@QEAA?AVQPixmap@@_KHHHH@Z"
"?gradient@QBrush@@QEBAPEBVQGradient@@XZ"
"?graphicsBuffer@QPlatformBackingStore@@UEBAPEAVQPlatformGraphicsBuffer@@XZ"
"?graphicsDeviceReportedLost@QPlatformBackingStore@@QEAAXPEAVQWindow@@@Z"
"?green@QColor@@QEBAHXZ"
"?greenBufferSize@QSurfaceFormat@@QEBAHXZ"
"?greenF@QColor@@QEBAMXZ"
"?grossRoundUp@QGridLayoutEngine@@CAHH@Z"
"?group@QOpenGLSharedResource@@QEBAPEAVQOpenGLContextGroup@@XZ"
"?handle@QBackingStore@@QEBAPEAVQPlatformBackingStore@@XZ"
"?handle@QFontEngine@@UEBAPEAXXZ"
"?handle@QOffscreenSurface@@QEBAPEAVQPlatformOffscreenSurface@@XZ"
"?handle@QOpenGLContext@@QEBAPEAVQPlatformOpenGLContext@@XZ"
"?handle@QPixmap@@QEBAPEAVQPlatformPixmap@@XZ"
"?handle@QScreen@@QEBAPEAVQPlatformScreen@@XZ"
"?handle@QWindow@@QEBAPEAVQPlatformWindow@@XZ"
"?handle@QWindowsFontEngineDirectWrite@@UEBAPEAXXZ"
"?handleContentOrientationChange@QPlatformWindow@@UEAAXW4ScreenOrientation@Qt@@@Z"
"?handleContextMenuEvent@QWindowSystemInterface@@SAXPEAVQWindow@@_NAEBVQPoint@@2V?$QFlags@W4KeyboardModifier@Qt@@@@@Z"
"?handleCrossingEdges@QPathClipper@@AEAA_NAEAVQWingedEdge@@NW4ClipperMode@1@@Z"
"?handleDrag@QWindowSystemInterface@@SA?AVQPlatformDragQtResponse@@PEAVQWindow@@PEBVQMimeData@@AEBVQPoint@@V?$QFlags@W4DropAction@Qt@@@@V?$QFlags@W4MouseButton@Qt@@@@V?$QFlags@W4KeyboardModifier@Qt@@@@@Z"
"?handleDrop@QWindowSystemInterface@@SA?AVQPlatformDropQtResponse@@PEAVQWindow@@PEBVQMimeData@@AEBVQPoint@@V?$QFlags@W4DropAction@Qt@@@@V?$QFlags@W4MouseButton@Qt@@@@V?$QFlags@W4KeyboardModifier@Qt@@@@@Z"
"?handleEnterLeaveEvent@QWindowSystemInterface@@SAXPEAVQWindow@@0AEBVQPointF@@1@Z"
"?handleEnterWhatsThisEvent@QWindowSystemInterface@@SAXXZ"
"?handleExtendedKeyEvent@QWindowSystemInterface@@SA_NPEAVQWindow@@KW4Type@QEvent@@HV?$QFlags@W4KeyboardModifier@Qt@@@@IIIAEBVQString@@_NG@Z"
"?handleExtendedKeyEvent@QWindowSystemInterface@@SA_NPEAVQWindow@@W4Type@QEvent@@HV?$QFlags@W4KeyboardModifier@Qt@@@@IIIAEBVQString@@_NG@Z"
"?handleFileOpenEvent@QWindowSystemInterface@@SAXAEBVQString@@@Z"
"?handleFileOpenEvent@QWindowSystemInterface@@SAXAEBVQUrl@@@Z"
"?handleGestureEvent@QWindowSystemInterface@@SA_NPEAVQWindow@@KPEBVQPointingDevice@@W4NativeGestureType@Qt@@AEBVQPointF@@3H@Z"
"?handleGestureEventWithRealValue@QWindowSystemInterface@@SA_NPEAVQWindow@@KPEBVQPointingDevice@@W4NativeGestureType@Qt@@NAEBVQPointF@@3H@Z"
"?handleGestureEventWithValueAndDelta@QWindowSystemInterface@@SA_NPEAVQWindow@@KPEBVQPointingDevice@@W4NativeGestureType@Qt@@NAEBVQPointF@@33H@Z"
"?handleNativeEvent@QWindowSystemInterface@@SA_NPEAVQWindow@@AEBVQByteArray@@PEAXPEA_J@Z"
"?handlePaletteChanged@QGuiApplicationPrivate@@MEAAXPEBD@Z"
"?handlePlatformPanelEvent@QWindowSystemInterface@@SAXPEAVQWindow@@@Z"
"?handlePrimaryScreenChanged@QWindowSystemInterface@@SAXPEAVQPlatformScreen@@@Z"
"?handleResizeEvent@QPaintDeviceWindowPrivate@@UEAAXXZ"
"?handleScreenAdded@QWindowSystemInterface@@SAXPEAVQPlatformScreen@@_N@Z"
"?handleScreenGeometryChange@QWindowSystemInterface@@SAXPEAVQScreen@@AEBVQRect@@1@Z"
"?handleScreenLogicalDotsPerInchChange@QWindowSystemInterface@@SAXPEAVQScreen@@NN@Z"
"?handleScreenOrientationChange@QWindowSystemInterface@@SAXPEAVQScreen@@W4ScreenOrientation@Qt@@@Z"
"?handleScreenRefreshRateChange@QWindowSystemInterface@@SAXPEAVQScreen@@N@Z"
"?handleScreenRemoved@QWindowSystemInterface@@SAXPEAVQPlatformScreen@@@Z"
"?handleShortcutEvent@QWindowSystemInterface@@SA_NPEAVQWindow@@KHV?$QFlags@W4KeyboardModifier@Qt@@@@IIIAEBVQString@@_NG@Z"
"?handleTabletEnterLeaveProximityEvent@QWindowSystemInterface@@SA_NPEAVQWindow@@KPEBVQPointingDevice@@_NAEBVQPointF@@3V?$QFlags@W4MouseButton@Qt@@@@HHNNHV?$QFlags@W4KeyboardModifier@Qt@@@@@Z"
"?handleTabletEnterLeaveProximityEvent@QWindowSystemInterface@@SA_NPEAVQWindow@@PEBVQPointingDevice@@_NAEBVQPointF@@3V?$QFlags@W4MouseButton@Qt@@@@HHNNHV?$QFlags@W4KeyboardModifier@Qt@@@@@Z"
"?handleTabletEnterProximityEvent@QWindowSystemInterface@@SAXHH_J@Z"
"?handleTabletEnterProximityEvent@QWindowSystemInterface@@SA_NKHH_J@Z"
"?handleTabletEvent@QWindowSystemInterface@@SA_NPEAVQWindow@@AEBVQPointF@@1HHV?$QFlags@W4MouseButton@Qt@@@@NHHNNH_JV?$QFlags@W4KeyboardModifier@Qt@@@@@Z"
"?handleTabletEvent@QWindowSystemInterface@@SA_NPEAVQWindow@@KAEBVQPointF@@1HHV?$QFlags@W4MouseButton@Qt@@@@NHHNNH_JV?$QFlags@W4KeyboardModifier@Qt@@@@@Z"
"?handleTabletEvent@QWindowSystemInterface@@SA_NPEAVQWindow@@KPEBVQPointingDevice@@AEBVQPointF@@2V?$QFlags@W4MouseButton@Qt@@@@NHHNNHV?$QFlags@W4KeyboardModifier@Qt@@@@@Z"
"?handleTabletEvent@QWindowSystemInterface@@SA_NPEAVQWindow@@PEBVQPointingDevice@@AEBVQPointF@@2V?$QFlags@W4MouseButton@Qt@@@@NHHNNHV?$QFlags@W4KeyboardModifier@Qt@@@@@Z"
"?handleTabletLeaveProximityEvent@QWindowSystemInterface@@SAXHH_J@Z"
"?handleTabletLeaveProximityEvent@QWindowSystemInterface@@SA_NKHH_J@Z"
"?handleThemeChanged@QGuiApplicationPrivate@@MEAAXXZ"
"?handleUpdateEvent@QPaintDeviceWindowPrivate@@QEAAXXZ"
"?handleWhatsThis@QShortcutPrivate@@UEAA_NXZ"
"?handleWheelEvent@QWindowSystemInterface@@SA_NPEAVQWindow@@AEBVQPointF@@1VQPoint@@2V?$QFlags@W4KeyboardModifier@Qt@@@@W4ScrollPhase@Qt@@W4MouseEventSource@7@@Z"
"?handleWheelEvent@QWindowSystemInterface@@SA_NPEAVQWindow@@KAEBVQPointF@@1VQPoint@@2V?$QFlags@W4KeyboardModifier@Qt@@@@W4ScrollPhase@Qt@@W4MouseEventSource@7@_N@Z"
"?handleWheelEvent@QWindowSystemInterface@@SA_NPEAVQWindow@@KPEBVQPointingDevice@@AEBVQPointF@@2VQPoint@@3V?$QFlags@W4KeyboardModifier@Qt@@@@W4ScrollPhase@Qt@@W4MouseEventSource@8@_N@Z"
"?handlerForObject@QAbstractTextDocumentLayout@@QEBAPEAVQTextObjectInterface@@H@Z"
"?harfbuzzFace@QFontEngine@@QEBAPEAXXZ"
"?harfbuzzFont@QFontEngine@@QEBAPEAXXZ"
"?hasAlpha@QPixmap@@QEBA_NXZ"
"?hasAlpha@QSurfaceFormat@@QEBA_NXZ"
"?hasAlphaChannel@QBlittablePlatformPixmap@@UEBA_NXZ"
"?hasAlphaChannel@QImage@@QEBA_NXZ"
"?hasAlphaChannel@QPixmap@@QEBA_NXZ"
"?hasAlphaChannel@QRasterPlatformPixmap@@UEBA_NXZ"
"?hasCapability@QInputDevice@@QEBA_NW4Capability@1@@Z"
"?hasCapability@QPlatformInputContext@@UEBA_NW4Capability@1@@Z"
"?hasCapability@QPlatformIntegration@@UEBA_NW4Capability@1@@Z"
"?hasCapability@QPlatformServices@@UEBA_NW4Capability@1@@Z"
"?hasChangedCore@QAbstractLayoutStyleInfo@@UEBA_NXZ"
"?hasChildren@QFileSystemModel@@UEBA_NAEBVQModelIndex@@@Z"
"?hasChildren@QStandardItem@@QEBA_NXZ"
"?hasChildren@QStandardItemModel@@UEBA_NAEBVQModelIndex@@@Z"
"?hasClipOperations@QPaintEngineExPrivate@@QEBA_NXZ"
"?hasClipping@QPainter@@QEBA_NXZ"
"?hasComplexSelection@QTextCursor@@QEBA_NXZ"
"?hasDepthTest@QRhiGraphicsPipeline@@QEBA_NXZ"
"?hasDepthWrite@QRhiGraphicsPipeline@@QEBA_NXZ"
"?hasDynamicConstraint@QGridLayoutEngine@@QEBA_NXZ"
"?hasDynamicConstraint@QGridLayoutItem@@UEBA_NXZ"
"?hasExplicitOpen@QVectorPath@@QEBA_NXZ"
"?hasExtension@QOpenGLContext@@QEBA_NAEBVQByteArray@@@Z"
"?hasFamily@QFontDatabase@@SA_NAEBVQString@@@Z"
"?hasFeature@QPaintEngine@@QEBA_NV?$QFlags@W4PaintEngineFeature@QPaintEngine@@@@@Z"
"?hasFormat@QInternalMimeData@@UEBA_NAEBVQString@@@Z"
"?hasFormatCached@QTextFormatCollection@@QEBA_NAEBVQTextFormat@@@Z"
"?hasFormatHelper@QInternalMimeData@@SA_NAEBVQString@@PEBVQMimeData@@@Z"
"?hasFormats@QTextEngine@@QEBA_NXZ"
"?hasHandlers@QAbstractTextDocumentLayoutPrivate@@QEBA_NXZ"
"?hasImplicitClose@QVectorPath@@QEBA_NXZ"
"?hasInternalCaching@QFontEngine@@UEBA_NXZ"
"?hasNext@Parser@QCss@@QEBA_NXZ"
"?hasOpenGLExtension@QOpenGLExtensions@@QEBA_NW4OpenGLExtension@1@@Z"
"?hasOpenGLFeature@QOpenGLFunctions@@QEBA_NW4OpenGLFeature@1@@Z"
"?hasOptimalCapacity@QRhiResourceUpdateBatch@@QEBA_NXZ"
"?hasPendingGlyphs@QTextureGlyphCache@@QEBA_NXZ"
"?hasPendingUpdateRequest@QPlatformWindow@@QEBA_NXZ"
"?hasPixelDelta@QWheelEvent@@QEBA_NXZ"
"?hasPopulatedFont@QWindowsDirectWriteFontDatabase@@QEBA_NAEBVQString@@@Z"
"?hasProperty@QTextFormat@@QEBA_NH@Z"
"?hasSelection@QTextCursor@@QEBA_NXZ"
"?hasShortcutForKeySequence@QShortcutMap@@QEBA_NAEBVQKeySequence@@@Z"
"?hasStaticContents@QBackingStore@@QEBA_NXZ"
"?hasStencilTest@QRhiGraphicsPipeline@@QEBA_NXZ"
"?hasThemeIcon@QIcon@@SA_NAEBVQString@@@Z"
"?hasThemeIcon@QIcon@@SA_NW4ThemeIcon@1@@Z"
"?hasUnreliableGlyphOutline@QFontEngine@@UEBA_NXZ"
"?hasUserTheme@QIconLoader@@QEBA_NXZ"
"?hasVariableAxis@QFontPrivate@@QEBA_NUTag@QFont@@M@Z"
"?hasWindingFill@QVectorPath@@QEBA_NXZ"
"?hash@Key@QPixmapCache@@AEBA_K_K@Z"
"?hb_qt_face_get_for_engine@@YAPEAUhb_face_t@@PEAVQFontEngine@@@Z"
"?hb_qt_font_get_for_engine@@YAPEAUhb_font_t@@PEAVQFontEngine@@@Z"
"?hb_qt_font_get_use_design_metrics@@YAIPEAUhb_font_t@@@Z"
"?hb_qt_font_set_use_design_metrics@@YAXPEAUhb_font_t@@I@Z"
"?hdc@QWindowsNativeImage@@QEBAPEAUHDC__@@XZ"
"?hdr@QColorTrc@@QEBAAEBVQColorTransferGenericFunction@@XZ"
"?hdrInfo@QRhiSwapChain@@UEAA?AUQRhiSwapChainHdrInfo@@XZ"
"?headerData@QFileSystemModel@@UEBA?AVQVariant@@HW4Orientation@Qt@@H@Z"
"?headerData@QStandardItemModel@@UEBA?AVQVariant@@HW4Orientation@Qt@@H@Z"
"?headerRowCount@QTextTableFormat@@QEBAHXZ"
"?headingLevel@QTextBlockFormat@@QEBAHXZ"
"?height@QDistanceField@@QEBAHXZ"
"?height@QFontMetrics@@QEBAHXZ"
"?height@QFontMetricsF@@QEBANXZ"
"?height@QImage@@QEBAHXZ"
"?height@QPaintDevice@@QEBAHXZ"
"?height@QPixmap@@QEBAHXZ"
"?height@QPlatformPixmap@@QEBAHXZ"
"?height@QTextFrameFormat@@QEBA?AVQTextLength@@XZ"
"?height@QTextImageFormat@@QEBANXZ"
"?height@QTextInlineObject@@QEBANXZ"
"?height@QTextLine@@QEBANXZ"
"?height@QWindow@@QEBAHXZ"
"?height@QWindowsNativeImage@@QEBAHXZ"
"?heightChanged@QWindow@@QEAAXH@Z"
"?heightMM@QPaintDevice@@QEBAHXZ"
"?hiResGlobalX@QTabletEvent@@QEBANXZ"
"?hiResGlobalY@QTabletEvent@@QEBANXZ"
"?hide@QInputMethod@@QEAAXXZ"
"?hide@QWindow@@QEAAXXZ"
"?hideEvent@QWindow@@MEAAXPEAVQHideEvent@@@Z"
"?hideInputPanel@QPlatformInputContext@@UEAAXXZ"
"?hideModalWindow@QGuiApplicationPrivate@@SAXPEAVQWindow@@@Z"
"?highByte@QFontEngineMulti@@SAEI@Z"
"?highDpiScaleFactorRoundingPolicy@QGuiApplication@@SA?AW4HighDpiScaleFactorRoundingPolicy@Qt@@XZ"
"?highDpiScaleFactorRoundingPolicy@QGuiApplicationPrivate@@2W4HighDpiScaleFactorRoundingPolicy@Qt@@A"
"?highlight@QPalette@@QEBAAEBVQBrush@@XZ"
"?highlightedText@QPalette@@QEBAAEBVQBrush@@XZ"
"?hintingPreference@QFont@@QEBA?AW4HintingPreference@1@XZ"
"?hintingPreference@QRawFont@@QEBA?AW4HintingPreference@QFont@@XZ"
"?hintingPreferenceToRenderingMode@QWindowsFontEngineDirectWrite@@AEBA?AW4DWRITE_RENDERING_MODE@@AEBUQFontDef@@@Z"
"?hints@QVectorPath@@QEBAIXZ"
"?history@QFileDialogOptions@@QEBA?AV?$QList@VQString@@@@XZ"
"?hitTest@QTextDocumentLayout@@UEBAHAEBVQPointF@@W4HitTestAccuracy@Qt@@@Z"
"?horizontalAdvance@QFontMetrics@@QEBAHAEBVQString@@AEBVQTextOption@@@Z"
"?horizontalAdvance@QFontMetrics@@QEBAHAEBVQString@@H@Z"
"?horizontalAdvance@QFontMetrics@@QEBAHVQChar@@@Z"
"?horizontalAdvance@QFontMetricsF@@QEBANAEBVQString@@AEBVQTextOption@@@Z"
"?horizontalAdvance@QFontMetricsF@@QEBANAEBVQString@@H@Z"
"?horizontalAdvance@QFontMetricsF@@QEBANVQChar@@@Z"
"?horizontalAdvance@QTextLine@@QEBANXZ"
"?horizontalHeaderItem@QStandardItemModel@@QEBAPEAVQStandardItem@@H@Z"
"?hotSpot@QCursor@@QEBA?AVQPoint@@XZ"
"?hotSpot@QDrag@@QEBA?AVQPoint@@XZ"
"?hotspot@QPlatformCursorImage@@QEBA?AVQPoint@@XZ"
"?hover@QAction@@QEAAXXZ"
"?hovered@QAction@@QEAAXXZ"
"?hovered@QActionGroup@@QEAAXPEAVQAction@@@Z"
"?hovered@QPlatformMenuItem@@QEAAXXZ"
"?href@QWhatsThisClickedEvent@@QEBA?AVQString@@XZ"
"?hslHue@QColor@@QEBAHXZ"
"?hslHueF@QColor@@QEBAMXZ"
"?hslSaturation@QColor@@QEBAHXZ"
"?hslSaturationF@QColor@@QEBAMXZ"
"?hsvHue@QColor@@QEBAHXZ"
"?hsvHueF@QColor@@QEBAMXZ"
"?hsvSaturation@QColor@@QEBAHXZ"
"?hsvSaturationF@QColor@@QEBAMXZ"
"?hue@QColor@@QEBAHXZ"
"?hueF@QColor@@QEBAMXZ"
"?hyperlinkInterface@QAccessibleInterface@@QEAAPEAVQAccessibleHyperlinkInterface@@XZ"
"?iccProfile@QColorSpace@@QEBA?AVQByteArray@@XZ"
"?icon@QAbstractFileIconProvider@@UEBA?AVQIcon@@AEBVQFileInfo@@@Z"
"?icon@QAbstractFileIconProvider@@UEBA?AVQIcon@@W4IconType@1@@Z"
"?icon@QAction@@QEBA?AVQIcon@@XZ"
"?icon@QFileSystemModelPrivate@@QEBA?AVQIcon@@AEBVQModelIndex@@@Z"
"?icon@QStandardItem@@QEBA?AVQIcon@@XZ"
"?icon@QWindow@@QEBA?AVQIcon@@XZ"
"?iconEngine@QIconLoader@@QEBAPEAVQIconEngine@@AEBVQString@@@Z"
"?iconName@QIconEngine@@UEAA?AVQString@@XZ"
"?iconPixmap@QMessageDialogOptions@@QEBA?AVQPixmap@@XZ"
"?iconProvider@QFileInfoGatherer@@QEBAPEAVQAbstractFileIconProvider@@XZ"
"?iconProvider@QFileSystemModel@@QEBAPEAVQAbstractFileIconProvider@@XZ"
"?iconText@QAction@@QEBA?AVQString@@XZ"
"?iconValue@Declaration@QCss@@QEBA?AVQIcon@@XZ"
"?id@QEventPoint@@QEBAHXZ"
"?id@QFontCache@@QEBAHXZ"
"?id@QOpenGLSharedResourceGuard@@QEBAIXZ"
"?id@QPageSize@@QEBA?AW4PageSizeId@1@XZ"
"?id@QPageSize@@SA?AW4PageSizeId@1@AEBVQSize@@W4SizeMatchPolicy@1@@Z"
"?id@QPageSize@@SA?AW4PageSizeId@1@AEBVQSizeF@@W4Unit@1@W4SizeMatchPolicy@1@@Z"
"?id@QPageSize@@SA?AW4PageSizeId@1@H@Z"
"?id@QShortcut@@QEBAHXZ"
"?id@QUndoCommand@@UEBAHXZ"
"?idForInterface@QAccessibleCache@@QEBAIPEAVQAccessibleInterface@@@Z"
"?idForObject@QAccessibleCache@@QEBAIPEAVQObject@@@Z"
"?idealWidth@QTextDocument@@QEBANXZ"
"?idealWidth@QTextDocumentLayout@@QEBANXZ"
"?ignore@QDragMoveEvent@@QEAAXAEBVQRect@@@Z"
"?ignore@QDragMoveEvent@@QEAAXXZ"
"?image@QClipboard@@QEBA?AVQImage@@W4Mode@1@@Z"
"?image@QImageTextureGlyphCache@@QEBAAEBVQImage@@XZ"
"?image@QPlatformCursorImage@@QEAAPEAVQImage@@XZ"
"?image@QRhiTextureSubresourceUploadDescription@@QEBA?AVQImage@@XZ"
"?image@QTextImageHandler@@QEAA?AVQImage@@PEAVQTextDocument@@AEBVQTextImageFormat@@@Z"
"?image@QWindowsNativeImage@@QEAAAEAVQImage@@XZ"
"?image@QWindowsNativeImage@@QEBAAEBVQImage@@XZ"
"?imageAt@QAbstractTextDocumentLayout@@QEBA?AVQString@@AEBVQPointF@@@Z"
"?imageCount@QImageIOHandler@@UEBAHXZ"
"?imageCount@QImageReader@@QEBAHXZ"
"?imageForGlyph@QWindowsFontEngineDirectWrite@@AEAA?AVQImage@@IAEBUQFixedPoint@@HAEBVQTransform@@AEBVQColor@@@Z"
"?imageFormat@QImageReader@@QEBA?AW4Format@QImage@@XZ"
"?imageFormat@QImageReader@@SA?AVQByteArray@@AEBVQString@@@Z"
"?imageFormat@QImageReader@@SA?AVQByteArray@@PEAVQIODevice@@@Z"
"?imageFormat@QTextFormatCollection@@QEBA?AVQTextImageFormat@@H@Z"
"?imageFormatsForMimeType@QImageReader@@SA?AV?$QList@VQByteArray@@@@AEBVQByteArray@@@Z"
"?imageFormatsForMimeType@QImageWriter@@SA?AV?$QList@VQByteArray@@@@AEBVQByteArray@@@Z"
"?imageInterface@QAccessibleInterface@@QEAAPEAVQAccessibleImageInterface@@XZ"
"?imageLoad@QRhiShaderResourceBinding@@SA?AV1@HV?$QFlags@W4StageFlag@QRhiShaderResourceBinding@@@@PEAVQRhiTexture@@H@Z"
"?imageLoadStore@QRhiShaderResourceBinding@@SA?AV1@HV?$QFlags@W4StageFlag@QRhiShaderResourceBinding@@@@PEAVQRhiTexture@@H@Z"
"?imageStore@QRhiShaderResourceBinding@@SA?AV1@HV?$QFlags@W4StageFlag@QRhiShaderResourceBinding@@@@PEAVQRhiTexture@@H@Z"
"?import@QTextMarkdownImporter@@QEAAXAEBVQString@@@Z"
"?inFont@QFontMetrics@@QEBA_NVQChar@@@Z"
"?inFont@QFontMetricsF@@QEBA_NVQChar@@@Z"
"?inFontUcs4@QFontMetrics@@QEBA_NI@Z"
"?inFontUcs4@QFontMetricsF@@QEBA_NI@Z"
"?increaseAction@QAccessibleActionInterface@@SAAEBVQString@@XZ"
"?increaseCost@QFontCache@@AEAAXI@Z"
"?indent@QTextBlockFormat@@QEBAHXZ"
"?indent@QTextListFormat@@QEBAHXZ"
"?indentWidth@QTextDocument@@QEBANXZ"
"?index@QFileSystemModel@@QEBA?AVQModelIndex@@AEBVQString@@H@Z"
"?index@QFileSystemModel@@UEBA?AVQModelIndex@@HHAEBV2@@Z"
"?index@QFileSystemModelPrivate@@QEAA?AVQModelIndex@@AEBVQString@@H@Z"
"?index@QFileSystemModelPrivate@@QEBA?AVQModelIndex@@PEBVQFileSystemNode@1@H@Z"
"?index@QStandardItem@@QEBA?AVQModelIndex@@XZ"
"?index@QStandardItemModel@@UEBA?AVQModelIndex@@HHAEBV2@@Z"
"?index@QUndoStack@@QEBAHXZ"
"?indexChanged@QUndoGroup@@QEAAXH@Z"
"?indexChanged@QUndoStack@@QEAAXH@Z"
"?indexForFormat@QTextFormatCollection@@QEAAHAEBVQTextFormat@@@Z"
"?indexFormats@QTextEngine@@AEAAXXZ"
"?indexFromItem@QStandardItemModel@@QEBA?AVQModelIndex@@PEBVQStandardItem@@@Z"
"?indexOfChild@QAccessibleApplication@@UEBAHPEBVQAccessibleInterface@@@Z"
"?informativeText@QMessageDialogOptions@@QEBA?AVQString@@XZ"
"?init@Parser@QCss@@QEAAXAEBVQString@@_N@Z"
"?init@QBrush@@AEAAXAEBVQColor@@W4BrushStyle@Qt@@@Z"
"?init@QFileSystemModelPrivate@@QEAAXXZ"
"?init@QGuiApplicationPrivate@@QEAAXXZ"
"?init@QPainterState@@QEAAXPEAVQPainter@@@Z"
"?init@QPalette@@AEAAXXZ"
"?init@QRasterPaintEngine@@AEAAXXZ"
"?init@QTextDocumentPrivate@@QEAAXXZ"
"?init@QTextEngine@@CAXPEAV1@@Z"
"?init@QTextureFileReader@@AEAA_NXZ"
"?init@QWindowPrivate@@QEAAXPEAVQWindow@@PEAVQScreen@@@Z"
"?init@QWindowsFontDatabaseBase@@CA_NV?$QSharedPointer@VQWindowsFontEngineData@@@@@Z"
"?initFontInfo@QWindowsFontEngineDirectWrite@@QEAAXAEBUQFontDef@@H@Z"
"?initHighDpiScaling@QHighDpiScaling@@SAXXZ"
"?initPainter@QPaintDevice@@MEBAXPEAVQPainter@@@Z"
"?initialDirectory@QFileDialogOptions@@QEBA?AVQUrl@@XZ"
"?initialGeometry@QPlatformWindow@@SA?AVQRect@@PEBVQWindow@@AEBV2@HHPEAPEBVQScreen@@@Z"
"?initialize@QFont@@SAXXZ"
"?initialize@QPlatformAccessibility@@UEAAXXZ"
"?initialize@QPlatformIntegration@@UEAAXXZ"
"?initialize@QPlatformOpenGLContext@@UEAAXXZ"
"?initialize@QPlatformWindow@@UEAAXXZ"
"?initializeHeightMetrics@QFontEngine@@MEBAXXZ"
"?initializeHeightMetrics@QWindowsFontEngineDirectWrite@@UEBAXXZ"
"?initializeOpenGLFunctions@QOpenGLFunctions@@QEAAXXZ"
"?initializeSystemPalette@QPlatformThemePrivate@@QEAAXXZ"
"?initiallySelectedFiles@QFileDialogOptions@@QEBA?AV?$QList@VQUrl@@@@XZ"
"?initiallySelectedMimeTypeFilter@QFileDialogOptions@@QEBA?AVQString@@XZ"
"?initiallySelectedNameFilter@QFileDialogOptions@@QEBA?AVQString@@XZ"
"?inline_type@QTransform@@AEBA?AW4TransformationType@1@XZ"
"?inputBuiltinVariables@QShaderDescription@@QEBA?AV?$QList@UBuiltinVariable@QShaderDescription@@@@XZ"
"?inputContext@QPlatformIntegration@@UEBAPEAVQPlatformInputContext@@XZ"
"?inputDeviceManager@QGuiApplicationPrivate@@SAPEAVQInputDeviceManager@@XZ"
"?inputDirection@QInputMethod@@QEBA?AW4LayoutDirection@Qt@@XZ"
"?inputDirection@QPlatformInputContext@@UEBA?AW4LayoutDirection@Qt@@XZ"
"?inputDirectionChanged@QInputMethod@@QEAAXW4LayoutDirection@Qt@@@Z"
"?inputItemClipRectangle@QInputMethod@@QEBA?AVQRectF@@XZ"
"?inputItemClipRectangle@QPlatformInputContext@@SA?AVQRectF@@XZ"
"?inputItemClipRectangleChanged@QInputMethod@@QEAAXXZ"
"?inputItemRectangle@QInputMethod@@QEBA?AVQRectF@@XZ"
"?inputItemRectangle@QPlatformInputContext@@SA?AVQRectF@@XZ"
"?inputItemTransform@QInputMethod@@QEBA?AVQTransform@@XZ"
"?inputMethod@QGuiApplication@@SAPEAVQInputMethod@@XZ"
"?inputMethodAccepted@QPlatformInputContext@@QEBA_NXZ"
"?inputVariables@QShaderDescription@@QEBA?AV?$QList@UInOutVariable@QShaderDescription@@@@XZ"
"?insert@QAccessibleCache@@QEBAIPEAVQObject@@PEAVQAccessibleInterface@@@Z"
"?insert@QOpenGLMultiGroupSharedResource@@QEAAXPEAVQOpenGLContext@@PEAVQOpenGLSharedResource@@@Z"
"?insert@QPixmapCache@@SA?AVKey@1@AEBVQPixmap@@@Z"
"?insert@QPixmapCache@@SA_NAEBVQString@@AEBVQPixmap@@@Z"
"?insert@QTextDocumentPrivate@@QEAAXHHHH@Z"
"?insert@QTextDocumentPrivate@@QEAAXHVQChar@@H@Z"
"?insert@QTextDocumentPrivate@@QEAAXHVQStringView@@H@Z"
"?insertBlock@QTextCursor@@QEAAXAEBVQTextBlockFormat@@@Z"
"?insertBlock@QTextCursor@@QEAAXAEBVQTextBlockFormat@@AEBVQTextCharFormat@@@Z"
"?insertBlock@QTextCursor@@QEAAXXZ"
"?insertBlock@QTextCursorPrivate@@QEAAXAEBVQTextBlockFormat@@AEBVQTextCharFormat@@@Z"
"?insertBlock@QTextDocumentPrivate@@QEAAHHHHW4Operation@QTextUndoCommand@@@Z"
"?insertBlock@QTextDocumentPrivate@@QEAAHVQChar@@HHHW4Operation@QTextUndoCommand@@@Z"
"?insertBlock@QTextMarkdownImporter@@AEAAXXZ"
"?insertColumn@QStandardItem@@QEAAXHAEBV?$QList@PEAVQStandardItem@@@@@Z"
"?insertColumn@QStandardItemModel@@QEAAXHAEBV?$QList@PEAVQStandardItem@@@@@Z"
"?insertColumn@QStandardItemModel@@QEAA_NHAEBVQModelIndex@@@Z"
"?insertColumns@QStandardItem@@QEAAXHH@Z"
"?insertColumns@QStandardItemModel@@UEAA_NHHAEBVQModelIndex@@@Z"
"?insertColumns@QTextTable@@QEAAXHH@Z"
"?insertEngine@QFontCache@@QEAAXAEBUKey@1@PEAVQFontEngine@@_N@Z"
"?insertEngineData@QFontCache@@QEAAXAEBUQFontDef@@PEAVQFontEngineData@@@Z"
"?insertFragment@QTextCursor@@QEAAXAEBVQTextDocumentFragment@@@Z"
"?insertFrame@QTextCursor@@QEAAPEAVQTextFrame@@AEBVQTextFrameFormat@@@Z"
"?insertFrame@QTextDocumentPrivate@@QEAAPEAVQTextFrame@@HHAEBVQTextFrameFormat@@@Z"
"?insertHtml@QTextCursor@@QEAAXAEBVQString@@@Z"
"?insertImage@QTextCursor@@QEAAXAEBVQImage@@AEBVQString@@@Z"
"?insertImage@QTextCursor@@QEAAXAEBVQString@@@Z"
"?insertImage@QTextCursor@@QEAAXAEBVQTextImageFormat@@@Z"
"?insertImage@QTextCursor@@QEAAXAEBVQTextImageFormat@@W4Position@QTextFrameFormat@@@Z"
"?insertItem@QGridLayoutEngine@@QEAAXPEAVQGridLayoutItem@@H@Z"
"?insertList@QTextCursor@@QEAAPEAVQTextList@@AEBVQTextListFormat@@@Z"
"?insertList@QTextCursor@@QEAAPEAVQTextList@@W4Style@QTextListFormat@@@Z"
"?insertMarkdown@QTextCursor@@QEAAXAEBVQString@@V?$QFlags@W4MarkdownFeature@QTextDocument@@@@@Z"
"?insertOrRemoveRows@QGridLayoutEngine@@AEAAXHHW4Orientation@Qt@@@Z"
"?insertOrRemoveRows@QGridLayoutItem@@QEAAXHHW4Orientation@Qt@@@Z"
"?insertRow@QGridLayoutEngine@@QEAAXHW4Orientation@Qt@@@Z"
"?insertRow@QStandardItem@@QEAAXHAEBV?$QList@PEAVQStandardItem@@@@@Z"
"?insertRow@QStandardItem@@QEAAXHPEAV1@@Z"
"?insertRow@QStandardItemModel@@QEAAXHAEBV?$QList@PEAVQStandardItem@@@@@Z"
"?insertRow@QStandardItemModel@@QEAAXHPEAVQStandardItem@@@Z"
"?insertRow@QStandardItemModel@@QEAA_NHAEBVQModelIndex@@@Z"
"?insertRows@QStandardItem@@QEAAXHAEBV?$QList@PEAVQStandardItem@@@@@Z"
"?insertRows@QStandardItem@@QEAAXHH@Z"
"?insertRows@QStandardItemModel@@UEAA_NHHAEBVQModelIndex@@@Z"
"?insertRows@QTextTable@@QEAAXHH@Z"
"?insertSubstitution@QFont@@SAXAEBVQString@@0@Z"
"?insertSubstitutions@QFont@@SAXAEBVQString@@AEBV?$QList@VQString@@@@@Z"
"?insertTable@QTextCursor@@QEAAPEAVQTextTable@@HH@Z"
"?insertTable@QTextCursor@@QEAAPEAVQTextTable@@HHAEBVQTextTableFormat@@@Z"
"?insertText@QTextCursor@@QEAAXAEBVQString@@@Z"
"?insertText@QTextCursor@@QEAAXAEBVQString@@AEBVQTextCharFormat@@@Z"
"?insert_block@QTextDocumentPrivate@@AEAAHHIHHW4Operation@QTextUndoCommand@@H@Z"
"?insert_frame@QTextDocumentPrivate@@AEAAXPEAVQTextFrame@@@Z"
"?insert_string@QTextDocumentPrivate@@AEAAXHIIHW4Operation@QTextUndoCommand@@@Z"
"?insertionPointsForLine@QTextEngine@@QEAA?AV?$vector@HV?$allocator@H@std@@@std@@H@Z"
"?installActivationObserver@QAccessible@@SAXPEAVActivationObserver@1@@Z"
"?installFactory@QAccessible@@SAXP6APEAVQAccessibleInterface@@AEBVQString@@PEAVQObject@@@Z@Z"
"?installRootObjectHandler@QAccessible@@SAP6AXPEAVQObject@@@ZP6AX0@Z@Z"
"?installUpdateHandler@QAccessible@@SAP6AXPEAVQAccessibleEvent@@@ZP6AX0@Z@Z"
"?installWindowSystemEventHandler@QWindowSystemInterfacePrivate@@SAXPEAVQWindowSystemEventHandler@@@Z"
"?instance@QAccessibleCache@@SAPEAV1@XZ"
"?instance@QFontCache@@SAPEAV1@XZ"
"?instance@QFontDatabasePrivate@@SAPEAV1@XZ"
"?instance@QGuiApplicationPrivate@@SAPEAV1@XZ"
"?instance@QIconLoader@@SAPEAV1@XZ"
"?instance@QImagePixmapCleanupHooks@@SAPEAV1@XZ"
"?instance@QKeyMapper@@SAPEAV1@XZ"
"?instanceStepRate@QRhiVertexInputBinding@@QEBAIXZ"
"?intProperty@QTextFormat@@QEBAHH@Z"
"?intValue@Declaration@QCss@@QEBA_NPEAHPEBD@Z"
"?interfaceForId@QAccessibleCache@@QEBAPEAVQAccessibleInterface@@I@Z"
"?interface_cast@QAccessibleInterface@@UEAAPEAXW4InterfaceType@QAccessible@@@Z"
"?internalGridColumnCount@QGridLayoutEngine@@AEBAHXZ"
"?internalGridRowCount@QGridLayoutEngine@@AEBAHXZ"
"?interpolationMode@QGradient@@QEBA?AW4InterpolationMode@1@XZ"
"?intersect@QPathClipper@@QEAA_NXZ"
"?intersect@QPathClipper@@SA?AVQPainterPath@@AEBV2@AEBVQRectF@@@Z"
"?intersected@QPainterPath@@QEBA?AV1@AEBV1@@Z"
"?intersected@QPolygon@@QEBA?AV1@AEBV1@@Z"
"?intersected@QPolygonF@@QEBA?AV1@AEBV1@@Z"
"?intersected@QRegion@@QEBA?AV1@AEBV1@@Z"
"?intersected@QRegion@@QEBA?AV1@AEBVQRect@@@Z"
"?intersects@QPainterPath@@QEBA_NAEBV1@@Z"
"?intersects@QPainterPath@@QEBA_NAEBVQRectF@@@Z"
"?intersects@QPolygon@@QEBA_NAEBV1@@Z"
"?intersects@QPolygonF@@QEBA_NAEBV1@@Z"
"?intersects@QRegion@@QEBA_NAEBV1@@Z"
"?intersects@QRegion@@QEBA_NAEBVQRect@@@Z"
"?intrinsicSize@QTextImageHandler@@UEAA?AVQSizeF@@PEAVQTextDocument@@HAEBVQTextFormat@@@Z"
"?invalidate@QAbstractLayoutStyleInfo@@UEAAXXZ"
"?invalidate@QColor@@AEAAXXZ"
"?invalidate@QFontDatabasePrivate@@QEAAXXZ"
"?invalidate@QGridLayoutEngine@@QEAAXXZ"
"?invalidate@QPlatformFontDatabase@@UEAAXXZ"
"?invalidate@QTextEngine@@QEAAXXZ"
"?invalidate@QWindowsDirectWriteFontDatabase@@MEAAXXZ"
"?invalidate@QWindowsFontDatabase@@UEAAXXZ"
"?invalidate@QWindowsFontDatabaseBase@@UEAAXXZ"
"?invalidateKey@QIconLoader@@QEAAXXZ"
"?invalidateResource@QOpenGLProgramBinarySupportCheck@@UEAAXXZ"
"?invalidateResource@QOpenGLSharedResourceGuard@@MEAAXXZ"
"?invalidateSurface@QPlatformWindow@@UEAAXXZ"
"?invertPixels@QImage@@QEAAXW4InvertMode@1@@Z"
"?inverted@QMatrix4x4@@QEBA?AV1@PEA_N@Z"
"?inverted@QQuaternion@@QEBA?AV1@XZ"
"?inverted@QTransform@@QEBA?AV1@PEA_N@Z"
"?inverted@QWheelEvent@@QEBA_NXZ"
"?invisibleRootItem@QStandardItemModel@@QEBAPEAVQStandardItem@@XZ"
"?invokeAction@QInputMethod@@QEAAXW4Action@1@H@Z"
"?invokeAction@QPlatformInputContext@@UEAAXW4Action@QInputMethod@@H@Z"
"?isAcceptableInput@QInputControl@@QEBA_NPEBVQKeyEvent@@@Z"
"?isAccepted@QEventPoint@@QEBA_NXZ"
"?isAccepted@QPlatformDropQtResponse@@QEBA_NXZ"
"?isActive@QAccessible@@SA_NXZ"
"?isActive@QHighDpiScaling@@SA_NXZ"
"?isActive@QPaintEngine@@QEBA_NXZ"
"?isActive@QPainter@@QEBA_NXZ"
"?isActive@QPlatformAccessibility@@QEBA_NXZ"
"?isActive@QPlatformWindow@@UEBA_NXZ"
"?isActive@QUndoStack@@QEBA_NXZ"
"?isActive@QWindow@@QEBA_NXZ"
"?isAffine@QMatrix4x4@@QEBA_NXZ"
"?isAffine@QTransform@@QEBA_NXZ"
"?isAlertState@QPlatformWindow@@UEBA_NXZ"
"?isAmbiguous@QShortcutEvent@@QEBA_NXZ"
"?isAncestorOf@QPlatformWindow@@UEBA_NPEBV1@@Z"
"?isAncestorOf@QWindow@@QEBA_NPEBV1@W4AncestorMode@1@@Z"
"?isAnchor@QTextCharFormat@@QEBA_NXZ"
"?isAnimating@QInputMethod@@QEBA_NXZ"
"?isAnimating@QPlatformInputContext@@UEBA_NXZ"
"?isApplicationFont@QFontDatabasePrivate@@QEAA_NAEBVQString@@@Z"
"?isAutoRepeat@QKeyEvent@@QEBA_NXZ"
"?isAutoTristate@QStandardItem@@QEBA_NXZ"
"?isBeginEvent@QPointerEvent@@UEBA_NXZ"
"?isBeginEvent@QSinglePointEvent@@UEBA_NXZ"
"?isBeginEvent@QTouchEvent@@UEBA_NXZ"
"?isBeginEvent@QWheelEvent@@UEBA_NXZ"
"?isBitmapScalable@QFontDatabase@@SA_NAEBVQString@@0@Z"
"?isBlockFormat@QTextFormat@@QEBA_NXZ"
"?isBrushSet@QPalette@@QEBA_NW4ColorGroup@1@W4ColorRole@1@@Z"
"?isCacheable@QVectorPath@@QEBA_NXZ"
"?isCharFormat@QTextFormat@@QEBA_NXZ"
"?isCheckable@QAction@@QEBA_NXZ"
"?isCheckable@QStandardItem@@QEBA_NXZ"
"?isChecked@QAction@@QEBA_NXZ"
"?isClean@QUndoGroup@@QEBA_NXZ"
"?isClean@QUndoStack@@QEBA_NXZ"
"?isClipDepthZeroToOne@QRhi@@QEBA_NXZ"
"?isClipEnabled@QPaintEngineState@@QEBA_NXZ"
"?isColorFont@QFontEngine@@QEBA_NXZ"
"?isCommonTextEditShortcut@QInputControl@@SA_NPEBVQKeyEvent@@@Z"
"?isConvex@QVectorPath@@QEBA_NXZ"
"?isCopyOf@QFont@@QEBA_NAEBV1@@Z"
"?isCopyOf@QPalette@@QEBA_NAEBV1@@Z"
"?isCopyOf@QTextCursor@@QEBA_NAEBV1@@Z"
"?isCosmetic@QPen@@QEBA_NXZ"
"?isCurved@QVectorPath@@QEBA_NXZ"
"?isDebugLayerEnabled@QPlatformBackingStoreRhiConfig@@QEBA_NXZ"
"?isDetached@QBrush@@QEBA_NXZ"
"?isDetached@QIcon@@QEBA_NXZ"
"?isDetached@QImage@@QEBA_NXZ"
"?isDetached@QKeySequence@@QEBA_NXZ"
"?isDetached@QPen@@QEAA_NXZ"
"?isDetached@QPicture@@QEBA_NXZ"
"?isDetached@QPixmap@@QEBA_NXZ"
"?isDeviceLost@QRhi@@QEBA_NXZ"
"?isDir@QFileSystemModel@@QEBA_NAEBVQModelIndex@@@Z"
"?isDoubleClick@QMutableSinglePointEvent@@QEAA_NXZ"
"?isDoubleClick@QMutableSinglePointEvent@@SA_NPEBVQSinglePointEvent@@@Z"
"?isDragEnabled@QStandardItem@@QEBA_NXZ"
"?isDropEnabled@QStandardItem@@QEBA_NXZ"
"?isEditable@QStandardItem@@QEBA_NXZ"
"?isEmbedded@QPlatformWindow@@UEBA_NXZ"
"?isEmpty@Declaration@QCss@@QEBA_NXZ"
"?isEmpty@QColorTransferTable@@QEBA_NXZ"
"?isEmpty@QGlyphRun@@QEBA_NXZ"
"?isEmpty@QGridLayoutItem@@UEBA_NXZ"
"?isEmpty@QKeySequence@@QEBA_NXZ"
"?isEmpty@QPageRanges@@QEBA_NXZ"
"?isEmpty@QPainterPath@@QEBA_NXZ"
"?isEmpty@QPlatformTextureList@@QEBA_NXZ"
"?isEmpty@QRegion@@QEBA_NXZ"
"?isEmpty@QTextDocument@@QEBA_NXZ"
"?isEmpty@QTextDocumentFragment@@QEBA_NXZ"
"?isEmpty@QTextFormat@@QEBA_NXZ"
"?isEmpty@QVectorPath@@QEBA_NXZ"
"?isEnabled@QAction@@QEBA_NXZ"
"?isEnabled@QActionGroup@@QEBA_NXZ"
"?isEnabled@QPlatformBackingStoreRhiConfig@@QEBA_NXZ"
"?isEnabled@QPlatformMenu@@UEBA_NXZ"
"?isEnabled@QShortcut@@QEBA_NXZ"
"?isEnabled@QStandardItem@@QEBA_NXZ"
"?isEndEvent@QPointerEvent@@UEBA_NXZ"
"?isEndEvent@QSinglePointEvent@@UEBA_NXZ"
"?isEndEvent@QTouchEvent@@UEBA_NXZ"
"?isEndEvent@QWheelEvent@@UEBA_NXZ"
"?isEqual@QPageRanges@@AEBA_NAEBV1@@Z"
"?isEqual@QPalette@@QEBA_NW4ColorGroup@1@0@Z"
"?isEquivalentTo@QPageLayout@@QEBA_NAEBV1@@Z"
"?isEquivalentTo@QPageSize@@QEBA_NAEBV1@@Z"
"?isExclusive@QActionGroup@@QEBA_NXZ"
"?isExposed@QPlatformWindow@@UEBA_NXZ"
"?isExposed@QWindow@@QEBA_NXZ"
"?isExtended@QPaintEngine@@QEBA_NXZ"
"?isFamilyPopulated@QPlatformFontDatabase@@SA_NAEBVQString@@@Z"
"?isFeatureSet@QFont@@QEBA_NUTag@1@@Z"
"?isFeatureSupported@QRhi@@QEBA_NW4Feature@1@@Z"
"?isFixedPitch@QFontDatabase@@SA_NAEBVQString@@0@Z"
"?isForeignWindow@QPlatformWindow@@UEBA_NXZ"
"?isFrameFormat@QTextFormat@@QEBA_NXZ"
"?isGrayscale@QImage@@QEBA_NXZ"
"?isHiddenByFilter@QFileSystemModelPrivate@@QEBA_NPEAVQFileSystemNode@1@AEBVQModelIndex@@@Z"
"?isIconVisibleInMenu@QAction@@QEBA_NXZ"
"?isIdentity@QColorTransferTable@@QEBA_NXZ"
"?isIdentity@QColorTransform@@QEBA_NXZ"
"?isIdentity@QColorTrc@@QEBA_NXZ"
"?isIdentity@QMatrix4x4@@QEBA_NXZ"
"?isIdentity@QQuaternion@@QEBA_NXZ"
"?isIdentity@QTransform@@QEBA_NXZ"
"?isIgnorableChar@QFontEngine@@SA_N_U@Z"
"?isImageCached@QImagePixmapCleanupHooks@@SA_NAEBVQImage@@@Z"
"?isImageFormat@QTextFormat@@QEBA_NXZ"
"?isInEditBlock@QTextDocumentPrivate@@QEBA_NXZ"
"?isInitialized@QOpenGLExtensions@@CA_NPEBUQOpenGLFunctionsPrivate@@@Z"
"?isInitialized@QOpenGLExtraFunctions@@CA_NPEBVQOpenGLExtraFunctionsPrivate@@@Z"
"?isInitialized@QOpenGLFunctions@@KA_NPEBUQOpenGLFunctionsPrivate@@@Z"
"?isInputPanelVisible@QPlatformInputContext@@UEBA_NXZ"
"?isInverted@QWheelEvent@@QEBA_NXZ"
"?isInvertible@QTransform@@QEBA_NXZ"
"?isLabelExplicitlySet@QFileDialogOptions@@QEAA_NW4DialogLabel@1@@Z"
"?isLandscape@QScreen@@QEBA_NW4ScreenOrientation@Qt@@@Z"
"?isLayoutCompatible@QRhiShaderResourceBinding@@QEBA_NAEBV1@@Z"
"?isLayoutCompatible@QRhiShaderResourceBindings@@QEBA_NPEBV1@@Z"
"?isLayoutEnabled@QTextDocument@@QEBA_NXZ"
"?isLeftToRight@QGuiApplication@@SA_NXZ"
"?isListFormat@QTextFormat@@QEBA_NXZ"
"?isLocked@QBlittable@@QEBA_NXZ"
"?isLocked@QPlatformGraphicsBuffer@@QEBA?AV?$QFlags@W4AccessType@QPlatformGraphicsBuffer@@@@XZ"
"?isLocked@QPlatformTextureList@@QEBA_NXZ"
"?isMask@QIcon@@QEBA_NXZ"
"?isModal@QWindow@@QEBA_NXZ"
"?isModified@QTextDocument@@QEBA_NXZ"
"?isModified@QTextDocumentPrivate@@QEBA_NXZ"
"?isNull@QAbstractFileIconEngine@@UEAA_NXZ"
"?isNull@QDistanceField@@QEBA_NXZ"
"?isNull@QIcon@@QEBA_NXZ"
"?isNull@QIconEngine@@UEAA_NXZ"
"?isNull@QImage@@QEBA_NXZ"
"?isNull@QPicture@@QEBA_NXZ"
"?isNull@QPixmap@@QEBA_NXZ"
"?isNull@QPixmapIconEngine@@UEAA_NXZ"
"?isNull@QPlatformPixmap@@QEBA_NXZ"
"?isNull@QQuaternion@@QEBA_NXZ"
"?isNull@QRegion@@QEBA_NXZ"
"?isNull@QTextCursor@@QEBA_NXZ"
"?isNull@QTextureFileData@@QEBA_NXZ"
"?isNull@QTextureGlyphCache@@QEBA_NXZ"
"?isObsolete@QUndoCommand@@QEBA_NXZ"
"?isOpaque@QBrush@@QEBA_NXZ"
"?isOpenGLES@QOpenGLContext@@QEBA_NXZ"
"?isOverride@QWindowStateChangeEvent@@QEBA_NXZ"
"?isPhase2@QPlatformSessionManager@@UEBA_NXZ"
"?isPhase2@QSessionManager@@QEBA_NXZ"
"?isPixmapCached@QImagePixmapCleanupHooks@@SA_NAEBVQPixmap@@@Z"
"?isPlaceholder@QPlatformPlaceholderScreen@@UEBA_NXZ"
"?isPlaceholder@QPlatformScreen@@UEBA_NXZ"
"?isPopup@QWindowPrivate@@QEBA_NXZ"
"?isPortrait@QScreen@@QEBA_NW4ScreenOrientation@Qt@@@Z"
"?isPrivateFamily@QFontDatabase@@SA_NAEBVQString@@@Z"
"?isPrivateFontFamily@QPlatformFontDatabase@@UEBA_NAEBVQString@@@Z"
"?isPrivateFontFamily@QWindowsDirectWriteFontDatabase@@UEBA_NAEBVQString@@@Z"
"?isPrivateFontFamily@QWindowsFontDatabase@@UEBA_NAEBVQString@@@Z"
"?isQBitmap@QPixmap@@QEBA_NXZ"
"?isRasterSurface@QPlatformSurface@@SA_NPEAVQSurface@@@Z"
"?isReadOnly@QFileSystemModel@@QEBA_NXZ"
"?isRecordingFrame@QRhi@@QEBA_NXZ"
"?isRect@QVectorPath@@QEBA_NXZ"
"?isRedoAvailable@QTextDocument@@QEBA_NXZ"
"?isRedoAvailable@QTextDocumentPrivate@@QEBA_NXZ"
"?isRegistered@QInputDevicePrivate@@SA_NPEBVQInputDevice@@@Z"
"?isRgbaValid@QColor@@CA_NHHHH@Z"
"?isRightToLeft@QGlyphRun@@QEBA_NXZ"
"?isRightToLeft@QGuiApplication@@SA_NXZ"
"?isRightToLeft@QTextEngine@@QEBA_NXZ"
"?isRotating@QTransform@@QEBA_NXZ"
"?isSavingSession@QGuiApplication@@QEBA_NXZ"
"?isScalable@QFontDatabase@@SA_NAEBVQString@@0@Z"
"?isScaling@QTransform@@QEBA_NXZ"
"?isSelectable@QStandardItem@@QEBA_NXZ"
"?isSelected@QAccessibleSelectionInterface@@UEBA_NPEAVQAccessibleInterface@@@Z"
"?isSeparator@QAction@@QEBA_NXZ"
"?isSessionRestored@QGuiApplication@@QEBA_NXZ"
"?isSharing@QPlatformOpenGLContext@@UEBA_NXZ"
"?isShortcutVisibleInContextMenu@QAction@@QEBA_NXZ"
"?isSmoothlyScalable@QFontDatabase@@SA_NAEBVQString@@0@Z"
"?isSolid@QPen@@QEBA_NXZ"
"?isSupported@QOpenGLProgramBinarySupportCheck@@QEBA_NXZ"
"?isSupportedUrl@QPlatformFileDialogHelper@@UEBA_NAEBVQUrl@@@Z"
"?isTableCellFormat@QTextFormat@@QEBA_NXZ"
"?isTableFormat@QTextFormat@@QEBA_NXZ"
"?isTextureFormatSupported@QRhi@@QEBA_NW4Format@QRhiTexture@@V?$QFlags@W4Flag@QRhiTexture@@@@@Z"
"?isTopLevel@QWindow@@QEBA_NXZ"
"?isTranslating@QTransform@@QEBA_NXZ"
"?isUndoAvailable@QTextDocument@@QEBA_NXZ"
"?isUndoAvailable@QTextDocumentPrivate@@QEBA_NXZ"
"?isUndoRedoEnabled@QTextDocument@@QEBA_NXZ"
"?isUndoRedoEnabled@QTextDocumentPrivate@@QEBA_NXZ"
"?isUpdateEvent@QHoverEvent@@UEBA_NXZ"
"?isUpdateEvent@QPointerEvent@@UEBA_NXZ"
"?isUpdateEvent@QSinglePointEvent@@UEBA_NXZ"
"?isUpdateEvent@QTouchEvent@@UEBA_NXZ"
"?isUpdateEvent@QWheelEvent@@UEBA_NXZ"
"?isUserTristate@QStandardItem@@QEBA_NXZ"
"?isUsingVirtualKeyboard@QGuiApplicationPrivate@@SA_NXZ"
"?isValid@Gpu@QOpenGLConfig@@QEBA_NXZ"
"?isValid@Key@QPixmapCache@@QEBA_NXZ"
"?isValid@QAccessibleObject@@UEBA_NXZ"
"?isValid@QColor@@QEBA_NXZ"
"?isValid@QColorSpace@@QEBA_NXZ"
"?isValid@QColorTrc@@QEBA_NXZ"
"?isValid@QMovie@@QEBA_NXZ"
"?isValid@QOffscreenSurface@@QEBA_NXZ"
"?isValid@QOpenGLContext@@QEBA_NXZ"
"?isValid@QPageLayout@@QEBA_NXZ"
"?isValid@QPageSize@@QEBA_NXZ"
"?isValid@QPlatformInputContext@@UEBA_NXZ"
"?isValid@QPlatformOffscreenSurface@@UEBA_NXZ"
"?isValid@QPlatformOpenGLContext@@UEBA_NXZ"
"?isValid@QPointingDeviceUniqueId@@QEBA_NXZ"
"?isValid@QRawFont@@QEBA_NXZ"
"?isValid@QRawFontPrivate@@QEBA_NXZ"
"?isValid@QShader@@QEBA_NXZ"
"?isValid@QShaderDescription@@QEBA_NXZ"
"?isValid@QTextBlock@@QEBA_NXZ"
"?isValid@QTextBlockFormat@@QEBA_NXZ"
"?isValid@QTextCharFormat@@QEBA_NXZ"
"?isValid@QTextFormat@@QEBA_NXZ"
"?isValid@QTextFragment@@QEBA_NXZ"
"?isValid@QTextFrameFormat@@QEBA_NXZ"
"?isValid@QTextImageFormat@@QEBA_NXZ"
"?isValid@QTextInlineObject@@QEBA_NXZ"
"?isValid@QTextLine@@QEBA_NXZ"
"?isValid@QTextListFormat@@QEBA_NXZ"
"?isValid@QTextTableCell@@QEBA_NXZ"
"?isValid@QTextTableCellFormat@@QEBA_NXZ"
"?isValid@QTextTableFormat@@QEBA_NXZ"
"?isValid@QTextureFileData@@QEBA_NXZ"
"?isValid@glyph_metrics_t@@QEBA_NXZ"
"?isValidColor@QColor@@SA_NAEBVQString@@@Z"
"?isValidColor@QColor@@SA_NVQLatin1String@@@Z"
"?isValidColor@QColor@@SA_NVQStringView@@@Z"
"?isValidColorName@QColor@@SA_NVQAnyStringView@@@Z"
"?isValidCursorPosition@QTextLayout@@QEBA_NH@Z"
"?isValidTarget@QColorSpace@@QEBA_NXZ"
"?isVariableAxisSet@QFont@@QEBA_NUTag@1@@Z"
"?isVisible@QAction@@QEBA_NXZ"
"?isVisible@QActionGroup@@QEBA_NXZ"
"?isVisible@QInputMethod@@QEBA_NXZ"
"?isVisible@QTextBlock@@QEBA_NXZ"
"?isVisible@QWindow@@QEBA_NXZ"
"?isWatching@QFileInfoGatherer@@QEBA_NXZ"
"?isWindow@QAbstractLayoutStyleInfo@@QEBA_NXZ"
"?isWindowBlocked@QGuiApplicationPrivate@@QEBA_NPEAVQWindow@@PEAPEAV2@@Z"
"?isYUpInFramebuffer@QRhi@@QEBA_NXZ"
"?isYUpInNDC@QRhi@@QEBA_NXZ"
"?italic@QFont@@QEBA_NXZ"
"?italic@QFontDatabase@@SA_NAEBVQString@@0@Z"
"?italic@QFontInfo@@QEBA_NXZ"
"?item@QStandardItemModel@@QEBAPEAVQStandardItem@@HH@Z"
"?item@QTextList@@QEBA?AVQTextBlock@@H@Z"
"?itemAt@QGridLayoutEngine@@QEBAPEAVQGridLayoutItem@@H@Z"
"?itemAt@QGridLayoutEngine@@QEBAPEAVQGridLayoutItem@@HHW4Orientation@Qt@@@Z"
"?itemChanged@QStandardItemModel@@QEAAXPEAVQStandardItem@@@Z"
"?itemCount@QGridLayoutEngine@@QEBAHXZ"
"?itemData@QStandardItemModel@@UEBA?AV?$QMap@HVQVariant@@@@AEBVQModelIndex@@@Z"
"?itemFromIndex@QStandardItemModel@@QEBAPEAVQStandardItem@@AEBVQModelIndex@@@Z"
"?itemNumber@QTextList@@QEBAHAEBVQTextBlock@@@Z"
"?itemPrototype@QStandardItemModel@@QEBAPEBVQStandardItem@@XZ"
"?itemText@QTextList@@QEBA?AVQString@@AEBVQTextBlock@@@Z"
"?itemize@QTextEngine@@QEBAXXZ"
"?itemsAvailable@QPlatformSharedGraphicsCache@@QEAAXAEBVQByteArray@@PEAXAEBV?$QList@I@@AEBV?$QList@VQPoint@@@@@Z"
"?itemsInvalidated@QPlatformSharedGraphicsCache@@QEAAXAEBVQByteArray@@AEBV?$QList@I@@@Z"
"?itemsMissing@QPlatformSharedGraphicsCache@@QEAAXAEBVQByteArray@@AEBV?$QList@I@@@Z"
"?itemsUpdated@QPlatformSharedGraphicsCache@@QEAAXAEBVQByteArray@@PEAXAEBV?$QList@I@@AEBV?$QList@VQPoint@@@@@Z"
"?join@QTriangulatingStroker@@AEAAXPEBN@Z"
"?joinForJoinMode@QStroker@@KA?AW4PenJoinStyle@Qt@@W4LineJoinMode@1@@Z"
"?joinModeForCap@QStroker@@KA?AW4LineJoinMode@1@W4PenCapStyle@Qt@@@Z"
"?joinModeForJoin@QStroker@@KA?AW4LineJoinMode@1@W4PenJoinStyle@Qt@@@Z"
"?joinPoints@QStroker@@QEAAXNNAEBVQLineF@@W4LineJoinMode@1@@Z"
"?joinPreviousEditBlock@QTextCursor@@QEAAXXZ"
"?joinPreviousEditBlock@QTextDocumentPrivate@@QEAAXXZ"
"?joinStyle@QPainterPathStroker@@QEBA?AW4PenJoinStyle@Qt@@XZ"
"?joinStyle@QPen@@QEBA?AW4PenJoinStyle@Qt@@XZ"
"?joinStyle@QStroker@@QEBA?AW4PenJoinStyle@Qt@@XZ"
"?joinStyleMode@QStroker@@QEBA?AW4LineJoinMode@1@XZ"
"?jumpToFrame@QMovie@@QEAA_NH@Z"
"?jumpToImage@QImageIOHandler@@UEAA_NH@Z"
"?jumpToImage@QImageReader@@QEAA_NH@Z"
"?jumpToNextFrame@QMovie@@QEAA_NXZ"
"?jumpToNextImage@QImageIOHandler@@UEAA_NXZ"
"?jumpToNextImage@QImageReader@@QEAA_NXZ"
"?justify@QTextEngine@@QEAAXAEBUQScriptLine@@@Z"
"?keepPositionOnInsert@QTextCursor@@QEBA_NXZ"
"?kerning@QFont@@QEBA_NXZ"
"?key@QFont@@QEBA?AVQString@@XZ"
"?key@QIconEngine@@UEBA?AVQString@@XZ"
"?key@QKeyEvent@@QEBAHXZ"
"?key@QPageSize@@QEBA?AVQString@@XZ"
"?key@QPageSize@@SA?AVQString@@W4PageSizeId@1@@Z"
"?key@QPixmapIconEngine@@UEBA?AVQString@@XZ"
"?key@QShortcut@@QEBA?AVQKeySequence@@XZ"
"?key@QShortcutEvent@@QEBAAEBVQKeySequence@@XZ"
"?keyBindings@QKeySequence@@SA?AV?$QList@VQKeySequence@@@@W4StandardKey@1@@Z"
"?keyBindings@QPlatformTheme@@UEBA?AV?$QList@VQKeySequence@@@@W4StandardKey@QKeySequence@@@Z"
"?keyBindings@QPlatformThemePrivate@@2QBUQKeyBinding@@B"
"?keyCombination@QKeyEvent@@QEBA?AVQKeyCombination@@XZ"
"?keyMapper@QPlatformIntegration@@UEBAPEAVQPlatformKeyMapper@@XZ"
"?keyName@QKeySequencePrivate@@SA?AVQString@@W4Key@Qt@@W4SequenceFormat@QKeySequence@@@Z"
"?keyPressEvent@QWindow@@MEAAXPEAVQKeyEvent@@@Z"
"?keyReleaseEvent@QWindow@@MEAAXPEAVQKeyEvent@@@Z"
"?keySequences@QShortcutMap@@QEBA?AV?$QList@VQKeySequence@@@@_N@Z"
"?keyValueMetadata@QTextureFileData@@QEBA?AV?$QMap@VQByteArray@@V1@@@XZ"
"?keyboardAutoRepeatRate@QStyleHints@@QEBAHXZ"
"?keyboardAutoRepeatRateF@QStyleHints@@QEBANXZ"
"?keyboardInputInterval@QStyleHints@@QEBAHXZ"
"?keyboardInputIntervalChanged@QStyleHints@@QEAAXH@Z"
"?keyboardModifiers@QDropEvent@@QEBA?AV?$QFlags@W4KeyboardModifier@Qt@@@@XZ"
"?keyboardModifiers@QGuiApplication@@SA?AV?$QFlags@W4KeyboardModifier@Qt@@@@XZ"
"?keyboardModifiers@QInputDeviceManager@@QEBA?AV?$QFlags@W4KeyboardModifier@Qt@@@@XZ"
"?keyboardRect@QPlatformInputContext@@UEBA?AVQRectF@@XZ"
"?keyboardRectangle@QInputMethod@@QEBA?AVQRectF@@XZ"
"?keyboardRectangle@QPlatformInputContext@@SA?AVQRectF@@XZ"
"?keyboardRectangleChanged@QInputMethod@@QEAAXXZ"
"?keys@QGenericPluginFactory@@SA?AV?$QList@VQString@@@@XZ"
"?keys@QPlatformInputContextFactory@@SA?AV?$QList@VQString@@@@XZ"
"?keys@QPlatformIntegrationFactory@@SA?AV?$QList@VQString@@@@AEBVQString@@@Z"
"?keys@QPlatformThemeFactory@@SA?AV?$QList@VQString@@@@AEBVQString@@@Z"
"?keys@QShortcut@@QEBA?AV?$QList@VQKeySequence@@@@XZ"
"?labelText@QFileDialogOptions@@QEBA?AVQString@@W4DialogLabel@1@@Z"
"?lastBlock@QTextDocument@@QEBA?AVQTextBlock@@XZ"
"?lastColumn@QAccessibleTableModelChangeEvent@@QEBAHXZ"
"?lastColumn@QGridLayoutItem@@QEBAHW4Orientation@Qt@@@Z"
"?lastColumn@QGridLayoutItem@@QEBAHXZ"
"?lastCompletedGpuTime@QRhiCommandBuffer@@QEAANXZ"
"?lastCursorPosition@QGuiApplicationPrivate@@2UQLastCursorPosition@1@A"
"?lastCursorPosition@QTextFrame@@QEBA?AVQTextCursor@@XZ"
"?lastCursorPosition@QTextTableCell@@QEBA?AVQTextCursor@@XZ"
"?lastError@QMovie@@QEBA?AW4ImageReaderError@QImageReader@@XZ"
"?lastErrorString@QMovie@@QEBA?AVQString@@XZ"
"?lastModified@QFileSystemModel@@QEBA?AVQDateTime@@AEBVQModelIndex@@@Z"
"?lastModified@QFileSystemModel@@QEBA?AVQDateTime@@AEBVQModelIndex@@AEBVQTimeZone@@@Z"
"?lastNormalizedPos@QEventPoint@@QEBA?AVQPointF@@XZ"
"?lastPage@QPageRanges@@QEBAHXZ"
"?lastPos@QEventPoint@@QEBA?AVQPointF@@XZ"
"?lastPosition@QEventPoint@@QEBA?AVQPointF@@XZ"
"?lastPosition@QTextFrame@@QEBAHXZ"
"?lastPosition@QTextTableCell@@QEBAHXZ"
"?lastRightBearing@QFontEngine@@IEAA?AUQFixed@@AEBUQGlyphLayout@@@Z"
"?lastRow@QAccessibleTableModelChangeEvent@@QEBAHXZ"
"?lastRow@QGridLayoutItem@@QEBAHW4Orientation@Qt@@@Z"
"?lastRow@QGridLayoutItem@@QEBAHXZ"
"?lastScenePos@QEventPoint@@QEBA?AVQPointF@@XZ"
"?lastScreenPos@QEventPoint@@QEBA?AVQPointF@@XZ"
"?lastTimestamp@QEventPoint@@QEBAKXZ"
"?lastWindowClosed@QGuiApplication@@QEAAXXZ"
"?lastWindowClosed@QGuiApplicationPrivate@@QEBA_NXZ"
"?layer@QRhiColorAttachment@@QEBAHXZ"
"?layer@QRhiReadbackDescription@@QEBAHXZ"
"?layer@QRhiTextureUploadEntry@@QEBAHXZ"
"?layout@QTextBlock@@QEBAPEAVQTextLayout@@XZ"
"?layout@QTextDocumentPrivate@@QEBAPEAVQAbstractTextDocumentLayout@@XZ"
"?layoutData@QTextFrame@@QEBAPEAVQTextFrameLayoutData@@XZ"
"?layoutDirection@QGuiApplication@@SA?AW4LayoutDirection@Qt@@XZ"
"?layoutDirection@QPainter@@QEBA?AW4LayoutDirection@Qt@@XZ"
"?layoutDirection@QTextFormat@@QEBA?AW4LayoutDirection@Qt@@XZ"
"?layoutDirectionChanged@QGuiApplication@@QEAAXW4LayoutDirection@Qt@@@Z"
"?layoutFinished@QTextDocumentLayout@@AEAAXXZ"
"?layoutStatus@QTextDocumentLayout@@QEBAHXZ"
"?layout_helper@QTextLine@@AEAAXH@Z"
"?lcOpenGLProgramDiskCache@@YAAEBVQLoggingCategory@@XZ"
"?lcQpaBackingStore@@YAAEBVQLoggingCategory@@XZ"
"?lcQpaFonts@@YAAEBVQLoggingCategory@@XZ"
"?lcQpaInputDevices@@YAAEBVQLoggingCategory@@XZ"
"?lcQpaKeyMapper@@YAAEBVQLoggingCategory@@XZ"
"?leading@QFontEngine@@UEBA?AUQFixed@@XZ"
"?leading@QFontEngineMulti@@UEBA?AUQFixed@@XZ"
"?leading@QFontMetrics@@QEBAHXZ"
"?leading@QFontMetricsF@@QEBANXZ"
"?leading@QRawFont@@QEBANXZ"
"?leading@QTextLine@@QEBANXZ"
"?leadingIncluded@QTextLine@@QEBA_NXZ"
"?leadingSpaceWidth@QTextEngine@@QEAA?AUQFixed@@AEBUQScriptLine@@@Z"
"?leftBearing@QFontMetrics@@QEBAHVQChar@@@Z"
"?leftBearing@QFontMetricsF@@QEBANVQChar@@@Z"
"?leftBearing@glyph_metrics_t@@QEBA?AUQFixed@@XZ"
"?leftBorder@QTextTableCellFormat@@QEBANXZ"
"?leftBorderBrush@QTextTableCellFormat@@QEBA?AVQBrush@@XZ"
"?leftBorderStyle@QTextTableCellFormat@@QEBA?AW4BorderStyle@QTextFrameFormat@@XZ"
"?leftCursorPosition@QTextDocumentPrivate@@QEBAHH@Z"
"?leftCursorPosition@QTextLayout@@QEBAHH@Z"
"?leftMargin@QTextBlockFormat@@QEBANXZ"
"?leftMargin@QTextFrameFormat@@QEBANXZ"
"?leftPadding@QTextTableCellFormat@@QEBANXZ"
"?legacyWeight@QFont@@QEBAHXZ"
"?legacyWeight@QFontInfo@@QEBAHXZ"
"?length@QBezier@@QEBANN@Z"
"?length@QPainterPath@@QEBANXZ"
"?length@QQuaternion@@QEBAMXZ"
"?length@QTextBlock@@QEBAHXZ"
"?length@QTextDocumentPrivate@@QEBAHXZ"
"?length@QTextEngine@@QEBAHH@Z"
"?length@QTextEngine@@QEBAHPEBUQScriptItem@@@Z"
"?length@QTextFragment@@QEBAHXZ"
"?lengthProperty@QTextFormat@@QEBA?AVQTextLength@@H@Z"
"?lengthSquared@QQuaternion@@QEBAMXZ"
"?lengthValue@ValueExtractor@QCss@@AEAA?AULengthData@2@AEBUValue@2@@Z"
"?lengthValue@ValueExtractor@QCss@@AEAAHAEBUDeclaration@2@@Z"
"?lengthValues@ValueExtractor@QCss@@QEAAXAEBUDeclaration@2@PEAH@Z"
"?lengthVectorProperty@QTextFormat@@QEBA?AV?$QList@VQTextLength@@@@H@Z"
"?letterSpacing@QFont@@QEBANXZ"
"?letterSpacingType@QFont@@QEBA?AW4SpacingType@1@XZ"
"?level@QRhiColorAttachment@@QEBAHXZ"
"?level@QRhiReadbackDescription@@QEBAHXZ"
"?level@QRhiTextureUploadEntry@@QEBAHXZ"
"?lexem@Parser@QCss@@QEBA?AVQString@@XZ"
"?lexem@Symbol@QCss@@QEBA?AVQString@@XZ"
"?lexemUntil@Parser@QCss@@QEAA?AVQString@@W4TokenType@2@@Z"
"?light@QPalette@@QEBAAEBVQBrush@@XZ"
"?lighter@QColor@@QEBA?AV1@H@Z"
"?lightness@QColor@@QEBAHXZ"
"?lightnessF@QColor@@QEBAMXZ"
"?lineAt@QTextLayout@@QEBA?AVQTextLine@@H@Z"
"?lineCount@QTextBlock@@QEBAHXZ"
"?lineCount@QTextDocument@@QEBAHXZ"
"?lineCount@QTextLayout@@QEBAHXZ"
"?lineForTextPosition@QTextLayout@@QEBA?AVQTextLine@@H@Z"
"?lineHeight@QTextBlockFormat@@QEBANNN@Z"
"?lineHeight@QTextBlockFormat@@QEBANXZ"
"?lineHeightType@QTextBlockFormat@@QEBAHXZ"
"?lineNumber@QTextLine@@QEBAHXZ"
"?lineNumberForTextPosition@QTextEngine@@QEAAHH@Z"
"?lineSpacing@QFontMetrics@@QEBAHXZ"
"?lineSpacing@QFontMetricsF@@QEBANXZ"
"?lineThickness@QFontEngine@@UEBA?AUQFixed@@XZ"
"?lineThickness@QFontEngineMulti@@UEBA?AUQFixed@@XZ"
"?lineThickness@QRawFont@@QEBANXZ"
"?lineThickness@QWindowsFontEngineDirectWrite@@UEBA?AUQFixed@@XZ"
"?lineTo@QPainterPath@@QEAAXAEBVQPointF@@@Z"
"?lineTo@QPainterPath@@QEAAXNN@Z"
"?lineTo@QStrokerOps@@QEAAXNN@Z"
"?lineTo@QTriangulatingStroker@@AEAAXPEBN@Z"
"?lineWidth@QFontMetrics@@QEBAHXZ"
"?lineWidth@QFontMetricsF@@QEBANXZ"
"?lineWidth@QRhiGraphicsPipeline@@QEBAMXZ"
"?link@QPalette@@QEBAAEBVQBrush@@XZ"
"?linkVisited@QPalette@@QEBAAEBVQBrush@@XZ"
"?list@QFileInfoGatherer@@QEAAXAEBVQString@@@Z"
"?listFormat@QTextFormatCollection@@QEBA?AVQTextListFormat@@H@Z"
"?listFromString@QKeySequence@@SA?AV?$QList@VQKeySequence@@@@AEBVQString@@W4SequenceFormat@1@@Z"
"?listInfo@QTextMarkdownWriter@@AEAA?AUListInfo@1@PEAVQTextList@@@Z"
"?listToString@QKeySequence@@SA?AVQString@@AEBV?$QList@VQKeySequence@@@@W4SequenceFormat@1@@Z"
"?load@QFontDatabasePrivate@@SAXPEBVQFontPrivate@@H@Z"
"?load@QImage@@QEAA_NAEBVQString@@PEBD@Z"
"?load@QImage@@QEAA_NPEAVQIODevice@@PEBD@Z"
"?load@QOpenGLProgramBinaryCache@@QEAA_NAEBVQByteArray@@I@Z"
"?load@QPicture@@QEAA_NAEBVQString@@@Z"
"?load@QPicture@@QEAA_NPEAVQIODevice@@@Z"
"?load@QPixmap@@QEAA_NAEBVQString@@PEBDV?$QFlags@W4ImageConversionFlag@Qt@@@@@Z"
"?loadEngine@QFontDatabasePrivate@@CAPEAVQFontEngine@@HAEBUQFontDef@@PEAUQtFontFamily@@PEAUQtFontFoundry@@PEAUQtFontStyle@@PEAUQtFontSize@@@Z"
"?loadEngine@QFontEngineMulti@@MEAAPEAVQFontEngine@@H@Z"
"?loadFromData@QImage@@QEAA_NAEBVQByteArray@@PEBD@Z"
"?loadFromData@QImage@@QEAA_NPEBEHPEBD@Z"
"?loadFromData@QImage@@QEAA_NVQByteArrayView@@PEBD@Z"
"?loadFromData@QPixmap@@QEAA_NAEBVQByteArray@@PEBDV?$QFlags@W4ImageConversionFlag@Qt@@@@@Z"
"?loadFromData@QPixmap@@QEAA_NPEBEIPEBDV?$QFlags@W4ImageConversionFlag@Qt@@@@@Z"
"?loadFromData@QRawFont@@QEAAXAEBVQByteArray@@NW4HintingPreference@QFont@@@Z"
"?loadFromData@QRawFontPrivate@@QEAAXAEBVQByteArray@@NW4HintingPreference@QFont@@@Z"
"?loadFromFile@QRawFont@@QEAAXAEBVQString@@NW4HintingPreference@QFont@@@Z"
"?loadFromStream@QShaderDescriptionPrivate@@QEAAXPEAVQDataStream@@H@Z"
"?loadIcon@QIconLoader@@QEBA?AUQThemeIconInfo@@AEBVQString@@@Z"
"?loadKerningPairs@QFontEngine@@QEAAXUQFixed@@@Z"
"?loadResource@QTextDocument@@MEAA?AVQVariant@@HAEBVQUrl@@@Z"
"?loadSingleEngine@QFontDatabasePrivate@@CAPEAVQFontEngine@@HAEBUQFontDef@@PEAUQtFontFamily@@PEAUQtFontFoundry@@PEAUQtFontStyle@@PEAUQtFontSize@@@Z"
"?localPos@QEnterEvent@@QEBA?AVQPointF@@XZ"
"?localPos@QMouseEvent@@QEBA?AVQPointF@@XZ"
"?localPos@QNativeGestureEvent@@QEBA?AVQPointF@@XZ"
"?locale@QInputMethod@@QEBA?AVQLocale@@XZ"
"?locale@QPlatformInputContext@@UEBA?AVQLocale@@XZ"
"?locale@QValidator@@QEBA?AVQLocale@@XZ"
"?localeChanged@QInputMethod@@QEAAXXZ"
"?localeString@QWindowsDirectWriteFontDatabase@@CA?AVQString@@PEAUIDWriteLocalizedStrings@@QEA_W@Z"
"?localizedActionDescription@QAccessibleActionInterface@@UEBA?AVQString@@AEBV2@@Z"
"?localizedActionName@QAccessibleActionInterface@@UEBA?AVQString@@AEBV2@@Z"
"?location@QRhiVertexInputAttribute@@QEBAHXZ"
"?lock@QBlittable@@QEAAPEAVQImage@@XZ"
"?lock@QPlatformGraphicsBuffer@@QEAA_NV?$QFlags@W4AccessType@QPlatformGraphicsBuffer@@@@AEBVQRect@@@Z"
"?lock@QPlatformTextureList@@QEAAX_N@Z"
"?lockAndBindToTexture@QPlatformGraphicsBufferHelper@@YA_NPEAVQPlatformGraphicsBuffer@@PEA_N1AEBVQRect@@@Z"
"?locked@QPlatformTextureList@@QEAAX_N@Z"
"?logClusters@QTextEngine@@QEBAPEAGPEBUQScriptItem@@@Z"
"?logName@QTextureFileData@@QEBA?AVQByteArray@@XZ"
"?logicalBaseDpi@QPlatformScreen@@UEBA?AU?$pair@NN@std@@XZ"
"?logicalDotsPerInch@QScreen@@QEBANXZ"
"?logicalDotsPerInchChanged@QScreen@@QEAAXN@Z"
"?logicalDotsPerInchX@QScreen@@QEBANXZ"
"?logicalDotsPerInchY@QScreen@@QEBANXZ"
"?logicalDpi@QHighDpiScaling@@SA?AU?$pair@NN@std@@PEBVQScreen@@@Z"
"?logicalDpi@QPlatformScreen@@UEBA?AU?$pair@NN@std@@XZ"
"?logicalDpiX@QPaintDevice@@QEBAHXZ"
"?logicalDpiY@QPaintDevice@@QEBAHXZ"
"?lookAt@QMatrix4x4@@QEAAXAEBVQVector3D@@00@Z"
"?lookup@Parser@QCss@@QEBA?AW4TokenType@2@XZ"
"?lookupCacheData@QVectorPath@@QEBAPEAUCacheEntry@1@PEAVQPaintEngineEx@@@Z"
"?lookupElementName@Parser@QCss@@QEBA_NXZ"
"?lookupFallbackIcon@QIconLoader@@AEBA?AUQThemeIconInfo@@AEBVQString@@@Z"
"?loopCount@QImageIOHandler@@UEBAHXZ"
"?loopCount@QImageReader@@QEBAHXZ"
"?loopCount@QMovie@@QEBAHXZ"
"?lostFocus@QFocusEvent@@QEBA_NXZ"
"?lower@QPlatformWindow@@UEAAXXZ"
"?lower@QWindow@@QEAAXXZ"
"?m11@QTransform@@QEBANXZ"
"?m12@QTransform@@QEBANXZ"
"?m13@QTransform@@QEBANXZ"
"?m21@QTransform@@QEBANXZ"
"?m22@QTransform@@QEBANXZ"
"?m23@QTransform@@QEBANXZ"
"?m31@QTransform@@QEBANXZ"
"?m32@QTransform@@QEBANXZ"
"?m33@QTransform@@QEBANXZ"
"?m_active@QHighDpiScaling@@0_NA"
"?m_capabilities@QPlatformCursor@@0V?$QFlags@W4Capability@QPlatformCursor@@@@A"
"?m_dpiAdjustmentPolicy@QHighDpiScaling@@0W4DpiAdjustmentPolicy@1@A"
"?m_factor@QHighDpiScaling@@0NA"
"?m_fakeMouseSourcePointId@QGuiApplicationPrivate@@0HA"
"?m_fontOptions@QWindowsFontDatabase@@0IA"
"?m_globalScalingActive@QHighDpiScaling@@0_NA"
"?m_inputDeviceManager@QGuiApplicationPrivate@@0PEAVQInputDeviceManager@@EA"
"?m_instance@QDragManager@@0PEAV1@EA"
"?m_maxDevicePixelRatio@QGuiApplicationPrivate@@0NA"
"?m_namedScreenScaleFactors@QHighDpiScaling@@0V?$QHash@VQString@@N@@A"
"?m_platformPluginDpiScalingActive@QHighDpiScaling@@0_NA"
"?m_screenFactorSet@QHighDpiScaling@@0_NA"
"?m_screenFactors@QHighDpiScaling@@0V?$QList@UScreenFactor@QHighDpiScaling@@@@A"
"?m_usePhysicalDpi@QHighDpiScaling@@0_NA"
"?m_usePlatformPluginDpi@QHighDpiScaling@@0_NA"
"?magFilter@QRhiSampler@@QEBA?AW4Filter@1@XZ"
"?magenta@QColor@@QEBAHXZ"
"?magentaF@QColor@@QEBAMXZ"
"?majorVersion@QSurfaceFormat@@QEBAHXZ"
"?makeCacheable@QVectorPath@@QEBAXXZ"
"?makeCurrent@QOpenGLContext@@QEAA_NPEAVQSurface@@@Z"
"?makeDoc@QShaderDescriptionPrivate@@QEAA?AVQJsonDocument@@XZ"
"?makeThreadLocalNativeContextCurrent@QRhi@@QEAA_NXZ"
"?manufacturer@QPlatformScreen@@UEBA?AVQString@@XZ"
"?manufacturer@QScreen@@QEBA?AVQString@@XZ"
"?map@QColorTransform@@QEBA?AV?$QRgbaFloat@M@@V2@@Z"
"?map@QColorTransform@@QEBA?AV?$QRgbaFloat@Vqfloat16@@@@V2@@Z"
"?map@QColorTransform@@QEBA?AVQColor@@AEBV2@@Z"
"?map@QColorTransform@@QEBA?AVQRgba64@@V2@@Z"
"?map@QColorTransform@@QEBAII@Z"
"?map@QMatrix4x4@@QEBA?AVQPoint@@AEBV2@@Z"
"?map@QMatrix4x4@@QEBA?AVQPointF@@AEBV2@@Z"
"?map@QMatrix4x4@@QEBA?AVQVector3D@@AEBV2@@Z"
"?map@QMatrix4x4@@QEBA?AVQVector4D@@AEBV2@@Z"
"?map@QTransform@@QEBA?AVQLine@@AEBV2@@Z"
"?map@QTransform@@QEBA?AVQLineF@@AEBV2@@Z"
"?map@QTransform@@QEBA?AVQPainterPath@@AEBV2@@Z"
"?map@QTransform@@QEBA?AVQPoint@@AEBV2@@Z"
"?map@QTransform@@QEBA?AVQPointF@@AEBV2@@Z"
"?map@QTransform@@QEBA?AVQPolygon@@AEBV2@@Z"
"?map@QTransform@@QEBA?AVQPolygonF@@AEBV2@@Z"
"?map@QTransform@@QEBA?AVQRegion@@AEBV2@@Z"
"?map@QTransform@@QEBAXHHPEAH0@Z"
"?map@QTransform@@QEBAXNNPEAN0@Z"
"?mapBetween@QPlatformScreen@@SA?AVQRect@@W4ScreenOrientation@Qt@@0AEBV2@@Z"
"?mapBetween@QScreen@@QEBA?AVQRect@@W4ScreenOrientation@Qt@@0AEBV2@@Z"
"?mapBy@QBezier@@QEBA?AV1@AEBVQTransform@@@Z"
"?mapFromGlobal@QPlatformWindow@@UEBA?AVQPoint@@AEBV2@@Z"
"?mapFromGlobal@QWindow@@QEBA?AVQPoint@@AEBV2@@Z"
"?mapFromGlobal@QWindow@@QEBA?AVQPointF@@AEBV2@@Z"
"?mapFromGlobalF@QPlatformWindow@@QEBA?AVQPointF@@AEBV2@@Z"
"?mapPositionFromNative@QHighDpiScaling@@SA?AVQPoint@@AEBV2@PEBVQPlatformScreen@@@Z"
"?mapPositionToNative@QHighDpiScaling@@SA?AVQPoint@@AEBV2@PEBVQPlatformScreen@@@Z"
"?mapRect@QMatrix4x4@@QEBA?AVQRect@@AEBV2@@Z"
"?mapRect@QMatrix4x4@@QEBA?AVQRectF@@AEBV2@@Z"
"?mapRect@QTransform@@QEBA?AVQRect@@AEBV2@@Z"
"?mapRect@QTransform@@QEBA?AVQRectF@@AEBV2@@Z"
"?mapToGlobal@QPlatformWindow@@UEBA?AVQPoint@@AEBV2@@Z"
"?mapToGlobal@QWindow@@QEBA?AVQPoint@@AEBV2@@Z"
"?mapToGlobal@QWindow@@QEBA?AVQPointF@@AEBV2@@Z"
"?mapToGlobalF@QPlatformWindow@@QEBA?AVQPointF@@AEBV2@@Z"
"?mapToPolygon@QTransform@@QEBA?AVQPolygon@@AEBVQRect@@@Z"
"?mapToScreen@QTouchEventSequence@QTest@@IEAA?AVQPoint@@PEAVQWindow@@AEBV3@@Z"
"?mapVector@QMatrix4x4@@QEBA?AVQVector3D@@AEBV2@@Z"
"?margin@QTextFrameFormat@@QEBANXZ"
"?margins@QPageLayout@@QEBA?AVQMarginsF@@W4Unit@1@@Z"
"?margins@QPageLayout@@QEBA?AVQMarginsF@@XZ"
"?marginsPixels@QPageLayout@@QEBA?AVQMargins@@H@Z"
"?marginsPoints@QPageLayout@@QEBA?AVQMargins@@XZ"
"?markContentsDirty@QTextDocument@@QEAAXHH@Z"
"?markRasterOverlay@QBlittablePlatformPixmap@@QEAAXAEBVQPainterPath@@@Z"
"?markRasterOverlay@QBlittablePlatformPixmap@@QEAAXAEBVQPointF@@AEBVQTextItem@@@Z"
"?markRasterOverlay@QBlittablePlatformPixmap@@QEAAXAEBVQRectF@@@Z"
"?markRasterOverlay@QBlittablePlatformPixmap@@QEAAXAEBVQVectorPath@@@Z"
"?markRasterOverlay@QBlittablePlatformPixmap@@QEAAXPEBVQPoint@@H@Z"
"?markRasterOverlay@QBlittablePlatformPixmap@@QEAAXPEBVQPointF@@H@Z"
"?markRasterOverlay@QBlittablePlatformPixmap@@QEAAXPEBVQRect@@H@Z"
"?markRasterOverlay@QBlittablePlatformPixmap@@QEAAXPEBVQRectF@@H@Z"
"?markWindowAsDirty@QPaintDeviceWindowPrivate@@QEAAXXZ"
"?marker@QTextBlockFormat@@QEBA?AW4MarkerType@1@XZ"
"?mask@QCursor@@QEBA?AVQBitmap@@W4ReturnByValueConstant@Qt@@@Z"
"?mask@QCursor@@QEBA?AVQBitmap@@XZ"
"?mask@QPixmap@@QEBA?AVQBitmap@@XZ"
"?mask@QPlatformPixmap@@UEBA?AVQBitmap@@XZ"
"?mask@QWindow@@QEBA?AVQRegion@@XZ"
"?match@QFontDatabasePrivate@@CAHHAEBUQFontDef@@AEBVQString@@1PEAUQtFontDesc@@AEBV?$QList@H@@PEAI@Z"
"?match@QOpenGLExtensionMatcher@@QEBA_NAEBVQByteArray@@@Z"
"?matchRule@StyleSelector@QCss@@AEAAXTNodePtr@12@AEBUStyleRule@2@W4StyleSheetOrigin@2@HPEAV?$QMultiMap@IUStyleRule@QCss@@@@@Z"
"?matches@QKeyEvent@@QEBA_NW4StandardKey@QKeySequence@@@Z"
"?matches@QKeySequence@@QEBA?AW4SequenceMatch@1@AEBV1@@Z"
"?matches@QShortcutMap@@AEBA?AV?$QList@PEBUQShortcutEntry@@@@XZ"
"?matchesFamilyName@QtFontFamily@@QEBA_NAEBVQString@@@Z"
"?matrixSlice@QRhiVertexInputAttribute@@QEBAHXZ"
"?maxCharWidth@QFontEngineMulti@@UEBANXZ"
"?maxCharWidth@QRawFont@@QEBANXZ"
"?maxCharWidth@QWindowsFontEngineDirectWrite@@UEBANXZ"
"?maxDepth@QRhiViewport@@QEBAMXZ"
"?maxTextureHeight@QTextureGlyphCache@@UEBAHXZ"
"?maxTextureSize@QOpenGLContextPrivate@@QEAAHXZ"
"?maxTextureWidth@QTextureGlyphCache@@UEBAHXZ"
"?maxWidth@QFontMetrics@@QEBAHXZ"
"?maxWidth@QFontMetricsF@@QEBANXZ"
"?maximumBlockCount@QTextDocument@@QEBAHXZ"
"?maximumHeight@QWindow@@QEBAHXZ"
"?maximumHeightChanged@QWindow@@QEAAXH@Z"
"?maximumMargins@QPageLayout@@QEBA?AVQMarginsF@@XZ"
"?maximumPoints@QPointingDevice@@QEBAHXZ"
"?maximumSize@QWindow@@QEBA?AVQSize@@XZ"
"?maximumWidth@QTextImageFormat@@QEBA?AVQTextLength@@XZ"
"?maximumWidth@QTextLayout@@QEBANXZ"
"?maximumWidth@QWindow@@QEBAHXZ"
"?maximumWidthChanged@QWindow@@QEAAXH@Z"
"?maybeExpandGrid@QGridLayoutEngine@@AEAAXHHW4Orientation@Qt@@@Z"
"?maybeForwardEventToVirtualKeyboard@QGuiApplicationPrivate@@SA_NPEAVQEvent@@@Z"
"?maybeLastWindowClosed@QGuiApplicationPrivate@@QEAAXXZ"
"?menu@QActionPrivate@@UEBAPEAVQObject@@XZ"
"?menuObject@QAction@@AEBAPEAVQObject@@XZ"
"?menuRole@QAction@@QEBA?AW4MenuRole@1@XZ"
"?merge@QRhiResourceUpdateBatch@@QEAAXPEAV1@@Z"
"?merge@QTextFormat@@QEAAXAEBV1@@Z"
"?mergeBlockCharFormat@QTextCursor@@QEAAXAEBVQTextCharFormat@@@Z"
"?mergeBlockFormat@QTextCursor@@QEAAXAEBVQTextBlockFormat@@@Z"
"?mergeCachedResources@QTextDocumentPrivate@@QEAAXPEBV1@@Z"
"?mergeCells@QTextTable@@QEAAXAEBVQTextCursor@@@Z"
"?mergeCells@QTextTable@@QEAAXHHHH@Z"
"?mergeCharFormat@QTextCursor@@QEAAXAEBVQTextCharFormat@@@Z"
"?mergeWith@QUndoCommand@@UEAA_NPEBV1@@Z"
"?message@QAccessibleAnnouncementEvent@@QEBA?AVQString@@XZ"
"?messageClicked@QPlatformSystemTrayIcon@@QEAAXXZ"
"?metaInformation@QTextDocument@@QEBA?AVQString@@W4MetaInformation@1@@Z"
"?metaObject@QAbstractTextDocumentLayout@@UEBAPEBUQMetaObject@@XZ"
"?metaObject@QAccessibleBridgePlugin@@UEBAPEBUQMetaObject@@XZ"
"?metaObject@QAccessibleCache@@UEBAPEBUQMetaObject@@XZ"
"?metaObject@QAccessiblePlugin@@UEBAPEBUQMetaObject@@XZ"
"?metaObject@QAction@@UEBAPEBUQMetaObject@@XZ"
"?metaObject@QActionGroup@@UEBAPEBUQMetaObject@@XZ"
"?metaObject@QClipboard@@UEBAPEBUQMetaObject@@XZ"
"?metaObject@QDoubleValidator@@UEBAPEBUQMetaObject@@XZ"
"?metaObject@QDrag@@UEBAPEBUQMetaObject@@XZ"
"?metaObject@QDragManager@@UEBAPEBUQMetaObject@@XZ"
"?metaObject@QFileInfoGatherer@@UEBAPEBUQMetaObject@@XZ"
"?metaObject@QFileSystemModel@@UEBAPEBUQMetaObject@@XZ"
"?metaObject@QGenericPlugin@@UEBAPEBUQMetaObject@@XZ"
"?metaObject@QGuiApplication@@UEBAPEBUQMetaObject@@XZ"
"?metaObject@QIconEnginePlugin@@UEBAPEBUQMetaObject@@XZ"
"?metaObject@QImageIOPlugin@@UEBAPEBUQMetaObject@@XZ"
"?metaObject@QInputControl@@UEBAPEBUQMetaObject@@XZ"
"?metaObject@QInputDevice@@UEBAPEBUQMetaObject@@XZ"
"?metaObject@QInputDeviceManager@@UEBAPEBUQMetaObject@@XZ"
"?metaObject@QInputMethod@@UEBAPEBUQMetaObject@@XZ"
"?metaObject@QIntValidator@@UEBAPEBUQMetaObject@@XZ"
"?metaObject@QInternalMimeData@@UEBAPEBUQMetaObject@@XZ"
"?metaObject@QKeyMapper@@UEBAPEBUQMetaObject@@XZ"
"?metaObject@QMovie@@UEBAPEBUQMetaObject@@XZ"
"?metaObject@QOffscreenSurface@@UEBAPEBUQMetaObject@@XZ"
"?metaObject@QOpenGLContext@@UEBAPEBUQMetaObject@@XZ"
"?metaObject@QOpenGLContextGroup@@UEBAPEBUQMetaObject@@XZ"
"?metaObject@QPaintDeviceWindow@@UEBAPEBUQMetaObject@@XZ"
"?metaObject@QPlatformColorDialogHelper@@UEBAPEBUQMetaObject@@XZ"
"?metaObject@QPlatformDialogHelper@@UEBAPEBUQMetaObject@@XZ"
"?metaObject@QPlatformFileDialogHelper@@UEBAPEBUQMetaObject@@XZ"
"?metaObject@QPlatformFontDialogHelper@@UEBAPEBUQMetaObject@@XZ"
"?metaObject@QPlatformGraphicsBuffer@@UEBAPEBUQMetaObject@@XZ"
"?metaObject@QPlatformInputContext@@UEBAPEBUQMetaObject@@XZ"
"?metaObject@QPlatformInputContextPlugin@@UEBAPEBUQMetaObject@@XZ"
"?metaObject@QPlatformIntegrationPlugin@@UEBAPEBUQMetaObject@@XZ"
"?metaObject@QPlatformMenu@@UEBAPEBUQMetaObject@@XZ"
"?metaObject@QPlatformMenuBar@@UEBAPEBUQMetaObject@@XZ"
"?metaObject@QPlatformMenuItem@@UEBAPEBUQMetaObject@@XZ"
"?metaObject@QPlatformMessageDialogHelper@@UEBAPEBUQMetaObject@@XZ"
"?metaObject@QPlatformNativeInterface@@UEBAPEBUQMetaObject@@XZ"
"?metaObject@QPlatformServiceColorPicker@@UEBAPEBUQMetaObject@@XZ"
"?metaObject@QPlatformSharedGraphicsCache@@UEBAPEBUQMetaObject@@XZ"
"?metaObject@QPlatformSystemTrayIcon@@UEBAPEBUQMetaObject@@XZ"
"?metaObject@QPlatformTextureList@@UEBAPEBUQMetaObject@@XZ"
"?metaObject@QPlatformThemePlugin@@UEBAPEBUQMetaObject@@XZ"
"?metaObject@QPointingDevice@@UEBAPEBUQMetaObject@@XZ"
"?metaObject@QRasterWindow@@UEBAPEBUQMetaObject@@XZ"
"?metaObject@QRegularExpressionValidator@@UEBAPEBUQMetaObject@@XZ"
"?metaObject@QScreen@@UEBAPEBUQMetaObject@@XZ"
"?metaObject@QSessionManager@@UEBAPEBUQMetaObject@@XZ"
"?metaObject@QShortcut@@UEBAPEBUQMetaObject@@XZ"
"?metaObject@QStandardItemModel@@UEBAPEBUQMetaObject@@XZ"
"?metaObject@QStyleHints@@UEBAPEBUQMetaObject@@XZ"
"?metaObject@QSyntaxHighlighter@@UEBAPEBUQMetaObject@@XZ"
"?metaObject@QTextBlockGroup@@UEBAPEBUQMetaObject@@XZ"
"?metaObject@QTextDocument@@UEBAPEBUQMetaObject@@XZ"
"?metaObject@QTextDocumentLayout@@UEBAPEBUQMetaObject@@XZ"
"?metaObject@QTextFrame@@UEBAPEBUQMetaObject@@XZ"
"?metaObject@QTextImageHandler@@UEBAPEBUQMetaObject@@XZ"
"?metaObject@QTextList@@UEBAPEBUQMetaObject@@XZ"
"?metaObject@QTextObject@@UEBAPEBUQMetaObject@@XZ"
"?metaObject@QTextTable@@UEBAPEBUQMetaObject@@XZ"
"?metaObject@QUndoGroup@@UEBAPEBUQMetaObject@@XZ"
"?metaObject@QUndoStack@@UEBAPEBUQMetaObject@@XZ"
"?metaObject@QValidator@@UEBAPEBUQMetaObject@@XZ"
"?metaObject@QWindow@@UEBAPEBUQMetaObject@@XZ"
"?metaObject@QWindowsGuiEventDispatcher@@UEBAPEBUQMetaObject@@XZ"
"?metric@QBlittablePlatformPixmap@@UEBAHW4PaintDeviceMetric@QPaintDevice@@@Z"
"?metric@QImage@@MEBAHW4PaintDeviceMetric@QPaintDevice@@@Z"
"?metric@QPaintDevice@@MEBAHW4PaintDeviceMetric@1@@Z"
"?metric@QPaintDeviceWindow@@MEBAHW4PaintDeviceMetric@QPaintDevice@@@Z"
"?metric@QPicture@@MEBAHW4PaintDeviceMetric@QPaintDevice@@@Z"
"?metric@QPixmap@@MEBAHW4PaintDeviceMetric@QPaintDevice@@@Z"
"?metric@QRasterPlatformPixmap@@MEBAHW4PaintDeviceMetric@QPaintDevice@@@Z"
"?metric@QRasterWindow@@MEBAHW4PaintDeviceMetric@QPaintDevice@@@Z"
"?mid@QPalette@@QEBAAEBVQBrush@@XZ"
"?midPoint@QBezier@@QEBA?AVQPointF@@XZ"
"?midTangent@QBezier@@QEBA?AVQLineF@@XZ"
"?midlight@QPalette@@QEBAAEBVQBrush@@XZ"
"?mightBeRichText@Qt@@YA_NAEBVQString@@@Z"
"?mightBeRichText@Qt@@YA_NVQAnyStringView@@@Z"
"?mimeData@QClipboard@@QEBAPEBVQMimeData@@W4Mode@1@@Z"
"?mimeData@QDrag@@QEBAPEAVQMimeData@@XZ"
"?mimeData@QDropEvent@@QEBAPEBVQMimeData@@XZ"
"?mimeData@QFileSystemModel@@UEBAPEAVQMimeData@@AEBV?$QList@VQModelIndex@@@@@Z"
"?mimeData@QPlatformClipboard@@UEAAPEAVQMimeData@@W4Mode@QClipboard@@@Z"
"?mimeData@QStandardItemModel@@UEBAPEAVQMimeData@@AEBV?$QList@VQModelIndex@@@@@Z"
"?mimeTypeFilters@QFileDialogOptions@@QEBA?AV?$QList@VQString@@@@XZ"
"?mimeTypes@QFileSystemModel@@UEBA?AV?$QList@VQString@@@@XZ"
"?mimeTypes@QStandardItemModel@@UEBA?AV?$QList@VQString@@@@XZ"
"?minDepth@QRhiViewport@@QEBAMXZ"
"?minFilter@QRhiSampler@@QEBA?AW4Filter@1@XZ"
"?minLeftBearing@QFontEngine@@UEBANXZ"
"?minLeftBearing@QFontEngineMulti@@UEBANXZ"
"?minLeftBearing@QFontMetrics@@QEBAHXZ"
"?minLeftBearing@QFontMetricsF@@QEBANXZ"
"?minRightBearing@QFontEngine@@UEBANXZ"
"?minRightBearing@QFontEngineMulti@@UEBANXZ"
"?minRightBearing@QFontMetrics@@QEBAHXZ"
"?minRightBearing@QFontMetricsF@@QEBANXZ"
"?min_cost@QFontCache@@0IB"
"?minimumHeight@QWindow@@QEBAHXZ"
"?minimumHeightChanged@QWindow@@QEAAXH@Z"
"?minimumMargins@QPageLayout@@QEBA?AVQMarginsF@@XZ"
"?minimumSize@QWindow@@QEBA?AVQSize@@XZ"
"?minimumWidth@QTextLayout@@QEBANXZ"
"?minimumWidth@QWindow@@QEBAHXZ"
"?minimumWidthChanged@QWindow@@QEAAXH@Z"
"?minorVersion@QSurfaceFormat@@QEBAHXZ"
"?mipLevelsForSize@QRhi@@SAHAEBVQSize@@@Z"
"?mipmapMode@QRhiSampler@@QEBA?AW4Filter@1@XZ"
"?mirror@QImage@@QEAAX_N0@Z"
"?mirrored@QImage@@QEGBA?AV1@_N0@Z"
"?mirrored@QImage@@QEHAA?AV1@_N0@Z"
"?mirrored_helper@QImage@@IEBA?AV1@_N0@Z"
"?mirrored_inplace@QImage@@IEAAX_N0@Z"
"?miterLimit@QPainterPathStroker@@QEBANXZ"
"?miterLimit@QPen@@QEBANXZ"
"?miterLimit@QStroker@@QEBANXZ"
"?mkdir@QFileSystemModel@@QEAA?AVQModelIndex@@AEBV2@AEBVQString@@@Z"
"?mnemonic@QKeySequence@@SA?AV1@AEBVQString@@@Z"
"?modalWindow@QGuiApplication@@SAPEAVQWindow@@XZ"
"?modality@QWindow@@QEBA?AW4WindowModality@Qt@@XZ"
"?modalityChanged@QWindow@@QEAAXW4WindowModality@Qt@@@Z"
"?mode@QPageLayout@@QEBA?AW4Mode@1@XZ"
"?model@QPlatformScreen@@UEBA?AVQString@@XZ"
"?model@QScreen@@QEBA?AVQString@@XZ"
"?model@QStandardItem@@QEBAPEAVQStandardItemModel@@XZ"
"?modelChangeType@QAccessibleTableModelChangeEvent@@QEBA?AW4ModelChangeType@1@XZ"
"?modes@QPlatformScreen@@UEBA?AV?$QList@UMode@QPlatformScreen@@@@XZ"
"?modificationChanged@QTextDocument@@QEAAX_N@Z"
"?modifier_buttons@QGuiApplicationPrivate@@2V?$QFlags@W4KeyboardModifier@Qt@@@@A"
"?modifiers@QDropEvent@@QEBA?AV?$QFlags@W4KeyboardModifier@Qt@@@@XZ"
"?modifiers@QInputEvent@@QEBA?AV?$QFlags@W4KeyboardModifier@Qt@@@@XZ"
"?modifiers@QKeyEvent@@QEBA?AV?$QFlags@W4KeyboardModifier@Qt@@@@XZ"
"?mouseButtons@QDropEvent@@QEBA?AV?$QFlags@W4MouseButton@Qt@@@@XZ"
"?mouseButtons@QGuiApplication@@SA?AV?$QFlags@W4MouseButton@Qt@@@@XZ"
"?mouseDoubleClickDistance@QStyleHints@@QEBAHXZ"
"?mouseDoubleClickEvent@QWindow@@MEAAXPEAVQMouseEvent@@@Z"
"?mouseDoubleClickInterval@QStyleHints@@QEBAHXZ"
"?mouseDoubleClickIntervalChanged@QStyleHints@@QEAAXH@Z"
"?mouseMoveEvent@QWindow@@MEAAXPEAVQMouseEvent@@@Z"
"?mousePressAndHoldInterval@QStyleHints@@QEBAHXZ"
"?mousePressAndHoldIntervalChanged@QStyleHints@@QEAAXH@Z"
"?mousePressButton@QGuiApplicationPrivate@@2W4MouseButton@Qt@@A"
"?mousePressEvent@QWindow@@MEAAXPEAVQMouseEvent@@@Z"
"?mouseQuickSelectionThreshold@QStyleHints@@QEBAHXZ"
"?mouseQuickSelectionThresholdChanged@QStyleHints@@QEAAXH@Z"
"?mouseReleaseEvent@QWindow@@MEAAXPEAVQMouseEvent@@@Z"
"?mouse_buttons@QGuiApplicationPrivate@@2V?$QFlags@W4MouseButton@Qt@@@@A"
"?move@QSimpleDrag@@MEAAXAEBVQPoint@@V?$QFlags@W4MouseButton@Qt@@@@V?$QFlags@W4KeyboardModifier@Qt@@@@@Z"
"?move@QTextDocumentPrivate@@QEAAXHHHW4Operation@QTextUndoCommand@@@Z"
"?move@QTouchEventSequence@QTest@@QEAAAEAV12@HAEBVQPoint@@PEAVQWindow@@@Z"
"?moveEvent@QWindow@@MEAAXPEAVQMoveEvent@@@Z"
"?movePosition@QTextCursor@@QEAA_NW4MoveOperation@1@W4MoveMode@1@H@Z"
"?movePosition@QTextCursorPrivate@@QEAA_NW4MoveOperation@QTextCursor@@W4MoveMode@3@@Z"
"?moveShapedPixmapWindow@QBasicDrag@@IEAAXAEBVQPoint@@@Z"
"?moveTo@QPainterPath@@QEAAXAEBVQPointF@@@Z"
"?moveTo@QPainterPath@@QEAAXNN@Z"
"?moveTo@QStrokerOps@@QEAAXNN@Z"
"?moveTo@QTriangulatingStroker@@AEAAXPEBN@Z"
"?multiData@QStandardItem@@UEBAXVQModelRoleDataSpan@@@Z"
"?multiData@QStandardItemModel@@UEBAXAEBVQModelIndex@@VQModelRoleDataSpan@@@Z"
"?multiViewCount@QRhiColorAttachment@@QEBAHXZ"
"?multiViewCount@QRhiGraphicsPipeline@@QEBAHXZ"
"?myComputer@QFileSystemModel@@QEBA?AVQVariant@@H@Z"
"?myComputer@QFileSystemModelPrivate@@SA?AVQString@@XZ"
"?name@QColor@@QEBA?AVQString@@W4NameFormat@1@@Z"
"?name@QFileSystemModelPrivate@@QEBA?AVQString@@AEBVQModelIndex@@@Z"
"?name@QIcon@@QEBA?AVQString@@XZ"
"?name@QInputDevice@@QEBA?AVQString@@XZ"
"?name@QPageSize@@QEBA?AVQString@@XZ"
"?name@QPageSize@@SA?AVQString@@W4PageSizeId@1@@Z"
"?name@QPlatformScreen@@UEBA?AVQString@@XZ"
"?name@QPlatformTheme@@QEBA?AVQString@@XZ"
"?name@QRhiResource@@QEBA?AVQByteArray@@XZ"
"?name@QScreen@@QEBA?AVQString@@XZ"
"?name@QTextImageFormat@@QEBA?AVQString@@XZ"
"?nameFilterDisables@QFileSystemModel@@QEBA_NXZ"
"?nameFilters@QFileDialogOptions@@QEBA?AV?$QList@VQString@@@@XZ"
"?nameFilters@QFileSystemModel@@QEBA?AV?$QList@VQString@@@@XZ"
"?nameResolved@QFileInfoGatherer@@QEBAXAEBVQString@@0@Z"
"?nativeBuffer@QRhiBuffer@@UEAA?AUNativeBuffer@1@XZ"
"?nativeEvent@QWindow@@MEAA_NAEBVQByteArray@@PEAXPEA_J@Z"
"?nativeHandle@QPaintEnginePrivate@@UEAAPEAXXZ"
"?nativeHandles@QRhi@@QEAAPEBUQRhiNativeHandles@@XZ"
"?nativeHandles@QRhiCommandBuffer@@QEAAPEBUQRhiNativeHandles@@XZ"
"?nativeHandles@QRhiRenderPassDescriptor@@UEAAPEBUQRhiNativeHandles@@XZ"
"?nativeInterface@QPlatformIntegration@@UEBAPEAVQPlatformNativeInterface@@XZ"
"?nativeModifiers@QKeyEvent@@QEBAIXZ"
"?nativeOrientation@QPlatformScreen@@UEBA?AW4ScreenOrientation@Qt@@XZ"
"?nativeOrientation@QScreen@@QEBA?AW4ScreenOrientation@Qt@@XZ"
"?nativeResourceBindingMap@QShader@@QEBA?AV?$QMap@HU?$pair@HH@std@@@@AEBVQShaderKey@@@Z"
"?nativeResourceForBackingStore@QPlatformNativeInterface@@UEAAPEAXAEBVQByteArray@@PEAVQBackingStore@@@Z"
"?nativeResourceForContext@QPlatformNativeInterface@@UEAAPEAXAEBVQByteArray@@PEAVQOpenGLContext@@@Z"
"?nativeResourceForCursor@QPlatformNativeInterface@@UEAAPEAXAEBVQByteArray@@AEBVQCursor@@@Z"
"?nativeResourceForIntegration@QPlatformNativeInterface@@UEAAPEAXAEBVQByteArray@@@Z"
"?nativeResourceForScreen@QPlatformNativeInterface@@UEAAPEAXAEBVQByteArray@@PEAVQScreen@@@Z"
"?nativeResourceForWindow@QPlatformNativeInterface@@UEAAPEAXAEBVQByteArray@@PEAVQWindow@@@Z"
"?nativeResourceFunctionForBackingStore@QPlatformNativeInterface@@UEAAP6APEAXPEAVQBackingStore@@@ZAEBVQByteArray@@@Z"
"?nativeResourceFunctionForContext@QPlatformNativeInterface@@UEAAP6APEAXPEAVQOpenGLContext@@@ZAEBVQByteArray@@@Z"
"?nativeResourceFunctionForIntegration@QPlatformNativeInterface@@UEAAP6APEAXXZAEBVQByteArray@@@Z"
"?nativeResourceFunctionForScreen@QPlatformNativeInterface@@UEAAP6APEAXPEAVQScreen@@@ZAEBVQByteArray@@@Z"
"?nativeResourceFunctionForWindow@QPlatformNativeInterface@@UEAAP6APEAXPEAVQWindow@@@ZAEBVQByteArray@@@Z"
"?nativeScanCode@QKeyEvent@@QEBAIXZ"
"?nativeShaderInfo@QShader@@QEBA?AUNativeShaderInfo@1@AEBVQShaderKey@@@Z"
"?nativeTexture@QRhiTexture@@UEAA?AUNativeTexture@1@XZ"
"?nativeVirtualKey@QKeyEvent@@QEBAIXZ"
"?naturalTextRect@QTextLine@@QEBA?AVQRectF@@XZ"
"?naturalTextWidth@QTextLine@@QEBANXZ"
"?newBuffer@QRhi@@QEAAPEAVQRhiBuffer@@W4Type@2@V?$QFlags@W4UsageFlag@QRhiBuffer@@@@I@Z"
"?newComputePipeline@QRhi@@QEAAPEAVQRhiComputePipeline@@XZ"
"?newFallbackSurface@QRhiGles2InitParams@@SAPEAVQOffscreenSurface@@AEBVQSurfaceFormat@@@Z"
"?newGraphicsPipeline@QRhi@@QEAAPEAVQRhiGraphicsPipeline@@XZ"
"?newListOfFiles@QFileInfoGatherer@@QEBAXAEBVQString@@AEBV?$QList@VQString@@@@@Z"
"?newRenderBuffer@QRhi@@QEAAPEAVQRhiRenderBuffer@@W4Type@2@AEBVQSize@@HV?$QFlags@W4Flag@QRhiRenderBuffer@@@@W4Format@QRhiTexture@@@Z"
"?newSampler@QRhi@@QEAAPEAVQRhiSampler@@W4Filter@2@00W4AddressMode@2@11@Z"
"?newShaderResourceBindings@QRhi@@QEAAPEAVQRhiShaderResourceBindings@@XZ"
"?newSwapChain@QRhi@@QEAAPEAVQRhiSwapChain@@XZ"
"?newTexture@QRhi@@QEAAPEAVQRhiTexture@@W4Format@2@AEBVQSize@@HV?$QFlags@W4Flag@QRhiTexture@@@@@Z"
"?newTexture@QRhi@@QEAAPEAVQRhiTexture@@W4Format@2@HHHHV?$QFlags@W4Flag@QRhiTexture@@@@@Z"
"?newTextureArray@QRhi@@QEAAPEAVQRhiTexture@@W4Format@2@HAEBVQSize@@HV?$QFlags@W4Flag@QRhiTexture@@@@@Z"
"?newTextureRenderTarget@QRhi@@QEAAPEAVQRhiTextureRenderTarget@@AEBVQRhiTextureRenderTargetDescription@@V?$QFlags@W4Flag@QRhiTextureRenderTarget@@@@@Z"
"?next@Parser@QCss@@QEAA?AW4TokenType@2@XZ"
"?next@Parser@QCss@@QEAA_NW4TokenType@2@@Z"
"?next@QTextBlock@@QEBA?AV1@XZ"
"?nextCursorPosition@QTextDocumentPrivate@@QEBAHHW4CursorMode@QTextLayout@@@Z"
"?nextCursorPosition@QTextLayout@@QEBAHHW4CursorMode@1@@Z"
"?nextFrameDelay@QMovie@@QEBAHXZ"
"?nextId@?1???0QInputDevicePrivate@@QEAA@AEBVQString@@_JW4DeviceType@QInputDevice@@V?$QFlags@W4Capability@QInputDevice@@@@0@Z@4_JA"
"?nextImageDelay@QImageIOHandler@@UEBAHXZ"
"?nextImageDelay@QImageReader@@QEBAHXZ"
"?nextLogicalPosition@QTextEngine@@QEBAHH@Z"
"?nextPageAction@QAccessibleActionInterface@@SA?AVQString@@XZ"
"?nextResourceUpdateBatch@QRhi@@QEAAPEAVQRhiResourceUpdateBatch@@XZ"
"?nextState@QShortcutMap@@AEAA?AW4SequenceMatch@QKeySequence@@PEAVQKeyEvent@@@Z"
"?nlerp@QQuaternion@@SA?AV1@AEBV1@0M@Z"
"?node@QFileSystemModelPrivate@@QEBAPEAVQFileSystemNode@1@AEBVQModelIndex@@@Z"
"?node@QFileSystemModelPrivate@@QEBAPEAVQFileSystemNode@1@AEBVQString@@_N@Z"
"?nodeIds@StyleSelector@QCss@@UEBA?AV?$QList@VQString@@@@TNodePtr@12@@Z"
"?nodeNameEquals@StyleSelector@QCss@@UEBA_NTNodePtr@12@AEBVQString@@@Z"
"?nonBreakableLines@QTextBlockFormat@@QEBA_NXZ"
"?nonUserInputEventsQueued@QWindowSystemInterface@@SA_NXZ"
"?nonUserInputEventsQueued@QWindowSystemInterfacePrivate@@SA_NXZ"
"?normalGeometry@QPlatformWindow@@UEBA?AVQRect@@XZ"
"?normalMatrix@QMatrix4x4@@QEBA?AV?$QGenericMatrix@$02$02M@@XZ"
"?normalVector@QBezier@@QEBA?AVQPointF@@N@Z"
"?normalVector@QTriangulatingStroker@@AEAAXMMMMPEAM0@Z"
"?normalize@QGridLayoutBox@@QEAAXXZ"
"?normalize@QQuaternion@@QEAAXXZ"
"?normalized@QQuaternion@@QEBA?AV1@XZ"
"?normalizedPos@QEventPoint@@QEBA?AVQPointF@@XZ"
"?normalizedPosition@QEventPoint@@QEBA?AVQPointF@@XZ"
"?notation@QDoubleValidator@@QEBA?AW4Notation@1@XZ"
"?notationChanged@QDoubleValidator@@QEAAXW4Notation@1@@Z"
"?notify@QGuiApplication@@UEAA_NPEAVQObject@@PEAVQEvent@@@Z"
"?notifyAccessibilityUpdate@QPlatformAccessibility@@UEAAXPEAVQAccessibleEvent@@@Z"
"?notifyActiveWindowChange@QGuiApplicationPrivate@@UEAAXPEAVQWindow@@@Z"
"?notifyDragStarted@QGuiApplicationPrivate@@MEAAXPEBVQDrag@@@Z"
"?notifyLayoutDirectionChange@QGuiApplicationPrivate@@UEAAXXZ"
"?notifyWindowIconChanged@QGuiApplicationPrivate@@UEAAXXZ"
"?numBlocks@QTextDocumentPrivate@@QEBAHXZ"
"?numFaces@QTextureFileData@@QEBAHXZ"
"?numFormats@QTextFormatCollection@@QEBAHXZ"
"?numLevels@QTextureFileData@@QEBAHXZ"
"?numberOfKeyBindings@QPlatformThemePrivate@@2IB"
"?numberPrefix@QTextListFormat@@QEBA?AVQString@@XZ"
"?numberSuffix@QTextListFormat@@QEBA?AVQString@@XZ"
"?numericId@QPointingDeviceUniqueId@@QEBA_JXZ"
"?obey_desktop_settings@QGuiApplicationPrivate@@2_NA"
"?object@QAccessibleEvent@@QEBAPEAVQObject@@XZ"
"?object@QAccessibleObject@@UEBAPEAVQObject@@XZ"
"?object@QDragManager@@QEBA?AV?$QPointer@VQDrag@@@@XZ"
"?object@QTextDocument@@QEBAPEAVQTextObject@@H@Z"
"?objectDestroyed@QAccessibleCache@@AEAAXPEAVQObject@@@Z"
"?objectForFormat@QTextDocument@@QEBAPEAVQTextObject@@AEBVQTextFormat@@@Z"
"?objectForFormat@QTextDocumentPrivate@@QEBAPEAVQTextObject@@AEBVQTextFormat@@@Z"
"?objectForFormat@QTextDocumentPrivate@@QEBAPEAVQTextObject@@H@Z"
"?objectForIndex@QTextDocumentPrivate@@QEBAPEAVQTextObject@@H@Z"
"?objectFormat@QTextFormatCollection@@QEBA?AVQTextFormat@@H@Z"
"?objectFormatIndex@QTextFormatCollection@@QEBAHH@Z"
"?objectIndex@QTextFormat@@QEBAHXZ"
"?objectIndex@QTextObject@@QEBAHXZ"
"?objectType@QTextFormat@@QEBAHXZ"
"?offscreenSurface@QPlatformOffscreenSurface@@QEBAPEAVQOffscreenSurface@@XZ"
"?offset@QImage@@QEBA?AVQPoint@@XZ"
"?offset@QRhiVertexInputAttribute@@QEBAIXZ"
"?offsetInLigature@QTextEngine@@QEAA?AUQFixed@@PEBUQScriptItem@@HHH@Z"
"?oldPos@QHoverEvent@@QEBA?AVQPoint@@XZ"
"?oldPos@QMoveEvent@@QEBAAEBVQPoint@@XZ"
"?oldPosF@QHoverEvent@@QEBA?AVQPointF@@XZ"
"?oldSize@QResizeEvent@@QEBAAEBVQSize@@XZ"
"?oldState@QWindowStateChangeEvent@@QEBA?AV?$QFlags@W4WindowState@Qt@@@@XZ"
"?opacity@QPaintEngineState@@QEBANXZ"
"?opacity@QPainter@@QEBANXZ"
"?opacity@QWindow@@QEBANXZ"
"?opacityChanged@QBlitterPaintEngine@@UEAAXXZ"
"?opacityChanged@QRasterPaintEngine@@UEAAXXZ"
"?opacityChanged@QWindow@@QEAAXN@Z"
"?openDocument@QPlatformServices@@UEAA_NAEBVQUrl@@@Z"
"?openFile@QFileOpenEvent@@QEBA_NAEAVQFile@@V?$QFlags@W4OpenModeFlag@QIODeviceBase@@@@@Z"
"?openGLExtensions@QOpenGLExtensions@@QEAA?AV?$QFlags@W4OpenGLExtension@QOpenGLExtensions@@@@XZ"
"?openGLFeatures@QOpenGLFunctions@@QEBA?AV?$QFlags@W4OpenGLFeature@QOpenGLFunctions@@@@XZ"
"?openGLModuleHandle@QWGLContext@QNativeInterface@@SAPEAUHINSTANCE__@@XZ"
"?openGLModuleType@QOpenGLContext@@SA?AW4OpenGLModuleType@1@XZ"
"?openGLModuleType@QPlatformIntegration@@UEAA?AW4OpenGLModuleType@QOpenGLContext@@XZ"
"?openUrl@QDesktopServices@@SA_NAEBVQUrl@@@Z"
"?openUrl@QPlatformServices@@UEAA_NAEBVQUrl@@@Z"
"?optimize@QMatrix4x4@@QEAAXXZ"
"?optimizedWrite@QImageWriter@@QEBA_NXZ"
"?option@QImageIOHandler@@UEBA?AVQVariant@@W4ImageOption@1@@Z"
"?options@QAbstractFileIconEngine@@QEBA?AV?$QFlags@W4IconOption@QPlatformTheme@@@@XZ"
"?options@QAbstractFileIconProvider@@UEBA?AV?$QFlags@W4Option@QAbstractFileIconProvider@@@@XZ"
"?options@QColorDialogOptions@@QEBA?AV?$QFlags@W4ColorDialogOption@QColorDialogOptions@@@@XZ"
"?options@QFileDialogOptions@@QEBA?AV?$QFlags@W4FileDialogOption@QFileDialogOptions@@@@XZ"
"?options@QFileSystemModel@@QEBA?AV?$QFlags@W4Option@QFileSystemModel@@@@XZ"
"?options@QFontDialogOptions@@QEBA?AV?$QFlags@W4FontDialogOption@QFontDialogOptions@@@@XZ"
"?options@QMessageDialogOptions@@QEBA?AV?$QFlags@W4Option@QMessageDialogOptions@@@@XZ"
"?options@QPlatformColorDialogHelper@@QEBAAEBV?$QSharedPointer@VQColorDialogOptions@@@@XZ"
"?options@QPlatformFileDialogHelper@@QEBAAEBV?$QSharedPointer@VQFileDialogOptions@@@@XZ"
"?options@QPlatformFontDialogHelper@@QEBAAEBV?$QSharedPointer@VQFontDialogOptions@@@@XZ"
"?options@QPlatformMessageDialogHelper@@QEBAAEBV?$QSharedPointer@VQMessageDialogOptions@@@@XZ"
"?options@QSurfaceFormat@@QEBA?AV?$QFlags@W4FormatOption@QSurfaceFormat@@@@XZ"
"?orientation@QPageLayout@@QEBA?AW4Orientation@1@XZ"
"?orientation@QPlatformScreen@@UEBA?AW4ScreenOrientation@Qt@@XZ"
"?orientation@QScreen@@QEBA?AW4ScreenOrientation@Qt@@XZ"
"?orientation@QScreenOrientationChangeEvent@@QEBA?AW4ScreenOrientation@Qt@@XZ"
"?orientationChanged@QScreen@@QEAAXW4ScreenOrientation@Qt@@@Z"
"?origin@QPlatformGraphicsBuffer@@UEBA?AW4Origin@1@XZ"
"?originValue@Declaration@QCss@@QEBA?AW4Origin@2@XZ"
"?ortho@QMatrix4x4@@QEAAXAEBVQRect@@@Z"
"?ortho@QMatrix4x4@@QEAAXAEBVQRectF@@@Z"
"?ortho@QMatrix4x4@@QEAAXMMMMMM@Z"
"?orthonormalInverse@QMatrix4x4@@AEBA?AV1@XZ"
"?outputBuiltinVariables@QShaderDescription@@QEBA?AV?$QList@UBuiltinVariable@QShaderDescription@@@@XZ"
"?outputVariables@QShaderDescription@@QEBA?AV?$QList@UInOutVariable@QShaderDescription@@@@XZ"
"?overline@QFont@@QEBA_NXZ"
"?overline@QFontInfo@@QEBA_NXZ"
"?overline@QGlyphRun@@QEBA_NXZ"
"?overlinePos@QFontMetrics@@QEBAHXZ"
"?overlinePos@QFontMetricsF@@QEBANXZ"
"?overrideCursor@QGuiApplication@@SAPEAVQCursor@@XZ"
"?overrideDpi@QPlatformScreen@@SA?AU?$pair@NN@std@@AEBU23@@Z"
"?overshootDistance@QScrollEvent@@QEBA?AVQPointF@@XZ"
"?ownsClipboard@QClipboard@@QEBA_NXZ"
"?ownsDragObject@QPlatformDrag@@UEBA_NXZ"
"?ownsFindBuffer@QClipboard@@QEBA_NXZ"
"?ownsMode@QClipboard@@AEBA_NW4Mode@1@@Z"
"?ownsMode@QPlatformClipboard@@UEBA_NW4Mode@QClipboard@@@Z"
"?ownsSelection@QClipboard@@QEBA_NXZ"
"?padding@QTextFrameFormat@@QEBANXZ"
"?pageBreakPolicy@QTextBlockFormat@@QEBA?AV?$QFlags@W4PageBreakFlag@QTextFormat@@@@XZ"
"?pageBreakPolicy@QTextFrameFormat@@QEBA?AV?$QFlags@W4PageBreakFlag@QTextFormat@@@@XZ"
"?pageCount@QTextDocument@@QEBAHXZ"
"?pageCount@QTextDocumentLayout@@UEBAHXZ"
"?pageCountChanged@QAbstractTextDocumentLayout@@QEAAXH@Z"
"?pageLayout@QPagedPaintDevice@@QEBA?AVQPageLayout@@XZ"
"?pageRanges@QPagedPaintDevice@@QEBA?AVQPageRanges@@XZ"
"?pageSize@QPageLayout@@QEBA?AVQPageSize@@XZ"
"?pageSize@QTextDocument@@QEBA?AVQSizeF@@XZ"
"?paint@QIcon@@QEBAXPEAVQPainter@@AEBVQRect@@V?$QFlags@W4AlignmentFlag@Qt@@@@W4Mode@1@W4State@1@@Z"
"?paint@QIcon@@QEBAXPEAVQPainter@@HHHHV?$QFlags@W4AlignmentFlag@Qt@@@@W4Mode@1@W4State@1@@Z"
"?paint@QPaintDeviceWindowPrivate@@QEAA_NAEBVQRegion@@@Z"
"?paint@QPixmapIconEngine@@UEAAXPEAVQPainter@@AEBVQRect@@W4Mode@QIcon@@W4State@5@@Z"
"?paintDevice@QAbstractTextDocumentLayout@@QEBAPEAVQPaintDevice@@XZ"
"?paintDevice@QBackingStore@@QEAAPEAVQPaintDevice@@XZ"
"?paintDevice@QPaintEngine@@QEBAPEAVQPaintDevice@@XZ"
"?paintEngine@QBlittablePlatformPixmap@@UEBAPEAVQPaintEngine@@XZ"
"?paintEngine@QImage@@UEBAPEAVQPaintEngine@@XZ"
"?paintEngine@QPaintDeviceWindow@@EEBAPEAVQPaintEngine@@XZ"
"?paintEngine@QPainter@@QEBAPEAVQPaintEngine@@XZ"
"?paintEngine@QPicture@@UEBAPEAVQPaintEngine@@XZ"
"?paintEngine@QPixmap@@UEBAPEAVQPaintEngine@@XZ"
"?paintEngine@QRasterPlatformPixmap@@UEBAPEAVQPaintEngine@@XZ"
"?paintEvent@QPaintDeviceWindow@@MEAAXPEAVQPaintEvent@@@Z"
"?paintEvent@QWindow@@MEAAXPEAVQPaintEvent@@@Z"
"?paintRect@QPageLayout@@QEBA?AVQRectF@@W4Unit@1@@Z"
"?paintRect@QPageLayout@@QEBA?AVQRectF@@XZ"
"?paintRectPixels@QPageLayout@@QEBA?AVQRect@@H@Z"
"?paintRectPoints@QPageLayout@@QEBA?AVQRect@@XZ"
"?painter@QPaintEngine@@QEBAPEAVQPainter@@XZ"
"?painter@QPaintEngineState@@QEBAPEAVQPainter@@XZ"
"?paintingActive@QPaintDevice@@QEBA_NXZ"
"?palette@QGuiApplication@@SA?AVQPalette@@XZ"
"?palette@QPlatformTheme@@UEBAPEBVQPalette@@W4Palette@1@@Z"
"?paletteChanged@QGuiApplication@@QEAAXAEBVQPalette@@@Z"
"?parameterSplitLeft@QBezier@@QEAAXNPEAV1@@Z"
"?parent@QAccessibleApplication@@UEBAPEAVQAccessibleInterface@@XZ"
"?parent@QFileSystemModel@@UEBA?AVQModelIndex@@AEBV2@@Z"
"?parent@QPlatformWindow@@QEBAPEAV1@XZ"
"?parent@QStandardItem@@QEBAPEAV1@XZ"
"?parent@QStandardItemModel@@UEBA?AVQModelIndex@@AEBV2@@Z"
"?parent@QWindow@@QEBAPEAV1@W4AncestorMode@1@@Z"
"?parentFrame@QTextFrame@@QEBAPEAV1@XZ"
"?parentWindow@QPlatformMenuBar@@UEBAPEAVQWindow@@XZ"
"?parse@Parser@QCss@@QEAA_NPEAUStyleSheet@2@W4CaseSensitivity@Qt@@@Z"
"?parse@QEdidParser@@QEAA_NAEBVQByteArray@@@Z"
"?parseAttrib@Parser@QCss@@QEAA_NPEAUAttributeSelector@2@@Z"
"?parseClass@Parser@QCss@@QEAA_NPEAVQString@@@Z"
"?parseCombinator@Parser@QCss@@QEAA_NPEAW4Relation@BasicSelector@2@@Z"
"?parseEdidString@QEdidParser@@AEAA?AVQString@@PEBE@Z"
"?parseElementName@Parser@QCss@@QEAA_NPEAVQString@@@Z"
"?parseEntity@QTextHtmlParser@@SA?AVQString@@VQStringView@@@Z"
"?parseExpr@Parser@QCss@@QEAA_NPEAV?$QList@UValue@QCss@@@@@Z"
"?parseFontName@QFontDatabasePrivate@@SAXAEBVQString@@AEAV2@1@Z"
"?parseFunction@Parser@QCss@@QEAA_NPEAVQString@@0@Z"
"?parseHexColor@Parser@QCss@@QEAA_NPEAVQColor@@@Z"
"?parseImport@Parser@QCss@@QEAA_NPEAUImportRule@2@@Z"
"?parseMedia@Parser@QCss@@QEAA_NPEAUMediaRule@2@@Z"
"?parseMedium@Parser@QCss@@QEAA_NPEAV?$QList@VQString@@@@@Z"
"?parseNextDeclaration@Parser@QCss@@QEAA_NPEAUDeclaration@2@@Z"
"?parseNextExpr@Parser@QCss@@QEAA_NPEAV?$QList@UValue@QCss@@@@@Z"
"?parseNextFunction@Parser@QCss@@QEAA_NPEAVQString@@0@Z"
"?parseNextMedium@Parser@QCss@@QEAA_NPEAV?$QList@VQString@@@@@Z"
"?parseNextOperator@Parser@QCss@@QEAA_NPEAUValue@2@@Z"
"?parseNextSelector@Parser@QCss@@QEAA_NPEAUSelector@2@@Z"
"?parseNextSimpleSelector@Parser@QCss@@QEAA_NPEAUBasicSelector@2@@Z"
"?parseOpenGLVersion@QPlatformOpenGLContext@@SA_NAEBVQByteArray@@AEAH1@Z"
"?parsePage@Parser@QCss@@QEAA_NPEAUPageRule@2@@Z"
"?parsePrio@Parser@QCss@@QEAA_NPEAUDeclaration@2@@Z"
"?parseProperty@Parser@QCss@@QEAA_NPEAUDeclaration@2@@Z"
"?parsePseudo@Parser@QCss@@QEAA_NPEAUPseudo@2@@Z"
"?parsePseudoPage@Parser@QCss@@QEAA_NPEAVQString@@@Z"
"?parseRuleset@Parser@QCss@@QEAA_NPEAUStyleRule@2@@Z"
"?parseScreenScaleFactorsSpec@QHighDpiScaling@@CA?AV?$QList@UScreenFactor@QHighDpiScaling@@@@VQStringView@@@Z"
"?parseSelector@Parser@QCss@@QEAA_NPEAUSelector@2@@Z"
"?parseSimpleSelector@Parser@QCss@@QEAA_NPEAUBasicSelector@2@@Z"
"?parseTerm@Parser@QCss@@QEAA_NPEAUValue@2@@Z"
"?participatesInLastWindowClosed@QWindowPrivate@@UEBA_NXZ"
"?passNameFilters@QFileSystemModelPrivate@@QEBA_NPEBVQFileSystemNode@1@@Z"
"?passiveGrabbers@QPointerEvent@@QEBA?AV?$QList@V?$QPointer@VQObject@@@@@@AEBVQEventPoint@@@Z"
"?passwordMaskCharacter@QStyleHints@@QEBA?AVQChar@@XZ"
"?passwordMaskDelay@QStyleHints@@QEBAHXZ"
"?patchControlPointCount@QRhiGraphicsPipeline@@QEBAHXZ"
"?pathForGlyph@QRawFont@@QEBA?AVQPainterPath@@I@Z"
"?pathToRect@QPathClipper@@SA_NAEBVQPainterPath@@PEAVQRectF@@@Z"
"?patternForStyle@QDashStroker@@SA?AV?$QList@N@@W4PenStyle@Qt@@@Z"
"?peekWindowSystemEvent@QWindowSystemInterfacePrivate@@SAPEAVWindowSystemEvent@1@W4EventType@1@@Z"
"?pen@QPaintEngineState@@QEBA?AVQPen@@XZ"
"?pen@QPainter@@QEBAAEBVQPen@@XZ"
"?penChanged@QBlitterPaintEngine@@UEAAXXZ"
"?penChanged@QRasterPaintEngine@@UEAAXXZ"
"?penNeedsResolving@QPaintEngineState@@QEBA_NXZ"
"?penProperty@QTextFormat@@QEBA?AVQPen@@H@Z"
"?perItemSpacing@QAbstractLayoutStyleInfo@@UEBANW4ControlType@QLayoutPolicy@@0W4Orientation@Qt@@@Z"
"?percentAtLength@QPainterPath@@QEBANN@Z"
"?performDelayedSort@QFileSystemModelPrivate@@QEAAXXZ"
"?performEffectiveAction@QAccessibleBridgeUtils@@YA_NPEAVQAccessibleInterface@@AEBVQString@@@Z"
"?performanceHint@QStaticText@@QEBA?AW4PerformanceHint@1@XZ"
"?permissions@QFileSystemModel@@QEBA?AV?$QFlags@W4Permission@QFileDevice@@@@AEBVQModelIndex@@@Z"
"?perspective@QMatrix4x4@@QEAAXMMMM@Z"
"?phase@QWheelEvent@@QEBA?AW4ScrollPhase@Qt@@XZ"
"?physicalDotsPerInch@QScreen@@QEBANXZ"
"?physicalDotsPerInchChanged@QScreen@@QEAAXN@Z"
"?physicalDotsPerInchX@QScreen@@QEBANXZ"
"?physicalDotsPerInchY@QScreen@@QEBANXZ"
"?physicalDpiX@QPaintDevice@@QEBAHXZ"
"?physicalDpiY@QPaintDevice@@QEBAHXZ"
"?physicalSize@QPlatformScreen@@UEBA?AVQSizeF@@XZ"
"?physicalSize@QScreen@@QEBA?AVQSizeF@@XZ"
"?physicalSizeChanged@QScreen@@QEAAXAEBVQSizeF@@@Z"
"?pipelineCacheData@QRhi@@QEAA?AVQByteArray@@XZ"
"?pixel@QImage@@QEBAIAEBVQPoint@@@Z"
"?pixel@QImage@@QEBAIHH@Z"
"?pixelColor@QImage@@QEBA?AVQColor@@AEBVQPoint@@@Z"
"?pixelColor@QImage@@QEBA?AVQColor@@HH@Z"
"?pixelDelta@QWheelEvent@@QEBA?AVQPoint@@XZ"
"?pixelFormat@QImage@@QEBA?AVQPixelFormat@@XZ"
"?pixelIndex@QImage@@QEBAHAEBVQPoint@@@Z"
"?pixelIndex@QImage@@QEBAHHH@Z"
"?pixelSize@QFont@@QEBAHXZ"
"?pixelSize@QFontInfo@@QEBAHXZ"
"?pixelSize@QRawFont@@QEBANXZ"
"?pixelSize@QRhiRenderBuffer@@QEBA?AVQSize@@XZ"
"?pixelSize@QRhiTexture@@QEBA?AVQSize@@XZ"
"?pixelSize@QRhiTextureCopyDescription@@QEBA?AVQSize@@XZ"
"?pixelSize@QtFontStyle@@QEAAPEAUQtFontSize@@G_N@Z"
"?pixelType@QPlatformPixmap@@QEBA?AW4PixelType@1@XZ"
"?pixmap@QAbstractFileIconEngine@@UEAA?AVQPixmap@@AEBVQSize@@W4Mode@QIcon@@W4State@5@@Z"
"?pixmap@QClipboard@@QEBA?AVQPixmap@@W4Mode@1@@Z"
"?pixmap@QCursor@@QEBA?AVQPixmap@@XZ"
"?pixmap@QDrag@@QEBA?AVQPixmap@@XZ"
"?pixmap@QIcon@@QEBA?AVQPixmap@@AEBVQSize@@NW4Mode@1@W4State@1@@Z"
"?pixmap@QIcon@@QEBA?AVQPixmap@@AEBVQSize@@W4Mode@1@W4State@1@@Z"
"?pixmap@QIcon@@QEBA?AVQPixmap@@HHW4Mode@1@W4State@1@@Z"
"?pixmap@QIcon@@QEBA?AVQPixmap@@HW4Mode@1@W4State@1@@Z"
"?pixmap@QIcon@@QEBA?AVQPixmap@@PEAVQWindow@@AEBVQSize@@W4Mode@1@W4State@1@@Z"
"?pixmap@QIconEngine@@UEAA?AVQPixmap@@AEBVQSize@@W4Mode@QIcon@@W4State@5@@Z"
"?pixmap@QPixmapIconEngine@@UEAA?AVQPixmap@@AEBVQSize@@W4Mode@QIcon@@W4State@5@@Z"
"?placeholderText@QPalette@@QEBAAEBVQBrush@@XZ"
"?plainText@QTextDocumentPrivate@@QEBA?AVQString@@XZ"
"?platformFunction@QGuiApplication@@SAP6AXXZAEBVQByteArray@@@Z"
"?platformFunction@QPlatformNativeInterface@@UEBAP6AXXZAEBVQByteArray@@@Z"
"?platformIntegration@QGuiApplicationPrivate@@SAPEAVQPlatformIntegration@@XZ"
"?platformName@QGuiApplication@@SA?AVQString@@XZ"
"?platformNativeInterface@QGuiApplication@@SAPEAVQPlatformNativeInterface@@XZ"
"?platformScreenForWindow@QPlatformScreen@@SAPEAV1@PEBVQWindow@@@Z"
"?platformSynthesizesMouse@TabletEvent@QWindowSystemInterfacePrivate@@2_NA"
"?platformTheme@QGuiApplicationPrivate@@SAPEAVQPlatformTheme@@XZ"
"?platform_integration@QGuiApplicationPrivate@@2PEAVQPlatformIntegration@@EA"
"?platform_name@QGuiApplicationPrivate@@2PEAVQString@@EA"
"?platform_theme@QGuiApplicationPrivate@@2PEAVQPlatformTheme@@EA"
"?play@QPicture@@QEAA_NPEAVQPainter@@@Z"
"?point@QPointerEvent@@QEAAAEAVQEventPoint@@_J@Z"
"?point@QPolygon@@QEBAXHPEAH0@Z"
"?point@QTouchEventSequence@QTest@@IEAAAEAVQEventPoint@@H@Z"
"?pointAt@QBezier@@QEBA?AVQPointF@@N@Z"
"?pointAtPercent@QPainterPath@@QEBA?AVQPointF@@N@Z"
"?pointById@QPointerEvent@@QEAAPEAVQEventPoint@@H@Z"
"?pointById@QPointingDevicePrivate@@QEBAPEAUEventPointData@1@H@Z"
"?pointCount@QPointerEvent@@QEBA_JXZ"
"?pointOrPreviousPoint@QTouchEventSequence@QTest@@IEAAAEAVQEventPoint@@H@Z"
"?pointSize@QFont@@QEBAHXZ"
"?pointSize@QFontInfo@@QEBAHXZ"
"?pointSizeF@QFont@@QEBANXZ"
"?pointSizeF@QFontInfo@@QEBANXZ"
"?pointSizes@QFontDatabase@@SA?AV?$QList@H@@AEBVQString@@0@Z"
"?pointerEvent@QPlatformCursor@@UEAAXAEBVQMouseEvent@@@Z"
"?pointerType@QPointerEvent@@QEBA?AW4PointerType@QPointingDevice@@XZ"
"?pointerType@QPointingDevice@@QEBA?AW4PointerType@1@XZ"
"?pointingDevice@QPointerEvent@@QEBAPEBVQPointingDevice@@XZ"
"?pointingDeviceById@QPointingDevicePrivate@@SAPEBVQPointingDevice@@_J@Z"
"?points@QDashedStrokeProcessor@@QEBAPEANXZ"
"?points@QPointerEvent@@QEBAAEBV?$QList@VQEventPoint@@@@XZ"
"?points@QVectorPath@@QEBAPEBNXZ"
"?politeness@QAccessibleAnnouncementEvent@@QEBA?AW4AnnouncementPoliteness@QAccessible@@XZ"
"?polygonFlags@QVectorPath@@SAIW4PolygonDrawMode@QPaintEngine@@@Z"
"?polygonMode@QRhiGraphicsPipeline@@QEBA?AW4PolygonMode@1@XZ"
"?populate@QTextureGlyphCache@@QEAA_NPEAVQFontEngine@@_JPEBIPEBUQFixedPoint@@V?$QFlags@W4RenderHint@QPainter@@@@_N@Z"
"?populateFamily@QPlatformFontDatabase@@UEAAXAEBVQString@@@Z"
"?populateFamily@QWindowsDirectWriteFontDatabase@@UEAAXAEBVQString@@@Z"
"?populateFamily@QWindowsFontDatabase@@UEAAXAEBVQString@@@Z"
"?populateFamilyAliases@QPlatformFontDatabase@@UEAA_NAEBVQString@@@Z"
"?populateFamilyAliases@QWindowsDirectWriteFontDatabase@@UEAA_NAEBVQString@@@Z"
"?populateFamilyAliases@QWindowsFontDatabase@@UEAA_NAEBVQString@@@Z"
"?populateFontDatabase@QPlatformFontDatabase@@UEAAXXZ"
"?populateFontDatabase@QWindowsDirectWriteFontDatabase@@UEAAXXZ"
"?populateFontDatabase@QWindowsFontDatabase@@UEAAXXZ"
"?popupCount@QGuiApplicationPrivate@@SA_JXZ"
"?popup_closed_on_press@QGuiApplicationPrivate@@2_NA"
"?popup_list@QGuiApplicationPrivate@@2V?$QList@PEAVQWindow@@@@A"
"?pos@QContextMenuEvent@@QEBAAEBVQPoint@@XZ"
"?pos@QCursor@@SA?AVQPoint@@PEBVQScreen@@@Z"
"?pos@QCursor@@SA?AVQPoint@@XZ"
"?pos@QDropEvent@@QEBA?AVQPoint@@XZ"
"?pos@QEnterEvent@@QEBA?AVQPoint@@XZ"
"?pos@QEventPoint@@QEBA?AVQPointF@@XZ"
"?pos@QHelpEvent@@QEBAAEBVQPoint@@XZ"
"?pos@QHoverEvent@@QEBA?AVQPoint@@XZ"
"?pos@QMouseEvent@@QEBA?AVQPoint@@XZ"
"?pos@QMoveEvent@@QEBAAEBVQPoint@@XZ"
"?pos@QNativeGestureEvent@@QEBA?BVQPoint@@XZ"
"?pos@QPlatformCursor@@UEBA?AVQPoint@@XZ"
"?pos@QTabletEvent@@QEBA?AVQPoint@@XZ"
"?posF@QDropEvent@@QEBA?AVQPointF@@XZ"
"?posF@QHoverEvent@@QEBA?AVQPointF@@XZ"
"?posF@QTabletEvent@@QEBA?BVQPointF@@XZ"
"?position@QDropEvent@@QEBA?AVQPointF@@XZ"
"?position@QEventPoint@@QEBA?AVQPointF@@XZ"
"?position@QSinglePointEvent@@QEBA?AVQPointF@@XZ"
"?position@QTextBlock@@QEBAHXZ"
"?position@QTextCursor@@QEBAHXZ"
"?position@QTextFragment@@QEBAHXZ"
"?position@QTextFrameFormat@@QEBA?AW4Position@1@XZ"
"?position@QTextLayout@@QEBA?AVQPointF@@XZ"
"?position@QTextLine@@QEBA?AVQPointF@@XZ"
"?position@QWindow@@QEBA?AVQPoint@@XZ"
"?positionAfterVisualMovement@QTextEngine@@QEAAHHW4MoveOperation@QTextCursor@@@Z"
"?positionInBlock@QTextCursor@@QEBAHXZ"
"?positionInLigature@QTextEngine@@QEAAHPEBUQScriptItem@@HUQFixed@@1H_N@Z"
"?positionInlineObject@QAbstractTextDocumentLayout@@MEAAXVQTextInlineObject@@HAEBVQTextFormat@@@Z"
"?positionInlineObject@QTextDocumentLayout@@MEAAXVQTextInlineObject@@HAEBVQTextFormat@@@Z"
"?positionValue@Declaration@QCss@@QEBA?AW4PositionMode@2@XZ"
"?positions@QGlyphRun@@QEBA?AV?$QList@VQPointF@@@@XZ"
"?possibleActions@QDropEvent@@QEBA?AV?$QFlags@W4DropAction@Qt@@@@XZ"
"?possibleKeyCombinations@QPlatformKeyMapper@@UEBA?AV?$QList@VQKeyCombination@@@@PEBVQKeyEvent@@@Z"
"?possibleKeys@QKeyMapper@@SA?AV?$QList@VQKeyCombination@@@@PEBVQKeyEvent@@@Z"
"?possibleKeys@QPlatformIntegration@@MEBA?AV?$QList@H@@PEBVQKeyEvent@@@Z"
"?powerState@QPlatformScreen@@UEBA?AW4PowerState@1@XZ"
"?preeditAreaPosition@QTextEngine@@QEBAHXZ"
"?preeditAreaPosition@QTextLayout@@QEBAHXZ"
"?preeditAreaText@QTextEngine@@QEBA?AVQString@@XZ"
"?preeditAreaText@QTextLayout@@QEBA?AVQString@@XZ"
"?preeditString@QInputMethodEvent@@QEBAAEBVQString@@XZ"
"?preferTypoLineMetrics@QFontEngine@@QEBA_NXZ"
"?preferredMode@QPlatformScreen@@UEBAHXZ"
"?prepare@QColorTransformPrivate@@QEAAXXZ"
"?prepare@QStaticText@@QEAAXAEBVQTransform@@AEBVQFont@@@Z"
"?preprocess@Scanner@QCss@@SA?AVQString@@AEBV3@PEA_N@Z"
"?press@QTouchEventSequence@QTest@@QEAAAEAV12@HAEBVQPoint@@PEAVQWindow@@@Z"
"?pressAction@QAccessibleActionInterface@@SAAEBVQString@@XZ"
"?pressPosition@QEventPoint@@QEBA?AVQPointF@@XZ"
"?pressTimestamp@QEventPoint@@QEBAKXZ"
"?pressure@QEventPoint@@QEBANXZ"
"?pressure@QTabletEvent@@QEBANXZ"
"?prev@Parser@QCss@@QEAAXXZ"
"?previous@QTextBlock@@QEBA?AV1@XZ"
"?previousBlockState@QSyntaxHighlighter@@IEBAHXZ"
"?previousCursorPosition@QTextDocumentPrivate@@QEBAHHW4CursorMode@QTextLayout@@@Z"
"?previousCursorPosition@QTextLayout@@QEBAHHW4CursorMode@1@@Z"
"?previousLogicalPosition@QTextEngine@@QEBAHH@Z"
"?previousPageAction@QAccessibleActionInterface@@SA?AVQString@@XZ"
"?primaries@QColorSpace@@QEBA?AW4Primaries@1@XZ"
"?primaryKeyboard@QInputDevice@@SAPEBV1@AEBVQString@@@Z"
"?primaryOrientation@QScreen@@QEBA?AW4ScreenOrientation@Qt@@XZ"
"?primaryOrientationChanged@QScreen@@QEAAXW4ScreenOrientation@Qt@@@Z"
"?primaryPointingDevice@QPointingDevice@@SAPEBV1@AEBVQString@@@Z"
"?primaryScreen@QGuiApplication@@SAPEAVQScreen@@XZ"
"?primaryScreenChanged@QGuiApplication@@QEAAXPEAVQScreen@@@Z"
"?print@QTextDocument@@QEBAXPEAVQPagedPaintDevice@@@Z"
"?priority@QAction@@QEBA?AW4Priority@1@XZ"
"?probe@QRhi@@SA_NW4Implementation@1@PEAUQRhiInitParams@@@Z"
"?process@QDashedStrokeProcessor@@QEAAXAEBVQVectorPath@@AEBVQPen@@AEBVQRectF@@V?$QFlags@W4RenderHint@QPainter@@@@@Z"
"?process@QTriangulatingStroker@@QEAAXAEBVQVectorPath@@AEBVQPen@@AEBVQRectF@@V?$QFlags@W4RenderHint@QPainter@@@@@Z"
"?processApplicationTermination@QGuiApplicationPrivate@@SAXPEAVWindowSystemEvent@QWindowSystemInterfacePrivate@@@Z"
"?processCloseEvent@QGuiApplicationPrivate@@SAXPEAVCloseEvent@QWindowSystemInterfacePrivate@@@Z"
"?processContextMenuEvent@QGuiApplicationPrivate@@SAXPEAVContextMenuEvent@QWindowSystemInterfacePrivate@@@Z"
"?processCurrentSubpath@QDashStroker@@MEAAXXZ"
"?processCurrentSubpath@QStroker@@MEAAXXZ"
"?processDrag@QGuiApplicationPrivate@@SA?AVQPlatformDragQtResponse@@PEAVQWindow@@PEBVQMimeData@@AEBVQPoint@@V?$QFlags@W4DropAction@Qt@@@@V?$QFlags@W4MouseButton@Qt@@@@V?$QFlags@W4KeyboardModifier@Qt@@@@@Z"
"?processDrop@QGuiApplicationPrivate@@SA?AVQPlatformDropQtResponse@@PEAVQWindow@@PEBVQMimeData@@AEBVQPoint@@V?$QFlags@W4DropAction@Qt@@@@V?$QFlags@W4MouseButton@Qt@@@@V?$QFlags@W4KeyboardModifier@Qt@@@@@Z"
"?processEnterEvent@QGuiApplicationPrivate@@SAXPEAVEnterEvent@QWindowSystemInterfacePrivate@@@Z"
"?processEvents@QWindowsGuiEventDispatcher@@UEAA_NV?$QFlags@W4ProcessEventsFlag@QEventLoop@@@@@Z"
"?processExposeEvent@QGuiApplicationPrivate@@SAXPEAVExposeEvent@QWindowSystemInterfacePrivate@@@Z"
"?processFileOpenEvent@QGuiApplicationPrivate@@SAXPEAVFileOpenEvent@QWindowSystemInterfacePrivate@@@Z"
"?processFocusWindowEvent@QGuiApplicationPrivate@@SAXPEAVFocusWindowEvent@QWindowSystemInterfacePrivate@@@Z"
"?processGeometryChangeEvent@QGuiApplicationPrivate@@SAXPEAVGeometryChangeEvent@QWindowSystemInterfacePrivate@@@Z"
"?processGestureEvent@QGuiApplicationPrivate@@SAXPEAVGestureEvent@QWindowSystemInterfacePrivate@@@Z"
"?processHheaTable@QFontEngine@@IEBA_NXZ"
"?processKeyEvent@QGuiApplicationPrivate@@SAXPEAVKeyEvent@QWindowSystemInterfacePrivate@@@Z"
"?processLeaveEvent@QGuiApplicationPrivate@@SAXPEAVLeaveEvent@QWindowSystemInterfacePrivate@@@Z"
"?processMouseEvent@QGuiApplicationPrivate@@SAXPEAVMouseEvent@QWindowSystemInterfacePrivate@@@Z"
"?processNativeEvent@QGuiApplicationPrivate@@SA_NPEAVQWindow@@AEBVQByteArray@@PEAXPEA_J@Z"
"?processOS2Table@QFontEngine@@IEBA_NXZ"
"?processPaintEvent@QGuiApplicationPrivate@@SAXPEAVPaintEvent@QWindowSystemInterfacePrivate@@@Z"
"?processPlatformPanelEvent@QGuiApplicationPrivate@@SAXPEAVPlatformPanelEvent@QWindowSystemInterfacePrivate@@@Z"
"?processSafeAreaMarginsChanged@QWindowPrivate@@UEAAXXZ"
"?processSafeAreaMarginsChangedEvent@QGuiApplicationPrivate@@SAXPEAVSafeAreaMarginsChangedEvent@QWindowSystemInterfacePrivate@@@Z"
"?processScreenGeometryChange@QGuiApplicationPrivate@@SAXPEAVScreenGeometryEvent@QWindowSystemInterfacePrivate@@@Z"
"?processScreenLogicalDotsPerInchChange@QGuiApplicationPrivate@@SAXPEAVScreenLogicalDotsPerInchEvent@QWindowSystemInterfacePrivate@@@Z"
"?processScreenOrientationChange@QGuiApplicationPrivate@@SAXPEAVScreenOrientationEvent@QWindowSystemInterfacePrivate@@@Z"
"?processScreenRefreshRateChange@QGuiApplicationPrivate@@SAXPEAVScreenRefreshRateEvent@QWindowSystemInterfacePrivate@@@Z"
"?processTabletEnterProximityEvent@QGuiApplicationPrivate@@SAXPEAVTabletEnterProximityEvent@QWindowSystemInterfacePrivate@@@Z"
"?processTabletEvent@QGuiApplicationPrivate@@SAXPEAVTabletEvent@QWindowSystemInterfacePrivate@@@Z"
"?processTabletLeaveProximityEvent@QGuiApplicationPrivate@@SAXPEAVTabletLeaveProximityEvent@QWindowSystemInterfacePrivate@@@Z"
"?processThemeChanged@QGuiApplicationPrivate@@SAXPEAVThemeChangeEvent@QWindowSystemInterfacePrivate@@@Z"
"?processTouchEvent@QGuiApplicationPrivate@@SAXPEAVTouchEvent@QWindowSystemInterfacePrivate@@@Z"
"?processWheelEvent@QGuiApplicationPrivate@@SAXPEAVWheelEvent@QWindowSystemInterfacePrivate@@@Z"
"?processWindowDevicePixelRatioChangedEvent@QGuiApplicationPrivate@@SAXPEAVWindowDevicePixelRatioChangedEvent@QWindowSystemInterfacePrivate@@@Z"
"?processWindowScreenChangedEvent@QGuiApplicationPrivate@@SAXPEAVWindowScreenChangedEvent@QWindowSystemInterfacePrivate@@@Z"
"?processWindowStateChangedEvent@QGuiApplicationPrivate@@SAXPEAVWindowStateChangedEvent@QWindowSystemInterfacePrivate@@@Z"
"?processWindowSystemEvent@QGuiApplicationPrivate@@SAXPEAVWindowSystemEvent@QWindowSystemInterfacePrivate@@@Z"
"?profile@QSurfaceFormat@@QEBA?AW4OpenGLContextProfile@1@XZ"
"?progressiveScanWrite@QImageWriter@@QEBA_NXZ"
"?project@QVector3D@@QEBA?AV1@AEBVQMatrix4x4@@0AEBVQRect@@@Z"
"?projectedRotate@QMatrix4x4@@QEAAXMMMM@Z"
"?projectedRotate@QMatrix4x4@@QEAAXMMMMM@Z"
"?propagateSizeHints@QPlatformWindow@@UEAAXXZ"
"?properties@QFontEngine@@UEBA?AUProperties@1@XZ"
"?properties@QTextFormat@@QEBA?AV?$QMap@HVQVariant@@@@XZ"
"?properties@QWindowsFontEngineDirectWrite@@UEBA?AUProperties@QFontEngine@@XZ"
"?property@QTextFormat@@QEBA?AVQVariant@@H@Z"
"?propertyCount@QTextFormat@@QEBAHXZ"
"?proposedAction@QDropEvent@@QEBA?AW4DropAction@Qt@@XZ"
"?proxyData@QRhiSwapChain@@QEBA?AUQRhiSwapChainProxyData@@XZ"
"?pseudoClass@Selector@QCss@@QEBA_KPEA_K@Z"
"?pseudoElement@Selector@QCss@@QEBA?AVQString@@XZ"
"?pt1@QBezier@@QEBA?AVQPointF@@XZ"
"?pt2@QBezier@@QEBA?AVQPointF@@XZ"
"?pt3@QBezier@@QEBA?AVQPointF@@XZ"
"?pt4@QBezier@@QEBA?AVQPointF@@XZ"
"?push@QUndoStack@@QEAAXPEAVQUndoCommand@@@Z"
"?pushConstantBlocks@QShaderDescription@@QEBA?AV?$QList@UPushConstantBlock@QShaderDescription@@@@XZ"
"?putPoints@QPolygon@@QEAAXHHAEBV1@H@Z"
"?putPoints@QPolygon@@QEAAXHHHHZZ"
"?putPoints@QPolygon@@QEAAXHHPEBH@Z"
"?qAccessibleEventString@@YAPEBDW4Event@QAccessible@@@Z"
"?qAccessibleLocalizedActionDescription@@YA?AVQString@@AEBV1@@Z"
"?qAccessibleRoleString@@YAPEBDW4Role@QAccessible@@@Z"
"?qAccessibleTextBoundaryHelper@QAccessible@@SA?AU?$pair@HH@std@@AEBVQTextCursor@@W4TextBoundaryType@1@@Z"
"?qDrawBorder@@YAXPEAVQPainter@@AEBVQRect@@PEBW4BorderStyle@QCss@@PEBHPEBVQBrush@@PEBVQSize@@@Z"
"?qFuzzyCompare@@YA_NAEBVQMatrix4x4@@0@Z"
"?qFuzzyCompare@@YA_NVQVector2D@@0@Z"
"?qFuzzyCompare@@YA_NVQVector3D@@0@Z"
"?qFuzzyCompare@@YA_NVQVector4D@@0@Z"
"?qGamma_correct_back_to_linear_cs@@YAXPEAVQImage@@@Z"
"?qHasPixmapTexture@@YA_NAEBVQBrush@@@Z"
"?qHash@@YA_KAEBVQFont@@_K@Z"
"?qHash@@YA_KAEBVQKeySequence@@_K@Z"
"?qHash@@YA_KAEBVQRawFont@@_K@Z"
"?qHash@@YA_KAEBVQRhiShaderResourceBinding@@_K@Z"
"?qHash@@YA_KAEBVQShader@@_K@Z"
"?qHash@@YA_KAEBVQShaderCode@@_K@Z"
"?qHash@@YA_KAEBVQShaderKey@@_K@Z"
"?qHash@@YA_KAEBVQTransform@@_K@Z"
"?qHash@@YA_KVQPointingDeviceUniqueId@@_K@Z"
"?qNormalizeRadii@@YAXAEBVQRect@@PEBVQSize@@PEAV2@222@Z"
"?qPolyline@@YA?AUQPolylineSet@@AEBVQPainterPath@@AEBVQTransform@@N_N@Z"
"?qRegisterNormalizedMetaType_HFONT@@YAHAEBVQByteArray@@@Z"
"?qRegisterNormalizedMetaType_LOGFONT@@YAHAEBVQByteArray@@@Z"
"?qRegisterNormalizedMetaType_QCss__BackgroundData@@YAHAEBVQByteArray@@@Z"
"?qRegisterNormalizedMetaType_QCss__BorderData@@YAHAEBVQByteArray@@@Z"
"?qRegisterNormalizedMetaType_QCss__LengthData@@YAHAEBVQByteArray@@@Z"
"?qRegisterNormalizedMetaType_QInputDeviceManager__DeviceType@@YAHAEBVQByteArray@@@Z"
"?qRegisterNormalizedMetaType_QMatrix2x2@@YAHAEBVQByteArray@@@Z"
"?qRegisterNormalizedMetaType_QMatrix2x3@@YAHAEBVQByteArray@@@Z"
"?qRegisterNormalizedMetaType_QMatrix2x4@@YAHAEBVQByteArray@@@Z"
"?qRegisterNormalizedMetaType_QMatrix3x2@@YAHAEBVQByteArray@@@Z"
"?qRegisterNormalizedMetaType_QMatrix3x3@@YAHAEBVQByteArray@@@Z"
"?qRegisterNormalizedMetaType_QMatrix3x4@@YAHAEBVQByteArray@@@Z"
"?qRegisterNormalizedMetaType_QMatrix4x2@@YAHAEBVQByteArray@@@Z"
"?qRegisterNormalizedMetaType_QMatrix4x3@@YAHAEBVQByteArray@@@Z"
"?qRegisterNormalizedMetaType_QPageLayout@@YAHAEBVQByteArray@@@Z"
"?qRegisterNormalizedMetaType_QPageLayout__Orientation@@YAHAEBVQByteArray@@@Z"
"?qRegisterNormalizedMetaType_QPageLayout__Unit@@YAHAEBVQByteArray@@@Z"
"?qRegisterNormalizedMetaType_QPageRanges@@YAHAEBVQByteArray@@@Z"
"?qRegisterNormalizedMetaType_QPageSize@@YAHAEBVQByteArray@@@Z"
"?qRegisterNormalizedMetaType_QPageSize__PageSizeId@@YAHAEBVQByteArray@@@Z"
"?qRegisterNormalizedMetaType_QPageSize__Unit@@YAHAEBVQByteArray@@@Z"
"?qRegisterNormalizedMetaType_QPlatformDialogHelper__ButtonRole@@YAHAEBVQByteArray@@@Z"
"?qRegisterNormalizedMetaType_QPlatformDialogHelper__StandardButton@@YAHAEBVQByteArray@@@Z"
"?qRegisterNormalizedMetaType_QStaticText@@YAHAEBVQByteArray@@@Z"
"?qRegisterNormalizedMetaType_QSurface_ptr@@YAHAEBVQByteArray@@@Z"
"?qRegisterNormalizedMetaType_QTextOption_Tab@@YAHAEBVQByteArray@@@Z"
"?qTriangulate@@YA?AUQTriangleSet@@AEBVQPainterPath@@AEBVQTransform@@N_N@Z"
"?qTriangulate@@YA?AUQTriangleSet@@AEBVQVectorPath@@AEBVQTransform@@N_N@Z"
"?qTriangulate@@YA?AUQTriangleSet@@PEBNHIAEBVQTransform@@_N@Z"
"?qWaitForWindowActive@QTest@@YA_NPEAVQWindow@@H@Z"
"?qWaitForWindowExposed@QTest@@YA_NPEAVQWindow@@H@Z"
"?qWaitForWindowFocused@QTest@@YA_NPEAVQWindow@@VQDeadlineTimer@@@Z"
"?q_func@QAbstractFileIconProviderPrivate@@AEAAPEAVQAbstractFileIconProvider@@XZ"
"?q_func@QAbstractFileIconProviderPrivate@@AEBAPEBVQAbstractFileIconProvider@@XZ"
"?q_func@QAbstractTextDocumentLayoutPrivate@@QEAAPEAVQAbstractTextDocumentLayout@@XZ"
"?q_func@QAbstractTextDocumentLayoutPrivate@@QEBAPEBVQAbstractTextDocumentLayout@@XZ"
"?q_func@QActionGroupPrivate@@AEAAPEAVQActionGroup@@XZ"
"?q_func@QActionGroupPrivate@@AEBAPEBVQActionGroup@@XZ"
"?q_func@QActionPrivate@@AEAAPEAVQAction@@XZ"
"?q_func@QActionPrivate@@AEBAPEBVQAction@@XZ"
"?q_func@QFileSystemModelPrivate@@AEAAPEAVQFileSystemModel@@XZ"
"?q_func@QFileSystemModelPrivate@@AEBAPEBVQFileSystemModel@@XZ"
"?q_func@QGuiApplicationPrivate@@AEAAPEAVQGuiApplication@@XZ"
"?q_func@QGuiApplicationPrivate@@AEBAPEBVQGuiApplication@@XZ"
"?q_func@QInputDeviceManagerPrivate@@AEAAPEAVQInputDeviceManager@@XZ"
"?q_func@QInputDeviceManagerPrivate@@AEBAPEBVQInputDeviceManager@@XZ"
"?q_func@QInputDevicePrivate@@AEAAPEAVQInputDevice@@XZ"
"?q_func@QInputDevicePrivate@@AEBAPEBVQInputDevice@@XZ"
"?q_func@QOffscreenSurfacePrivate@@AEAAPEAVQOffscreenSurface@@XZ"
"?q_func@QOffscreenSurfacePrivate@@AEBAPEBVQOffscreenSurface@@XZ"
"?q_func@QOpenGLContextGroupPrivate@@AEAAPEAVQOpenGLContextGroup@@XZ"
"?q_func@QOpenGLContextGroupPrivate@@AEBAPEBVQOpenGLContextGroup@@XZ"
"?q_func@QOpenGLContextPrivate@@AEAAPEAVQOpenGLContext@@XZ"
"?q_func@QOpenGLContextPrivate@@AEBAPEBVQOpenGLContext@@XZ"
"?q_func@QPaintDeviceWindowPrivate@@AEAAPEAVQPaintDeviceWindow@@XZ"
"?q_func@QPaintDeviceWindowPrivate@@AEBAPEBVQPaintDeviceWindow@@XZ"
"?q_func@QPaintEngineExPrivate@@AEAAPEAVQPaintEngineEx@@XZ"
"?q_func@QPaintEngineExPrivate@@AEBAPEBVQPaintEngineEx@@XZ"
"?q_func@QPaintEnginePrivate@@AEAAPEAVQPaintEngine@@XZ"
"?q_func@QPaintEnginePrivate@@AEBAPEBVQPaintEngine@@XZ"
"?q_func@QPointingDevicePrivate@@AEAAPEAVQPointingDevice@@XZ"
"?q_func@QPointingDevicePrivate@@AEBAPEBVQPointingDevice@@XZ"
"?q_func@QShortcutPrivate@@AEAAPEAVQShortcut@@XZ"
"?q_func@QShortcutPrivate@@AEBAPEBVQShortcut@@XZ"
"?q_func@QTextDocumentPrivate@@AEAAPEAVQTextDocument@@XZ"
"?q_func@QTextDocumentPrivate@@AEBAPEBVQTextDocument@@XZ"
"?q_func@QWindowPrivate@@AEAAPEAVQWindow@@XZ"
"?q_func@QWindowPrivate@@AEBAPEBVQWindow@@XZ"
"?q_sizes@QGridLayoutBox@@QEAAAEANH@Z"
"?q_sizes@QGridLayoutBox@@QEBAAEBNH@Z"
"?qtQsbVersion@QShaderPrivate@@SAHW4SerializedFormatVersion@QShader@@@Z"
"?qtVectorPathForPath@@YAAEBVQVectorPath@@AEBVQPainterPath@@@Z"
"?qt_addBitmapToPath@@YAXNNPEBEHHHPEAVQPainterPath@@@Z"
"?qt_blurImage@@YAXAEAVQImage@@N_NH@Z"
"?qt_blurImage@@YAXPEAVQPainter@@AEAVQImage@@N_N2H@Z"
"?qt_clipboard@QGuiApplicationPrivate@@2PEAVQClipboard@@EA"
"?qt_convertMargins@@YA?AVQMarginsF@@AEBV1@W4Unit@QPageLayout@@1@Z"
"?qt_convert_rgb888_to_rgb32@@YAXPEAIPEBEH@Z"
"?qt_convert_rgb888_to_rgb32_ssse3@@YAXPEAIPEBEH@Z"
"?qt_convert_rgb888_to_rgbx8888@@YAXPEAIPEBEH@Z"
"?qt_createIconMask@@YAPEAUHBITMAP__@@AEBVQBitmap@@@Z"
"?qt_defaultDpi@@YAHXZ"
"?qt_defaultDpiX@@YAHXZ"
"?qt_defaultDpiY@@YAHXZ"
"?qt_draw_helper@@YAXPEAVQPainterPrivate@@AEBVQPainterPath@@W4DrawOperation@1@@Z"
"?qt_draw_tile@@YAXPEAVQPaintEngine@@NNNNAEBVQPixmap@@NN@Z"
"?qt_findAtNxFile@@YA?AVQString@@AEBV1@NPEAN@Z"
"?qt_find_ellipse_coords@@YAXAEBVQRectF@@NNPEAVQPointF@@1@Z"
"?qt_fontHasNarrowOutlines@@YA_NAEBVQRawFont@@@Z"
"?qt_fontHasNarrowOutlines@@YA_NPEAVQFontEngine@@@Z"
"?qt_fontdata_from_index@@YA?AVQByteArray@@H@Z"
"?qt_fusionPalette@@YA?AVQPalette@@XZ"
"?qt_getImageText@@YA?AV?$QMap@VQString@@V1@@@AEBVQImage@@AEBVQString@@@Z"
"?qt_getImageTextFromDescription@@YA?AV?$QMap@VQString@@V1@@@AEBVQString@@@Z"
"?qt_gl_global_share_context@@YAPEAVQOpenGLContext@@XZ"
"?qt_gl_set_global_share_context@@YAXPEAVQOpenGLContext@@@Z"
"?qt_handleKeyEvent@@YAXPEAVQWindow@@W4Type@QEvent@@HV?$QFlags@W4KeyboardModifier@Qt@@@@AEBVQString@@_NG@Z"
"?qt_handleMouseEvent@@YAXPEAVQWindow@@AEBVQPointF@@1V?$QFlags@W4MouseButton@Qt@@@@W4MouseButton@Qt@@W4Type@QEvent@@V?$QFlags@W4KeyboardModifier@Qt@@@@H@Z"
"?qt_handleTouchEvent@@YAXPEAVQWindow@@PEBVQPointingDevice@@AEBV?$QList@VQEventPoint@@@@V?$QFlags@W4KeyboardModifier@Qt@@@@@Z"
"?qt_handleTouchEventv2@@YA_NPEAVQWindow@@PEBVQPointingDevice@@AEBV?$QList@VQEventPoint@@@@V?$QFlags@W4KeyboardModifier@Qt@@@@@Z"
"?qt_handleWheelEvent@@YAXPEAVQWindow@@AEBVQPointF@@1VQPoint@@2V?$QFlags@W4KeyboardModifier@Qt@@@@W4ScrollPhase@Qt@@@Z"
"?qt_imageForBrush@@YA?AVQImage@@H_N@Z"
"?qt_imageFromWinHBITMAP@@YA?AVQImage@@PEAUHBITMAP__@@H@Z"
"?qt_imageFromWinHBITMAP@@YA?AVQImage@@PEAUHDC__@@PEAUHBITMAP__@@HH@Z"
"?qt_imageToWinHBITMAP@@YAPEAUHBITMAP__@@AEBVQImage@@H@Z"
"?qt_imageTransform@@YAXAEAVQImage@@V?$QFlags@W4Transformation@QImageIOHandler@@@@@Z"
"?qt_inv_premul_factor@@3QBIB"
"?qt_isExtendedRadialGradient@@YA_NAEBVQBrush@@@Z"
"?qt_is_tty_app@@3_NA"
"?qt_legacyToOpenTypeWeight@@YAHH@Z"
"?qt_memrotate180@@YAXPEBEHHHPEAEH@Z"
"?qt_memrotate180@@YAXPEBGHHHPEAGH@Z"
"?qt_memrotate180@@YAXPEBIHHHPEAIH@Z"
"?qt_memrotate180@@YAXPEBUquint24@@HHHPEAU1@H@Z"
"?qt_memrotate180@@YAXPEBV?$QRgbaFloat@M@@HHHPEAV1@H@Z"
"?qt_memrotate180@@YAXPEB_KHHHPEA_KH@Z"
"?qt_memrotate270@@YAXPEBEHHHPEAEH@Z"
"?qt_memrotate270@@YAXPEBGHHHPEAGH@Z"
"?qt_memrotate270@@YAXPEBIHHHPEAIH@Z"
"?qt_memrotate270@@YAXPEBUquint24@@HHHPEAU1@H@Z"
"?qt_memrotate270@@YAXPEBV?$QRgbaFloat@M@@HHHPEAV1@H@Z"
"?qt_memrotate270@@YAXPEB_KHHHPEA_KH@Z"
"?qt_memrotate90@@YAXPEBEHHHPEAEH@Z"
"?qt_memrotate90@@YAXPEBGHHHPEAGH@Z"
"?qt_memrotate90@@YAXPEBIHHHPEAIH@Z"
"?qt_memrotate90@@YAXPEBUquint24@@HHHPEAU1@H@Z"
"?qt_memrotate90@@YAXPEBV?$QRgbaFloat@M@@HHHPEAV1@H@Z"
"?qt_memrotate90@@YAXPEB_KHHHPEA_KH@Z"
"?qt_metacall@QAbstractTextDocumentLayout@@UEAAHW4Call@QMetaObject@@HPEAPEAX@Z"
"?qt_metacall@QAccessibleBridgePlugin@@UEAAHW4Call@QMetaObject@@HPEAPEAX@Z"
"?qt_metacall@QAccessibleCache@@UEAAHW4Call@QMetaObject@@HPEAPEAX@Z"
"?qt_metacall@QAccessiblePlugin@@UEAAHW4Call@QMetaObject@@HPEAPEAX@Z"
"?qt_metacall@QAction@@UEAAHW4Call@QMetaObject@@HPEAPEAX@Z"
"?qt_metacall@QActionGroup@@UEAAHW4Call@QMetaObject@@HPEAPEAX@Z"
"?qt_metacall@QClipboard@@UEAAHW4Call@QMetaObject@@HPEAPEAX@Z"
"?qt_metacall@QDoubleValidator@@UEAAHW4Call@QMetaObject@@HPEAPEAX@Z"
"?qt_metacall@QDrag@@UEAAHW4Call@QMetaObject@@HPEAPEAX@Z"
"?qt_metacall@QDragManager@@UEAAHW4Call@QMetaObject@@HPEAPEAX@Z"
"?qt_metacall@QFileInfoGatherer@@UEAAHW4Call@QMetaObject@@HPEAPEAX@Z"
"?qt_metacall@QFileSystemModel@@UEAAHW4Call@QMetaObject@@HPEAPEAX@Z"
"?qt_metacall@QGenericPlugin@@UEAAHW4Call@QMetaObject@@HPEAPEAX@Z"
"?qt_metacall@QGuiApplication@@UEAAHW4Call@QMetaObject@@HPEAPEAX@Z"
"?qt_metacall@QIconEnginePlugin@@UEAAHW4Call@QMetaObject@@HPEAPEAX@Z"
"?qt_metacall@QImageIOPlugin@@UEAAHW4Call@QMetaObject@@HPEAPEAX@Z"
"?qt_metacall@QInputControl@@UEAAHW4Call@QMetaObject@@HPEAPEAX@Z"
"?qt_metacall@QInputDevice@@UEAAHW4Call@QMetaObject@@HPEAPEAX@Z"
"?qt_metacall@QInputDeviceManager@@UEAAHW4Call@QMetaObject@@HPEAPEAX@Z"
"?qt_metacall@QInputMethod@@UEAAHW4Call@QMetaObject@@HPEAPEAX@Z"
"?qt_metacall@QIntValidator@@UEAAHW4Call@QMetaObject@@HPEAPEAX@Z"
"?qt_metacall@QInternalMimeData@@UEAAHW4Call@QMetaObject@@HPEAPEAX@Z"
"?qt_metacall@QKeyMapper@@UEAAHW4Call@QMetaObject@@HPEAPEAX@Z"
"?qt_metacall@QMovie@@UEAAHW4Call@QMetaObject@@HPEAPEAX@Z"
"?qt_metacall@QOffscreenSurface@@UEAAHW4Call@QMetaObject@@HPEAPEAX@Z"
"?qt_metacall@QOpenGLContext@@UEAAHW4Call@QMetaObject@@HPEAPEAX@Z"
"?qt_metacall@QOpenGLContextGroup@@UEAAHW4Call@QMetaObject@@HPEAPEAX@Z"
"?qt_metacall@QPaintDeviceWindow@@UEAAHW4Call@QMetaObject@@HPEAPEAX@Z"
"?qt_metacall@QPlatformColorDialogHelper@@UEAAHW4Call@QMetaObject@@HPEAPEAX@Z"
"?qt_metacall@QPlatformDialogHelper@@UEAAHW4Call@QMetaObject@@HPEAPEAX@Z"
"?qt_metacall@QPlatformFileDialogHelper@@UEAAHW4Call@QMetaObject@@HPEAPEAX@Z"
"?qt_metacall@QPlatformFontDialogHelper@@UEAAHW4Call@QMetaObject@@HPEAPEAX@Z"
"?qt_metacall@QPlatformGraphicsBuffer@@UEAAHW4Call@QMetaObject@@HPEAPEAX@Z"
"?qt_metacall@QPlatformInputContext@@UEAAHW4Call@QMetaObject@@HPEAPEAX@Z"
"?qt_metacall@QPlatformInputContextPlugin@@UEAAHW4Call@QMetaObject@@HPEAPEAX@Z"
"?qt_metacall@QPlatformIntegrationPlugin@@UEAAHW4Call@QMetaObject@@HPEAPEAX@Z"
"?qt_metacall@QPlatformMenu@@UEAAHW4Call@QMetaObject@@HPEAPEAX@Z"
"?qt_metacall@QPlatformMenuBar@@UEAAHW4Call@QMetaObject@@HPEAPEAX@Z"
"?qt_metacall@QPlatformMenuItem@@UEAAHW4Call@QMetaObject@@HPEAPEAX@Z"
"?qt_metacall@QPlatformMessageDialogHelper@@UEAAHW4Call@QMetaObject@@HPEAPEAX@Z"
"?qt_metacall@QPlatformNativeInterface@@UEAAHW4Call@QMetaObject@@HPEAPEAX@Z"
"?qt_metacall@QPlatformServiceColorPicker@@UEAAHW4Call@QMetaObject@@HPEAPEAX@Z"
"?qt_metacall@QPlatformSharedGraphicsCache@@UEAAHW4Call@QMetaObject@@HPEAPEAX@Z"
"?qt_metacall@QPlatformSystemTrayIcon@@UEAAHW4Call@QMetaObject@@HPEAPEAX@Z"
"?qt_metacall@QPlatformTextureList@@UEAAHW4Call@QMetaObject@@HPEAPEAX@Z"
"?qt_metacall@QPlatformThemePlugin@@UEAAHW4Call@QMetaObject@@HPEAPEAX@Z"
"?qt_metacall@QPointingDevice@@UEAAHW4Call@QMetaObject@@HPEAPEAX@Z"
"?qt_metacall@QRasterWindow@@UEAAHW4Call@QMetaObject@@HPEAPEAX@Z"
"?qt_metacall@QRegularExpressionValidator@@UEAAHW4Call@QMetaObject@@HPEAPEAX@Z"
"?qt_metacall@QScreen@@UEAAHW4Call@QMetaObject@@HPEAPEAX@Z"
"?qt_metacall@QSessionManager@@UEAAHW4Call@QMetaObject@@HPEAPEAX@Z"
"?qt_metacall@QShortcut@@UEAAHW4Call@QMetaObject@@HPEAPEAX@Z"
"?qt_metacall@QStandardItemModel@@UEAAHW4Call@QMetaObject@@HPEAPEAX@Z"
"?qt_metacall@QStyleHints@@UEAAHW4Call@QMetaObject@@HPEAPEAX@Z"
"?qt_metacall@QSyntaxHighlighter@@UEAAHW4Call@QMetaObject@@HPEAPEAX@Z"
"?qt_metacall@QTextBlockGroup@@UEAAHW4Call@QMetaObject@@HPEAPEAX@Z"
"?qt_metacall@QTextDocument@@UEAAHW4Call@QMetaObject@@HPEAPEAX@Z"
"?qt_metacall@QTextDocumentLayout@@UEAAHW4Call@QMetaObject@@HPEAPEAX@Z"
"?qt_metacall@QTextFrame@@UEAAHW4Call@QMetaObject@@HPEAPEAX@Z"
"?qt_metacall@QTextImageHandler@@UEAAHW4Call@QMetaObject@@HPEAPEAX@Z"
"?qt_metacall@QTextList@@UEAAHW4Call@QMetaObject@@HPEAPEAX@Z"
"?qt_metacall@QTextObject@@UEAAHW4Call@QMetaObject@@HPEAPEAX@Z"
"?qt_metacall@QTextTable@@UEAAHW4Call@QMetaObject@@HPEAPEAX@Z"
"?qt_metacall@QUndoGroup@@UEAAHW4Call@QMetaObject@@HPEAPEAX@Z"
"?qt_metacall@QUndoStack@@UEAAHW4Call@QMetaObject@@HPEAPEAX@Z"
"?qt_metacall@QValidator@@UEAAHW4Call@QMetaObject@@HPEAPEAX@Z"
"?qt_metacall@QWindow@@UEAAHW4Call@QMetaObject@@HPEAPEAX@Z"
"?qt_metacall@QWindowsGuiEventDispatcher@@UEAAHW4Call@QMetaObject@@HPEAPEAX@Z"
"?qt_metacast@QAbstractTextDocumentLayout@@UEAAPEAXPEBD@Z"
"?qt_metacast@QAccessibleBridgePlugin@@UEAAPEAXPEBD@Z"
"?qt_metacast@QAccessibleCache@@UEAAPEAXPEBD@Z"
"?qt_metacast@QAccessiblePlugin@@UEAAPEAXPEBD@Z"
"?qt_metacast@QAction@@UEAAPEAXPEBD@Z"
"?qt_metacast@QActionGroup@@UEAAPEAXPEBD@Z"
"?qt_metacast@QClipboard@@UEAAPEAXPEBD@Z"
"?qt_metacast@QDoubleValidator@@UEAAPEAXPEBD@Z"
"?qt_metacast@QDrag@@UEAAPEAXPEBD@Z"
"?qt_metacast@QDragManager@@UEAAPEAXPEBD@Z"
"?qt_metacast@QFileInfoGatherer@@UEAAPEAXPEBD@Z"
"?qt_metacast@QFileSystemModel@@UEAAPEAXPEBD@Z"
"?qt_metacast@QGenericPlugin@@UEAAPEAXPEBD@Z"
"?qt_metacast@QGuiApplication@@UEAAPEAXPEBD@Z"
"?qt_metacast@QIconEnginePlugin@@UEAAPEAXPEBD@Z"
"?qt_metacast@QImageIOPlugin@@UEAAPEAXPEBD@Z"
"?qt_metacast@QInputControl@@UEAAPEAXPEBD@Z"
"?qt_metacast@QInputDevice@@UEAAPEAXPEBD@Z"
"?qt_metacast@QInputDeviceManager@@UEAAPEAXPEBD@Z"
"?qt_metacast@QInputMethod@@UEAAPEAXPEBD@Z"
"?qt_metacast@QIntValidator@@UEAAPEAXPEBD@Z"
"?qt_metacast@QInternalMimeData@@UEAAPEAXPEBD@Z"
"?qt_metacast@QKeyMapper@@UEAAPEAXPEBD@Z"
"?qt_metacast@QMovie@@UEAAPEAXPEBD@Z"
"?qt_metacast@QOffscreenSurface@@UEAAPEAXPEBD@Z"
"?qt_metacast@QOpenGLContext@@UEAAPEAXPEBD@Z"
"?qt_metacast@QOpenGLContextGroup@@UEAAPEAXPEBD@Z"
"?qt_metacast@QPaintDeviceWindow@@UEAAPEAXPEBD@Z"
"?qt_metacast@QPlatformColorDialogHelper@@UEAAPEAXPEBD@Z"
"?qt_metacast@QPlatformDialogHelper@@UEAAPEAXPEBD@Z"
"?qt_metacast@QPlatformFileDialogHelper@@UEAAPEAXPEBD@Z"
"?qt_metacast@QPlatformFontDialogHelper@@UEAAPEAXPEBD@Z"
"?qt_metacast@QPlatformGraphicsBuffer@@UEAAPEAXPEBD@Z"
"?qt_metacast@QPlatformInputContext@@UEAAPEAXPEBD@Z"
"?qt_metacast@QPlatformInputContextPlugin@@UEAAPEAXPEBD@Z"
"?qt_metacast@QPlatformIntegrationPlugin@@UEAAPEAXPEBD@Z"
"?qt_metacast@QPlatformMenu@@UEAAPEAXPEBD@Z"
"?qt_metacast@QPlatformMenuBar@@UEAAPEAXPEBD@Z"
"?qt_metacast@QPlatformMenuItem@@UEAAPEAXPEBD@Z"
"?qt_metacast@QPlatformMessageDialogHelper@@UEAAPEAXPEBD@Z"
"?qt_metacast@QPlatformNativeInterface@@UEAAPEAXPEBD@Z"
"?qt_metacast@QPlatformServiceColorPicker@@UEAAPEAXPEBD@Z"
"?qt_metacast@QPlatformSharedGraphicsCache@@UEAAPEAXPEBD@Z"
"?qt_metacast@QPlatformSystemTrayIcon@@UEAAPEAXPEBD@Z"
"?qt_metacast@QPlatformTextureList@@UEAAPEAXPEBD@Z"
"?qt_metacast@QPlatformThemePlugin@@UEAAPEAXPEBD@Z"
"?qt_metacast@QPointingDevice@@UEAAPEAXPEBD@Z"
"?qt_metacast@QRasterWindow@@UEAAPEAXPEBD@Z"
"?qt_metacast@QRegularExpressionValidator@@UEAAPEAXPEBD@Z"
"?qt_metacast@QScreen@@UEAAPEAXPEBD@Z"
"?qt_metacast@QSessionManager@@UEAAPEAXPEBD@Z"
"?qt_metacast@QShortcut@@UEAAPEAXPEBD@Z"
"?qt_metacast@QStandardItemModel@@UEAAPEAXPEBD@Z"
"?qt_metacast@QStyleHints@@UEAAPEAXPEBD@Z"
"?qt_metacast@QSyntaxHighlighter@@UEAAPEAXPEBD@Z"
"?qt_metacast@QTextBlockGroup@@UEAAPEAXPEBD@Z"
"?qt_metacast@QTextDocument@@UEAAPEAXPEBD@Z"
"?qt_metacast@QTextDocumentLayout@@UEAAPEAXPEBD@Z"
"?qt_metacast@QTextFrame@@UEAAPEAXPEBD@Z"
"?qt_metacast@QTextImageHandler@@UEAAPEAXPEBD@Z"
"?qt_metacast@QTextList@@UEAAPEAXPEBD@Z"
"?qt_metacast@QTextObject@@UEAAPEAXPEBD@Z"
"?qt_metacast@QTextTable@@UEAAPEAXPEBD@Z"
"?qt_metacast@QUndoGroup@@UEAAPEAXPEBD@Z"
"?qt_metacast@QUndoStack@@UEAAPEAXPEBD@Z"
"?qt_metacast@QValidator@@UEAAPEAXPEBD@Z"
"?qt_metacast@QWindow@@UEAAPEAXPEBD@Z"
"?qt_metacast@QWindowsGuiEventDispatcher@@UEAAPEAXPEBD@Z"
"?qt_openTypeToLegacyWeight@@YAHH@Z"
"?qt_paint_device_metric@@YAHPEBVQPaintDevice@@W4PaintDeviceMetric@1@@Z"
"?qt_painterPathFromVectorPath@@YA?AVQPainterPath@@AEBVQVectorPath@@@Z"
"?qt_palette_count@QPalettePrivate@@2HA"
"?qt_palette_private_count@QPalettePrivate@@2HA"
"?qt_pixelMultiplier@@YANH@Z"
"?qt_pixmapForBrush@@YA?AVQPixmap@@H_N@Z"
"?qt_pixmapFromWinHBITMAP@@YA?AVQPixmap@@PEAUHBITMAP__@@H@Z"
"?qt_pixmapFromWinHICON@@YA?AVQPixmap@@PEAUHICON__@@@Z"
"?qt_pixmapToWinHBITMAP@@YAPEAUHBITMAP__@@AEBVQPixmap@@H@Z"
"?qt_pixmapToWinHICON@@YAPEAUHICON__@@AEBVQPixmap@@@Z"
"?qt_pointMultiplier@@YANW4Unit@QPageLayout@@@Z"
"?qt_qpa_core_dispatcher@QGuiApplicationPrivate@@SAPEAVQAbstractEventDispatcher@@XZ"
"?qt_regionToPath@@YA?AVQPainterPath@@AEBVQRegion@@@Z"
"?qt_region_strictContains@@YA_NAEBVQRegion@@AEBVQRect@@@Z"
"?qt_scaleForTransform@@YA_NAEBVQTransform@@PEAN@Z"
"?qt_script_for_writing_system@@YAHW4WritingSystem@QFontDatabase@@@Z"
"?qt_scrollRectInImage@@YAXAEAVQImage@@AEBVQRect@@AEBVQPoint@@@Z"
"?qt_sendShortcutOverrideEvent@@YA_NPEAVQObject@@KHV?$QFlags@W4KeyboardModifier@Qt@@@@AEBVQString@@_NG@Z"
"?qt_set_sequence_auto_mnemonic@@YAX_N@Z"
"?qt_sort_families_by_writing_system@@YA?AV?$QList@VQString@@@@W4Script@QChar@@AEBV1@@Z"
"?qt_static_metacall@QAbstractTextDocumentLayout@@CAXPEAVQObject@@W4Call@QMetaObject@@HPEAPEAX@Z"
"?qt_static_metacall@QAccessibleBridgePlugin@@CAXPEAVQObject@@W4Call@QMetaObject@@HPEAPEAX@Z"
"?qt_static_metacall@QAccessibleCache@@CAXPEAVQObject@@W4Call@QMetaObject@@HPEAPEAX@Z"
"?qt_static_metacall@QAccessiblePlugin@@CAXPEAVQObject@@W4Call@QMetaObject@@HPEAPEAX@Z"
"?qt_static_metacall@QAction@@CAXPEAVQObject@@W4Call@QMetaObject@@HPEAPEAX@Z"
"?qt_static_metacall@QActionGroup@@CAXPEAVQObject@@W4Call@QMetaObject@@HPEAPEAX@Z"
"?qt_static_metacall@QClipboard@@CAXPEAVQObject@@W4Call@QMetaObject@@HPEAPEAX@Z"
"?qt_static_metacall@QDoubleValidator@@CAXPEAVQObject@@W4Call@QMetaObject@@HPEAPEAX@Z"
"?qt_static_metacall@QDrag@@CAXPEAVQObject@@W4Call@QMetaObject@@HPEAPEAX@Z"
"?qt_static_metacall@QDragManager@@CAXPEAVQObject@@W4Call@QMetaObject@@HPEAPEAX@Z"
"?qt_static_metacall@QEventPoint@@CAXPEAVQObject@@W4Call@QMetaObject@@HPEAPEAX@Z"
"?qt_static_metacall@QFileInfoGatherer@@CAXPEAVQObject@@W4Call@QMetaObject@@HPEAPEAX@Z"
"?qt_static_metacall@QFileSystemModel@@CAXPEAVQObject@@W4Call@QMetaObject@@HPEAPEAX@Z"
"?qt_static_metacall@QGenericPlugin@@CAXPEAVQObject@@W4Call@QMetaObject@@HPEAPEAX@Z"
"?qt_static_metacall@QGuiApplication@@CAXPEAVQObject@@W4Call@QMetaObject@@HPEAPEAX@Z"
"?qt_static_metacall@QIconEnginePlugin@@CAXPEAVQObject@@W4Call@QMetaObject@@HPEAPEAX@Z"
"?qt_static_metacall@QImageIOPlugin@@CAXPEAVQObject@@W4Call@QMetaObject@@HPEAPEAX@Z"
"?qt_static_metacall@QInputControl@@CAXPEAVQObject@@W4Call@QMetaObject@@HPEAPEAX@Z"
"?qt_static_metacall@QInputDevice@@CAXPEAVQObject@@W4Call@QMetaObject@@HPEAPEAX@Z"
"?qt_static_metacall@QInputDeviceManager@@CAXPEAVQObject@@W4Call@QMetaObject@@HPEAPEAX@Z"
"?qt_static_metacall@QInputMethod@@CAXPEAVQObject@@W4Call@QMetaObject@@HPEAPEAX@Z"
"?qt_static_metacall@QIntValidator@@CAXPEAVQObject@@W4Call@QMetaObject@@HPEAPEAX@Z"
"?qt_static_metacall@QInternalMimeData@@CAXPEAVQObject@@W4Call@QMetaObject@@HPEAPEAX@Z"
"?qt_static_metacall@QKeyMapper@@CAXPEAVQObject@@W4Call@QMetaObject@@HPEAPEAX@Z"
"?qt_static_metacall@QMovie@@CAXPEAVQObject@@W4Call@QMetaObject@@HPEAPEAX@Z"
"?qt_static_metacall@QOffscreenSurface@@CAXPEAVQObject@@W4Call@QMetaObject@@HPEAPEAX@Z"
"?qt_static_metacall@QOpenGLContext@@CAXPEAVQObject@@W4Call@QMetaObject@@HPEAPEAX@Z"
"?qt_static_metacall@QOpenGLContextGroup@@CAXPEAVQObject@@W4Call@QMetaObject@@HPEAPEAX@Z"
"?qt_static_metacall@QPaintDeviceWindow@@CAXPEAVQObject@@W4Call@QMetaObject@@HPEAPEAX@Z"
"?qt_static_metacall@QPlatformColorDialogHelper@@CAXPEAVQObject@@W4Call@QMetaObject@@HPEAPEAX@Z"
"?qt_static_metacall@QPlatformDialogHelper@@CAXPEAVQObject@@W4Call@QMetaObject@@HPEAPEAX@Z"
"?qt_static_metacall@QPlatformFileDialogHelper@@CAXPEAVQObject@@W4Call@QMetaObject@@HPEAPEAX@Z"
"?qt_static_metacall@QPlatformFontDialogHelper@@CAXPEAVQObject@@W4Call@QMetaObject@@HPEAPEAX@Z"
"?qt_static_metacall@QPlatformGraphicsBuffer@@CAXPEAVQObject@@W4Call@QMetaObject@@HPEAPEAX@Z"
"?qt_static_metacall@QPlatformInputContext@@CAXPEAVQObject@@W4Call@QMetaObject@@HPEAPEAX@Z"
"?qt_static_metacall@QPlatformInputContextPlugin@@CAXPEAVQObject@@W4Call@QMetaObject@@HPEAPEAX@Z"
"?qt_static_metacall@QPlatformIntegrationPlugin@@CAXPEAVQObject@@W4Call@QMetaObject@@HPEAPEAX@Z"
"?qt_static_metacall@QPlatformMenu@@CAXPEAVQObject@@W4Call@QMetaObject@@HPEAPEAX@Z"
"?qt_static_metacall@QPlatformMenuBar@@CAXPEAVQObject@@W4Call@QMetaObject@@HPEAPEAX@Z"
"?qt_static_metacall@QPlatformMenuItem@@CAXPEAVQObject@@W4Call@QMetaObject@@HPEAPEAX@Z"
"?qt_static_metacall@QPlatformMessageDialogHelper@@CAXPEAVQObject@@W4Call@QMetaObject@@HPEAPEAX@Z"
"?qt_static_metacall@QPlatformNativeInterface@@CAXPEAVQObject@@W4Call@QMetaObject@@HPEAPEAX@Z"
"?qt_static_metacall@QPlatformServiceColorPicker@@CAXPEAVQObject@@W4Call@QMetaObject@@HPEAPEAX@Z"
"?qt_static_metacall@QPlatformSharedGraphicsCache@@CAXPEAVQObject@@W4Call@QMetaObject@@HPEAPEAX@Z"
"?qt_static_metacall@QPlatformSystemTrayIcon@@CAXPEAVQObject@@W4Call@QMetaObject@@HPEAPEAX@Z"
"?qt_static_metacall@QPlatformTextureList@@CAXPEAVQObject@@W4Call@QMetaObject@@HPEAPEAX@Z"
"?qt_static_metacall@QPlatformThemePlugin@@CAXPEAVQObject@@W4Call@QMetaObject@@HPEAPEAX@Z"
"?qt_static_metacall@QPointingDevice@@CAXPEAVQObject@@W4Call@QMetaObject@@HPEAPEAX@Z"
"?qt_static_metacall@QPointingDeviceUniqueId@@CAXPEAVQObject@@W4Call@QMetaObject@@HPEAPEAX@Z"
"?qt_static_metacall@QRasterWindow@@CAXPEAVQObject@@W4Call@QMetaObject@@HPEAPEAX@Z"
"?qt_static_metacall@QRegularExpressionValidator@@CAXPEAVQObject@@W4Call@QMetaObject@@HPEAPEAX@Z"
"?qt_static_metacall@QScreen@@CAXPEAVQObject@@W4Call@QMetaObject@@HPEAPEAX@Z"
"?qt_static_metacall@QSessionManager@@CAXPEAVQObject@@W4Call@QMetaObject@@HPEAPEAX@Z"
"?qt_static_metacall@QShortcut@@CAXPEAVQObject@@W4Call@QMetaObject@@HPEAPEAX@Z"
"?qt_static_metacall@QSinglePointEvent@@CAXPEAVQObject@@W4Call@QMetaObject@@HPEAPEAX@Z"
"?qt_static_metacall@QStandardItemModel@@CAXPEAVQObject@@W4Call@QMetaObject@@HPEAPEAX@Z"
"?qt_static_metacall@QStyleHints@@CAXPEAVQObject@@W4Call@QMetaObject@@HPEAPEAX@Z"
"?qt_static_metacall@QSyntaxHighlighter@@CAXPEAVQObject@@W4Call@QMetaObject@@HPEAPEAX@Z"
"?qt_static_metacall@QTextBlockGroup@@CAXPEAVQObject@@W4Call@QMetaObject@@HPEAPEAX@Z"
"?qt_static_metacall@QTextDocument@@CAXPEAVQObject@@W4Call@QMetaObject@@HPEAPEAX@Z"
"?qt_static_metacall@QTextDocumentLayout@@CAXPEAVQObject@@W4Call@QMetaObject@@HPEAPEAX@Z"
"?qt_static_metacall@QTextFrame@@CAXPEAVQObject@@W4Call@QMetaObject@@HPEAPEAX@Z"
"?qt_static_metacall@QTextImageHandler@@CAXPEAVQObject@@W4Call@QMetaObject@@HPEAPEAX@Z"
"?qt_static_metacall@QTextList@@CAXPEAVQObject@@W4Call@QMetaObject@@HPEAPEAX@Z"
"?qt_static_metacall@QTextObject@@CAXPEAVQObject@@W4Call@QMetaObject@@HPEAPEAX@Z"
"?qt_static_metacall@QTextTable@@CAXPEAVQObject@@W4Call@QMetaObject@@HPEAPEAX@Z"
"?qt_static_metacall@QUndoGroup@@CAXPEAVQObject@@W4Call@QMetaObject@@HPEAPEAX@Z"
"?qt_static_metacall@QUndoStack@@CAXPEAVQObject@@W4Call@QMetaObject@@HPEAPEAX@Z"
"?qt_static_metacall@QValidator@@CAXPEAVQObject@@W4Call@QMetaObject@@HPEAPEAX@Z"
"?qt_static_metacall@QWheelEvent@@CAXPEAVQObject@@W4Call@QMetaObject@@HPEAPEAX@Z"
"?qt_static_metacall@QWindow@@CAXPEAVQObject@@W4Call@QMetaObject@@HPEAPEAX@Z"
"?qt_static_metacall@QWindowsGuiEventDispatcher@@CAXPEAVQObject@@W4Call@QMetaObject@@HPEAPEAX@Z"
"?qt_window_private@@YAPEAVQWindowPrivate@@PEAVQWindow@@@Z"
"?qt_writing_system_for_script@@YA?AW4WritingSystem@QFontDatabase@@H@Z"
"?qt_xForm_helper@@YA_NAEBVQTransform@@HHHPEAE_JHHPEBE2HH@Z"
"?quadTo@QPainterPath@@QEAAXAEBVQPointF@@0@Z"
"?quadTo@QPainterPath@@QEAAXNNNN@Z"
"?quadToQuad@QTransform@@SA_NAEBVQPolygonF@@0AEAV1@@Z"
"?quadToSquare@QTransform@@SA_NAEBVQPolygonF@@AEAV1@@Z"
"?quality@QImageReader@@QEBAHXZ"
"?quality@QImageWriter@@QEBAHXZ"
"?quality@QTextImageFormat@@QEBAHXZ"
"?queries@QInputMethodQueryEvent@@QEBA?AV?$QFlags@W4InputMethodQuery@Qt@@@@XZ"
"?queryAccessibleInterface@QAccessible@@SAPEAVQAccessibleInterface@@PEAVQObject@@@Z"
"?queryFocusObject@QInputMethod@@SA?AVQVariant@@W4InputMethodQuery@Qt@@AEBV2@@Z"
"?queryFocusObject@QPlatformInputContext@@SA?AVQVariant@@W4InputMethodQuery@Qt@@VQPointF@@@Z"
"?queryKeyboardModifiers@QGuiApplication@@SA?AV?$QFlags@W4KeyboardModifier@Qt@@@@XZ"
"?queryKeyboardModifiers@QPlatformIntegration@@MEBA?AV?$QFlags@W4KeyboardModifier@Qt@@@@XZ"
"?queryKeyboardModifiers@QPlatformKeyMapper@@UEBA?AV?$QFlags@W4KeyboardModifier@Qt@@@@XZ"
"?queryPointById@QPointingDevicePrivate@@QEBAPEAUEventPointData@1@H@Z"
"?queryTabletDevice@QPointingDevicePrivate@@SAPEBVQPointingDevice@@W4DeviceType@QInputDevice@@W4PointerType@2@VQPointingDeviceUniqueId@@V?$QFlags@W4Capability@QInputDevice@@@@_J@Z"
"?quit@QGuiApplicationPrivate@@UEAAXXZ"
"?quit@QPlatformIntegration@@UEBAXXZ"
"?quitOnLastWindowClosed@QGuiApplication@@SA_NXZ"
"?quitOnLastWindowClosed@QGuiApplicationPrivate@@2_NA"
"?radius@QRadialGradient@@QEBANXZ"
"?raise@QPlatformWindow@@UEAAXXZ"
"?raise@QWindow@@QEAAXXZ"
"?rasterBuffer@QRasterPaintEngine@@QEAAPEAVQRasterBuffer@@XZ"
"?rawFont@QGlyphRun@@QEBA?AVQRawFont@@XZ"
"?rawScaleFactor@QHighDpiScaling@@CANPEBVQPlatformScreen@@@Z"
"?rawValue@QTextLength@@QEBANXZ"
"?rbegin@QRegion@@QEBA?AV?$reverse_iterator@PEBVQRect@@@std@@XZ"
"?read@QIconEngine@@UEAA_NAEAVQDataStream@@@Z"
"?read@QImageReader@@QEAA?AVQImage@@XZ"
"?read@QImageReader@@QEAA_NPEAVQImage@@@Z"
"?read@QPixmapIconEngine@@UEAA_NAEAVQDataStream@@@Z"
"?read@QStandardItem@@UEAAXAEAVQDataStream@@@Z"
"?read@QTextureFileReader@@QEAA?AVQTextureFileData@@XZ"
"?readBackBuffer@QRhiResourceUpdateBatch@@QEAAXPEAVQRhiBuffer@@IIPEAUQRhiReadbackResult@@@Z"
"?readBackTexture@QRhiResourceUpdateBatch@@QEAAXAEBVQRhiReadbackDescription@@PEAUQRhiReadbackResult@@@Z"
"?readViewFormat@QRhiTexture@@QEBA?AUViewFormat@1@XZ"
"?realValue@Declaration@QCss@@QEBA_NPEANPEBD@Z"
"?reallocate@LayoutData@QTextEngine@@QEAA_NH@Z"
"?reason@QContextMenuEvent@@QEBA?AW4Reason@1@XZ"
"?reason@QFocusEvent@@QEBA?AW4FocusReason@Qt@@XZ"
"?rebuildNameFilterRegexps@QFileSystemModelPrivate@@QEAAXXZ"
"?recalcAdvances@QFontEngine@@UEBAXPEAUQGlyphLayout@@V?$QFlags@W4ShaperFlag@QFontEngine@@@@@Z"
"?recalcAdvances@QFontEngineMulti@@UEBAXPEAUQGlyphLayout@@V?$QFlags@W4ShaperFlag@QFontEngine@@@@@Z"
"?recalcAdvances@QWindowsFontEngineDirectWrite@@UEBAXPEAUQGlyphLayout@@V?$QFlags@W4ShaperFlag@QFontEngine@@@@@Z"
"?recordError@Parser@QCss@@QEAA_NXZ"
"?recreateShapedPixmapWindow@QBasicDrag@@IEAAXPEAVQScreen@@AEBVQPoint@@@Z"
"?rect@QAccessibleObject@@UEBA?AVQRect@@XZ"
"?rect@QImage@@QEBA?AVQRect@@XZ"
"?rect@QPageSize@@QEBA?AVQRectF@@W4Unit@1@@Z"
"?rect@QPaintEvent@@QEBAAEBVQRect@@XZ"
"?rect@QPixmap@@QEBA?AVQRect@@XZ"
"?rect@QTextInlineObject@@QEBA?AVQRectF@@XZ"
"?rect@QTextLine@@QEBA?AVQRectF@@XZ"
"?rectCount@QRegion@@QEBAHXZ"
"?rectPixels@QPageSize@@QEBA?AVQRect@@H@Z"
"?rectPoints@QPageSize@@QEBA?AVQRect@@XZ"
"?rectValue@Declaration@QCss@@QEBA?AVQRect@@XZ"
"?rects@QRegion@@QEBA?AV?$QSpan@$$CBVQRect@@$0?0@@XZ"
"?red@QColor@@QEBAHXZ"
"?redBufferSize@QSurfaceFormat@@QEBAHXZ"
"?redF@QColor@@QEBAMXZ"
"?redirected@QPaintDevice@@MEBAPEAV1@PEAVQPoint@@@Z"
"?redirected@QRasterWindow@@MEBAPEAVQPaintDevice@@PEAVQPoint@@@Z"
"?redo@QTextDocument@@QEAAXPEAVQTextCursor@@@Z"
"?redo@QTextDocument@@QEAAXXZ"
"?redo@QTextDocumentPrivate@@QEAAXXZ"
"?redo@QUndoCommand@@UEAAXXZ"
"?redo@QUndoGroup@@QEAAXXZ"
"?redo@QUndoStack@@QEAAXXZ"
"?redoAvailable@QTextDocument@@QEAAX_N@Z"
"?redoGrab@QActionPrivate@@QEAAXAEAVQShortcutMap@@@Z"
"?redoGrab@QShortcutPrivate@@QEAAXAEAVQShortcutMap@@@Z"
"?redoText@QUndoGroup@@QEBA?AVQString@@XZ"
"?redoText@QUndoStack@@QEBA?AVQString@@XZ"
"?redoTextChanged@QUndoGroup@@QEAAXAEBVQString@@@Z"
"?redoTextChanged@QUndoStack@@QEAAXAEBVQString@@@Z"
"?refUniqueFont@QWindowsFontDatabase@@QEAAXAEBVQString@@@Z"
"?refreshRate@QPlatformScreen@@UEBANXZ"
"?refreshRate@QScreen@@QEBANXZ"
"?refreshRateChanged@QScreen@@QEAAXN@Z"
"?regenerateGrid@QGridLayoutEngine@@AEAAXXZ"
"?region@QExposeEvent@@QEBAAEBVQRegion@@XZ"
"?region@QPaintEvent@@QEBAAEBVQRegion@@XZ"
"?registerAccessibleInterface@QAccessible@@SAIPEAVQAccessibleInterface@@@Z"
"?registerAliasToFontFamily@QPlatformFontDatabase@@SAXAEBVQString@@0@Z"
"?registerBitmapFont@QWindowsDirectWriteFontDatabase@@QEAAXAEBVQString@@@Z"
"?registerDevice@QInputDevicePrivate@@SAXPEBVQInputDevice@@@Z"
"?registerFont@QPlatformFontDatabase@@SAXAEBVQString@@00W4Weight@QFont@@W4Style@4@W4Stretch@4@_N4H4AEBVQSupportedWritingSystems@@PEAX@Z"
"?registerFontFamily@QPlatformFontDatabase@@SAXAEBVQString@@@Z"
"?registerHandler@QAbstractTextDocumentLayout@@QEAAXHPEAVQObject@@@Z"
"?registerInputDevice@QWindowSystemInterface@@SAXPEBVQInputDevice@@@Z"
"?registerMimeType@QWindowsMimeConverter@@SAHAEBVQString@@@Z"
"?regularExpression@QRegularExpressionValidator@@QEBA?AVQRegularExpression@@XZ"
"?regularExpressionChanged@QRegularExpressionValidator@@QEAAXAEBVQRegularExpression@@@Z"
"?rehighlight@QSyntaxHighlighter@@QEAAXXZ"
"?rehighlightBlock@QSyntaxHighlighter@@QEAAXAEBVQTextBlock@@@Z"
"?reinterpretAsFormat@QImage@@QEAA_NW4Format@1@@Z"
"?reject@QPlatformDialogHelper@@QEAAXXZ"
"?relations@QAccessibleInterface@@UEBA?AV?$QList@U?$pair@PEAVQAccessibleInterface@@V?$QFlags@W4RelationFlag@QAccessible@@@@@std@@@@V?$QFlags@W4RelationFlag@QAccessible@@@@@Z"
"?release@QPlatformSessionManager@@UEAAXXZ"
"?release@QRhiResourceUpdateBatch@@QEAAXXZ"
"?release@QSessionManager@@QEAAXXZ"
"?release@QTouchEventSequence@QTest@@QEAAAEAV12@HAEBVQPoint@@PEAVQWindow@@@Z"
"?releaseCachedResources@QRhi@@QEAAXXZ"
"?releaseDC@QRasterPaintEngine@@QEBAXPEAUHDC__@@@Z"
"?releaseHandle@QPlatformFontDatabase@@UEAAXPEAX@Z"
"?releaseHandle@QWindowsFontDatabase@@UEAAXPEAX@Z"
"?remove@QFileSystemModel@@QEAA_NAEBVQModelIndex@@@Z"
"?remove@QPixmapCache@@SAXAEBVKey@1@@Z"
"?remove@QPixmapCache@@SAXAEBVQString@@@Z"
"?remove@QTextCursorPrivate@@QEAAXXZ"
"?remove@QTextDocumentPrivate@@QEAAXHHW4Operation@QTextUndoCommand@@@Z"
"?remove@QTextList@@QEAAXAEBVQTextBlock@@@Z"
"?removeAction@QActionGroup@@QEAAXPEAVQAction@@@Z"
"?removeActivationObserver@QAccessible@@SAXPEAVActivationObserver@1@@Z"
"?removeAllApplicationFonts@QFontDatabase@@SA_NXZ"
"?removeApplicationFallbackFontFamily@QFontDatabase@@SA_NW4Script@QChar@@AEBVQString@@@Z"
"?removeApplicationFont@QFontDatabase@@SA_NH@Z"
"?removeApplicationFonts@QWindowsFontDatabase@@QEAAXXZ"
"?removeButton@QMessageDialogOptions@@QEAAXH@Z"
"?removeCleanupCallback@QRhi@@QEAAXPEBX@Z"
"?removeColumn@QStandardItem@@QEAAXH@Z"
"?removeColumns@QStandardItem@@QEAAXHH@Z"
"?removeColumns@QStandardItemModel@@UEAA_NHHAEBVQModelIndex@@@Z"
"?removeColumns@QTextTable@@QEAAXHH@Z"
"?removeContext@QOpenGLContextGroupPrivate@@QEAAXPEAVQOpenGLContext@@@Z"
"?removeCursor@QTextDocumentPrivate@@QEAAXPEAVQTextCursorPrivate@@@Z"
"?removeExclusiveGrabber@QPointingDevicePrivate@@QEAA_NPEBVQPointerEvent@@PEBVQObject@@@Z"
"?removeFactory@QAccessible@@SAXP6APEAVQAccessibleInterface@@AEBVQString@@PEAVQObject@@@Z@Z"
"?removeFrame@QTextDocumentPrivate@@QEAAXPEAVQTextFrame@@@Z"
"?removeGlyphFromCache@QFontEngine@@UEAAXI@Z"
"?removeGrabber@QPointingDevicePrivate@@QEAAXPEAVQObject@@_N@Z"
"?removeImageHook@QImagePixmapCleanupHooks@@QEAAXP6AX_J@Z@Z"
"?removeItem@QGridLayoutEngine@@QEAAXPEAVQGridLayoutItem@@@Z"
"?removeItem@QTextList@@QEAAXH@Z"
"?removeMnemonics@QPlatformTheme@@SA?AVQString@@AEBV2@@Z"
"?removeNativeShaderInfo@QShader@@QEAAXAEBVQShaderKey@@@Z"
"?removeNode@QFileSystemModelPrivate@@QEAAXPEAVQFileSystemNode@1@AEBVQString@@@Z"
"?removePassiveGrabber@QPointerEvent@@QEAA_NAEBVQEventPoint@@PEAVQObject@@@Z"
"?removePassiveGrabber@QPointingDevicePrivate@@QEAA_NPEBVQPointerEvent@@AEBVQEventPoint@@PEAVQObject@@@Z"
"?removePath@QFileInfoGatherer@@QEAAXAEBVQString@@@Z"
"?removePixmapEntry@QPixmapIconEngine@@AEAAXPEAUQPixmapIconEngineEntry@@@Z"
"?removePlatformPixmapDestructionHook@QImagePixmapCleanupHooks@@QEAAXP6AXPEAVQPlatformPixmap@@@Z@Z"
"?removePlatformPixmapModificationHook@QImagePixmapCleanupHooks@@QEAAXP6AXPEAVQPlatformPixmap@@@Z@Z"
"?removePointById@QPointingDevicePrivate@@QEAAXH@Z"
"?removeResourceBindingMap@QShader@@QEAAXAEBVQShaderKey@@@Z"
"?removeRow@QStandardItem@@QEAAXH@Z"
"?removeRows@QGridLayoutEngine@@QEAAXHHW4Orientation@Qt@@@Z"
"?removeRows@QStandardItem@@QEAAXHH@Z"
"?removeRows@QStandardItemModel@@UEAA_NHHAEBVQModelIndex@@@Z"
"?removeRows@QTextTable@@QEAAXHH@Z"
"?removeSelectedText@QTextCursor@@QEAAXXZ"
"?removeSeparateToCombinedImageSamplerMappingList@QShader@@QEAAXAEBVQShaderKey@@@Z"
"?removeShader@QShader@@QEAAXAEBVQShaderKey@@@Z"
"?removeShortcut@QShortcutMap@@QEAAHHPEAVQObject@@AEBVQKeySequence@@@Z"
"?removeStack@QUndoGroup@@QEAAXPEAVQUndoStack@@@Z"
"?removeSubstitutions@QFont@@SAXAEBVQString@@@Z"
"?removeVisibleFile@QFileSystemModelPrivate@@QEAAXPEAVQFileSystemNode@1@H@Z"
"?removeWindowSystemEvent@QWindowSystemInterfacePrivate@@SAXPEAVWindowSystemEvent@1@@Z"
"?removeWindowSystemEventhandler@QWindowSystemInterfacePrivate@@SAXPEAVQWindowSystemEventHandler@@@Z"
"?remove_block@QTextDocumentPrivate@@AEAAHHPEAHHW4Operation@QTextUndoCommand@@@Z"
"?remove_string@QTextDocumentPrivate@@AEAAHHIW4Operation@QTextUndoCommand@@@Z"
"?rend@QRegion@@QEBA?AV?$reverse_iterator@PEBVQRect@@@std@@XZ"
"?renderBuffer@QRhiColorAttachment@@QEBAPEAVQRhiRenderBuffer@@XZ"
"?renderDataHelper@QInternalMimeData@@SA?AVQByteArray@@AEBVQString@@PEBVQMimeData@@@Z"
"?renderFlags@QTextItem@@QEBA?AV?$QFlags@W4RenderFlag@QTextItem@@@@XZ"
"?renderGlyphRun@QWindowsFontEngineDirectWrite@@AEAAXPEAVQImage@@MMMMPEAUIDWriteGlyphRunAnalysis@@AEBVQRect@@W4DWRITE_RENDERING_MODE@@@Z"
"?renderHints@QPaintEngineState@@QEBA?AV?$QFlags@W4RenderHint@QPainter@@@@XZ"
"?renderHints@QPainter@@QEBA?AV?$QFlags@W4RenderHint@QPainter@@@@XZ"
"?renderHintsChanged@QBlitterPaintEngine@@UEAAXXZ"
"?renderHintsChanged@QRasterPaintEngine@@UEAAXXZ"
"?renderPassDescriptor@QRhiGraphicsPipeline@@QEBAPEAVQRhiRenderPassDescriptor@@XZ"
"?renderPassDescriptor@QRhiRenderTarget@@QEBAPEAVQRhiRenderPassDescriptor@@XZ"
"?renderPassDescriptor@QRhiSwapChain@@QEBAPEAVQRhiRenderPassDescriptor@@XZ"
"?renderableType@QSurfaceFormat@@QEBA?AW4RenderableType@1@XZ"
"?renderedPathForGlyph@QFontEngine@@QEAA?AVQImage@@IAEBVQColor@@@Z"
"?repeatValue@Declaration@QCss@@QEBA?AW4Repeat@2@XZ"
"?repetitionLimit@QDashStroker@@SAHXZ"
"?replace@QPixmapCache@@SA_NAEBVKey@1@AEBVQPixmap@@@Z"
"?replacementLength@QInputMethodEvent@@QEBAHXZ"
"?replacementStart@QInputMethodEvent@@QEBAHXZ"
"?replayClipOperations@QPaintEngineExPrivate@@QEAAXXZ"
"?repopulateFontDatabase@QPlatformFontDatabase@@SAXXZ"
"?reportContentOrientationChange@QWindow@@QEAAXW4ScreenOrientation@Qt@@@Z"
"?requestAbort@QFileInfoGatherer@@QEAAXXZ"
"?requestActivate@QWindow@@QEAAXXZ"
"?requestActivateWindow@QPlatformWindow@@UEAAXXZ"
"?requestColorScheme@QPlatformTheme@@UEAAXW4ColorScheme@Qt@@@Z"
"?requestPhase2@QPlatformSessionManager@@UEAAXXZ"
"?requestPhase2@QSessionManager@@QEAAXXZ"
"?requestUpdate@QPlatformWindow@@UEAAXXZ"
"?requestUpdate@QWindow@@QEAAXXZ"
"?requested@QPlatformInputContextFactory@@SA?AV?$QList@VQString@@@@XZ"
"?requestedFormat@QOffscreenSurface@@QEBA?AVQSurfaceFormat@@XZ"
"?requestedFormat@QWindow@@QEBA?AVQSurfaceFormat@@XZ"
"?requiresPretransformedGlyphPositions@QPaintEngineEx@@UEBA_NPEAVQFontEngine@@AEBVQTransform@@@Z"
"?requiresPretransformedGlyphPositions@QRasterPaintEngine@@UEBA_NPEAVQFontEngine@@AEBVQTransform@@@Z"
"?reserve@QPainterPath@@QEAAXH@Z"
"?reset@QBackingStoreRhiSupport@@QEAAXXZ"
"?reset@QInputMethod@@QEAAXXZ"
"?reset@QPlatformInputContext@@UEAAXXZ"
"?reset@QTransform@@QEAAXXZ"
"?resetCachedDevicePixelRatio@QGuiApplicationPrivate@@SAXXZ"
"?resetClean@QUndoStack@@QEAAXXZ"
"?resetEnabled@QAction@@QEAAXXZ"
"?resetFontEngineCache@QTextEngine@@QEAAXXZ"
"?resetState@QShortcutMap@@AEAAXXZ"
"?resetTransform@QPainter@@QEAAXXZ"
"?resize@QBackingStore@@QEAAXAEBVQSize@@@Z"
"?resize@QBlittablePlatformPixmap@@UEAAXHH@Z"
"?resize@QRasterPlatformPixmap@@UEAAXHH@Z"
"?resize@QTextTable@@QEAAXHH@Z"
"?resize@QWindow@@QEAAXAEBVQSize@@@Z"
"?resize@QWindow@@QEAAXHH@Z"
"?resizeCache@QTextureGlyphCache@@QEAAXHH@Z"
"?resizeEvent@QRasterWindow@@MEAAXPEAVQResizeEvent@@@Z"
"?resizeEvent@QWindow@@MEAAXPEAVQResizeEvent@@@Z"
"?resizeInlineObject@QAbstractTextDocumentLayout@@MEAAXVQTextInlineObject@@HAEBVQTextFormat@@@Z"
"?resizeInlineObject@QTextDocumentLayout@@MEAAXVQTextInlineObject@@HAEBVQTextFormat@@@Z"
"?resizeMaximizedWindows@QPlatformScreen@@IEAAXXZ"
"?resizeTextureData@QImageTextureGlyphCache@@UEAAXHH@Z"
"?resized@QMovie@@QEAAXAEBVQSize@@@Z"
"?resolve@QFont@@QEBA?AV1@AEBV1@@Z"
"?resolve@QFontPrivate@@QEAAXIPEBV1@@Z"
"?resolve@QPalette@@QEBA?AV1@AEBV1@@Z"
"?resolveFontFamilyAlias@QFontDatabasePrivate@@SA?AVQString@@AEBV2@@Z"
"?resolveFontFamilyAlias@QPlatformFontDatabase@@UEBA?AVQString@@AEBV2@@Z"
"?resolveFormats@QTextEngine@@AEBAXXZ"
"?resolveInterface@QGuiApplication@@IEBAPEAXPEBDH@Z"
"?resolveInterface@QKeyMapper@@IEBAPEAXPEBDH@Z"
"?resolveInterface@QOffscreenSurface@@IEBAPEAXPEBDH@Z"
"?resolveInterface@QOpenGLContext@@IEBAPEAXPEBDH@Z"
"?resolveInterface@QScreen@@IEBAPEAXPEBDH@Z"
"?resolveInterface@QWindow@@IEBAPEAXPEBDH@Z"
"?resolveLayer@QRhiColorAttachment@@QEBAHXZ"
"?resolveLevel@QRhiColorAttachment@@QEBAHXZ"
"?resolveMask@QFont@@QEBAIXZ"
"?resolveMask@QPalette@@QEBA_KXZ"
"?resolveSymlinks@QFileInfoGatherer@@QEBA_NXZ"
"?resolveSymlinks@QFileSystemModel@@QEBA_NXZ"
"?resolveTexture@QRhiColorAttachment@@QEBAPEAVQRhiTexture@@XZ"
"?resolvedName@QFileSystemModelPrivate@@QEAAXAEBVQString@@0@Z"
"?resource@QTextDocument@@QEBA?AVQVariant@@HAEBVQUrl@@@Z"
"?resourceLimit@QRhi@@QEBAHW4ResourceLimit@1@@Z"
"?resourceProvider@QTextDocument@@QEBA?AV?$function@$$A6A?AVQVariant@@AEBVQUrl@@@Z@std@@XZ"
"?resourceType@QRhiBuffer@@UEBA?AW4Type@QRhiResource@@XZ"
"?resourceType@QRhiCommandBuffer@@UEBA?AW4Type@QRhiResource@@XZ"
"?resourceType@QRhiComputePipeline@@UEBA?AW4Type@QRhiResource@@XZ"
"?resourceType@QRhiGraphicsPipeline@@UEBA?AW4Type@QRhiResource@@XZ"
"?resourceType@QRhiRenderBuffer@@UEBA?AW4Type@QRhiResource@@XZ"
"?resourceType@QRhiRenderPassDescriptor@@UEBA?AW4Type@QRhiResource@@XZ"
"?resourceType@QRhiSampler@@UEBA?AW4Type@QRhiResource@@XZ"
"?resourceType@QRhiShaderResourceBindings@@UEBA?AW4Type@QRhiResource@@XZ"
"?resourceType@QRhiSwapChain@@UEBA?AW4Type@QRhiResource@@XZ"
"?resourceType@QRhiSwapChainRenderTarget@@UEBA?AW4Type@QRhiResource@@XZ"
"?resourceType@QRhiTexture@@UEBA?AW4Type@QRhiResource@@XZ"
"?resourceType@QRhiTextureRenderTarget@@UEBA?AW4Type@QRhiResource@@XZ"
"?resourceUpdate@QRhiCommandBuffer@@QEAAXPEAVQRhiResourceUpdateBatch@@@Z"
"?resources@QOpenGLMultiGroupSharedResource@@QEBA?AV?$QList@PEAVQOpenGLSharedResource@@@@XZ"
"?restartCommand@QPlatformSessionManager@@UEBA?AV?$QList@VQString@@@@XZ"
"?restartCommand@QSessionManager@@QEBA?AV?$QList@VQString@@@@XZ"
"?restartHint@QPlatformSessionManager@@UEBA?AW4RestartHint@QSessionManager@@XZ"
"?restartHint@QSessionManager@@QEBA?AW4RestartHint@1@XZ"
"?restore@QPainter@@QEAAXXZ"
"?restoreCursor@QBasicDrag@@AEAAXXZ"
"?restoreOverrideCursor@QGuiApplication@@SAXXZ"
"?retrieveData@QInternalMimeData@@MEBA?AVQVariant@@AEBVQString@@VQMetaType@@@Z"
"?revision@QTextBlock@@QEBAHXZ"
"?revision@QTextDocument@@QEBAHXZ"
"?rgb@QColor@@QEBAIXZ"
"?rgbSwap@QImage@@QEAAXXZ"
"?rgbSwapped@QImage@@QEGBA?AV1@XZ"
"?rgbSwapped@QImage@@QEHAA?AV1@XZ"
"?rgbSwapped_helper@QImage@@IEBA?AV1@XZ"
"?rgbSwapped_inplace@QImage@@IEAAXXZ"
"?rgba64@QColor@@QEBA?AVQRgba64@@XZ"
"?rgba@QColor@@QEBAIXZ"
"?rhi@QBackingStoreRhiSupport@@QEBAPEAVQRhi@@XZ"
"?rhi@QPlatformBackingStore@@QEBAPEAVQRhi@@PEAVQWindow@@@Z"
"?rhi@QRhiResource@@QEBAPEAVQRhi@@XZ"
"?rhiFlush@QPlatformBackingStore@@UEAA?AW4FlushResult@1@PEAVQWindow@@NAEBVQRegion@@AEBVQPoint@@PEAVQPlatformTextureList@@_N@Z"
"?rightBearing@QFontMetrics@@QEBAHVQChar@@@Z"
"?rightBearing@QFontMetricsF@@QEBANVQChar@@@Z"
"?rightBearing@glyph_metrics_t@@QEBA?AUQFixed@@XZ"
"?rightBorder@QTextTableCellFormat@@QEBANXZ"
"?rightBorderBrush@QTextTableCellFormat@@QEBA?AVQBrush@@XZ"
"?rightBorderStyle@QTextTableCellFormat@@QEBA?AW4BorderStyle@QTextFrameFormat@@XZ"
"?rightCursorPosition@QTextDocumentPrivate@@QEBAHH@Z"
"?rightCursorPosition@QTextLayout@@QEBAHH@Z"
"?rightMargin@QTextBlockFormat@@QEBANXZ"
"?rightMargin@QTextFrameFormat@@QEBANXZ"
"?rightPadding@QTextTableCellFormat@@QEBANXZ"
"?rmdir@QFileSystemModel@@QEAA_NAEBVQModelIndex@@@Z"
"?role@QAccessibleApplication@@UEBA?AW4Role@QAccessible@@XZ"
"?roleNames@QFileSystemModel@@UEBA?AV?$QHash@HVQByteArray@@@@XZ"
"?roleNames@QStandardItemModel@@UEBA?AV?$QHash@HVQByteArray@@@@XZ"
"?rootDirectory@QFileSystemModel@@QEBA?AVQDir@@XZ"
"?rootFrame@QTextDocument@@QEBAPEAVQTextFrame@@XZ"
"?rootFrame@QTextDocumentPrivate@@QEBAPEAVQTextFrame@@XZ"
"?rootObjectHandler@QAccessible@@0P6AXPEAVQObject@@@ZEA"
"?rootPath@QFileSystemModel@@QEBA?AVQString@@XZ"
"?rootPathChanged@QFileSystemModel@@QEAAXAEBVQString@@@Z"
"?rotate@QMatrix4x4@@QEAAXAEBVQQuaternion@@@Z"
"?rotate@QMatrix4x4@@QEAAXMAEBVQVector3D@@@Z"
"?rotate@QMatrix4x4@@QEAAXMMMM@Z"
"?rotate@QPainter@@QEAAXN@Z"
"?rotate@QTransform@@QEAAAEAV1@NW4Axis@Qt@@@Z"
"?rotate@QTransform@@QEAAAEAV1@NW4Axis@Qt@@N@Z"
"?rotateRadians@QTransform@@QEAAAEAV1@NW4Axis@Qt@@@Z"
"?rotateRadians@QTransform@@QEAAAEAV1@NW4Axis@Qt@@N@Z"
"?rotatedVector@QQuaternion@@QEBA?AVQVector3D@@AEBV2@@Z"
"?rotation@QEventPoint@@QEBANXZ"
"?rotation@QTabletEvent@@QEBANXZ"
"?rotationTo@QQuaternion@@SA?AV1@AEBVQVector3D@@0@Z"
"?roundScaleFactor@QHighDpiScaling@@SANN@Z"
"?row@QMatrix4x4@@QEBA?AVQVector4D@@H@Z"
"?row@QStandardItem@@QEBAHXZ"
"?row@QTextTableCell@@QEBAHXZ"
"?rowAlignment@QGridLayoutEngine@@QEBA?AV?$QFlags@W4AlignmentFlag@Qt@@@@HW4Orientation@Qt@@@Z"
"?rowCount@QFileSystemModel@@UEBAHAEBVQModelIndex@@@Z"
"?rowCount@QGridLayoutEngine@@QEBAHW4Orientation@Qt@@@Z"
"?rowCount@QGridLayoutEngine@@QEBAHXZ"
"?rowCount@QStandardItem@@QEBAHXZ"
"?rowCount@QStandardItemModel@@UEBAHAEBVQModelIndex@@@Z"
"?rowEnd@QTextTable@@QEBA?AVQTextCursor@@AEBV2@@Z"
"?rowSizeHint@QGridLayoutEngine@@QEBANW4SizeHint@Qt@@HW4Orientation@3@@Z"
"?rowSpacing@QGridLayoutEngine@@QEBANHW4Orientation@Qt@@@Z"
"?rowSpan@QGridLayoutItem@@QEBAHW4Orientation@Qt@@@Z"
"?rowSpan@QGridLayoutItem@@QEBAHXZ"
"?rowSpan@QTextTableCell@@QEBAHXZ"
"?rowStart@QTextTable@@QEBA?AVQTextCursor@@AEBV2@@Z"
"?rowStretchFactor@QGridLayoutEngine@@QEBAHHW4Orientation@Qt@@@Z"
"?rows@QTextTable@@QEBAHXZ"
"?run@QFileInfoGatherer@@EEAAXXZ"
"?runCleanup@QRhi@@QEAAXXZ"
"?safeAreaMargins@QPlatformWindow@@UEBA?AVQMargins@@XZ"
"?sampleCount@QRhiGraphicsPipeline@@QEBAHXZ"
"?sampleCount@QRhiRenderBuffer@@QEBAHXZ"
"?sampleCount@QRhiSwapChain@@QEBAHXZ"
"?sampleCount@QRhiTexture@@QEBAHXZ"
"?sampledTexture@QRhiShaderResourceBinding@@SA?AV1@HV?$QFlags@W4StageFlag@QRhiShaderResourceBinding@@@@PEAVQRhiTexture@@PEAVQRhiSampler@@@Z"
"?sampledTextures@QRhiShaderResourceBinding@@SA?AV1@HV?$QFlags@W4StageFlag@QRhiShaderResourceBinding@@@@HPEBUTextureAndSampler@1@@Z"
"?sampler@QRhiShaderResourceBinding@@SA?AV1@HV?$QFlags@W4StageFlag@QRhiShaderResourceBinding@@@@PEAVQRhiSampler@@@Z"
"?samples@QSurfaceFormat@@QEBAHXZ"
"?sanitizeRequest@QWindowsFontDatabaseBase@@QEBA?AUQFontDef@@U2@@Z"
"?saturation@QColor@@QEBAHXZ"
"?saturationF@QColor@@QEBAMXZ"
"?save@QImage@@QEBA_NAEBVQString@@PEBDH@Z"
"?save@QImage@@QEBA_NPEAVQIODevice@@PEBDH@Z"
"?save@QOpenGLProgramBinaryCache@@QEAAXAEBVQByteArray@@I@Z"
"?save@QPainter@@QEAAXXZ"
"?save@QPicture@@QEAA_NAEBVQString@@@Z"
"?save@QPicture@@QEAA_NPEAVQIODevice@@@Z"
"?save@QPixmap@@QEBA_NAEBVQString@@PEBDH@Z"
"?save@QPixmap@@QEBA_NPEAVQIODevice@@PEBDH@Z"
"?saveState@QGuiApplicationPrivate@@QEAAXXZ"
"?saveStateRequest@QGuiApplication@@QEAAXAEAVQSessionManager@@@Z"
"?scalar@QQuaternion@@QEBAMXZ"
"?scale@QMatrix4x4@@QEAAXAEBVQVector3D@@@Z"
"?scale@QMatrix4x4@@QEAAXM@Z"
"?scale@QMatrix4x4@@QEAAXMM@Z"
"?scale@QMatrix4x4@@QEAAXMMM@Z"
"?scale@QPainter@@QEAAXNN@Z"
"?scale@QTransform@@QEAAAEAV1@NN@Z"
"?scaleAndOrigin@QHighDpiScaling@@SA?AUScaleAndOrigin@1@PEBVQPlatformScreen@@UPoint@1@@Z"
"?scaleAndOrigin@QHighDpiScaling@@SA?AUScaleAndOrigin@1@PEBVQScreen@@UPoint@1@@Z"
"?scaleAndOrigin@QHighDpiScaling@@SA?AUScaleAndOrigin@1@PEBVQWindow@@UPoint@1@@Z"
"?scaled@QImage@@QEBA?AV1@AEBVQSize@@W4AspectRatioMode@Qt@@W4TransformationMode@4@@Z"
"?scaled@QImage@@QEBA?AV1@HHW4AspectRatioMode@Qt@@W4TransformationMode@3@@Z"
"?scaled@QPixmap@@QEBA?AV1@AEBVQSize@@W4AspectRatioMode@Qt@@W4TransformationMode@4@@Z"
"?scaled@QPixmap@@QEBA?AV1@HHW4AspectRatioMode@Qt@@W4TransformationMode@3@@Z"
"?scaledClipRect@QImageReader@@QEBA?AVQRect@@XZ"
"?scaledPixmap@QAbstractFileIconEngine@@UEAA?AVQPixmap@@AEBVQSize@@W4Mode@QIcon@@W4State@5@N@Z"
"?scaledPixmap@QIconEngine@@UEAA?AVQPixmap@@AEBVQSize@@W4Mode@QIcon@@W4State@5@N@Z"
"?scaledPixmap@QPixmapIconEngine@@UEAA?AVQPixmap@@AEBVQSize@@W4Mode@QIcon@@W4State@5@N@Z"
"?scaledSize@QImageReader@@QEBA?AVQSize@@XZ"
"?scaledSize@QMovie@@QEAA?AVQSize@@XZ"
"?scaledToHeight@QImage@@QEBA?AV1@HW4TransformationMode@Qt@@@Z"
"?scaledToHeight@QPixmap@@QEBA?AV1@HW4TransformationMode@Qt@@@Z"
"?scaledToWidth@QImage@@QEBA?AV1@HW4TransformationMode@Qt@@@Z"
"?scaledToWidth@QPixmap@@QEBA?AV1@HW4TransformationMode@Qt@@@Z"
"?scan@Scanner@QCss@@SAXAEBVQString@@PEAV?$QList@USymbol@QCss@@@@@Z"
"?scanLine@QDistanceField@@QEAAPEAEH@Z"
"?scanLine@QDistanceField@@QEBAPEBEH@Z"
"?scanLine@QImage@@QEAAPEAEH@Z"
"?scanLine@QImage@@QEBAPEBEH@Z"
"?scan_frames@QTextDocumentPrivate@@AEAAXHHH@Z"
"?sceneGrabPosition@QEventPoint@@QEBA?AVQPointF@@XZ"
"?sceneLastPosition@QEventPoint@@QEBA?AVQPointF@@XZ"
"?scenePos@QEventPoint@@QEBA?AVQPointF@@XZ"
"?scenePosition@QEventPoint@@QEBA?AVQPointF@@XZ"
"?scenePosition@QSinglePointEvent@@QEBA?AVQPointF@@XZ"
"?scenePressPosition@QEventPoint@@QEBA?AVQPointF@@XZ"
"?scissor@QRhiScissor@@QEBA?AV?$array@H$03@std@@XZ"
"?screen@QOffscreenSurface@@QEBAPEAVQScreen@@XZ"
"?screen@QOpenGLContext@@QEBAPEAVQScreen@@XZ"
"?screen@QPlatformOffscreenSurface@@UEBAPEAVQPlatformScreen@@XZ"
"?screen@QPlatformScreen@@QEBAPEAVQScreen@@XZ"
"?screen@QPlatformWindow@@UEBAPEAVQPlatformScreen@@XZ"
"?screen@QScreenOrientationChangeEvent@@QEBAPEAVQScreen@@XZ"
"?screen@QWindow@@QEBAPEAVQScreen@@XZ"
"?screenAdded@QGuiApplication@@QEAAXPEAVQScreen@@@Z"
"?screenAt@QGuiApplication@@SAPEAVQScreen@@AEBVQPoint@@@Z"
"?screenChanged@QOffscreenSurface@@QEAAXPEAVQScreen@@@Z"
"?screenChanged@QWindow@@QEAAXPEAVQScreen@@@Z"
"?screenDestroyed@QOffscreenSurface@@AEAAXPEAVQObject@@@Z"
"?screenForGeometry@QPlatformWindow@@IEBAPEAVQPlatformScreen@@AEBVQRect@@@Z"
"?screenForGeometry@QWindowPrivate@@QEBAPEAVQScreen@@AEBVQRect@@@Z"
"?screenForPosition@QHighDpiScaling@@CAPEAVQScreen@@UPoint@1@PEAV2@@Z"
"?screenForPosition@QPlatformScreen@@QEBAPEBV1@AEBVQPoint@@@Z"
"?screenPos@QEnterEvent@@QEBA?AVQPointF@@XZ"
"?screenPos@QEventPoint@@QEBA?AVQPointF@@XZ"
"?screenPos@QMouseEvent@@QEBA?AVQPointF@@XZ"
"?screenPos@QNativeGestureEvent@@QEBA?AVQPointF@@XZ"
"?screenRemoved@QGuiApplication@@QEAAXPEAVQScreen@@@Z"
"?screenSubfactor@QHighDpiScaling@@CANPEBVQPlatformScreen@@@Z"
"?screen_list@QGuiApplicationPrivate@@2V?$QList@PEAVQScreen@@@@A"
"?screens@QGuiApplication@@SA?AV?$QList@PEAVQScreen@@@@XZ"
"?scriptRequiresOpenType@QFontEngine@@SA_NW4Script@QChar@@@Z"
"?scroll@QBackingStore@@QEAA_NAEBVQRegion@@HH@Z"
"?scroll@QPixmap@@QEAAXHHAEBVQRect@@PEAVQRegion@@@Z"
"?scroll@QPixmap@@QEAAXHHHHHHPEAVQRegion@@@Z"
"?scroll@QPlatformBackingStore@@UEAA_NAEBVQRegion@@HH@Z"
"?scroll@QPlatformPixmap@@UEAA_NHHAEBVQRect@@@Z"
"?scroll@QRasterPlatformPixmap@@UEAA_NHHAEBVQRect@@@Z"
"?scrollDownAction@QAccessibleActionInterface@@SA?AVQString@@XZ"
"?scrollLeftAction@QAccessibleActionInterface@@SA?AVQString@@XZ"
"?scrollRightAction@QAccessibleActionInterface@@SA?AVQString@@XZ"
"?scrollState@QScrollEvent@@QEBA?AW4ScrollState@1@XZ"
"?scrollUpAction@QAccessibleActionInterface@@SA?AVQString@@XZ"
"?seatName@QInputDevice@@QEBA?AVQString@@XZ"
"?seatNames@QInputDevice@@SA?AV?$QList@VQString@@@@XZ"
"?secondDerivedAt@QBezier@@QEBA?AVQPointF@@N@Z"
"?select@QTextCursor@@QEAAXW4SelectionType@1@@Z"
"?selectMimeTypeFilter@QPlatformFileDialogHelper@@UEAAXAEBVQString@@@Z"
"?selectedItem@QAccessibleSelectionInterface@@UEBAPEAVQAccessibleInterface@@H@Z"
"?selectedMimeTypeFilter@QPlatformFileDialogHelper@@UEBA?AVQString@@XZ"
"?selectedTableCells@QTextCursor@@QEBAXPEAH000@Z"
"?selectedTableCells@QTextCursorPrivate@@QEBAXPEAH000@Z"
"?selectedText@QTextCursor@@QEBA?AVQString@@XZ"
"?selection@QTextCursor@@QEBA?AVQTextDocumentFragment@@XZ"
"?selectionChanged@QClipboard@@QEAAXXZ"
"?selectionEnd@QAccessibleTextSelectionEvent@@QEBAHXZ"
"?selectionEnd@QTextCursor@@QEBAHXZ"
"?selectionInterface@QAccessibleInterface@@QEAAPEAVQAccessibleSelectionInterface@@XZ"
"?selectionStart@QAccessibleTextSelectionEvent@@QEBAHXZ"
"?selectionStart@QTextCursor@@QEBAHXZ"
"?selectorMatches@StyleSelector@QCss@@AEAA_NAEBUSelector@2@TNodePtr@12@@Z"
"?self@QDragManager@@SAPEAV1@XZ"
"?self@QGuiApplicationPrivate@@0PEAV1@EA"
"?sendDataChanged@QActionPrivate@@QEAAXXZ"
"?sendEvent@QWindowSystemEventHandler@@UEAA_NPEAVWindowSystemEvent@QWindowSystemInterfacePrivate@@@Z"
"?sendPostedEvents@QWindowsGuiEventDispatcher@@UEAAXXZ"
"?sendQWindowEventToQPlatformWindow@QGuiApplicationPrivate@@SA_NPEAVQWindow@@PEAVQEvent@@@Z"
"?sendTouchCancelEvent@QPointingDevicePrivate@@QEAAXPEAVQTouchEvent@@@Z"
"?sendWindowSystemEvents@QWindowSystemInterface@@SA_NV?$QFlags@W4ProcessEventsFlag@QEventLoop@@@@@Z"
"?separateImages@QShaderDescription@@QEBA?AV?$QList@UInOutVariable@QShaderDescription@@@@XZ"
"?separateSamplers@QShaderDescription@@QEBA?AV?$QList@UInOutVariable@QShaderDescription@@@@XZ"
"?separateToCombinedImageSamplerMappingList@QShader@@QEBA?AV?$QList@USeparateToCombinedImageSamplerMapping@QShader@@@@AEBVQShaderKey@@@Z"
"?serialNumber@QPlatformPixmap@@QEBAHXZ"
"?serialNumber@QPlatformScreen@@UEBA?AVQString@@XZ"
"?serialNumber@QScreen@@QEBA?AVQString@@XZ"
"?serialize@QShaderDescription@@QEBAXPEAVQDataStream@@H@Z"
"?serialized@QShader@@QEBA?AVQByteArray@@W4SerializedFormatVersion@1@@Z"
"?serializedLayoutDescription@QRhiShaderResourceBindings@@QEBA?AV?$QList@I@@XZ"
"?services@QPlatformIntegration@@UEBAPEAVQPlatformServices@@XZ"
"?sessionId@QGuiApplication@@QEBA?AVQString@@XZ"
"?sessionId@QPlatformSessionManager@@UEBA?AVQString@@XZ"
"?sessionId@QSessionManager@@QEBA?AVQString@@XZ"
"?sessionKey@QGuiApplication@@QEBA?AVQString@@XZ"
"?sessionKey@QPlatformSessionManager@@UEBA?AVQString@@XZ"
"?sessionKey@QSessionManager@@QEBA?AVQString@@XZ"
"?set@QPlatformCursorImage@@QEAAXAEBVQImage@@HH@Z"
"?set@QPlatformCursorImage@@QEAAXPEBE0HHHH@Z"
"?set@QPlatformCursorImage@@QEAAXW4CursorShape@Qt@@@Z"
"?setAcceptMode@QFileDialogOptions@@QEAAXW4AcceptMode@1@@Z"
"?setAccepted@QEventPoint@@QEAAX_N@Z"
"?setAccepted@QPointerEvent@@UEAAX_N@Z"
"?setAccessibleDescription@QStandardItem@@QEAAXAEBVQString@@@Z"
"?setAccessibleText@QStandardItem@@QEAAXAEBVQString@@@Z"
"?setActionGroup@QAction@@QEAAXPEAVQActionGroup@@@Z"
"?setActive@QAccessible@@SAX_N@Z"
"?setActive@QPaintEngine@@QEAAX_N@Z"
"?setActive@QPlatformAccessibility@@QEAAX_N@Z"
"?setActive@QUndoStack@@QEAAX_N@Z"
"?setActiveStack@QUndoGroup@@QEAAXPEAVQUndoStack@@@Z"
"?setAddressU@QRhiSampler@@QEAAXW4AddressMode@1@@Z"
"?setAddressV@QRhiSampler@@QEAAXW4AddressMode@1@@Z"
"?setAddressW@QRhiSampler@@QEAAXW4AddressMode@1@@Z"
"?setAlertState@QPlatformWindow@@UEAAX_N@Z"
"?setAlignment@QGridLayoutItem@@QEAAXV?$QFlags@W4AlignmentFlag@Qt@@@@@Z"
"?setAlignment@QTextBlockFormat@@QEAAXV?$QFlags@W4AlignmentFlag@Qt@@@@@Z"
"?setAlignment@QTextOption@@QEAAXV?$QFlags@W4AlignmentFlag@Qt@@@@@Z"
"?setAlignment@QTextTableFormat@@QEAAXV?$QFlags@W4AlignmentFlag@Qt@@@@@Z"
"?setAllocationLimit@QImageReader@@SAXH@Z"
"?setAlpha@QColor@@QEAAXH@Z"
"?setAlphaBufferSize@QSurfaceFormat@@QEAAXH@Z"
"?setAlphaChannel@QImage@@QEAAXAEBV1@@Z"
"?setAlphaF@QColor@@QEAAXM@Z"
"?setAnchor@QTextCharFormat@@QEAAX_N@Z"
"?setAnchorHref@QTextCharFormat@@QEAAXAEBVQString@@@Z"
"?setAnchorNames@QTextCharFormat@@QEAAXAEBV?$QList@VQString@@@@@Z"
"?setAngle@QConicalGradient@@QEAAXN@Z"
"?setApi@QPlatformBackingStoreRhiConfig@@QEAAXW4Api@1@@Z"
"?setApplicationBadge@QPlatformIntegration@@UEAAX_J@Z"
"?setApplicationDisplayName@QGuiApplication@@SAXAEBVQString@@@Z"
"?setApplicationFallbackFontFamilies@QFontDatabase@@SAXW4Script@QChar@@AEBV?$QList@VQString@@@@@Z"
"?setApplicationIcon@QPlatformIntegration@@UEBAXAEBVQIcon@@@Z"
"?setApplicationState@QGuiApplicationPrivate@@SAXW4ApplicationState@Qt@@_N@Z"
"?setArrayRange@QRhiTexture@@QEAAXHH@Z"
"?setArraySize@QRhiTexture@@QEAAXH@Z"
"?setAscent@QTextInlineObject@@QEAAXN@Z"
"?setAttributes@QRhiVertexInputLayout@@QEAAXV?$initializer_list@VQRhiVertexInputAttribute@@@std@@@Z"
"?setAutoDestruct@QPaintEngine@@AEAAX_N@Z"
"?setAutoDetectImageFormat@QImageReader@@QEAAX_N@Z"
"?setAutoRepeat@QAction@@QEAAX_N@Z"
"?setAutoRepeat@QShortcut@@QEAAX_N@Z"
"?setAutoTransform@QImageReader@@QEAAX_N@Z"
"?setAutoTristate@QStandardItem@@QEAAX_N@Z"
"?setAutomaticPositionAndResizeEnabled@QWindowPrivate@@QEAAX_N@Z"
"?setAvailableVirtualGeometry@QInputDevicePrivate@@QEAAXVQRect@@@Z"
"?setBackground@QPainter@@QEAAXAEBVQBrush@@@Z"
"?setBackground@QStandardItem@@QEAAXAEBVQBrush@@@Z"
"?setBackground@QTextFormat@@QEAAXAEBVQBrush@@@Z"
"?setBackgroundColor@QImageReader@@QEAAXAEBVQColor@@@Z"
"?setBackgroundColor@QMovie@@QEAAXAEBVQColor@@@Z"
"?setBackgroundMode@QPainter@@QEAAXW4BGMode@Qt@@@Z"
"?setBackingStore@QPlatformBackingStore@@AEAAXPEAVQBackingStore@@@Z"
"?setBadgeNumber@QGuiApplication@@QEAAX_J@Z"
"?setBaseSize@QWindow@@QEAAXAEBVQSize@@@Z"
"?setBaseUrl@QTextDocument@@QEAAXAEBVQUrl@@@Z"
"?setBaselineOffset@QTextCharFormat@@QEAAXN@Z"
"?setBaselineOffset@QTextDocument@@QEAAXN@Z"
"?setBaselineOffset@QTextFormatCollection@@QEAAXN@Z"
"?setBinding@QRhiVertexInputAttribute@@QEAAXH@Z"
"?setBindings@QRhiShaderResourceBindings@@QEAAXV?$initializer_list@VQRhiShaderResourceBinding@@@std@@@Z"
"?setBindings@QRhiVertexInputLayout@@QEAAXV?$initializer_list@VQRhiVertexInputBinding@@@std@@@Z"
"?setBlendConstants@QRhiCommandBuffer@@QEAAXAEBVQColor@@@Z"
"?setBlittable@QBlittablePlatformPixmap@@QEAAXPEAVQBlittable@@@Z"
"?setBlockCharFormat@QTextCursor@@QEAAXAEBVQTextCharFormat@@@Z"
"?setBlockCharFormat@QTextCursorPrivate@@QEAAXAEBVQTextCharFormat@@W4FormatChangeMode@QTextDocumentPrivate@@@Z"
"?setBlockFormat@QTextCursor@@QEAAXAEBVQTextBlockFormat@@@Z"
"?setBlockFormat@QTextCursorPrivate@@QEAAXAEBVQTextBlockFormat@@W4FormatChangeMode@QTextDocumentPrivate@@@Z"
"?setBlockFormat@QTextDocumentPrivate@@QEAAXAEBVQTextBlock@@0AEBVQTextBlockFormat@@W4FormatChangeMode@1@@Z"
"?setBlue@QColor@@QEAAXH@Z"
"?setBlueBufferSize@QSurfaceFormat@@QEAAXH@Z"
"?setBlueF@QColor@@QEAAXM@Z"
"?setBold@QFont@@QEAAX_N@Z"
"?setBorder@QTextFrameFormat@@QEAAXN@Z"
"?setBorder@QTextTableCellFormat@@QEAAXN@Z"
"?setBorderBrush@QTextFrameFormat@@QEAAXAEBVQBrush@@@Z"
"?setBorderBrush@QTextTableCellFormat@@QEAAXAEBVQBrush@@@Z"
"?setBorderCollapse@QTextTableFormat@@QEAAX_N@Z"
"?setBorderStyle@QTextFrameFormat@@QEAAXW4BorderStyle@1@@Z"
"?setBorderStyle@QTextTableCellFormat@@QEAAXW4BorderStyle@QTextFrameFormat@@@Z"
"?setBottom@QDoubleValidator@@QEAAXN@Z"
"?setBottom@QIntValidator@@QEAAXH@Z"
"?setBottomBorder@QTextTableCellFormat@@QEAAXN@Z"
"?setBottomBorderBrush@QTextTableCellFormat@@QEAAXAEBVQBrush@@@Z"
"?setBottomBorderStyle@QTextTableCellFormat@@QEAAXW4BorderStyle@QTextFrameFormat@@@Z"
"?setBottomMargin@QPageLayout@@QEAA_NN@Z"
"?setBottomMargin@QPageLayout@@QEAA_NNW4OutOfBoundsPolicy@1@@Z"
"?setBottomMargin@QTextBlockFormat@@QEAAXN@Z"
"?setBottomMargin@QTextFrameFormat@@QEAAXN@Z"
"?setBottomPadding@QTextTableCellFormat@@QEAAXN@Z"
"?setBoundary@QTextEngine@@AEBAXH@Z"
"?setBoundingRect@QGlyphRun@@QEAAXAEBVQRectF@@@Z"
"?setBoundingRect@QPicture@@QEAAXAEBVQRect@@@Z"
"?setBrush@QPainter@@QEAAXAEBVQBrush@@@Z"
"?setBrush@QPainter@@QEAAXW4BrushStyle@Qt@@@Z"
"?setBrush@QPalette@@QEAAXW4ColorGroup@1@W4ColorRole@1@AEBVQBrush@@@Z"
"?setBrush@QPalette@@QEAAXW4ColorRole@1@AEBVQBrush@@@Z"
"?setBrush@QPen@@QEAAXAEBVQBrush@@@Z"
"?setBrushOrigin@QPainter@@QEAAXAEBVQPoint@@@Z"
"?setBrushOrigin@QPainter@@QEAAXAEBVQPointF@@@Z"
"?setBrushOrigin@QPainter@@QEAAXHH@Z"
"?setCacheEnabled@QTextLayout@@QEAAX_N@Z"
"?setCacheLimit@QPixmapCache@@SAXH@Z"
"?setCacheMode@QMovie@@QEAAXW4CacheMode@1@@Z"
"?setCanDrop@QBasicDrag@@IEAAX_N@Z"
"?setCapStyle@QPainterPathStroker@@QEAAXW4PenCapStyle@Qt@@@Z"
"?setCapStyle@QPen@@QEAAXW4PenCapStyle@Qt@@@Z"
"?setCapStyle@QStroker@@QEAAXW4PenCapStyle@Qt@@@Z"
"?setCapabilities@QPlatformCursor@@SAXV?$QFlags@W4Capability@QPlatformCursor@@@@@Z"
"?setCapabilities@QPointingDevice@@QEAAXV?$QFlags@W4Capability@QInputDevice@@@@@Z"
"?setCapability@QPlatformCursor@@SAXW4Capability@1@@Z"
"?setCapitalization@QFont@@QEAAXW4Capitalization@1@@Z"
"?setCellPadding@QTextTableFormat@@QEAAXN@Z"
"?setCellSpacing@QTextTableFormat@@QEAAXN@Z"
"?setCenter@QConicalGradient@@QEAAXAEBVQPointF@@@Z"
"?setCenter@QConicalGradient@@QEAAXNN@Z"
"?setCenter@QRadialGradient@@QEAAXAEBVQPointF@@@Z"
"?setCenter@QRadialGradient@@QEAAXNN@Z"
"?setCenterRadius@QRadialGradient@@QEAAXN@Z"
"?setCharFormat@QTextCursor@@QEAAXAEBVQTextCharFormat@@@Z"
"?setCharFormat@QTextCursorPrivate@@QEAAXAEBVQTextCharFormat@@W4FormatChangeMode@QTextDocumentPrivate@@@Z"
"?setCharFormat@QTextDocumentPrivate@@QEAAXHHAEBVQTextCharFormat@@W4FormatChangeMode@1@@Z"
"?setCheckBox@QMessageDialogOptions@@QEAAXAEBVQString@@W4CheckState@Qt@@@Z"
"?setCheckState@QStandardItem@@QEAAXW4CheckState@Qt@@@Z"
"?setCheckable@QAction@@QEAAX_N@Z"
"?setCheckable@QStandardItem@@QEAAX_N@Z"
"?setChecked@QAction@@QEAAX_N@Z"
"?setChild@QAccessibleEvent@@QEAAXH@Z"
"?setChild@QStandardItem@@QEAAXHHPEAV1@@Z"
"?setChild@QStandardItem@@QEAAXHPEAV1@@Z"
"?setClassification@QRhiVertexInputBinding@@QEAAXW4Classification@1@@Z"
"?setClean@QUndoStack@@QEAAXXZ"
"?setClipPath@QPainter@@QEAAXAEBVQPainterPath@@W4ClipOperation@Qt@@@Z"
"?setClipRect@QImageReader@@QEAAXAEBVQRect@@@Z"
"?setClipRect@QPainter@@QEAAXAEBVQRect@@W4ClipOperation@Qt@@@Z"
"?setClipRect@QPainter@@QEAAXAEBVQRectF@@W4ClipOperation@Qt@@@Z"
"?setClipRect@QPainter@@QEAAXHHHHW4ClipOperation@Qt@@@Z"
"?setClipRect@QStrokerOps@@QEAAXAEBVQRectF@@@Z"
"?setClipRectInDeviceCoords@QRasterPaintEngine@@AEAA_NAEBVQRect@@W4ClipOperation@Qt@@@Z"
"?setClipRegion@QPainter@@QEAAXAEBVQRegion@@W4ClipOperation@Qt@@@Z"
"?setClipping@QPainter@@QEAAX_N@Z"
"?setCmyk@QColor@@QEAAXHHHHH@Z"
"?setCmykF@QColor@@QEAAXMMMMM@Z"
"?setColor@QBrush@@QEAAXAEBVQColor@@@Z"
"?setColor@QBrush@@QEAAXW4GlobalColor@Qt@@@Z"
"?setColor@QImage@@QEAAXHI@Z"
"?setColor@QPalette@@QEAAXW4ColorGroup@1@W4ColorRole@1@AEBVQColor@@@Z"
"?setColor@QPalette@@QEAAXW4ColorRole@1@AEBVQColor@@@Z"
"?setColor@QPen@@QEAAXAEBVQColor@@@Z"
"?setColorAt@QGradient@@QEAAXNAEBVQColor@@@Z"
"?setColorAttachments@QRhiTextureRenderTargetDescription@@QEAAXV?$initializer_list@VQRhiColorAttachment@@@std@@@Z"
"?setColorCount@QImage@@QEAAXH@Z"
"?setColorGroup@QPalette@@AEAAXW4ColorGroup@1@AEBVQBrush@@111111111111111111@Z"
"?setColorGroup@QPalette@@AEAAXW4ColorGroup@1@AEBVQBrush@@1111111111111111@Z"
"?setColorGroup@QPalette@@QEAAXW4ColorGroup@1@AEBVQBrush@@11111111@Z"
"?setColorScheme@QStyleHints@@QEAAXW4ColorScheme@Qt@@@Z"
"?setColorSpace@QImage@@QEAAXAEBVQColorSpace@@@Z"
"?setColorSpace@QSurfaceFormat@@QEAAXAEBVQColorSpace@@@Z"
"?setColorSpace@QSurfaceFormat@@QEAAXW4ColorSpace@1@@Z"
"?setColorTable@QImage@@QEAAXAEBV?$QList@I@@@Z"
"?setColumn@QMatrix4x4@@QEAAXHAEBVQVector4D@@@Z"
"?setColumnCount@QStandardItem@@QEAAXH@Z"
"?setColumnCount@QStandardItemModel@@QEAAXH@Z"
"?setColumnWidthConstraints@QTextTableFormat@@QEAAXAEBV?$QList@VQTextLength@@@@@Z"
"?setColumns@QTextTableFormat@@QEAAXH@Z"
"?setCommitString@QInputMethodEvent@@QEAAXAEBVQString@@HH@Z"
"?setCompositionMode@QPainter@@QEAAXW4CompositionMode@1@@Z"
"?setCompression@QImageWriter@@QEAAXH@Z"
"?setComputePipeline@QRhiCommandBuffer@@QEAAXPEAVQRhiComputePipeline@@@Z"
"?setConfig@QBackingStoreRhiSupport@@QEAAXAEBUQPlatformBackingStoreRhiConfig@@@Z"
"?setContentPos@QScrollPrepareEvent@@QEAAXAEBVQPointF@@@Z"
"?setContentPosRange@QScrollPrepareEvent@@QEAAXAEBVQRectF@@@Z"
"?setContext@QPlatformOpenGLContext@@AEAAXPEAVQOpenGLContext@@@Z"
"?setContext@QShortcut@@QEAAXW4ShortcutContext@Qt@@@Z"
"?setContextMenuTrigger@QStyleHints@@QEAAXW4ContextMenuTrigger@Qt@@@Z"
"?setControlType@QLayoutPolicy@@QEAAXW4ControlType@1@@Z"
"?setCoordinateMode@QGradient@@QEAAXW4CoordinateMode@1@@Z"
"?setCosmetic@QPen@@QEAAX_N@Z"
"?setCubicToHook@QStrokerOps@@QEAAXP6AXNNNNNNPEAX@Z@Z"
"?setCullMode@QRhiGraphicsPipeline@@QEAAXW4CullMode@1@@Z"
"?setCurrentBlockState@QSyntaxHighlighter@@IEAAXH@Z"
"?setCurrentBlockUserData@QSyntaxHighlighter@@IEAAXPEAVQTextBlockUserData@@@Z"
"?setCurrentColorGroup@QPalette@@QEAAXW4ColorGroup@1@@Z"
"?setCurrentContext@QOpenGLContextPrivate@@SAPEAVQOpenGLContext@@PEAV2@@Z"
"?setCurrentTarget@QDragManager@@QEAAXPEAVQObject@@_N@Z"
"?setCursor@QWindow@@QEAAXAEBVQCursor@@@Z"
"?setCursor@QWindowPrivate@@QEAAXPEBVQCursor@@@Z"
"?setCursorFlashTime@QStyleHints@@QEAAXH@Z"
"?setCursorMoveStyle@QTextLayout@@QEAAXW4CursorMoveStyle@Qt@@@Z"
"?setCursorPos@QInputDeviceManager@@QEAAXAEBVQPoint@@@Z"
"?setCursorPosition@QAccessibleTextCursorEvent@@QEAAXH@Z"
"?setCursorWidth@QTextDocumentLayout@@QEAAXH@Z"
"?setCurveThreshold@QPainterPathStroker@@QEAAXN@Z"
"?setCurveThreshold@QStrokerOps@@QEAAXN@Z"
"?setCurveThresholdFromTransform@QStrokerOps@@QEAAXAEBVQTransform@@@Z"
"?setCustomColor@QColorDialogOptions@@SAXHI@Z"
"?setDC@QRasterPaintEngine@@QEAAXPEAUHDC__@@@Z"
"?setDashOffset@QDashStroker@@QEAAXN@Z"
"?setDashOffset@QPainterPathStroker@@QEAAXN@Z"
"?setDashOffset@QPen@@QEAAXN@Z"
"?setDashPattern@QDashStroker@@QEAAXAEBV?$QList@N@@@Z"
"?setDashPattern@QPainterPathStroker@@QEAAXAEBV?$QList@N@@@Z"
"?setDashPattern@QPainterPathStroker@@QEAAXW4PenStyle@Qt@@@Z"
"?setDashPattern@QPen@@QEAAXAEBV?$QList@N@@@Z"
"?setData@QAction@@QEAAXAEBVQVariant@@@Z"
"?setData@QFileSystemModel@@UEAA_NAEBVQModelIndex@@AEBVQVariant@@H@Z"
"?setData@QPicture@@UEAAXPEBDI@Z"
"?setData@QRhiTextureSubresourceUploadDescription@@QEAAXAEBVQByteArray@@@Z"
"?setData@QStandardItem@@UEAAXAEBVQVariant@@H@Z"
"?setData@QStandardItemModel@@UEAA_NAEBVQModelIndex@@AEBVQVariant@@H@Z"
"?setData@QTextureFileData@@QEAAXAEBVQByteArray@@@Z"
"?setData@QTextureFileData@@QEAAXAEBVQImage@@HH@Z"
"?setDataLength@QTextureFileData@@QEAAXHHH@Z"
"?setDataOffset@QTextureFileData@@QEAAXHHH@Z"
"?setDataStride@QRhiTextureSubresourceUploadDescription@@QEAAXI@Z"
"?setDebugLayer@QPlatformBackingStoreRhiConfig@@QEAAX_N@Z"
"?setDecideFormatFromContent@QImageReader@@QEAAX_N@Z"
"?setDecimals@QDoubleValidator@@QEAAXH@Z"
"?setDefaultButton@QMessageDialogOptions@@QEAAXH@Z"
"?setDefaultCursorMoveStyle@QTextDocument@@QEAAXW4CursorMoveStyle@Qt@@@Z"
"?setDefaultFont@QTextDocument@@QEAAXAEBVQFont@@@Z"
"?setDefaultFont@QTextDocumentPrivate@@QEAAXAEBVQFont@@@Z"
"?setDefaultFont@QTextFormatCollection@@QEAAXAEBVQFont@@@Z"
"?setDefaultFormat@QSurfaceFormat@@SAXAEBV1@@Z"
"?setDefaultHintStyle@QFontEngine@@UEAAXW4HintStyle@1@@Z"
"?setDefaultResourceProvider@QTextDocument@@SAXAEBV?$function@$$A6A?AVQVariant@@AEBVQUrl@@@Z@std@@@Z"
"?setDefaultStyleSheet@QTextDocument@@QEAAXAEBVQString@@@Z"
"?setDefaultSuffix@QFileDialogOptions@@QEAAXAEBVQString@@@Z"
"?setDefaultTextOption@QTextDocument@@QEAAXAEBVQTextOption@@@Z"
"?setDepth@QRhiTexture@@QEAAXH@Z"
"?setDepthBias@QRhiGraphicsPipeline@@QEAAXH@Z"
"?setDepthBufferSize@QSurfaceFormat@@QEAAXH@Z"
"?setDepthClearValue@QRhiDepthStencilClearValue@@QEAAXM@Z"
"?setDepthOp@QRhiGraphicsPipeline@@QEAAXW4CompareOp@1@@Z"
"?setDepthResolveTexture@QRhiTextureRenderTargetDescription@@QEAAXPEAVQRhiTexture@@@Z"
"?setDepthStencil@QRhiSwapChain@@QEAAXPEAVQRhiRenderBuffer@@@Z"
"?setDepthStencilBuffer@QRhiTextureRenderTargetDescription@@QEAAXPEAVQRhiRenderBuffer@@@Z"
"?setDepthTest@QRhiGraphicsPipeline@@QEAAX_N@Z"
"?setDepthTexture@QRhiTextureRenderTargetDescription@@QEAAXPEAVQRhiTexture@@@Z"
"?setDepthWrite@QRhiGraphicsPipeline@@QEAAX_N@Z"
"?setDescent@QTextInlineObject@@QEAAXN@Z"
"?setDescription@QColorSpace@@QEAAXAEBVQString@@@Z"
"?setDescription@QRhiTextureRenderTarget@@QEAAXAEBVQRhiTextureRenderTargetDescription@@@Z"
"?setDescription@QRhiTextureUploadEntry@@QEAAXAEBVQRhiTextureSubresourceUploadDescription@@@Z"
"?setDescription@QShader@@QEAAXAEBVQShaderDescription@@@Z"
"?setDesktopFileName@QGuiApplication@@SAXAEBVQString@@@Z"
"?setDesktopSettingsAware@QGuiApplication@@SAX_N@Z"
"?setDestinationLayer@QRhiTextureCopyDescription@@QEAAXH@Z"
"?setDestinationLevel@QRhiTextureCopyDescription@@QEAAXH@Z"
"?setDestinationTopLeft@QRhiTextureCopyDescription@@QEAAXAEBVQPoint@@@Z"
"?setDestinationTopLeft@QRhiTextureSubresourceUploadDescription@@QEAAXAEBVQPoint@@@Z"
"?setDetachNumber@QPlatformPixmap@@IEAAXH@Z"
"?setDetailedText@QMessageDialogOptions@@QEAAXAEBVQString@@@Z"
"?setDevice@QImageIOHandler@@QEAAXPEAVQIODevice@@@Z"
"?setDevice@QImageReader@@QEAAXPEAVQIODevice@@@Z"
"?setDevice@QImageWriter@@QEAAXPEAVQIODevice@@@Z"
"?setDevice@QMovie@@QEAAXPEAVQIODevice@@@Z"
"?setDevice@QTextDocumentWriter@@QEAAXPEAVQIODevice@@@Z"
"?setDeviceCount@QInputDeviceManagerPrivate@@QEAAXW4DeviceType@QInputDeviceManager@@H@Z"
"?setDevicePixelRatio@QBlittablePlatformPixmap@@UEAAXN@Z"
"?setDevicePixelRatio@QImage@@QEAAXN@Z"
"?setDevicePixelRatio@QPixmap@@QEAAXN@Z"
"?setDevicePixelRatio@QRasterPlatformPixmap@@UEAAXN@Z"
"?setDirty@QPaintEngine@@QEAAXV?$QFlags@W4DirtyFlag@QPaintEngine@@@@@Z"
"?setDirty@QPainterPath@@AEAAX_N@Z"
"?setDisabled@QAction@@QEAAX_N@Z"
"?setDisabled@QActionGroup@@QEAAX_N@Z"
"?setDiscardCommand@QPlatformSessionManager@@UEAAXAEBV?$QList@VQString@@@@@Z"
"?setDiscardCommand@QSessionManager@@QEAAXAEBV?$QList@VQString@@@@@Z"
"?setDocument@QAbstractTextDocumentLayoutPrivate@@QEAAXPEAVQTextDocument@@@Z"
"?setDocument@QSyntaxHighlighter@@QEAAXPEAVQTextDocument@@@Z"
"?setDocumentLayout@QTextDocument@@QEAAXPEAVQAbstractTextDocumentLayout@@@Z"
"?setDocumentMargin@QTextDocument@@QEAAXN@Z"
"?setDotsPerMeterX@QImage@@QEAAXH@Z"
"?setDotsPerMeterY@QImage@@QEAAXH@Z"
"?setDoubleClick@QMutableSinglePointEvent@@QEAAX_N@Z"
"?setDoubleClick@QMutableSinglePointEvent@@SAXPEAVQSinglePointEvent@@_N@Z"
"?setDragCursor@QDrag@@QEAAXAEBVQPixmap@@W4DropAction@Qt@@@Z"
"?setDragEnabled@QStandardItem@@QEAAX_N@Z"
"?setDropAction@QDropEvent@@QEAAXW4DropAction@Qt@@@Z"
"?setDropEnabled@QStandardItem@@QEAAX_N@Z"
"?setEditable@QStandardItem@@QEAAX_N@Z"
"?setElementPositionAt@QPainterPath@@QEAAXHNN@Z"
"?setEnabled@QAction@@QEAAX_N@Z"
"?setEnabled@QActionGroup@@QEAAX_N@Z"
"?setEnabled@QActionPrivate@@QEAA_N_N0@Z"
"?setEnabled@QPlatformBackingStoreRhiConfig@@QEAAX_N@Z"
"?setEnabled@QShortcut@@QEAAX_N@Z"
"?setEnabled@QStandardItem@@QEAAX_N@Z"
"?setEntries@QRhiTextureUploadDescription@@QEAAXV?$initializer_list@VQRhiTextureUploadEntry@@@std@@@Z"
"?setEntryPoint@QShaderCode@@QEAAXAEBVQByteArray@@@Z"
"?setEscapeButton@QMessageDialogOptions@@QEAAXH@Z"
"?setExclusionPolicy@QActionGroup@@QEAAXW4ExclusionPolicy@1@@Z"
"?setExclusive@QActionGroup@@QEAAX_N@Z"
"?setExclusiveGrabber@QPointerEvent@@QEAAXAEBVQEventPoint@@PEAVQObject@@@Z"
"?setExclusiveGrabber@QPointingDevicePrivate@@QEAAXPEBVQPointerEvent@@AEBVQEventPoint@@PEAVQObject@@@Z"
"?setExclusivePointGrabber@QSinglePointEvent@@QEAAXPEAVQObject@@@Z"
"?setExecutedDropAction@QBasicDrag@@IEAAXW4DropAction@Qt@@@Z"
"?setFallbackFamiliesList@QFontEngineMulti@@QEAAXAEBV?$QList@VQString@@@@@Z"
"?setFallbackSearchPaths@QIcon@@SAXAEBV?$QList@VQString@@@@@Z"
"?setFallbackSearchPaths@QIconLoader@@QEAAXAEBV?$QList@VQString@@@@@Z"
"?setFallbackThemeName@QIcon@@SAXAEBVQString@@@Z"
"?setFallbackThemeName@QIconLoader@@QEAAXAEBVQString@@@Z"
"?setFamilies@QFont@@QEAAXAEBV?$QList@VQString@@@@@Z"
"?setFamily@QFont@@QEAAXAEBVQString@@@Z"
"?setFeature@QFont@@QEAAXUTag@1@I@Z"
"?setFeature@QFontPrivate@@QEAAXUTag@QFont@@I@Z"
"?setFileMode@QFileDialogOptions@@QEAAXW4FileMode@1@@Z"
"?setFileName@QImageReader@@QEAAXAEBVQString@@@Z"
"?setFileName@QImageWriter@@QEAAXAEBVQString@@@Z"
"?setFileName@QMovie@@QEAAXAEBVQString@@@Z"
"?setFileName@QTextDocumentWriter@@QEAAXAEBVQString@@@Z"
"?setFilePath@QWindow@@QEAAXAEBVQString@@@Z"
"?setFillRule@QPainterPath@@QEAAXW4FillRule@Qt@@@Z"
"?setFilter@QFileDialogOptions@@QEAAXV?$QFlags@W4Filter@QDir@@@@@Z"
"?setFilter@QFileSystemModel@@QEAAXV?$QFlags@W4Filter@QDir@@@@@Z"
"?setFinalStop@QLinearGradient@@QEAAXAEBVQPointF@@@Z"
"?setFinalStop@QLinearGradient@@QEAAXNN@Z"
"?setFirstColumn@QAccessibleTableModelChangeEvent@@QEAAXH@Z"
"?setFirstRow@QAccessibleTableModelChangeEvent@@QEAAXH@Z"
"?setFirstRow@QGridLayoutItem@@QEAAXHW4Orientation@Qt@@@Z"
"?setFixedColumnWidth@QTextDocumentLayout@@QEAAXH@Z"
"?setFixedPitch@QFont@@QEAAX_N@Z"
"?setFlag@QGlyphRun@@QEAAXW4GlyphRunFlag@1@_N@Z"
"?setFlag@QWindow@@QEAAXW4WindowType@Qt@@_N@Z"
"?setFlags@QGlyphRun@@QEAAXV?$QFlags@W4GlyphRunFlag@QGlyphRun@@@@@Z"
"?setFlags@QRhiComputePipeline@@QEAAXV?$QFlags@W4Flag@QRhiComputePipeline@@@@@Z"
"?setFlags@QRhiGraphicsPipeline@@QEAAXV?$QFlags@W4Flag@QRhiGraphicsPipeline@@@@@Z"
"?setFlags@QRhiRenderBuffer@@QEAAXV?$QFlags@W4Flag@QRhiRenderBuffer@@@@@Z"
"?setFlags@QRhiSwapChain@@QEAAXV?$QFlags@W4Flag@QRhiSwapChain@@@@@Z"
"?setFlags@QRhiTexture@@QEAAXV?$QFlags@W4Flag@QRhiTexture@@@@@Z"
"?setFlags@QRhiTextureRenderTarget@@QEAAXV?$QFlags@W4Flag@QRhiTextureRenderTarget@@@@@Z"
"?setFlags@QShaderVersion@@QEAAXV?$QFlags@W4Flag@QShaderVersion@@@@@Z"
"?setFlags@QStandardItem@@QEAAXV?$QFlags@W4ItemFlag@Qt@@@@@Z"
"?setFlags@QTextLayout@@QEAAXH@Z"
"?setFlags@QTextOption@@QEAAXV?$QFlags@W4Flag@QTextOption@@@@@Z"
"?setFlags@QWindow@@QEAAXV?$QFlags@W4WindowType@Qt@@@@@Z"
"?setFocalPoint@QRadialGradient@@QEAAXAEBVQPointF@@@Z"
"?setFocalPoint@QRadialGradient@@QEAAXNN@Z"
"?setFocalRadius@QRadialGradient@@QEAAXN@Z"
"?setFocusAction@QAccessibleActionInterface@@SAAEBVQString@@XZ"
"?setFocusObject@QPlatformInputContext@@UEAAXPEAVQObject@@@Z"
"?setFocusOnTouchRelease@QStyleHints@@QEBA_NXZ"
"?setFocusToTarget@QWindowPrivate@@UEAAXW4FocusTarget@1@W4FocusReason@Qt@@@Z"
"?setFont@QAction@@QEAAXAEBVQFont@@@Z"
"?setFont@QGuiApplication@@SAXAEBVQFont@@@Z"
"?setFont@QPainter@@QEAAXAEBVQFont@@@Z"
"?setFont@QPlatformMenu@@UEAAXAEBVQFont@@@Z"
"?setFont@QStandardItem@@QEAAXAEBVQFont@@@Z"
"?setFont@QTextCharFormat@@QEAAXAEBVQFont@@W4FontPropertiesInheritanceBehavior@1@@Z"
"?setFont@QTextLayout@@QEAAXAEBVQFont@@@Z"
"?setFontCapitalization@QTextCharFormat@@QEAAXW4Capitalization@QFont@@@Z"
"?setFontEngine@QRawFontPrivate@@QEAAXPEAVQFontEngine@@@Z"
"?setFontEngine@QStaticTextItem@@QEAAXPEAVQFontEngine@@@Z"
"?setFontFamilies@QTextCharFormat@@QEAAXAEBV?$QList@VQString@@@@@Z"
"?setFontFamily@QTextCharFormat@@QEAAXAEBVQString@@@Z"
"?setFontFixedPitch@QTextCharFormat@@QEAAX_N@Z"
"?setFontHintingPreference@QTextCharFormat@@QEAAXW4HintingPreference@QFont@@@Z"
"?setFontItalic@QTextCharFormat@@QEAAX_N@Z"
"?setFontKerning@QTextCharFormat@@QEAAX_N@Z"
"?setFontLetterSpacing@QTextCharFormat@@QEAAXN@Z"
"?setFontLetterSpacingType@QTextCharFormat@@QEAAXW4SpacingType@QFont@@@Z"
"?setFontOptions@QWindowsFontDatabase@@SAXI@Z"
"?setFontOverline@QTextCharFormat@@QEAAX_N@Z"
"?setFontPointSize@QTextCharFormat@@QEAAXN@Z"
"?setFontStretch@QTextCharFormat@@QEAAXH@Z"
"?setFontStrikeOut@QTextCharFormat@@QEAAX_N@Z"
"?setFontStyleHint@QTextCharFormat@@QEAAXW4StyleHint@QFont@@W4StyleStrategy@3@@Z"
"?setFontStyleName@QTextCharFormat@@QEAAXAEBVQString@@@Z"
"?setFontStyleStrategy@QTextCharFormat@@QEAAXW4StyleStrategy@QFont@@@Z"
"?setFontUnderline@QTextCharFormat@@QEAAX_N@Z"
"?setFontWeight@QTextCharFormat@@QEAAXH@Z"
"?setFontWordSpacing@QTextCharFormat@@QEAAXN@Z"
"?setForceOpen@QStroker@@QEAAX_N@Z"
"?setForeground@QStandardItem@@QEAAXAEBVQBrush@@@Z"
"?setForeground@QTextFormat@@QEAAXAEBVQBrush@@@Z"
"?setFormat@QBackingStoreRhiSupport@@QEAAXAEBVQSurfaceFormat@@@Z"
"?setFormat@QImageIOHandler@@QEAAXAEBVQByteArray@@@Z"
"?setFormat@QImageIOHandler@@QEBAXAEBVQByteArray@@@Z"
"?setFormat@QImageReader@@QEAAXAEBVQByteArray@@@Z"
"?setFormat@QImageWriter@@QEAAXAEBVQByteArray@@@Z"
"?setFormat@QMovie@@QEAAXAEBVQByteArray@@@Z"
"?setFormat@QOffscreenSurface@@QEAAXAEBVQSurfaceFormat@@@Z"
"?setFormat@QOpenGLContext@@QEAAXAEBVQSurfaceFormat@@@Z"
"?setFormat@QRhiSwapChain@@QEAAXW4Format@1@@Z"
"?setFormat@QRhiTexture@@QEAAXW4Format@1@@Z"
"?setFormat@QRhiVertexInputAttribute@@QEAAXW4Format@1@@Z"
"?setFormat@QSyntaxHighlighter@@IEAAXHHAEBVQColor@@@Z"
"?setFormat@QSyntaxHighlighter@@IEAAXHHAEBVQFont@@@Z"
"?setFormat@QSyntaxHighlighter@@IEAAXHHAEBVQTextCharFormat@@@Z"
"?setFormat@QTextDocumentWriter@@QEAAXAEBVQByteArray@@@Z"
"?setFormat@QTextList@@QEAAXAEBVQTextListFormat@@@Z"
"?setFormat@QTextObject@@IEAAXAEBVQTextFormat@@@Z"
"?setFormat@QTextTable@@QEAAXAEBVQTextTableFormat@@@Z"
"?setFormat@QTextTableCell@@QEAAXAEBVQTextCharFormat@@@Z"
"?setFormat@QWindow@@QEAAXAEBVQSurfaceFormat@@@Z"
"?setFormats@QTextEngine@@QEAAXAEBV?$QList@UFormatRange@QTextLayout@@@@@Z"
"?setFormats@QTextLayout@@QEAAXAEBV?$QList@UFormatRange@QTextLayout@@@@@Z"
"?setFrameFormat@QTextFrame@@QEAAXAEBVQTextFrameFormat@@@Z"
"?setFramePosition@QWindow@@QEAAXAEBVQPoint@@@Z"
"?setFrameStrutEventsEnabled@QPlatformWindow@@UEAAX_N@Z"
"?setFromGamma@QColorTrcLut@@QEAAXMW4Direction@1@@Z"
"?setFromTransferFunction@QColorTrcLut@@QEAAXAEBVQColorTransferFunction@@W4Direction@1@@Z"
"?setFromTransferGenericFunction@QColorTrcLut@@QEAAXAEBVQColorTransferGenericFunction@@W4Direction@1@@Z"
"?setFromTransferTable@QColorTrcLut@@QEAAXAEBVQColorTransferTable@@W4Direction@1@@Z"
"?setFromTrc@QColorTrcLut@@QEAAXAEBVQColorTrc@@W4Direction@1@@Z"
"?setFrontFace@QRhiGraphicsPipeline@@QEAAXW4FrontFace@1@@Z"
"?setGLBaseInternalFormat@QTextureFileData@@QEAAXI@Z"
"?setGLFormat@QTextureFileData@@QEAAXI@Z"
"?setGLInternalFormat@QTextureFileData@@QEAAXI@Z"
"?setGeometries@QGridLayoutEngine@@QEAAXAEBVQRectF@@PEBVQAbstractLayoutStyleInfo@@@Z"
"?setGeometry@QPlatformWindow@@UEAAXAEBVQRect@@@Z"
"?setGeometry@QWindow@@QEAAXAEBVQRect@@@Z"
"?setGeometry@QWindow@@QEAAXHHHH@Z"
"?setGlobalFactor@QHighDpiScaling@@SAXN@Z"
"?setGlyph@QDistanceField@@QEAAXAEBVQRawFont@@I_N@Z"
"?setGlyph@QDistanceField@@QEAAXPEAVQFontEngine@@I_N@Z"
"?setGlyphCache@QFontEngine@@QEAAXPEBXPEAVQFontEngineGlyphCache@@@Z"
"?setGlyphIndexes@QGlyphRun@@QEAAXAEBV?$QList@I@@@Z"
"?setGraphicsPipeline@QRhiCommandBuffer@@QEAAXPEAVQRhiGraphicsPipeline@@@Z"
"?setGreen@QColor@@QEAAXH@Z"
"?setGreenBufferSize@QSurfaceFormat@@QEAAXH@Z"
"?setGreenF@QColor@@QEAAXM@Z"
"?setHasExclusiveGroup@QPlatformMenuItem@@UEAAX_N@Z"
"?setHeaderData@QStandardItemModel@@UEAA_NHW4Orientation@Qt@@AEBVQVariant@@H@Z"
"?setHeaderRowCount@QTextTableFormat@@QEAAXH@Z"
"?setHeadingLevel@QTextBlockFormat@@QEAAXH@Z"
"?setHeight@QTextFrameFormat@@QEAAXAEBVQTextLength@@@Z"
"?setHeight@QTextFrameFormat@@QEAAXN@Z"
"?setHeight@QTextImageFormat@@QEAAXN@Z"
"?setHeight@QWindow@@QEAAXH@Z"
"?setHighDpiScaleFactorRoundingPolicy@QGuiApplication@@SAXW4HighDpiScaleFactorRoundingPolicy@Qt@@@Z"
"?setHintingPreference@QFont@@QEAAXW4HintingPreference@1@@Z"
"?setHistory@QFileDialogOptions@@QEAAXAEBV?$QList@VQString@@@@@Z"
"?setHorizontalHeaderItem@QStandardItemModel@@QEAAXHPEAVQStandardItem@@@Z"
"?setHorizontalHeaderLabels@QStandardItemModel@@QEAAXAEBV?$QList@VQString@@@@@Z"
"?setHotSpot@QDrag@@QEAAXAEBVQPoint@@@Z"
"?setHsl@QColor@@QEAAXHHHH@Z"
"?setHslF@QColor@@QEAAXMMMM@Z"
"?setHsv@QColor@@QEAAXHHHH@Z"
"?setHsvF@QColor@@QEAAXMMMM@Z"
"?setHtml@QTextDocument@@QEAAXAEBVQString@@@Z"
"?setIcon@QAction@@QEAAXAEBVQIcon@@@Z"
"?setIcon@QStandardItem@@QEAAXAEBVQIcon@@@Z"
"?setIcon@QWindow@@QEAAXAEBVQIcon@@@Z"
"?setIconPixmap@QMessageDialogOptions@@QEAAXAEBVQPixmap@@@Z"
"?setIconProvider@QFileInfoGatherer@@QEAAXPEAVQAbstractFileIconProvider@@@Z"
"?setIconProvider@QFileSystemModel@@QEAAXPEAVQAbstractFileIconProvider@@@Z"
"?setIconText@QAction@@QEAAXAEBVQString@@@Z"
"?setIconVisibleInMenu@QAction@@QEAAX_N@Z"
"?setImage@QClipboard@@QEAAXAEBVQImage@@W4Mode@1@@Z"
"?setImage@QRhiTextureSubresourceUploadDescription@@QEAAXAEBVQImage@@@Z"
"?setIndent@QTextBlockFormat@@QEAAXH@Z"
"?setIndent@QTextListFormat@@QEAAXH@Z"
"?setIndentWidth@QTextDocument@@QEAAXN@Z"
"?setIndex@QUndoStack@@QEAAXH@Z"
"?setInformativeText@QMessageDialogOptions@@QEAAXAEBVQString@@@Z"
"?setInitialDirectory@QFileDialogOptions@@QEAAXAEBVQUrl@@@Z"
"?setInitiallySelectedFiles@QFileDialogOptions@@QEAAXAEBV?$QList@VQUrl@@@@@Z"
"?setInitiallySelectedMimeTypeFilter@QFileDialogOptions@@QEAAXAEBVQString@@@Z"
"?setInitiallySelectedNameFilter@QFileDialogOptions@@QEAAXAEBVQString@@@Z"
"?setInputItemRectangle@QInputMethod@@QEAAXAEBVQRectF@@@Z"
"?setInputItemTransform@QInputMethod@@QEAAXAEBVQTransform@@@Z"
"?setInstanceStepRate@QRhiVertexInputBinding@@QEAAXI@Z"
"?setInterpolationMode@QGradient@@QEAAXW4InterpolationMode@1@@Z"
"?setInvScale@QDashedStrokeProcessor@@QEAAXN@Z"
"?setInvScale@QTriangulatingStroker@@QEAAXN@Z"
"?setIsMask@QIcon@@QEAAX_N@Z"
"?setItalic@QFont@@QEAAX_N@Z"
"?setItem@QStandardItemModel@@QEAAXHHPEAVQStandardItem@@@Z"
"?setItem@QStandardItemModel@@QEAAXHPEAVQStandardItem@@@Z"
"?setItemAt@QGridLayoutEngine@@AEAAXHHPEAVQGridLayoutItem@@@Z"
"?setItemData@QStandardItemModel@@UEAA_NAEBVQModelIndex@@AEBV?$QMap@HVQVariant@@@@@Z"
"?setItemPrototype@QStandardItemModel@@QEAAXPEBVQStandardItem@@@Z"
"?setItemRoleNames@QStandardItemModel@@QEAAXAEBV?$QHash@HVQByteArray@@@@@Z"
"?setJoinStyle@QPainterPathStroker@@QEAAXW4PenJoinStyle@Qt@@@Z"
"?setJoinStyle@QPen@@QEAAXW4PenJoinStyle@Qt@@@Z"
"?setJoinStyle@QStroker@@QEAAXW4PenJoinStyle@Qt@@@Z"
"?setKeepPositionOnInsert@QTextCursor@@QEAAX_N@Z"
"?setKerning@QFont@@QEAAX_N@Z"
"?setKey@QKeySequence@@AEAAXVQKeyCombination@@H@Z"
"?setKey@QShortcut@@QEAAXAEBVQKeySequence@@@Z"
"?setKeyValueMetadata@QTextureFileData@@QEAAXAEBV?$QMap@VQByteArray@@V1@@@@Z"
"?setKeyboardGrabEnabled@QPlatformWindow@@UEAA_N_N@Z"
"?setKeyboardGrabEnabled@QWindow@@QEAA_N_N@Z"
"?setKeyboardInputInterval@QStyleHints@@QEAAXH@Z"
"?setKeyboardModifiers@QInputDeviceManager@@QEAAXV?$QFlags@W4KeyboardModifier@Qt@@@@@Z"
"?setKeys@QShortcut@@QEAAXAEBV?$QList@VQKeySequence@@@@@Z"
"?setKeys@QShortcut@@QEAAXW4StandardKey@QKeySequence@@@Z"
"?setLabelText@QFileDialogOptions@@QEAAXW4DialogLabel@1@AEBVQString@@@Z"
"?setLastColumn@QAccessibleTableModelChangeEvent@@QEAAXH@Z"
"?setLastRow@QAccessibleTableModelChangeEvent@@QEAAXH@Z"
"?setLayer@QRhiColorAttachment@@QEAAXH@Z"
"?setLayer@QRhiReadbackDescription@@QEAAXH@Z"
"?setLayer@QRhiTextureUploadEntry@@QEAAXH@Z"
"?setLayout@QTextDocumentPrivate@@QEAAXPEAVQAbstractTextDocumentLayout@@@Z"
"?setLayoutData@QTextFrame@@QEAAXPEAVQTextFrameLayoutData@@@Z"
"?setLayoutDirection@QGuiApplication@@SAXW4LayoutDirection@Qt@@@Z"
"?setLayoutDirection@QPainter@@QEAAXW4LayoutDirection@Qt@@@Z"
"?setLayoutDirection@QTextFormat@@QEAAXW4LayoutDirection@Qt@@@Z"
"?setLayoutEnabled@QTextDocument@@QEAAX_N@Z"
"?setLeadingIncluded@QTextLine@@QEAAX_N@Z"
"?setLeftBorder@QTextTableCellFormat@@QEAAXN@Z"
"?setLeftBorderBrush@QTextTableCellFormat@@QEAAXAEBVQBrush@@@Z"
"?setLeftBorderStyle@QTextTableCellFormat@@QEAAXW4BorderStyle@QTextFrameFormat@@@Z"
"?setLeftMargin@QPageLayout@@QEAA_NN@Z"
"?setLeftMargin@QPageLayout@@QEAA_NNW4OutOfBoundsPolicy@1@@Z"
"?setLeftMargin@QTextBlockFormat@@QEAAXN@Z"
"?setLeftMargin@QTextFrameFormat@@QEAAXN@Z"
"?setLeftPadding@QTextTableCellFormat@@QEAAXN@Z"
"?setLegacyWeight@QFont@@QEAAXH@Z"
"?setLetterSpacing@QFont@@QEAAXW4SpacingType@1@N@Z"
"?setLevel@QRhiColorAttachment@@QEAAXH@Z"
"?setLevel@QRhiReadbackDescription@@QEAAXH@Z"
"?setLevel@QRhiTextureUploadEntry@@QEAAXH@Z"
"?setLineCount@QTextBlock@@QEAAXH@Z"
"?setLineHeight@QTextBlockFormat@@QEAAXNH@Z"
"?setLinePrefixForBlockQuote@QTextMarkdownWriter@@AEAAXH@Z"
"?setLineToHook@QStrokerOps@@QEAAXP6AXNNPEAX@Z@Z"
"?setLineWidth@QRhiGraphicsPipeline@@QEAAXM@Z"
"?setLineWidth@QTextLine@@QEAAXN@Z"
"?setLocale@QValidator@@QEAAXAEBVQLocale@@@Z"
"?setLocation@QRhiVertexInputAttribute@@QEAAXH@Z"
"?setLogName@QTextureFileData@@QEAAXAEBVQByteArray@@@Z"
"?setMagFilter@QRhiSampler@@QEAAXW4Filter@1@@Z"
"?setMajorVersion@QSurfaceFormat@@QEAAXH@Z"
"?setManagerProperty@QPlatformSessionManager@@UEAAXAEBVQString@@0@Z"
"?setManagerProperty@QPlatformSessionManager@@UEAAXAEBVQString@@AEBV?$QList@VQString@@@@@Z"
"?setManagerProperty@QSessionManager@@QEAAXAEBVQString@@0@Z"
"?setManagerProperty@QSessionManager@@QEAAXAEBVQString@@AEBV?$QList@VQString@@@@@Z"
"?setMargin@QTextFrameFormat@@QEAAXN@Z"
"?setMargins@QPageLayout@@QEAA_NAEBVQMarginsF@@@Z"
"?setMargins@QPageLayout@@QEAA_NAEBVQMarginsF@@W4OutOfBoundsPolicy@1@@Z"
"?setMarkdown@QTextDocument@@QEAAXAEBVQString@@V?$QFlags@W4MarkdownFeature@QTextDocument@@@@@Z"
"?setMarker@QTextBlockFormat@@QEAAXW4MarkerType@1@@Z"
"?setMask@QPixmap@@QEAAXAEBVQBitmap@@@Z"
"?setMask@QPlatformPixmap@@UEAAXAEBVQBitmap@@@Z"
"?setMask@QPlatformWindow@@UEAAXAEBVQRegion@@@Z"
"?setMask@QWindow@@QEAAXAEBVQRegion@@@Z"
"?setMatrix@QTransform@@QEAAXNNNNNNNNN@Z"
"?setMatrixSlice@QRhiVertexInputAttribute@@QEAAXH@Z"
"?setMaxDepth@QRhiViewport@@QEAAXM@Z"
"?setMaximumBlockCount@QTextDocument@@QEAAXH@Z"
"?setMaximumHeight@QWindow@@QEAAXH@Z"
"?setMaximumSize@QWindow@@QEAAXAEBVQSize@@@Z"
"?setMaximumTouchPoints@QPointingDevice@@QEAAXH@Z"
"?setMaximumWidth@QTextImageFormat@@QEAAXVQTextLength@@@Z"
"?setMaximumWidth@QWindow@@QEAAXH@Z"
"?setMenu@QActionPrivate@@UEAAXPEAVQObject@@@Z"
"?setMenuObject@QAction@@AEAAXPEAVQObject@@@Z"
"?setMenuRole@QAction@@QEAAXW4MenuRole@1@@Z"
"?setMenuType@QPlatformMenu@@UEAAXW4MenuType@1@@Z"
"?setMetaInformation@QTextDocument@@QEAAXW4MetaInformation@1@AEBVQString@@@Z"
"?setMimeData@QClipboard@@QEAAXPEAVQMimeData@@W4Mode@1@@Z"
"?setMimeData@QDrag@@QEAAXPEAVQMimeData@@@Z"
"?setMimeData@QPlatformClipboard@@UEAAXPEAVQMimeData@@W4Mode@QClipboard@@@Z"
"?setMimeTypeFilters@QFileDialogOptions@@QEAAXAEBV?$QList@VQString@@@@@Z"
"?setMinDepth@QRhiViewport@@QEAAXM@Z"
"?setMinFilter@QRhiSampler@@QEAAXW4Filter@1@@Z"
"?setMinOrMaxSize@QWindowPrivate@@QEAAXPEAVQSize@@AEBV2@V?$function_ref@$$A6AXXZ@qxp@@2@Z"
"?setMinimumHeight@QWindow@@QEAAXH@Z"
"?setMinimumMargins@QPageLayout@@QEAAXAEBVQMarginsF@@@Z"
"?setMinimumSize@QWindow@@QEAAXAEBVQSize@@@Z"
"?setMinimumWidth@QPlatformMenu@@UEAAXH@Z"
"?setMinimumWidth@QWindow@@QEAAXH@Z"
"?setMinorVersion@QSurfaceFormat@@QEAAXH@Z"
"?setMipmapMode@QRhiSampler@@QEAAXW4Filter@1@@Z"
"?setMiterLimit@QDashStroker@@QEAAXN@Z"
"?setMiterLimit@QPainterPathStroker@@QEAAXN@Z"
"?setMiterLimit@QPen@@QEAAXN@Z"
"?setMiterLimit@QStroker@@QEAAXN@Z"
"?setModality@QWindow@@QEAAXW4WindowModality@Qt@@@Z"
"?setMode@QPageLayout@@QEAAXW4Mode@1@@Z"
"?setModelChangeType@QAccessibleTableModelChangeEvent@@QEAAXW4ModelChangeType@1@@Z"
"?setModified@QTextDocument@@QEAAX_N@Z"
"?setModified@QTextDocumentPrivate@@QEAAX_N@Z"
"?setModifiers@QInputEvent@@QEAAXV?$QFlags@W4KeyboardModifier@Qt@@@@@Z"
"?setMouseDoubleClickInterval@QStyleHints@@QEAAXH@Z"
"?setMouseGrabEnabled@QPlatformWindow@@UEAA_N_N@Z"
"?setMouseGrabEnabled@QWindow@@QEAA_N_N@Z"
"?setMousePressAndHoldInterval@QStyleHints@@QEAAXH@Z"
"?setMouseQuickSelectionThreshold@QStyleHints@@QEAAXH@Z"
"?setMoveToHook@QStrokerOps@@QEAAXP6AXNNPEAX@Z@Z"
"?setMultiViewCount@QRhiColorAttachment@@QEAAXH@Z"
"?setMultiViewCount@QRhiGraphicsPipeline@@QEAAXH@Z"
"?setName@QRhiResource@@QEAAXAEBVQByteArray@@@Z"
"?setName@QTextImageFormat@@QEAAXAEBVQString@@@Z"
"?setNameFilterDisables@QFileSystemModel@@QEAAX_N@Z"
"?setNameFilters@QFileDialogOptions@@QEAAXAEBV?$QList@VQString@@@@@Z"
"?setNameFilters@QFileSystemModel@@QEAAXAEBV?$QList@VQString@@@@@Z"
"?setNamedColor@QColor@@QEAAXAEBVQString@@@Z"
"?setNamedColor@QColor@@QEAAXVQLatin1String@@@Z"
"?setNamedColor@QColor@@QEAAXVQStringView@@@Z"
"?setNativeContents@QPlatformMenuItem@@UEAAX_K@Z"
"?setNativeLayout@QRhiTexture@@UEAAXH@Z"
"?setNativeShaderInfo@QShader@@QEAAXAEBVQShaderKey@@AEBUNativeShaderInfo@1@@Z"
"?setNonBreakableLines@QTextBlockFormat@@QEAAX_N@Z"
"?setNotation@QDoubleValidator@@QEAAXW4Notation@1@@Z"
"?setNumColumns@QTextLine@@QEAAXH@Z"
"?setNumColumns@QTextLine@@QEAAXHN@Z"
"?setNumFaces@QTextureFileData@@QEAAXH@Z"
"?setNumLevels@QTextureFileData@@QEAAXH@Z"
"?setNumberPrefix@QTextListFormat@@QEAAXAEBVQString@@@Z"
"?setNumberSuffix@QTextListFormat@@QEAAXAEBVQString@@@Z"
"?setObjectFormat@QTextFormatCollection@@QEAAXHAEBVQTextFormat@@@Z"
"?setObjectFormatIndex@QTextFormatCollection@@QEAAXHH@Z"
"?setObjectIndex@QTextFormat@@QEAAXH@Z"
"?setObjectType@QTextFormat@@QEAAXH@Z"
"?setObsolete@QUndoCommand@@QEAAX_N@Z"
"?setOffset@QImage@@QEAAXAEBVQPoint@@@Z"
"?setOffset@QRhiVertexInputAttribute@@QEAAXI@Z"
"?setOpacity@QPainter@@QEAAXN@Z"
"?setOpacity@QPlatformWindow@@UEAAXN@Z"
"?setOpacity@QWindow@@QEAAXN@Z"
"?setOptimizedWrite@QImageWriter@@QEAAX_N@Z"
"?setOption@QColorDialogOptions@@QEAAXW4ColorDialogOption@1@_N@Z"
"?setOption@QFileDialogOptions@@QEAAXW4FileDialogOption@1@_N@Z"
"?setOption@QFileSystemModel@@QEAAXW4Option@1@_N@Z"
"?setOption@QFontDialogOptions@@QEAAXW4FontDialogOption@1@_N@Z"
"?setOption@QImageIOHandler@@UEAAXW4ImageOption@1@AEBVQVariant@@@Z"
"?setOption@QMessageDialogOptions@@QEAAXW4Option@1@_N@Z"
"?setOption@QSurfaceFormat@@QEAAXW4FormatOption@1@_N@Z"
"?setOptions@QAbstractFileIconProvider@@UEAAXV?$QFlags@W4Option@QAbstractFileIconProvider@@@@@Z"
"?setOptions@QColorDialogOptions@@QEAAXV?$QFlags@W4ColorDialogOption@QColorDialogOptions@@@@@Z"
"?setOptions@QFileDialogOptions@@QEAAXV?$QFlags@W4FileDialogOption@QFileDialogOptions@@@@@Z"
"?setOptions@QFileSystemModel@@QEAAXV?$QFlags@W4Option@QFileSystemModel@@@@@Z"
"?setOptions@QFontDialogOptions@@QEAAXV?$QFlags@W4FontDialogOption@QFontDialogOptions@@@@@Z"
"?setOptions@QMessageDialogOptions@@QEAAXV?$QFlags@W4Option@QMessageDialogOptions@@@@@Z"
"?setOptions@QPlatformColorDialogHelper@@QEAAXAEBV?$QSharedPointer@VQColorDialogOptions@@@@@Z"
"?setOptions@QPlatformFileDialogHelper@@QEAAXAEBV?$QSharedPointer@VQFileDialogOptions@@@@@Z"
"?setOptions@QPlatformFontDialogHelper@@QEAAXAEBV?$QSharedPointer@VQFontDialogOptions@@@@@Z"
"?setOptions@QPlatformMessageDialogHelper@@QEAAXAEBV?$QSharedPointer@VQMessageDialogOptions@@@@@Z"
"?setOptions@QSurfaceFormat@@QEAAXV?$QFlags@W4FormatOption@QSurfaceFormat@@@@@Z"
"?setOrientation@QPageLayout@@QEAAXW4Orientation@1@@Z"
"?setOverline@QFont@@QEAAX_N@Z"
"?setOverline@QGlyphRun@@QEAAX_N@Z"
"?setOverrideCursor@QGuiApplication@@SAXAEBVQCursor@@@Z"
"?setOverrideCursor@QPlatformCursor@@UEAAXAEBVQCursor@@@Z"
"?setPadding@QTextFrameFormat@@QEAAXN@Z"
"?setPadding@QTextTableCellFormat@@QEAAXN@Z"
"?setPageBreakPolicy@QTextBlockFormat@@QEAAXV?$QFlags@W4PageBreakFlag@QTextFormat@@@@@Z"
"?setPageBreakPolicy@QTextFrameFormat@@QEAAXV?$QFlags@W4PageBreakFlag@QTextFormat@@@@@Z"
"?setPageLayout@QPagedPaintDevice@@UEAA_NAEBVQPageLayout@@@Z"
"?setPageMargins@QPagedPaintDevice@@UEAA_NAEBVQMarginsF@@W4Unit@QPageLayout@@@Z"
"?setPageOrientation@QPagedPaintDevice@@UEAA_NW4Orientation@QPageLayout@@@Z"
"?setPageRanges@QPagedPaintDevice@@UEAAXAEBVQPageRanges@@@Z"
"?setPageSize@QPageLayout@@QEAAXAEBVQPageSize@@AEBVQMarginsF@@@Z"
"?setPageSize@QPagedPaintDevice@@UEAA_NAEBVQPageSize@@@Z"
"?setPageSize@QTextDocument@@QEAAXAEBVQSizeF@@@Z"
"?setPaintDevice@QAbstractTextDocumentLayout@@QEAAXPEAVQPaintDevice@@@Z"
"?setPaintDevice@QPaintEngine@@QEAAXPEAVQPaintDevice@@@Z"
"?setPalette@QGuiApplication@@SAXAEBVQPalette@@@Z"
"?setPalette@QGuiApplicationPrivate@@KA_NAEBVQPalette@@@Z"
"?setParent@QPlatformWindow@@UEAAXPEBV1@@Z"
"?setParent@QWindow@@QEAAXPEAV1@@Z"
"?setPassiveGrabberContext@QPointingDevicePrivate@@SA_NPEAUEventPointData@1@PEAVQObject@@1@Z"
"?setPatchControlPointCount@QRhiGraphicsPipeline@@QEAAXH@Z"
"?setPaused@QMovie@@QEAAX_N@Z"
"?setPen@QPainter@@QEAAXAEBVQColor@@@Z"
"?setPen@QPainter@@QEAAXAEBVQPen@@@Z"
"?setPen@QPainter@@QEAAXW4PenStyle@Qt@@@Z"
"?setPerformanceHint@QStaticText@@QEAAXW4PerformanceHint@1@@Z"
"?setPipelineCacheData@QRhi@@QEAAXAEBVQByteArray@@@Z"
"?setPixel@QImage@@QEAAXAEBVQPoint@@I@Z"
"?setPixel@QImage@@QEAAXHHI@Z"
"?setPixelColor@QImage@@QEAAXAEBVQPoint@@AEBVQColor@@@Z"
"?setPixelColor@QImage@@QEAAXHHAEBVQColor@@@Z"
"?setPixelSize@QFont@@QEAAXH@Z"
"?setPixelSize@QRawFont@@QEAAXN@Z"
"?setPixelSize@QRhiRenderBuffer@@QEAAXAEBVQSize@@@Z"
"?setPixelSize@QRhiTexture@@QEAAXAEBVQSize@@@Z"
"?setPixelSize@QRhiTextureCopyDescription@@QEAAXAEBVQSize@@@Z"
"?setPixmap@QClipboard@@QEAAXAEBVQPixmap@@W4Mode@1@@Z"
"?setPixmap@QDrag@@QEAAXAEBVQPixmap@@@Z"
"?setPlainText@QTextDocument@@QEAAXAEBVQString@@@Z"
"?setPlatformSynthesizesMouse@TabletEvent@QWindowSystemInterfacePrivate@@SAX_N@Z"
"?setPoint@QPolygon@@QEAAXHHH@Z"
"?setPointSize@QFont@@QEAAXH@Z"
"?setPointSizeF@QFont@@QEAAXN@Z"
"?setPoints@QPolygon@@QEAAXHHHZZ"
"?setPoints@QPolygon@@QEAAXHPEBH@Z"
"?setPoliteness@QAccessibleAnnouncementEvent@@QEAAXW4AnnouncementPoliteness@QAccessible@@@Z"
"?setPolygonMode@QRhiGraphicsPipeline@@QEAAXW4PolygonMode@1@@Z"
"?setPos@QCursor@@SAXAEBVQPoint@@@Z"
"?setPos@QCursor@@SAXHH@Z"
"?setPos@QCursor@@SAXPEAVQScreen@@AEBVQPoint@@@Z"
"?setPos@QCursor@@SAXPEAVQScreen@@HH@Z"
"?setPos@QPlatformCursor@@UEAAXAEBVQPoint@@@Z"
"?setPosition@QTextCursor@@QEAAXHW4MoveMode@1@@Z"
"?setPosition@QTextCursorPrivate@@QEAA_NH@Z"
"?setPosition@QTextFrameFormat@@QEAAXW4Position@1@@Z"
"?setPosition@QTextLayout@@QEAAXAEBVQPointF@@@Z"
"?setPosition@QTextLine@@QEAAXAEBVQPointF@@@Z"
"?setPosition@QWindow@@QEAAXAEBVQPoint@@@Z"
"?setPosition@QWindow@@QEAAXHH@Z"
"?setPositions@QGlyphRun@@QEAAXAEBV?$QList@VQPointF@@@@@Z"
"?setPowerState@QPlatformScreen@@UEAAXW4PowerState@1@@Z"
"?setPreeditArea@QTextEngine@@QEAAXHAEBVQString@@@Z"
"?setPreeditArea@QTextLayout@@QEAAXHAEBVQString@@@Z"
"?setPrimaries@QColorSpace@@QEAAXAEBVQPointF@@000@Z"
"?setPrimaries@QColorSpace@@QEAAXW4Primaries@1@@Z"
"?setPriority@QAction@@QEAAXW4Priority@1@@Z"
"?setProfile@QSurfaceFormat@@QEAAXW4OpenGLContextProfile@1@@Z"
"?setProgramBinary@QOpenGLProgramBinaryCache@@AEAA_NIIPEBXI@Z"
"?setProgressiveScanWrite@QImageWriter@@QEAAX_N@Z"
"?setProperty@QTextFormat@@QEAAXHAEBV?$QList@VQTextLength@@@@@Z"
"?setProperty@QTextFormat@@QEAAXHAEBVQVariant@@@Z"
"?setProxyData@QRhiSwapChain@@QEAAXAEBUQRhiSwapChainProxyData@@@Z"
"?setQuality@QImageReader@@QEAAXH@Z"
"?setQuality@QImageWriter@@QEAAXH@Z"
"?setQuality@QTextImageFormat@@QEAAXH@Z"
"?setQuality@QTextImageFormat@@QEAAXXZ"
"?setQuitOnLastWindowClosed@QGuiApplication@@SAX_N@Z"
"?setRadius@QRadialGradient@@QEAAXN@Z"
"?setRange@QDoubleValidator@@QEAAXNN@Z"
"?setRange@QDoubleValidator@@QEAAXNNH@Z"
"?setRange@QIntValidator@@QEAAXHH@Z"
"?setRawData@QGlyphRun@@QEAAXPEBIPEBVQPointF@@H@Z"
"?setRawFont@QGlyphRun@@QEAAXAEBVQRawFont@@@Z"
"?setRawFont@QTextLayout@@QEAAXAEBVQRawFont@@@Z"
"?setReadOnly@QFileSystemModel@@QEAAX_N@Z"
"?setReadViewFormat@QRhiTexture@@QEAAXAEBUViewFormat@1@@Z"
"?setRects@QRegion@@QEAAXPEBVQRect@@H@Z"
"?setRects@QRegion@@QEAAXV?$QSpan@$$CBVQRect@@$0?0@@@Z"
"?setRed@QColor@@QEAAXH@Z"
"?setRedBufferSize@QSurfaceFormat@@QEAAXH@Z"
"?setRedF@QColor@@QEAAXM@Z"
"?setRegularExpression@QRegularExpressionValidator@@QEAAXAEBVQRegularExpression@@@Z"
"?setRenderBuffer@QRhiColorAttachment@@QEAAXPEAVQRhiRenderBuffer@@@Z"
"?setRenderHint@QPainter@@QEAAXW4RenderHint@1@_N@Z"
"?setRenderHints@QPainter@@QEAAXV?$QFlags@W4RenderHint@QPainter@@@@_N@Z"
"?setRenderPassDescriptor@QRhiGraphicsPipeline@@QEAAXPEAVQRhiRenderPassDescriptor@@@Z"
"?setRenderPassDescriptor@QRhiRenderTarget@@QEAAXPEAVQRhiRenderPassDescriptor@@@Z"
"?setRenderPassDescriptor@QRhiSwapChain@@QEAAXPEAVQRhiRenderPassDescriptor@@@Z"
"?setRenderableType@QSurfaceFormat@@QEAAXW4RenderableType@1@@Z"
"?setResolveLayer@QRhiColorAttachment@@QEAAXH@Z"
"?setResolveLevel@QRhiColorAttachment@@QEAAXH@Z"
"?setResolveMask@QFont@@QEAAXI@Z"
"?setResolveMask@QPalette@@QEAAX_K@Z"
"?setResolveSymlinks@QFileInfoGatherer@@QEAAX_N@Z"
"?setResolveSymlinks@QFileSystemModel@@QEAAX_N@Z"
"?setResolveTexture@QRhiColorAttachment@@QEAAXPEAVQRhiTexture@@@Z"
"?setResourceBindingMap@QShader@@QEAAXAEBVQShaderKey@@AEBV?$QMap@HU?$pair@HH@std@@@@@Z"
"?setResourceProvider@QTextDocument@@QEAAXAEBV?$function@$$A6A?AVQVariant@@AEBVQUrl@@@Z@std@@@Z"
"?setRestartCommand@QPlatformSessionManager@@UEAAXAEBV?$QList@VQString@@@@@Z"
"?setRestartCommand@QSessionManager@@QEAAXAEBV?$QList@VQString@@@@@Z"
"?setRestartHint@QPlatformSessionManager@@UEAAXW4RestartHint@QSessionManager@@@Z"
"?setRestartHint@QSessionManager@@QEAAXW4RestartHint@1@@Z"
"?setRevision@QTextBlock@@QEAAXH@Z"
"?setRgb@QColor@@QEAAXHHHH@Z"
"?setRgb@QColor@@QEAAXI@Z"
"?setRgbF@QColor@@QEAAXMMMM@Z"
"?setRgba64@QColor@@QEAAXVQRgba64@@@Z"
"?setRgba@QColor@@QEAAXI@Z"
"?setRightBorder@QTextTableCellFormat@@QEAAXN@Z"
"?setRightBorderBrush@QTextTableCellFormat@@QEAAXAEBVQBrush@@@Z"
"?setRightBorderStyle@QTextTableCellFormat@@QEAAXW4BorderStyle@QTextFrameFormat@@@Z"
"?setRightMargin@QPageLayout@@QEAA_NN@Z"
"?setRightMargin@QPageLayout@@QEAA_NNW4OutOfBoundsPolicy@1@@Z"
"?setRightMargin@QTextBlockFormat@@QEAAXN@Z"
"?setRightMargin@QTextFrameFormat@@QEAAXN@Z"
"?setRightPadding@QTextTableCellFormat@@QEAAXN@Z"
"?setRightToLeft@QGlyphRun@@QEAAX_N@Z"
"?setRootObject@QAccessible@@SAXPEAVQObject@@@Z"
"?setRootObject@QPlatformAccessibility@@UEAAXPEAVQObject@@@Z"
"?setRootPath@QFileSystemModel@@QEAA?AVQModelIndex@@AEBVQString@@@Z"
"?setRow@QMatrix4x4@@QEAAXHAEBVQVector4D@@@Z"
"?setRowAlignment@QGridLayoutEngine@@QEAAXHV?$QFlags@W4AlignmentFlag@Qt@@@@W4Orientation@Qt@@@Z"
"?setRowCount@QStandardItem@@QEAAXH@Z"
"?setRowCount@QStandardItemModel@@QEAAXH@Z"
"?setRowSizeHint@QGridLayoutEngine@@QEAAXW4SizeHint@Qt@@HNW4Orientation@3@@Z"
"?setRowSpacing@QGridLayoutEngine@@QEAAXHNW4Orientation@Qt@@@Z"
"?setRowSpan@QGridLayoutItem@@QEAAXHW4Orientation@Qt@@@Z"
"?setRowStretchFactor@QGridLayoutEngine@@QEAAXHHW4Orientation@Qt@@@Z"
"?setSampleCount@QRhiGraphicsPipeline@@QEAAXH@Z"
"?setSampleCount@QRhiRenderBuffer@@QEAAXH@Z"
"?setSampleCount@QRhiSwapChain@@QEAAXH@Z"
"?setSampleCount@QRhiTexture@@QEAAXH@Z"
"?setSamples@QSurfaceFormat@@QEAAXH@Z"
"?setScalar@QQuaternion@@QEAAXM@Z"
"?setScaledClipRect@QImageReader@@QEAAXAEBVQRect@@@Z"
"?setScaledSize@QImageReader@@QEAAXAEBVQSize@@@Z"
"?setScaledSize@QMovie@@QEAAXAEBVQSize@@@Z"
"?setScissor@QRhiCommandBuffer@@QEAAXAEBVQRhiScissor@@@Z"
"?setScissor@QRhiScissor@@QEAAXHHHH@Z"
"?setScreen@QBasicDrag@@IEAAXPEAVQScreen@@@Z"
"?setScreen@QOffscreenSurface@@QEAAXPEAVQScreen@@@Z"
"?setScreen@QOpenGLContext@@QEAAXPEAVQScreen@@@Z"
"?setScreen@QWindow@@QEAAXPEAVQScreen@@@Z"
"?setScreenFactor@QHighDpiScaling@@SAXPEAVQScreen@@N@Z"
"?setSelectable@QStandardItem@@QEAAX_N@Z"
"?setSelection@QAccessibleTextSelectionEvent@@QEAAXHH@Z"
"?setSelectionOnFocusObject@QPlatformInputContext@@SAXAEBVQPointF@@0@Z"
"?setSeparateToCombinedImageSamplerMappingList@QShader@@QEAAXAEBVQShaderKey@@AEBV?$QList@USeparateToCombinedImageSamplerMapping@QShader@@@@@Z"
"?setSeparator@QAction@@QEAAX_N@Z"
"?setSerialNumber@QPlatformPixmap@@IEAAXH@Z"
"?setShader@QRhiShaderStage@@QEAAXAEBVQShader@@@Z"
"?setShader@QShader@@QEAAXAEBVQShaderKey@@AEBVQShaderCode@@@Z"
"?setShader@QShaderCode@@QEAAXAEBVQByteArray@@@Z"
"?setShaderResourceBindings@QRhiComputePipeline@@QEAAXPEAVQRhiShaderResourceBindings@@@Z"
"?setShaderResourceBindings@QRhiGraphicsPipeline@@QEAAXPEAVQRhiShaderResourceBindings@@@Z"
"?setShaderResources@QRhiCommandBuffer@@QEAAXPEAVQRhiShaderResourceBindings@@HPEBU?$pair@HI@std@@@Z"
"?setShaderStage@QRhiComputePipeline@@QEAAXAEBVQRhiShaderStage@@@Z"
"?setShaderStages@QRhiGraphicsPipeline@@QEAAXV?$initializer_list@VQRhiShaderStage@@@std@@@Z"
"?setShaderVariant@QRhiShaderStage@@QEAAXW4Variant@QShader@@@Z"
"?setShape@QCursor@@QEAAXW4CursorShape@Qt@@@Z"
"?setShareContext@QOpenGLContext@@QEAAXPEAV1@@Z"
"?setShortcut@QAction@@QEAAXAEBVQKeySequence@@@Z"
"?setShortcutAutoRepeat@QShortcutMap@@QEAAH_NHPEAVQObject@@AEBVQKeySequence@@@Z"
"?setShortcutContext@QAction@@QEAAXW4ShortcutContext@Qt@@@Z"
"?setShortcutEnabled@QActionPrivate@@QEAAX_NAEAVQShortcutMap@@@Z"
"?setShortcutEnabled@QShortcutMap@@QEAAH_NHPEAVQObject@@AEBVQKeySequence@@@Z"
"?setShortcutVisibleInContextMenu@QAction@@QEAAX_N@Z"
"?setShortcuts@QAction@@QEAAXAEBV?$QList@VQKeySequence@@@@@Z"
"?setShortcuts@QAction@@QEAAXW4StandardKey@QKeySequence@@@Z"
"?setShowShortcutsInContextMenus@QStyleHints@@QEAAX_N@Z"
"?setSidebarUrls@QFileDialogOptions@@QEAAXAEBV?$QList@VQUrl@@@@@Z"
"?setSize@QRhiBuffer@@QEAAXI@Z"
"?setSize@QTextureFileData@@QEAAXAEBVQSize@@@Z"
"?setSizeHint@QStandardItem@@QEAAXAEBVQSize@@@Z"
"?setSizeIncrement@QWindow@@QEAAXAEBVQSize@@@Z"
"?setSlopeScaledDepthBias@QRhiGraphicsPipeline@@QEAAXM@Z"
"?setSortRole@QStandardItemModel@@QEAAXH@Z"
"?setSource@QMutableSinglePointEvent@@QEAAXW4MouseEventSource@Qt@@@Z"
"?setSource@QShaderKey@@QEAAXW4Source@QShader@@@Z"
"?setSourceLayer@QRhiTextureCopyDescription@@QEAAXH@Z"
"?setSourceLevel@QRhiTextureCopyDescription@@QEAAXH@Z"
"?setSourceSize@QRhiTextureSubresourceUploadDescription@@QEAAXAEBVQSize@@@Z"
"?setSourceString@QGlyphRun@@QEAAXAEBVQString@@@Z"
"?setSourceTopLeft@QRhiTextureCopyDescription@@QEAAXAEBVQPoint@@@Z"
"?setSourceTopLeft@QRhiTextureSubresourceUploadDescription@@QEAAXAEBVQPoint@@@Z"
"?setSourceVariant@QShaderKey@@QEAAXW4Variant@QShader@@@Z"
"?setSourceVersion@QShaderKey@@QEAAXAEBVQShaderVersion@@@Z"
"?setSpacing@QGridLayoutEngine@@QEAAXNV?$QFlags@W4Orientation@Qt@@@@@Z"
"?setSpeed@QMovie@@QEAAXH@Z"
"?setSpread@QGradient@@QEAAXW4Spread@1@@Z"
"?setStage@QShader@@QEAAXW4Stage@1@@Z"
"?setStandardButtons@QMessageDialogOptions@@QEAAXV?$QFlags@W4StandardButton@QPlatformDialogHelper@@@@@Z"
"?setStandardColor@QColorDialogOptions@@SAXHI@Z"
"?setStandardIcon@QMessageDialogOptions@@QEAAXW4StandardIcon@1@@Z"
"?setStart@QLinearGradient@@QEAAXAEBVQPointF@@@Z"
"?setStart@QLinearGradient@@QEAAXNN@Z"
"?setStart@QTextListFormat@@QEAAXH@Z"
"?setStartDragDistance@QStyleHints@@QEAAXH@Z"
"?setStartDragTime@QStyleHints@@QEAAXH@Z"
"?setState@QBlitterPaintEngine@@UEAAXPEAVQPainterState@@@Z"
"?setState@QPaintEngineEx@@UEAAXPEAVQPainterState@@@Z"
"?setState@QRasterPaintEngine@@UEAAXPEAVQPainterState@@@Z"
"?setStaticContents@QBackingStore@@QEAAXAEBVQRegion@@@Z"
"?setStatusTip@QAction@@QEAAXAEBVQString@@@Z"
"?setStatusTip@QStandardItem@@QEAAXAEBVQString@@@Z"
"?setStencilBack@QRhiGraphicsPipeline@@QEAAXAEBUStencilOpState@1@@Z"
"?setStencilBufferSize@QSurfaceFormat@@QEAAXH@Z"
"?setStencilClearValue@QRhiDepthStencilClearValue@@QEAAXI@Z"
"?setStencilFront@QRhiGraphicsPipeline@@QEAAXAEBUStencilOpState@1@@Z"
"?setStencilReadMask@QRhiGraphicsPipeline@@QEAAXI@Z"
"?setStencilRef@QRhiCommandBuffer@@QEAAXI@Z"
"?setStencilTest@QRhiGraphicsPipeline@@QEAAX_N@Z"
"?setStencilWriteMask@QRhiGraphicsPipeline@@QEAAXI@Z"
"?setStereo@QSurfaceFormat@@QEAAX_N@Z"
"?setStops@QGradient@@QEAAXAEBV?$QList@U?$pair@NVQColor@@@std@@@@@Z"
"?setStretch@QFont@@QEAAXH@Z"
"?setStretchFactor@QGridLayoutItem@@QEAAXHW4Orientation@Qt@@@Z"
"?setStride@QRhiVertexInputBinding@@QEAAXI@Z"
"?setStrikeOut@QFont@@QEAAX_N@Z"
"?setStrikeOut@QGlyphRun@@QEAAX_N@Z"
"?setStringIndexes@QGlyphRun@@QEAAXAEBV?$QList@_J@@@Z"
"?setStrokeWidth@QDashStroker@@QEAAXN@Z"
"?setStrokeWidth@QStroker@@QEAAXN@Z"
"?setStyle@QBrush@@QEAAXW4BrushStyle@Qt@@@Z"
"?setStyle@QFont@@QEAAXW4Style@1@@Z"
"?setStyle@QPen@@QEAAXW4PenStyle@Qt@@@Z"
"?setStyle@QTextListFormat@@QEAAXW4Style@1@@Z"
"?setStyleHint@QFont@@QEAAXW4StyleHint@1@W4StyleStrategy@1@@Z"
"?setStyleName@QFont@@QEAAXAEBVQString@@@Z"
"?setStyleStrategy@QFont@@QEAAXW4StyleStrategy@1@@Z"
"?setSubScriptBaseline@QTextCharFormat@@QEAAXN@Z"
"?setSubScriptBaseline@QTextDocument@@QEAAXN@Z"
"?setSubScriptBaseline@QTextFormatCollection@@QEAAXN@Z"
"?setSubType@QImageWriter@@QEAAXAEBVQByteArray@@@Z"
"?setSuperScriptBaseline@QTextCharFormat@@QEAAXN@Z"
"?setSuperScriptBaseline@QTextDocument@@QEAAXN@Z"
"?setSuperScriptBaseline@QTextFormatCollection@@QEAAXN@Z"
"?setSupported@QSupportedWritingSystems@@QEAAXW4WritingSystem@QFontDatabase@@_N@Z"
"?setSupportedSchemes@QFileDialogOptions@@QEAAXAEBV?$QList@VQString@@@@@Z"
"?setSurfaceType@QWindow@@QEAAXW4SurfaceType@QSurface@@@Z"
"?setSwapBehavior@QSurfaceFormat@@QEAAXW4SwapBehavior@1@@Z"
"?setSwapInterval@QSurfaceFormat@@QEAAXH@Z"
"?setSynchronousWindowSystemEvents@QWindowSystemInterface@@SAX_N@Z"
"?setSystemClip@QPaintEngine@@QEAAXAEBVQRegion@@@Z"
"?setSystemRect@QPaintEngine@@QEAAXAEBVQRect@@@Z"
"?setSystemTransform@QPaintEnginePrivate@@QEAAXAEBVQTransform@@@Z"
"?setSystemTransformAndViewport@QPaintEnginePrivate@@QEAAXAEBVQTransform@@AEBVQRegion@@@Z"
"?setSystemViewport@QPaintEnginePrivate@@QEAAXAEBVQRegion@@@Z"
"?setTabArray@QTextOption@@QEAAXAEBV?$QList@N@@@Z"
"?setTabFocusBehavior@QStyleHints@@QEAAXW4TabFocusBehavior@Qt@@@Z"
"?setTabPositions@QTextBlockFormat@@QEAAXAEBV?$QList@UTab@QTextOption@@@@@Z"
"?setTabStopDistance@QTextOption@@QEAAXN@Z"
"?setTableCellColumnSpan@QTextCharFormat@@QEAAXH@Z"
"?setTableCellRowSpan@QTextCharFormat@@QEAAXH@Z"
"?setTabs@QTextOption@@QEAAXAEBV?$QList@UTab@QTextOption@@@@@Z"
"?setTag@QPlatformMenu@@UEAAX_K@Z"
"?setTag@QPlatformMenuItem@@UEAAX_K@Z"
"?setTarget@QMutableTouchEvent@@QEAAXPEAVQObject@@@Z"
"?setTarget@QMutableTouchEvent@@SAXPEAVQTouchEvent@@PEAVQObject@@@Z"
"?setTargetBlends@QRhiGraphicsPipeline@@QEAAXV?$initializer_list@UTargetBlend@QRhiGraphicsPipeline@@@std@@@Z"
"?setText@QAccessibleObject@@UEAAXW4Text@QAccessible@@AEBVQString@@@Z"
"?setText@QAction@@QEAAXAEBVQString@@@Z"
"?setText@QClipboard@@QEAAXAEBVQString@@W4Mode@1@@Z"
"?setText@QImage@@QEAAXAEBVQString@@0@Z"
"?setText@QImageWriter@@QEAAXAEBVQString@@0@Z"
"?setText@QMessageDialogOptions@@QEAAXAEBVQString@@@Z"
"?setText@QStandardItem@@QEAAXAEBVQString@@@Z"
"?setText@QStaticText@@QEAAXAEBVQString@@@Z"
"?setText@QTextLayout@@QEAAXAEBVQString@@@Z"
"?setText@QUndoCommand@@QEAAXAEBVQString@@@Z"
"?setTextAlignment@QStandardItem@@QEAAXV?$QFlags@W4AlignmentFlag@Qt@@@@@Z"
"?setTextDirection@QTextOption@@QEAAXW4LayoutDirection@Qt@@@Z"
"?setTextFormat@QStaticText@@QEAAXW4TextFormat@Qt@@@Z"
"?setTextIndent@QTextBlockFormat@@QEAAXN@Z"
"?setTextOption@QStaticText@@QEAAXAEBVQTextOption@@@Z"
"?setTextOption@QTextLayout@@QEAAXAEBVQTextOption@@@Z"
"?setTextOutline@QTextCharFormat@@QEAAXAEBVQPen@@@Z"
"?setTextWidth@QStaticText@@QEAAXN@Z"
"?setTextWidth@QTextDocument@@QEAAXN@Z"
"?setTexture@QBrush@@QEAAXAEBVQPixmap@@@Z"
"?setTexture@QRhiColorAttachment@@QEAAXPEAVQRhiTexture@@@Z"
"?setTexture@QRhiReadbackDescription@@QEAAXPEAVQRhiTexture@@@Z"
"?setTextureCompareOp@QRhiSampler@@QEAAXW4CompareOp@1@@Z"
"?setTextureFunctions@QOpenGLContext@@AEAAXPEAVQOpenGLTextureHelper@@V?$function@$$A6AXXZ@std@@@Z"
"?setTextureImage@QBrush@@QEAAXAEBVQImage@@@Z"
"?setThemeName@QIcon@@SAXAEBVQString@@@Z"
"?setThemeName@QIconLoader@@QEAAXAEBVQString@@@Z"
"?setThemeSearchPath@QIconLoader@@QEAAXAEBV?$QList@VQString@@@@@Z"
"?setThemeSearchPaths@QIcon@@SAXAEBV?$QList@VQString@@@@@Z"
"?setTimestamp@QInputEvent@@UEAAX_K@Z"
"?setTimestamp@QMutableEventPoint@@SAXAEAVQEventPoint@@K@Z"
"?setTimestamp@QPointerEvent@@UEAAX_K@Z"
"?setTitle@QWindow@@QEAAXAEBVQString@@@Z"
"?setToIdentity@QMatrix4x4@@QEAAXXZ"
"?setToolTip@QAction@@QEAAXAEBVQString@@@Z"
"?setToolTip@QStandardItem@@QEAAXAEBVQString@@@Z"
"?setToolTip@QTextCharFormat@@QEAAXAEBVQString@@@Z"
"?setTop@QDoubleValidator@@QEAAXN@Z"
"?setTop@QIntValidator@@QEAAXH@Z"
"?setTopBorder@QTextTableCellFormat@@QEAAXN@Z"
"?setTopBorderBrush@QTextTableCellFormat@@QEAAXAEBVQBrush@@@Z"
"?setTopBorderStyle@QTextTableCellFormat@@QEAAXW4BorderStyle@QTextFrameFormat@@@Z"
"?setTopLevelScreen@QWindowPrivate@@QEAAXPEAVQScreen@@_N@Z"
"?setTopMargin@QPageLayout@@QEAA_NN@Z"
"?setTopMargin@QPageLayout@@QEAA_NNW4OutOfBoundsPolicy@1@@Z"
"?setTopMargin@QTextBlockFormat@@QEAAXN@Z"
"?setTopMargin@QTextFrameFormat@@QEAAXN@Z"
"?setTopPadding@QTextTableCellFormat@@QEAAXN@Z"
"?setTopology@QRhiGraphicsPipeline@@QEAAXW4Topology@1@@Z"
"?setTransferFunction@QColorSpace@@QEAAXAEBV?$QList@G@@@Z"
"?setTransferFunction@QColorSpace@@QEAAXW4TransferFunction@1@M@Z"
"?setTransferFunctions@QColorSpace@@QEAAXAEBV?$QList@G@@00@Z"
"?setTransform@QBrush@@QEAAXAEBVQTransform@@@Z"
"?setTransform@QPainter@@QEAAXAEBVQTransform@@_N@Z"
"?setTransformation@QImageWriter@@QEAAXV?$QFlags@W4Transformation@QImageIOHandler@@@@@Z"
"?setTransientParent@QWindow@@QEAAXPEAV1@@Z"
"?setTransientParent@QWindowPrivate@@QEAAXPEAVQWindow@@@Z"
"?setType@QPointingDevice@@QEAAXW4DeviceType@QInputDevice@@@Z"
"?setType@QRhiBuffer@@QEAAXW4Type@1@@Z"
"?setType@QRhiRenderBuffer@@QEAAXW4Type@1@@Z"
"?setType@QRhiShaderStage@@QEAAXW4Type@1@@Z"
"?setUnderline@QFont@@QEAAX_N@Z"
"?setUnderline@QGlyphRun@@QEAAX_N@Z"
"?setUnderlineColor@QTextCharFormat@@QEAAXAEBVQColor@@@Z"
"?setUnderlineStyle@QTextCharFormat@@QEAAXW4UnderlineStyle@1@@Z"
"?setUndoLimit@QUndoStack@@QEAAXH@Z"
"?setUndoRedoEnabled@QTextDocument@@QEAAX_N@Z"
"?setUniformCellHeights@QGridLayoutEngine@@QEAAX_N@Z"
"?setUniformCellWidths@QGridLayoutEngine@@QEAAX_N@Z"
"?setUniqueFamilyName@QWindowsFontEngineDirectWrite@@QEAAXAEBVQString@@@Z"
"?setUnits@QPageLayout@@QEAAXW4Unit@1@@Z"
"?setUrlHandler@QDesktopServices@@SAXAEBVQString@@PEAVQObject@@PEBD@Z"
"?setUsage@QRhiBuffer@@QEAAXV?$QFlags@W4UsageFlag@QRhiBuffer@@@@@Z"
"?setUseCompositing@QBasicDrag@@IEAAX_N@Z"
"?setUseDefaultNameFilters@QFileDialogOptions@@QEAAX_N@Z"
"?setUseDesignMetrics@QTextDocument@@QEAAX_N@Z"
"?setUseDesignMetrics@QTextOption@@QEAAX_N@Z"
"?setUseHoverEffects@QStyleHints@@QEAAX_N@Z"
"?setUserData@QStaticTextItem@@QEAAXPEAVQStaticTextUserData@@@Z"
"?setUserData@QTextBlock@@QEAAXPEAVQTextBlockUserData@@@Z"
"?setUserState@QTextBlock@@QEAAXH@Z"
"?setUserTristate@QStandardItem@@QEAAX_N@Z"
"?setValue@QAccessibleValueChangeEvent@@QEAAXAEBVQVariant@@@Z"
"?setValue@QInputMethodQueryEvent@@QEAAXW4InputMethodQuery@Qt@@AEBVQVariant@@@Z"
"?setVariableAxis@QFont@@QEAAXUTag@1@M@Z"
"?setVariableAxis@QFontPrivate@@QEAAXUTag@QFont@@M@Z"
"?setVector@QQuaternion@@QEAAXAEBVQVector3D@@@Z"
"?setVector@QQuaternion@@QEAAXMMM@Z"
"?setVersion@QShaderVersion@@QEAAXH@Z"
"?setVersion@QSurfaceFormat@@QEAAXHH@Z"
"?setVertexInput@QRhiCommandBuffer@@QEAAXHHPEBU?$pair@PEAVQRhiBuffer@@I@std@@PEAVQRhiBuffer@@IW4IndexFormat@1@@Z"
"?setVertexInputLayout@QRhiGraphicsPipeline@@QEAAXAEBVQRhiVertexInputLayout@@@Z"
"?setVerticalAlignment@QTextCharFormat@@QEAAXW4VerticalAlignment@1@@Z"
"?setVerticalHeaderItem@QStandardItemModel@@QEAAXHPEAVQStandardItem@@@Z"
"?setVerticalHeaderLabels@QStandardItemModel@@QEAAXAEBV?$QList@VQString@@@@@Z"
"?setVerticalMovementX@QTextCursor@@QEAAXH@Z"
"?setViewMode@QFileDialogOptions@@QEAAXW4ViewMode@1@@Z"
"?setViewTransformEnabled@QPainter@@QEAAX_N@Z"
"?setViewport@QPainter@@QEAAXAEBVQRect@@@Z"
"?setViewport@QPainter@@QEAAXHHHH@Z"
"?setViewport@QRhiCommandBuffer@@QEAAXAEBVQRhiViewport@@@Z"
"?setViewport@QRhiViewport@@QEAAXMMMM@Z"
"?setViewport@QTextDocumentLayout@@QEAAXAEBVQRectF@@@Z"
"?setViewportSize@QScrollPrepareEvent@@QEAAXAEBVQSizeF@@@Z"
"?setVisibility@QWindow@@QEAAXW4Visibility@1@@Z"
"?setVisible@QAction@@QEAAX_N@Z"
"?setVisible@QActionGroup@@QEAAX_N@Z"
"?setVisible@QActionPrivate@@QEAAX_N@Z"
"?setVisible@QInputMethod@@QEAAX_N@Z"
"?setVisible@QPlatformWindow@@UEAAX_N@Z"
"?setVisible@QTextBlock@@QEAAX_N@Z"
"?setVisible@QWindow@@QEAAX_N@Z"
"?setVisible@QWindowPrivate@@UEAAX_N@Z"
"?setVisualDirection@QGridLayoutEngine@@QEAAXW4LayoutDirection@Qt@@@Z"
"?setVisualNavigation@QTextCursor@@QEAAX_N@Z"
"?setWatching@QFileInfoGatherer@@QEAAX_N@Z"
"?setWeight@QFont@@QEAAXW4Weight@1@@Z"
"?setWhatsThis@QAction@@QEAAXAEBVQString@@@Z"
"?setWhatsThis@QShortcut@@QEAAXAEBVQString@@@Z"
"?setWhatsThis@QStandardItem@@QEAAXAEBVQString@@@Z"
"?setWheelScrollLines@QStyleHints@@QEAAXH@Z"
"?setWhitePoint@QColorSpace@@QEAAXVQPointF@@@Z"
"?setWidth@QPainterPathStroker@@QEAAXN@Z"
"?setWidth@QPen@@QEAAXH@Z"
"?setWidth@QTextFrameFormat@@QEAAXAEBVQTextLength@@@Z"
"?setWidth@QTextFrameFormat@@QEAAXN@Z"
"?setWidth@QTextImageFormat@@QEAAXN@Z"
"?setWidth@QTextInlineObject@@QEAAXN@Z"
"?setWidth@QWindow@@QEAAXH@Z"
"?setWidthF@QPen@@QEAAXN@Z"
"?setWindow@QBackingStoreRhiSupport@@QEAAXPEAVQWindow@@@Z"
"?setWindow@QPainter@@QEAAXAEBVQRect@@@Z"
"?setWindow@QPainter@@QEAAXHHHH@Z"
"?setWindow@QRhiSwapChain@@QEAAXPEAVQWindow@@@Z"
"?setWindowFilePath@QPlatformWindow@@UEAAXAEBVQString@@@Z"
"?setWindowFlags@QPlatformWindow@@UEAAXV?$QFlags@W4WindowType@Qt@@@@@Z"
"?setWindowIcon@QGuiApplication@@SAXAEBVQIcon@@@Z"
"?setWindowIcon@QPlatformWindow@@UEAAXAEBVQIcon@@@Z"
"?setWindowModified@QPlatformWindow@@UEAA_N_N@Z"
"?setWindowProperty@QPlatformNativeInterface@@UEAAXPEAVQPlatformWindow@@AEBVQString@@AEBVQVariant@@@Z"
"?setWindowState@QPlatformWindow@@UEAAXV?$QFlags@W4WindowState@Qt@@@@@Z"
"?setWindowState@QWindow@@QEAAXW4WindowState@Qt@@@Z"
"?setWindowStates@QWindow@@QEAAXV?$QFlags@W4WindowState@Qt@@@@@Z"
"?setWindowTitle@QColorDialogOptions@@QEAAXAEBVQString@@@Z"
"?setWindowTitle@QFileDialogOptions@@QEAAXAEBVQString@@@Z"
"?setWindowTitle@QFontDialogOptions@@QEAAXAEBVQString@@@Z"
"?setWindowTitle@QMessageDialogOptions@@QEAAXAEBVQString@@@Z"
"?setWindowTitle@QPlatformWindow@@UEAAXAEBVQString@@@Z"
"?setWordSpacing@QFont@@QEAAXN@Z"
"?setWorldMatrixEnabled@QPainter@@QEAAX_N@Z"
"?setWorldTransform@QPainter@@QEAAXAEBVQTransform@@_N@Z"
"?setWrapMode@QTextOption@@QEAAXW4WrapMode@1@@Z"
"?setWriteViewFormat@QRhiTexture@@QEAAXAEBUViewFormat@1@@Z"
"?setY@QWindow@@QEAAXH@Z"
"?setZ@QQuaternion@@QEAAXM@Z"
"?shader@QRhiShaderStage@@QEBA?AVQShader@@XZ"
"?shader@QShader@@QEBA?AVQShaderCode@@AEBVQShaderKey@@@Z"
"?shader@QShaderCode@@QEBA?AVQByteArray@@XZ"
"?shaderResourceBindings@QRhiComputePipeline@@QEBAPEAVQRhiShaderResourceBindings@@XZ"
"?shaderResourceBindings@QRhiGraphicsPipeline@@QEBAPEAVQRhiShaderResourceBindings@@XZ"
"?shaderStage@QRhiComputePipeline@@QEBA?AVQRhiShaderStage@@XZ"
"?shaderStageAt@QRhiGraphicsPipeline@@QEBAPEBVQRhiShaderStage@@_J@Z"
"?shaderStageCount@QRhiGraphicsPipeline@@QEBA_JXZ"
"?shaderVariant@QRhiShaderStage@@QEBA?AW4Variant@QShader@@XZ"
"?shadow@QPalette@@QEBAAEBVQBrush@@XZ"
"?shape@QCursor@@QEBA?AW4CursorShape@Qt@@XZ"
"?shape@QTextEngine@@QEBAXH@Z"
"?shape@QVectorPath@@QEBA?AW4Hint@1@XZ"
"?shapeLine@QTextEngine@@QEAAXAEBUQScriptLine@@@Z"
"?shapeText@QTextEngine@@AEBAXH@Z"
"?shapeTextWithHarfbuzzNG@QTextEngine@@AEBAHAEBUQScriptItem@@PEBGHPEAVQFontEngine@@V?$QSpan@I$0?0@@_N4AEBV?$QHash@UTag@QFont@@I@@@Z"
"?shapedGlyphs@QTextEngine@@QEBA?AUQGlyphLayout@@PEBUQScriptItem@@@Z"
"?shapedPixmapWindow@QBasicDrag@@IEBAPEAVQShapedPixmapWindow@@XZ"
"?shareContext@QOpenGLContext@@QEBAPEAV1@XZ"
"?shareGroup@QOpenGLContext@@QEBAPEAVQOpenGLContextGroup@@XZ"
"?shareHandle@QOpenGLContext@@QEBAPEAVQPlatformOpenGLContext@@XZ"
"?sharedPainter@QPaintDevice@@MEBAPEAVQPainter@@XZ"
"?shared_empty@QRegion@@0UQRegionData@1@B"
"?shares@QOpenGLContextGroup@@QEBA?AV?$QList@PEAVQOpenGLContext@@@@XZ"
"?shear@QPainter@@QEAAXNN@Z"
"?shear@QTransform@@QEAAAEAV1@NN@Z"
"?shifted@QBezier@@QEBAHPEAV1@HNM@Z"
"?shortcut@QAction@@QEBA?AVQKeySequence@@XZ"
"?shortcutContext@QAction@@QEBA?AW4ShortcutContext@Qt@@XZ"
"?shortcutId@QShortcutEvent@@QEBAHXZ"
"?shortcuts@QAction@@QEBA?AV?$QList@VQKeySequence@@@@XZ"
"?shouldDrawCachedGlyphs@QPaintEngineEx@@UEBA_NPEAVQFontEngine@@AEBVQTransform@@@Z"
"?shouldDrawCachedGlyphs@QRasterPaintEngine@@UEBA_NPEAVQFontEngine@@AEBVQTransform@@@Z"
"?shouldLoadFontEngineForCharacter@QFontEngineMulti@@MEBA_NHI@Z"
"?show@QInputMethod@@QEAAXXZ"
"?show@QWindow@@QEAAXXZ"
"?showEvent@QWindow@@MEAAXPEAVQShowEvent@@@Z"
"?showFullScreen@QWindow@@QEAAXXZ"
"?showInputPanel@QPlatformInputContext@@UEAAXXZ"
"?showIsFullScreen@QStyleHints@@QEBA_NXZ"
"?showIsMaximized@QStyleHints@@QEBA_NXZ"
"?showMaximized@QWindow@@QEAAXXZ"
"?showMenuAction@QAccessibleActionInterface@@SAAEBVQString@@XZ"
"?showMinimized@QWindow@@QEAAXXZ"
"?showModalWindow@QGuiApplicationPrivate@@SAXPEAVQWindow@@@Z"
"?showNormal@QWindow@@QEAAXXZ"
"?showPlatformMenuBar@QPlatformTheme@@UEAAXXZ"
"?showPopup@QPlatformMenu@@UEAAXPEBVQWindow@@AEBVQRect@@PEBVQPlatformMenuItem@@@Z"
"?showShortcutsInContextMenus@QStyleHints@@QEBA_NXZ"
"?showShortcutsInContextMenusChanged@QStyleHints@@QEAAX_N@Z"
"?showStatusText@QAction@@QEAA_NPEAVQObject@@@Z"
"?showStatusText@QActionPrivate@@QEAA_NPEAVQObject@@AEBVQString@@@Z"
"?sibling@QFileSystemModel@@UEBA?AVQModelIndex@@HHAEBV2@@Z"
"?sidebarUrls@QFileDialogOptions@@QEBA?AV?$QList@VQUrl@@@@XZ"
"?simpleContextMatcher@QShortcutPrivate@@SA_NPEAVQObject@@W4ShortcutContext@Qt@@@Z"
"?simplified@QPainterPath@@QEBA?AV1@XZ"
"?singleClickActivation@QStyleHints@@QEBA_NXZ"
"?size@QBackingStore@@QEBA?AVQSize@@XZ"
"?size@QBlittable@@QEBA?AVQSize@@XZ"
"?size@QFileSystemModel@@QEBA_JAEBVQModelIndex@@@Z"
"?size@QFileSystemModelPrivate@@QEBA?AVQString@@AEBVQModelIndex@@@Z"
"?size@QFileSystemModelPrivate@@SA?AVQString@@_J@Z"
"?size@QFontMetrics@@QEBA?AVQSize@@HAEBVQString@@HPEAH@Z"
"?size@QFontMetricsF@@QEBA?AVQSizeF@@HAEBVQString@@HPEAH@Z"
"?size@QImage@@QEBA?AVQSize@@XZ"
"?size@QImageReader@@QEBA?AVQSize@@XZ"
"?size@QOffscreenSurface@@UEBA?AVQSize@@XZ"
"?size@QPageSize@@QEBA?AVQSizeF@@W4Unit@1@@Z"
"?size@QPageSize@@SA?AVQSizeF@@W4PageSizeId@1@W4Unit@1@@Z"
"?size@QPicture@@QEBAIXZ"
"?size@QPixmap@@QEBA?AVQSize@@XZ"
"?size@QPlatformCursor@@UEBA?AVQSize@@XZ"
"?size@QPlatformGraphicsBuffer@@QEBA?AVQSize@@XZ"
"?size@QResizeEvent@@QEBAAEBVQSize@@XZ"
"?size@QRhiBuffer@@QEBAIXZ"
"?size@QScreen@@QEBA?AVQSize@@XZ"
"?size@QStaticText@@QEBA?AVQSizeF@@XZ"
"?size@QTextDocument@@QEBA?AVQSizeF@@XZ"
"?size@QTextureFileData@@QEBA?AVQSize@@XZ"
"?size@QWindow@@UEBA?AVQSize@@XZ"
"?sizeForMipLevel@QRhi@@SA?AVQSize@@HAEBV2@@Z"
"?sizeHint@QGridLayoutEngine@@QEBA?AVQSizeF@@W4SizeHint@Qt@@AEBV2@PEBVQAbstractLayoutStyleInfo@@@Z"
"?sizeHint@QStandardItem@@QEBA?AVQSize@@XZ"
"?sizeInBytes@QImage@@QEBA_JXZ"
"?sizeIncrement@QWindow@@QEBA?AVQSize@@XZ"
"?sizePixels@QPageSize@@QEBA?AVQSize@@H@Z"
"?sizePixels@QPageSize@@SA?AVQSize@@W4PageSizeId@1@H@Z"
"?sizePoints@QPageSize@@QEBA?AVQSize@@XZ"
"?sizePoints@QPageSize@@SA?AVQSize@@W4PageSizeId@1@@Z"
"?sizeValue@Declaration@QCss@@QEBA?AVQSize@@XZ"
"?sizeValue@ValueExtractor@QCss@@AEAA?AVQSize@@AEBUDeclaration@2@@Z"
"?sizeValues@ValueExtractor@QCss@@AEAAXAEBUDeclaration@2@PEAVQSize@@@Z"
"?skipSpace@Parser@QCss@@QEAAXXZ"
"?slerp@QQuaternion@@SA?AV1@AEBV1@0M@Z"
"?slopeAtPercent@QPainterPath@@QEBANN@Z"
"?slopeScaledDepthBias@QRhiGraphicsPipeline@@QEBAMXZ"
"?smallCapsFont@QFontPrivate@@QEBA?AVQFont@@XZ"
"?smallCapsFontPrivate@QFontPrivate@@QEBAPEAV1@XZ"
"?smoothScaled@QImage@@IEBA?AV1@HH@Z"
"?smoothSizes@QFontDatabase@@SA?AV?$QList@H@@AEBVQString@@0@Z"
"?sort@QFileSystemModel@@UEAAXHW4SortOrder@Qt@@@Z"
"?sort@QStandardItemModel@@UEAAXHW4SortOrder@Qt@@@Z"
"?sortChildren@QFileSystemModelPrivate@@QEAAXHAEBVQModelIndex@@@Z"
"?sortChildren@QStandardItem@@QEAAXHW4SortOrder@Qt@@@Z"
"?sortRole@QStandardItemModel@@QEBAHXZ"
"?source@QDrag@@QEBAPEAVQObject@@XZ"
"?source@QDragManager@@QEBAPEAVQObject@@XZ"
"?source@QDropEvent@@QEBAPEAVQObject@@XZ"
"?source@QMouseEvent@@QEBA?AW4MouseEventSource@Qt@@XZ"
"?source@QPlatformTextureList@@QEAAPEAXH@Z"
"?source@QShaderKey@@QEBA?AW4Source@QShader@@XZ"
"?source@QWheelEvent@@QEBA?AW4MouseEventSource@Qt@@XZ"
"?sourceLayer@QRhiTextureCopyDescription@@QEBAHXZ"
"?sourceLevel@QRhiTextureCopyDescription@@QEBAHXZ"
"?sourceSize@QRhiTextureSubresourceUploadDescription@@QEBA?AVQSize@@XZ"
"?sourceString@QGlyphRun@@QEBA?AVQString@@XZ"
"?sourceTopLeft@QRhiTextureCopyDescription@@QEBA?AVQPoint@@XZ"
"?sourceTopLeft@QRhiTextureSubresourceUploadDescription@@QEBA?AVQPoint@@XZ"
"?sourceVariant@QShaderKey@@QEBA?AW4Variant@QShader@@XZ"
"?sourceVersion@QShaderKey@@QEBA?AVQShaderVersion@@XZ"
"?spacing@QGridLayoutEngine@@QEBANW4Orientation@Qt@@PEBVQAbstractLayoutStyleInfo@@@Z"
"?spec@QColor@@QEBA?AW4Spec@1@XZ"
"?specificity@Selector@QCss@@QEBAHXZ"
"?speed@QMovie@@QEBAHXZ"
"?split@QBezier@@QEBA?AU?$pair@VQBezier@@V1@@std@@XZ"
"?split@QTextDocumentPrivate@@AEAA_NH@Z"
"?splitCell@QTextTable@@QEAAXHHHH@Z"
"?spread@QGradient@@QEBA?AW4Spread@1@XZ"
"?squareToQuad@QTransform@@SA_NAEBVQPolygonF@@AEAV1@@Z"
"?stacks@QUndoGroup@@QEBA?AV?$QList@PEAVQUndoStack@@@@XZ"
"?stage@QShader@@QEBA?AW4Stage@1@XZ"
"?standardButtonShortcut@QPlatformTheme@@UEBA?AVQKeySequence@@H@Z"
"?standardButtonText@QPlatformTheme@@UEBA?AVQString@@H@Z"
"?standardButtons@QMessageDialogOptions@@QEBA?AV?$QFlags@W4StandardButton@QPlatformDialogHelper@@@@XZ"
"?standardColor@QColorDialogOptions@@SAIH@Z"
"?standardColors@QColorDialogOptions@@SAPEAIXZ"
"?standardIcon@QMessageDialogOptions@@QEBA?AW4StandardIcon@1@XZ"
"?standardPixmap@QPlatformTheme@@UEBA?AVQPixmap@@W4StandardPixmap@1@AEBVQSizeF@@@Z"
"?standardSizes@QFontDatabase@@SA?AV?$QList@H@@XZ"
"?standardSizes@QPlatformFontDatabase@@UEBA?AV?$QList@H@@XZ"
"?start@QLinearGradient@@QEBA?AVQPointF@@XZ"
"?start@QMovie@@QEAAXXZ"
"?start@QTextListFormat@@QEBAHXZ"
"?startDrag@QBasicDrag@@MEAAXXZ"
"?startDrag@QSimpleDrag@@MEAAXXZ"
"?startDragDistance@QStyleHints@@QEBAHXZ"
"?startDragDistanceChanged@QStyleHints@@QEAAXH@Z"
"?startDragTime@QStyleHints@@QEBAHXZ"
"?startDragTimeChanged@QStyleHints@@QEAAXH@Z"
"?startDragVelocity@QStyleHints@@QEBAHXZ"
"?startNormalizedPos@QEventPoint@@QEBA?AVQPointF@@XZ"
"?startPos@QEventPoint@@QEBA?AVQPointF@@XZ"
"?startPos@QScrollPrepareEvent@@QEBA?AVQPointF@@XZ"
"?startScenePos@QEventPoint@@QEBA?AVQPointF@@XZ"
"?startScreenPos@QEventPoint@@QEBA?AVQPointF@@XZ"
"?startSystemMove@QPlatformWindow@@UEAA_NXZ"
"?startSystemMove@QWindow@@QEAA_NXZ"
"?startSystemResize@QPlatformWindow@@UEAA_NV?$QFlags@W4Edge@Qt@@@@@Z"
"?startSystemResize@QWindow@@QEAA_NV?$QFlags@W4Edge@Qt@@@@@Z"
"?startTangent@QBezier@@QEBA?AVQLineF@@XZ"
"?started@QMovie@@QEAAXXZ"
"?state@QAccessibleApplication@@UEBA?AUState@QAccessible@@XZ"
"?state@QEventPoint@@QEBA?AW4State@1@XZ"
"?state@QMovie@@QEBA?AW4MovieState@1@XZ"
"?state@QPaintEngineEx@@QEAAPEAVQPainterState@@XZ"
"?state@QPaintEngineEx@@QEBAPEBVQPainterState@@XZ"
"?state@QPaintEngineState@@QEBA?AV?$QFlags@W4DirtyFlag@QPaintEngine@@@@XZ"
"?state@QRasterPaintEngine@@QEAAPEAVQRasterPaintEngineState@@XZ"
"?state@QRasterPaintEngine@@QEBAPEBVQRasterPaintEngineState@@XZ"
"?state@QShortcutMap@@QEAA?AW4SequenceMatch@QKeySequence@@XZ"
"?stateChanged@QMovie@@QEAAXW4MovieState@1@@Z"
"?staticContents@QBackingStore@@QEBA?AVQRegion@@XZ"
"?staticMetaObject@QAbstractTextDocumentLayout@@2UQMetaObject@@B" DATA
"?staticMetaObject@QAccessible@@2UQMetaObject@@B" DATA
"?staticMetaObject@QAccessibleBridgePlugin@@2UQMetaObject@@B" DATA
"?staticMetaObject@QAccessibleCache@@2UQMetaObject@@B" DATA
"?staticMetaObject@QAccessiblePlugin@@2UQMetaObject@@B" DATA
"?staticMetaObject@QAction@@2UQMetaObject@@B" DATA
"?staticMetaObject@QActionGroup@@2UQMetaObject@@B" DATA
"?staticMetaObject@QClipboard@@2UQMetaObject@@B" DATA
"?staticMetaObject@QColorDialogOptions@@2UQMetaObject@@B" DATA
"?staticMetaObject@QColorSpace@@2UQMetaObject@@B" DATA
"?staticMetaObject@QDoubleValidator@@2UQMetaObject@@B" DATA
"?staticMetaObject@QDrag@@2UQMetaObject@@B" DATA
"?staticMetaObject@QDragManager@@2UQMetaObject@@B" DATA
"?staticMetaObject@QEventPoint@@2UQMetaObject@@B" DATA
"?staticMetaObject@QFileDialogOptions@@2UQMetaObject@@B" DATA
"?staticMetaObject@QFileInfoGatherer@@2UQMetaObject@@B" DATA
"?staticMetaObject@QFileSystemModel@@2UQMetaObject@@B" DATA
"?staticMetaObject@QFont@@2UQMetaObject@@B" DATA
"?staticMetaObject@QFontDatabase@@2UQMetaObject@@B" DATA
"?staticMetaObject@QFontDialogOptions@@2UQMetaObject@@B" DATA
"?staticMetaObject@QGenericPlugin@@2UQMetaObject@@B" DATA
"?staticMetaObject@QGradient@@2UQMetaObject@@B" DATA
"?staticMetaObject@QGuiApplication@@2UQMetaObject@@B" DATA
"?staticMetaObject@QHighDpiScaling@@2UQMetaObject@@B" DATA
"?staticMetaObject@QIconEnginePlugin@@2UQMetaObject@@B" DATA
"?staticMetaObject@QImage@@2UQMetaObject@@B" DATA
"?staticMetaObject@QImageIOPlugin@@2UQMetaObject@@B" DATA
"?staticMetaObject@QInputControl@@2UQMetaObject@@B" DATA
"?staticMetaObject@QInputDevice@@2UQMetaObject@@B" DATA
"?staticMetaObject@QInputDeviceManager@@2UQMetaObject@@B" DATA
"?staticMetaObject@QInputMethod@@2UQMetaObject@@B" DATA
"?staticMetaObject@QIntValidator@@2UQMetaObject@@B" DATA
"?staticMetaObject@QInternalMimeData@@2UQMetaObject@@B" DATA
"?staticMetaObject@QKeyMapper@@2UQMetaObject@@B" DATA
"?staticMetaObject@QKeySequence@@2UQMetaObject@@B" DATA
"?staticMetaObject@QLayoutPolicy@@2UQMetaObject@@B" DATA
"?staticMetaObject@QMessageDialogOptions@@2UQMetaObject@@B" DATA
"?staticMetaObject@QMovie@@2UQMetaObject@@B" DATA
"?staticMetaObject@QOffscreenSurface@@2UQMetaObject@@B" DATA
"?staticMetaObject@QOpenGLContext@@2UQMetaObject@@B" DATA
"?staticMetaObject@QOpenGLContextGroup@@2UQMetaObject@@B" DATA
"?staticMetaObject@QPaintDeviceWindow@@2UQMetaObject@@B" DATA
"?staticMetaObject@QPainter@@2UQMetaObject@@B" DATA
"?staticMetaObject@QPalette@@2UQMetaObject@@B" DATA
"?staticMetaObject@QPlatformBackingStoreRhiConfig@@2UQMetaObject@@B" DATA
"?staticMetaObject@QPlatformColorDialogHelper@@2UQMetaObject@@B" DATA
"?staticMetaObject@QPlatformDialogHelper@@2UQMetaObject@@B" DATA
"?staticMetaObject@QPlatformFileDialogHelper@@2UQMetaObject@@B" DATA
"?staticMetaObject@QPlatformFontDialogHelper@@2UQMetaObject@@B" DATA
"?staticMetaObject@QPlatformGraphicsBuffer@@2UQMetaObject@@B" DATA
"?staticMetaObject@QPlatformInputContext@@2UQMetaObject@@B" DATA
"?staticMetaObject@QPlatformInputContextPlugin@@2UQMetaObject@@B" DATA
"?staticMetaObject@QPlatformIntegrationPlugin@@2UQMetaObject@@B" DATA
"?staticMetaObject@QPlatformMenu@@2UQMetaObject@@B" DATA
"?staticMetaObject@QPlatformMenuBar@@2UQMetaObject@@B" DATA
"?staticMetaObject@QPlatformMenuItem@@2UQMetaObject@@B" DATA
"?staticMetaObject@QPlatformMessageDialogHelper@@2UQMetaObject@@B" DATA
"?staticMetaObject@QPlatformNativeInterface@@2UQMetaObject@@B" DATA
"?staticMetaObject@QPlatformScreen@@2UQMetaObject@@B" DATA
"?staticMetaObject@QPlatformServiceColorPicker@@2UQMetaObject@@B" DATA
"?staticMetaObject@QPlatformSharedGraphicsCache@@2UQMetaObject@@B" DATA
"?staticMetaObject@QPlatformSystemTrayIcon@@2UQMetaObject@@B" DATA
"?staticMetaObject@QPlatformTextureList@@2UQMetaObject@@B" DATA
"?staticMetaObject@QPlatformTheme@@2UQMetaObject@@B" DATA
"?staticMetaObject@QPlatformThemePlugin@@2UQMetaObject@@B" DATA
"?staticMetaObject@QPointerEvent@@2UQMetaObject@@B" DATA
"?staticMetaObject@QPointingDevice@@2UQMetaObject@@B" DATA
"?staticMetaObject@QPointingDeviceUniqueId@@2UQMetaObject@@B" DATA
"?staticMetaObject@QRasterWindow@@2UQMetaObject@@B" DATA
"?staticMetaObject@QRegularExpressionValidator@@2UQMetaObject@@B" DATA
"?staticMetaObject@QScreen@@2UQMetaObject@@B" DATA
"?staticMetaObject@QSessionManager@@2UQMetaObject@@B" DATA
"?staticMetaObject@QShortcut@@2UQMetaObject@@B" DATA
"?staticMetaObject@QSinglePointEvent@@2UQMetaObject@@B" DATA
"?staticMetaObject@QStandardItemModel@@2UQMetaObject@@B" DATA
"?staticMetaObject@QStyleHints@@2UQMetaObject@@B" DATA
"?staticMetaObject@QSurface@@2UQMetaObject@@B" DATA
"?staticMetaObject@QSurfaceFormat@@2UQMetaObject@@B" DATA
"?staticMetaObject@QSyntaxHighlighter@@2UQMetaObject@@B" DATA
"?staticMetaObject@QTextBlockGroup@@2UQMetaObject@@B" DATA
"?staticMetaObject@QTextDocument@@2UQMetaObject@@B" DATA
"?staticMetaObject@QTextDocumentLayout@@2UQMetaObject@@B" DATA
"?staticMetaObject@QTextFormat@@2UQMetaObject@@B" DATA
"?staticMetaObject@QTextFrame@@2UQMetaObject@@B" DATA
"?staticMetaObject@QTextImageHandler@@2UQMetaObject@@B" DATA
"?staticMetaObject@QTextList@@2UQMetaObject@@B" DATA
"?staticMetaObject@QTextObject@@2UQMetaObject@@B" DATA
"?staticMetaObject@QTextTable@@2UQMetaObject@@B" DATA
"?staticMetaObject@QUndoGroup@@2UQMetaObject@@B" DATA
"?staticMetaObject@QUndoStack@@2UQMetaObject@@B" DATA
"?staticMetaObject@QValidator@@2UQMetaObject@@B" DATA
"?staticMetaObject@QWheelEvent@@2UQMetaObject@@B" DATA
"?staticMetaObject@QWindow@@2UQMetaObject@@B" DATA
"?staticMetaObject@QWindowsGuiEventDispatcher@@2UQMetaObject@@B" DATA
"?stationary@QTouchEventSequence@QTest@@UEAAAEAV12@H@Z"
"?stationaryYPoints@QBezier@@QEBAHAEAN0@Z"
"?statistics@QRhi@@QEBA?AUQRhiStats@@XZ"
"?statusTip@QAction@@QEBA?AVQString@@XZ"
"?statusTip@QStandardItem@@QEBA?AVQString@@XZ"
"?stencilBack@QRhiGraphicsPipeline@@QEBA?AUStencilOpState@1@XZ"
"?stencilBufferSize@QSurfaceFormat@@QEBAHXZ"
"?stencilClearValue@QRhiDepthStencilClearValue@@QEBAIXZ"
"?stencilFront@QRhiGraphicsPipeline@@QEBA?AUStencilOpState@1@XZ"
"?stencilReadMask@QRhiGraphicsPipeline@@QEBAIXZ"
"?stencilWriteMask@QRhiGraphicsPipeline@@QEBAIXZ"
"?stereo@QSurfaceFormat@@QEBA_NXZ"
"?stop@QMovie@@QEAAXXZ"
"?stops@QGradient@@QEBA?AV?$QList@U?$pair@NVQColor@@@std@@@@XZ"
"?storageBlocks@QShaderDescription@@QEBA?AV?$QList@UStorageBlock@QShaderDescription@@@@XZ"
"?storageImages@QShaderDescription@@QEBA?AV?$QList@UInOutVariable@QShaderDescription@@@@XZ"
"?stretch@QFont@@QEBAHXZ"
"?stretchFactor@QGridLayoutItem@@QEBAHW4Orientation@Qt@@@Z"
"?stride@QRhiVertexInputBinding@@QEBAIXZ"
"?strikeOut@QFont@@QEBA_NXZ"
"?strikeOut@QFontInfo@@QEBA_NXZ"
"?strikeOut@QGlyphRun@@QEBA_NXZ"
"?strikeOutPos@QFontMetrics@@QEBAHXZ"
"?strikeOutPos@QFontMetricsF@@QEBANXZ"
"?stringIndexes@QGlyphRun@@QEBA?AV?$QList@_J@@XZ"
"?stringProperty@QTextFormat@@QEBA?AVQString@@H@Z"
"?stringToCMap@QFontEngineMulti@@UEBAHPEBVQChar@@HPEAUQGlyphLayout@@PEAHV?$QFlags@W4ShaperFlag@QFontEngine@@@@@Z"
"?stringToCMap@QWindowsFontEngineDirectWrite@@UEBAHPEBVQChar@@HPEAUQGlyphLayout@@PEAHV?$QFlags@W4ShaperFlag@QFontEngine@@@@@Z"
"?stroke@QBlitterPaintEngine@@UEAAXAEBVQVectorPath@@AEBVQPen@@@Z"
"?stroke@QPaintEngineEx@@UEAAXAEBVQVectorPath@@AEBVQPen@@@Z"
"?stroke@QRasterPaintEngine@@UEAAXAEBVQVectorPath@@AEBVQPen@@@Z"
"?strokeEllipse@QStrokerOps@@QEAAXAEBVQRectF@@PEAXAEBVQTransform@@@Z"
"?strokePath@QPainter@@QEAAXAEBVQPainterPath@@AEBVQPen@@@Z"
"?strokePath@QStrokerOps@@QEAAXAEBVQPainterPath@@PEAXAEBVQTransform@@@Z"
"?strokePolygon@QStrokerOps@@QEAAXPEBVQPointF@@H_NPEAXAEBVQTransform@@@Z"
"?strokeWidth@QStroker@@QEBANXZ"
"?stroker@QDashStroker@@QEBAPEAVQStroker@@XZ"
"?style@QBrush@@QEBA?AW4BrushStyle@Qt@@XZ"
"?style@QFont@@QEBA?AW4Style@1@XZ"
"?style@QFontInfo@@QEBA?AW4Style@QFont@@XZ"
"?style@QPen@@QEBA?AW4PenStyle@Qt@@XZ"
"?style@QRawFont@@QEBA?AW4Style@QFont@@XZ"
"?style@QTextListFormat@@QEBA?AW4Style@1@XZ"
"?style@QtFontFoundry@@QEAAPEAUQtFontStyle@@AEBUKey@2@AEBVQString@@_N@Z"
"?styleFeaturesValue@Declaration@QCss@@QEBAHXZ"
"?styleHint@QFont@@QEBA?AW4StyleHint@1@XZ"
"?styleHint@QFontInfo@@QEBA?AW4StyleHint@QFont@@XZ"
"?styleHint@QPlatformDialogHelper@@UEBA?AVQVariant@@W4StyleHint@1@@Z"
"?styleHint@QPlatformIntegration@@UEBA?AVQVariant@@W4StyleHint@1@@Z"
"?styleHints@QGuiApplication@@SAPEAVQStyleHints@@XZ"
"?styleHints@QGuiApplicationPrivate@@2PEAVQStyleHints@@EA"
"?styleName@QFont@@QEBA?AVQString@@XZ"
"?styleName@QFontInfo@@QEBA?AVQString@@XZ"
"?styleName@QRawFont@@QEBA?AVQString@@XZ"
"?styleOverride@QGuiApplicationPrivate@@2VQString@@A"
"?styleRulesForNode@StyleSelector@QCss@@QEAA?AV?$QList@UStyleRule@QCss@@@@TNodePtr@12@@Z"
"?styleStrategy@QFont@@QEBA?AW4StyleStrategy@1@XZ"
"?styleString@QFontDatabase@@SA?AVQString@@AEBVQFont@@@Z"
"?styleString@QFontDatabase@@SA?AVQString@@AEBVQFontInfo@@@Z"
"?styleValue@Declaration@QCss@@QEBA?AW4BorderStyle@2@XZ"
"?styleValues@Declaration@QCss@@QEBAXPEAW4BorderStyle@2@@Z"
"?styles@QFontDatabase@@SA?AV?$QList@VQString@@@@AEBVQString@@@Z"
"?subPixelPositionFor@QFontEngine@@UEBA?AUQFixedPoint@@AEBU2@@Z"
"?subPixelPositionForX@QFontEngine@@QEBA?AUQFixed@@U2@@Z"
"?subScriptBaseline@QTextCharFormat@@QEBANXZ"
"?subScriptBaseline@QTextDocument@@QEBANXZ"
"?subType@QImageReader@@QEBA?AVQByteArray@@XZ"
"?subType@QImageWriter@@QEBA?AVQByteArray@@XZ"
"?subpixelAntialiasingTypeHint@QPlatformScreen@@UEBA?AW4SubpixelAntialiasingType@1@XZ"
"?substitute@QFont@@SA?AVQString@@AEBV2@@Z"
"?substitutes@QFont@@SA?AV?$QList@VQString@@@@AEBVQString@@@Z"
"?substitutions@QFont@@SA?AV?$QList@VQString@@@@XZ"
"?subtracted@QPainterPath@@QEBA?AV1@AEBV1@@Z"
"?subtracted@QPolygon@@QEBA?AV1@AEBV1@@Z"
"?subtracted@QPolygonF@@QEBA?AV1@AEBV1@@Z"
"?subtracted@QRegion@@QEBA?AV1@AEBV1@@Z"
"?superScriptBaseline@QTextCharFormat@@QEBANXZ"
"?superScriptBaseline@QTextDocument@@QEBANXZ"
"?supported@QSupportedWritingSystems@@QEBA_NW4WritingSystem@QFontDatabase@@@Z"
"?supportedActions@QDrag@@QEBA?AV?$QFlags@W4DropAction@Qt@@@@XZ"
"?supportedDocumentFormats@QTextDocumentWriter@@SA?AV?$QList@VQByteArray@@@@XZ"
"?supportedDropActions@QFileSystemModel@@UEBA?AV?$QFlags@W4DropAction@Qt@@@@XZ"
"?supportedDropActions@QStandardItemModel@@UEBA?AV?$QFlags@W4DropAction@Qt@@@@XZ"
"?supportedFileFormats@QTextureFileReader@@SA?AV?$QList@VQByteArray@@@@XZ"
"?supportedFormats@QMovie@@SA?AV?$QList@VQByteArray@@@@XZ"
"?supportedImageFormats@QImageReader@@SA?AV?$QList@VQByteArray@@@@XZ"
"?supportedImageFormats@QImageWriter@@SA?AV?$QList@VQByteArray@@@@XZ"
"?supportedMimeTypes@QImageReader@@SA?AV?$QList@VQByteArray@@@@XZ"
"?supportedMimeTypes@QImageWriter@@SA?AV?$QList@VQByteArray@@@@XZ"
"?supportedSampleCounts@QRhi@@QEBA?AV?$QList@H@@XZ"
"?supportedSchemes@QFileDialogOptions@@QEBA?AV?$QList@VQString@@@@XZ"
"?supportedSubTypes@QImageReader@@QEBA?AV?$QList@VQByteArray@@@@XZ"
"?supportedSubTypes@QImageWriter@@QEBA?AV?$QList@VQByteArray@@@@XZ"
"?supportedWritingSystems@QRawFont@@QEBA?AV?$QList@W4WritingSystem@QFontDatabase@@@@XZ"
"?supportedWritingSystems@QWindowsDirectWriteFontDatabase@@AEBA?AVQSupportedWritingSystems@@PEAUIDWriteFontFace@@@Z"
"?supportsAnimation@QImageReader@@QEBA_NXZ"
"?supportsCharacter@QRawFont@@QEBA_NI@Z"
"?supportsCharacter@QRawFont@@QEBA_NVQChar@@@Z"
"?supportsFindBuffer@QClipboard@@QEBA_NXZ"
"?supportsHorizontalSubPixelPositions@QFontEngine@@UEBA_NXZ"
"?supportsHorizontalSubPixelPositions@QWindowsFontEngineDirectWrite@@UEBA_NXZ"
"?supportsMode@QClipboard@@AEBA_NW4Mode@1@@Z"
"?supportsMode@QPlatformClipboard@@UEBA_NW4Mode@QClipboard@@@Z"
"?supportsOpenGL@QSurface@@QEBA_NXZ"
"?supportsOption@QImageIOHandler@@UEBA_NW4ImageOption@1@@Z"
"?supportsOption@QImageReader@@QEBA_NW4ImageOption@QImageIOHandler@@@Z"
"?supportsOption@QImageWriter@@QEBA_NW4ImageOption@QImageIOHandler@@@Z"
"?supportsScript@QFontEngine@@QEBA_NW4Script@QChar@@@Z"
"?supportsSelection@QClipboard@@QEBA_NXZ"
"?supportsSubPixelPositions@QFontEngine@@QEBA_NXZ"
"?supportsThreadedOpenGL@QOpenGLContext@@SA_NXZ"
"?supportsTransformation@QFontEngine@@UEBA_NAEBVQTransform@@@Z"
"?supportsVariableApplicationFonts@QPlatformFontDatabase@@UEBA_NXZ"
"?supportsVariableApplicationFonts@QWindowsDirectWriteFontDatabase@@UEBA_NXZ"
"?supportsVerticalSubPixelPositions@QFontEngine@@UEBA_NXZ"
"?surface@QOpenGLContext@@QEBAPEAVQSurface@@XZ"
"?surface@QPlatformSurface@@QEBAPEAVQSurface@@XZ"
"?surfaceClass@QSurface@@QEBA?AW4SurfaceClass@1@XZ"
"?surfaceEventType@QPlatformSurfaceEvent@@QEBA?AW4SurfaceEventType@1@XZ"
"?surfaceHandle@QOffscreenSurface@@EEBAPEAVQPlatformSurface@@XZ"
"?surfaceHandle@QWindow@@EEBAPEAVQPlatformSurface@@XZ"
"?surfaceType@QOffscreenSurface@@UEBA?AW4SurfaceType@QSurface@@XZ"
"?surfaceType@QWindow@@UEBA?AW4SurfaceType@QSurface@@XZ"
"?surfaceTypeForConfig@QBackingStoreRhiSupport@@SA?AW4SurfaceType@QSurface@@AEBUQPlatformBackingStoreRhiConfig@@@Z"
"?swap@Key@QPixmapCache@@QEAAXAEAV12@@Z"
"?swap@QBitmap@@QEAAXAEAV1@@Z"
"?swap@QBrush@@QEAAXAEAV1@@Z"
"?swap@QColorSpace@@QEAAXAEAV1@@Z"
"?swap@QCursor@@QEAAXAEAV1@@Z"
"?swap@QEventPoint@@QEAAXAEAV1@@Z"
"?swap@QFont@@QEAAXAEAV1@@Z"
"?swap@QFontInfo@@QEAAXAEAV1@@Z"
"?swap@QFontMetrics@@QEAAXAEAV1@@Z"
"?swap@QFontMetricsF@@QEAAXAEAV1@@Z"
"?swap@QGlyphRun@@QEAAXAEAV1@@Z"
"?swap@QIcon@@QEAAXAEAV1@@Z"
"?swap@QImage@@QEAAXAEAV1@@Z"
"?swap@QKeySequence@@QEAAXAEAV1@@Z"
"?swap@QPageLayout@@QEAAXAEAV1@@Z"
"?swap@QPageRanges@@QEAAXAEAV1@@Z"
"?swap@QPageSize@@QEAAXAEAV1@@Z"
"?swap@QPainterPath@@QEAAXAEAV1@@Z"
"?swap@QPalette@@QEAAXAEAV1@@Z"
"?swap@QPen@@QEAAXAEAV1@@Z"
"?swap@QPicture@@QEAAXAEAV1@@Z"
"?swap@QPixmap@@QEAAXAEAV1@@Z"
"?swap@QRawFont@@QEAAXAEAV1@@Z"
"?swap@QRegion@@QEAAXAEAV1@@Z"
"?swap@QShader@@QEAAXAEAV1@@Z"
"?swap@QStaticText@@QEAAXAEAV1@@Z"
"?swap@QTextCursor@@QEAAXAEAV1@@Z"
"?swap@QTextFormat@@QEAAXAEAV1@@Z"
"?swapBehavior@QSurfaceFormat@@QEBA?AW4SwapBehavior@1@XZ"
"?swapBuffers@QOpenGLContext@@QEAAXPEAVQSurface@@@Z"
"?swapChain@QRhiSwapChainRenderTarget@@QEBAPEAVQRhiSwapChain@@XZ"
"?swapChainForWindow@QBackingStoreRhiSupport@@QEAAPEAVQRhiSwapChain@@PEAVQWindow@@@Z"
"?swapInterval@QSurfaceFormat@@QEBAHXZ"
"?symbol@Parser@QCss@@QEBAAEBUSymbol@2@XZ"
"?sync@QGuiApplication@@SAXXZ"
"?sync@QPaintEngineEx@@UEAAXXZ"
"?sync@QPlatformIntegration@@UEAAXXZ"
"?syncState@QPaintEngine@@QEAAXXZ"
"?synchronousWindowSystemEvents@QWindowSystemInterfacePrivate@@2_NA"
"?synthesized@QFontEngine@@UEBAHXZ"
"?systemClip@QPaintEngine@@QEBA?AVQRegion@@XZ"
"?systemDefaultFont@QWindowsFontDatabaseBase@@SA?AVQFont@@XZ"
"?systemFont@QFontDatabase@@SA?AVQFont@@W4SystemFont@1@@Z"
"?systemFont@QWindowsFontDatabaseBase@@SAPEAUHFONT__@@XZ"
"?systemFormat@QWindowsNativeImage@@SA?AW4Format@QImage@@XZ"
"?systemId@QInputDevice@@QEBA_JXZ"
"?systemNativeFormat@QRasterPlatformPixmap@@KA?AW4Format@QImage@@XZ"
"?systemRect@QPaintEngine@@QEBA?AVQRect@@XZ"
"?systemStateChanged@QPaintEnginePrivate@@UEAAXXZ"
"?tAtLength@QBezier@@QEBANN@Z"
"?tForY@QBezier@@QEBANNNN@Z"
"?tabArray@QTextOption@@QEBA?AV?$QList@N@@XZ"
"?tabFocusBehavior@QStyleHints@@QEBA?AW4TabFocusBehavior@Qt@@XZ"
"?tabFocusBehaviorChanged@QStyleHints@@QEAAXW4TabFocusBehavior@Qt@@@Z"
"?tabPositions@QTextBlockFormat@@QEBA?AV?$QList@UTab@QTextOption@@@@XZ"
"?tabStopDistance@QTextOption@@QEBANXZ"
"?table@QColorTrc@@QEBAAEBVQColorTransferTable@@XZ"
"?tableBoundingRect@QTextDocumentLayout@@QEBA?AVQRectF@@PEAVQTextTable@@@Z"
"?tableCellBoundingRect@QTextDocumentLayout@@QEBA?AVQRectF@@PEAVQTextTable@@AEBVQTextTableCell@@@Z"
"?tableCellColumnSpan@QTextCharFormat@@QEBAHXZ"
"?tableCellFormatIndex@QTextTableCell@@QEBAHXZ"
"?tableCellInterface@QAccessibleInterface@@QEAAPEAVQAccessibleTableCellInterface@@XZ"
"?tableCellRowSpan@QTextCharFormat@@QEBAHXZ"
"?tableFormat@QTextFormatCollection@@QEBA?AVQTextTableFormat@@H@Z"
"?tableInterface@QAccessibleInterface@@QEAAPEAVQAccessibleTableInterface@@XZ"
"?tabletDevice@QPointingDevicePrivate@@SAPEBVQPointingDevice@@W4DeviceType@QInputDevice@@W4PointerType@2@VQPointingDeviceUniqueId@@@Z"
"?tabletDevicePoint@QGuiApplicationPrivate@@SAAEAUTabletPointData@1@_J@Z"
"?tabletDevicePoints@QGuiApplicationPrivate@@2V?$QList@UTabletPointData@QGuiApplicationPrivate@@@@A"
"?tabletEvent@QWindow@@MEAAXPEAVQTabletEvent@@@Z"
"?tabs@QTextOption@@QEBA?AV?$QList@UTab@QTextOption@@@@XZ"
"?tag@QPlatformMenu@@UEBA_KXZ"
"?tag@QPlatformMenuItem@@UEBA_KXZ"
"?takeChild@QStandardItem@@QEAAPEAV1@HH@Z"
"?takeColumn@QStandardItem@@QEAA?AV?$QList@PEAVQStandardItem@@@@H@Z"
"?takeColumn@QStandardItemModel@@QEAA?AV?$QList@PEAVQStandardItem@@@@H@Z"
"?takeHorizontalHeaderItem@QStandardItemModel@@QEAAPEAVQStandardItem@@H@Z"
"?takeItem@QStandardItemModel@@QEAAPEAVQStandardItem@@HH@Z"
"?takeRow@QStandardItem@@QEAA?AV?$QList@PEAVQStandardItem@@@@H@Z"
"?takeRow@QStandardItemModel@@QEAA?AV?$QList@PEAVQStandardItem@@@@H@Z"
"?takeVerticalHeaderItem@QStandardItemModel@@QEAAPEAVQStandardItem@@H@Z"
"?tangentialPressure@QTabletEvent@@QEBANXZ"
"?target@QDrag@@QEBAPEAVQObject@@XZ"
"?target@QTouchEvent@@QEBAPEAVQObject@@XZ"
"?targetBlendAt@QRhiGraphicsPipeline@@QEBAPEBUTargetBlend@1@_J@Z"
"?targetBlendCount@QRhiGraphicsPipeline@@QEBA_JXZ"
"?targetChanged@QDrag@@QEAAXPEAVQObject@@@Z"
"?tessellationMode@QShaderDescription@@QEBA?AW4TessellationMode@1@XZ"
"?tessellationOutputVertexCount@QShaderDescription@@QEBAIXZ"
"?tessellationPartitioning@QShaderDescription@@QEBA?AW4TessellationPartitioning@1@XZ"
"?tessellationWindingOrder@QShaderDescription@@QEBA?AW4TessellationWindingOrder@1@XZ"
"?test@Parser@QCss@@QEAA_NW4TokenType@2@@Z"
"?testAndParseUri@Parser@QCss@@QEAA_NPEAVQString@@@Z"
"?testAttrib@Parser@QCss@@QEAA_NXZ"
"?testClass@Parser@QCss@@QEAA_NXZ"
"?testCombinator@Parser@QCss@@QEAA_NXZ"
"?testDirty@QPaintEngine@@QEAA_NV?$QFlags@W4DirtyFlag@QPaintEngine@@@@@Z"
"?testElementName@Parser@QCss@@QEAA_NXZ"
"?testExpr@Parser@QCss@@QEAA_NXZ"
"?testFunction@Parser@QCss@@QEAA_NXZ"
"?testHexColor@Parser@QCss@@QEAA_NXZ"
"?testImport@Parser@QCss@@QEAA_NXZ"
"?testMedia@Parser@QCss@@QEAA_NXZ"
"?testMedium@Parser@QCss@@QEAA_NXZ"
"?testOption@QColorDialogOptions@@QEBA_NW4ColorDialogOption@1@@Z"
"?testOption@QFileDialogOptions@@QEBA_NW4FileDialogOption@1@@Z"
"?testOption@QFileSystemModel@@QEBA_NW4Option@1@@Z"
"?testOption@QFontDialogOptions@@QEBA_NW4FontDialogOption@1@@Z"
"?testOption@QMessageDialogOptions@@QEBA_NW4Option@1@@Z"
"?testOption@QSurfaceFormat@@QEBA_NW4FormatOption@1@@Z"
"?testPage@Parser@QCss@@QEAA_NXZ"
"?testPrio@Parser@QCss@@QEAA_NXZ"
"?testProperty@Parser@QCss@@QEAA_NXZ"
"?testPseudo@Parser@QCss@@QEAA_NXZ"
"?testPseudoPage@Parser@QCss@@QEAA_NXZ"
"?testRenderHint@QPainter@@QEBA_NW4RenderHint@1@@Z"
"?testRuleset@Parser@QCss@@QEAA_NXZ"
"?testSelector@Parser@QCss@@QEAA_NXZ"
"?testSimpleSelector@Parser@QCss@@QEAA_NXZ"
"?testTerm@Parser@QCss@@QEAA_NXZ"
"?testTokenAndEndsWith@Parser@QCss@@QEAA_NW4TokenType@2@VQLatin1String@@@Z"
"?text@QAccessibleApplication@@UEBA?AVQString@@W4Text@QAccessible@@@Z"
"?text@QAction@@QEBA?AVQString@@XZ"
"?text@QClipboard@@QEBA?AVQString@@AEAV2@W4Mode@1@@Z"
"?text@QClipboard@@QEBA?AVQString@@W4Mode@1@@Z"
"?text@QImage@@QEBA?AVQString@@AEBV2@@Z"
"?text@QImageReader@@QEBA?AVQString@@AEBV2@@Z"
"?text@QKeyEvent@@QEBA?AVQString@@XZ"
"?text@QMessageDialogOptions@@QEBA?AVQString@@XZ"
"?text@QPalette@@QEBAAEBVQBrush@@XZ"
"?text@QStandardItem@@QEBA?AVQString@@XZ"
"?text@QStaticText@@QEBA?AVQString@@XZ"
"?text@QTextBlock@@QEBA?AVQString@@XZ"
"?text@QTextFragment@@QEBA?AVQString@@XZ"
"?text@QTextItem@@QEBA?AVQString@@XZ"
"?text@QTextLayout@@QEBA?AVQString@@XZ"
"?text@QUndoCommand@@QEBA?AVQString@@XZ"
"?text@QUndoStack@@QEBA?AVQString@@H@Z"
"?textAfterOffset@QAccessibleTextInterface@@UEBA?AVQString@@HW4TextBoundaryType@QAccessible@@PEAH1@Z"
"?textAlignment@QStandardItem@@QEBA?AV?$QFlags@W4AlignmentFlag@Qt@@@@XZ"
"?textAtOffset@QAccessibleTextInterface@@UEBA?AVQString@@HW4TextBoundaryType@QAccessible@@PEAH1@Z"
"?textBeforeOffset@QAccessibleTextInterface@@UEBA?AVQString@@HW4TextBoundaryType@QAccessible@@PEAH1@Z"
"?textDirection@QTextBlock@@QEBA?AW4LayoutDirection@Qt@@XZ"
"?textDirection@QTextInlineObject@@QEBA?AW4LayoutDirection@Qt@@XZ"
"?textDirection@QTextOption@@QEBA?AW4LayoutDirection@Qt@@XZ"
"?textFormat@QStaticText@@QEBA?AW4TextFormat@Qt@@XZ"
"?textFormats@QTextBlock@@QEBA?AV?$QList@UFormatRange@QTextLayout@@@@XZ"
"?textIndent@QTextBlockFormat@@QEBANXZ"
"?textInserted@QAccessibleTextInsertEvent@@QEBA?AVQString@@XZ"
"?textInserted@QAccessibleTextUpdateEvent@@QEBA?AVQString@@XZ"
"?textInterface@QAccessibleInterface@@QEAAPEAVQAccessibleTextInterface@@XZ"
"?textKeys@QImage@@QEBA?AV?$QList@VQString@@@@XZ"
"?textKeys@QImageReader@@QEBA?AV?$QList@VQString@@@@XZ"
"?textLength@QTextLine@@QEBAHXZ"
"?textLength@ValueExtractor@QCss@@QEAA?AVQTextLength@@AEBUDeclaration@2@@Z"
"?textList@QTextBlock@@QEBAPEAVQTextList@@XZ"
"?textOption@QStaticText@@QEBA?AVQTextOption@@XZ"
"?textOption@QTextLayout@@QEBAAEBVQTextOption@@XZ"
"?textOutline@QTextCharFormat@@QEBA?AVQPen@@XZ"
"?textPosition@QTextInlineObject@@QEBAHXZ"
"?textRemoved@QAccessibleTextRemoveEvent@@QEBA?AVQString@@XZ"
"?textRemoved@QAccessibleTextUpdateEvent@@QEBA?AVQString@@XZ"
"?textStart@QTextLine@@QEBAHXZ"
"?textWidth@QStaticText@@QEBANXZ"
"?textWidth@QTextDocument@@QEBANXZ"
"?texture@QBrush@@QEBA?AVQPixmap@@XZ"
"?texture@QPlatformTextureList@@QEBAPEAVQRhiTexture@@H@Z"
"?texture@QRhiColorAttachment@@QEBAPEAVQRhiTexture@@XZ"
"?texture@QRhiReadbackDescription@@QEBAPEAVQRhiTexture@@XZ"
"?texture@QRhiShaderResourceBinding@@SA?AV1@HV?$QFlags@W4StageFlag@QRhiShaderResourceBinding@@@@PEAVQRhiTexture@@@Z"
"?textureCompareOp@QRhiSampler@@QEBA?AW4CompareOp@1@XZ"
"?textureExtra@QPlatformTextureList@@QEBAPEAVQRhiTexture@@H@Z"
"?textureFunctions@QOpenGLContext@@AEBAPEAVQOpenGLTextureHelper@@XZ"
"?textureImage@QBrush@@QEBA?AVQImage@@XZ"
"?textureMapForGlyph@QTextureGlyphCache@@QEBA?AVQImage@@IAEBUQFixedPoint@@@Z"
"?textures@QRhiShaderResourceBinding@@SA?AV1@HV?$QFlags@W4StageFlag@QRhiShaderResourceBinding@@@@HPEAPEAVQRhiTexture@@@Z"
"?theme@QIconLoader@@QEAA?AVQIconTheme@@XZ"
"?themeHint@QPlatformTheme@@UEBA?AVQVariant@@W4ThemeHint@1@@Z"
"?themeKey@QIconLoader@@QEBAIXZ"
"?themeName@QIcon@@SA?AVQString@@XZ"
"?themeName@QIconLoader@@QEBA?AVQString@@XZ"
"?themeName@QWindowsThemeCache@@YA?AVQString@@H@Z"
"?themeNames@QPlatformIntegration@@UEBA?AV?$QList@VQString@@@@XZ"
"?themeSearchPaths@QIcon@@SA?AV?$QList@VQString@@@@XZ"
"?themeSearchPaths@QIconLoader@@QEBA?AV?$QList@VQString@@@@XZ"
"?thread@QRhi@@QEBAPEAVQThread@@XZ"
"?tightBoundingBox@QFontEngine@@QEAA?AUglyph_metrics_t@@AEBUQGlyphLayout@@@Z"
"?tightBoundingBox@QTextEngine@@QEBA?AUglyph_metrics_t@@HH@Z"
"?tightBoundingRect@QFontMetrics@@QEBA?AVQRect@@AEBVQString@@@Z"
"?tightBoundingRect@QFontMetrics@@QEBA?AVQRect@@AEBVQString@@AEBVQTextOption@@@Z"
"?tightBoundingRect@QFontMetricsF@@QEBA?AVQRectF@@AEBVQString@@@Z"
"?tightBoundingRect@QFontMetricsF@@QEBA?AVQRectF@@AEBVQString@@AEBVQTextOption@@@Z"
"?time@QFileSystemModelPrivate@@QEBA?AVQString@@AEBVQModelIndex@@@Z"
"?timeHeld@QEventPoint@@QEBANXZ"
"?timerEvent@QFileSystemModel@@MEAAXPEAVQTimerEvent@@@Z"
"?timerEvent@QFontCache@@EEAAXPEAVQTimerEvent@@@Z"
"?timerEvent@QTextDocumentLayout@@MEAAXPEAVQTimerEvent@@@Z"
"?timestamp@QEventPoint@@QEBAKXZ"
"?timestamp@QInputEvent@@QEBA_KXZ"
"?tip@QStatusTipEvent@@QEBA?AVQString@@XZ"
"?title@QWindow@@QEBA?AVQString@@XZ"
"?toBlockFormat@QTextFormat@@QEBA?AVQTextBlockFormat@@XZ"
"?toCharFormat@QTextFormat@@QEBA?AVQTextCharFormat@@XZ"
"?toCmyk@QColor@@QEBA?AV1@XZ"
"?toEulerAngles@QQuaternion@@QEBA?AVQVector3D@@XZ"
"?toExtendedRgb@QColor@@QEBA?AV1@XZ"
"?toFillPolygon@QPainterPath@@QEBA?AVQPolygonF@@AEBVQTransform@@@Z"
"?toFillPolygons@QPainterPath@@QEBA?AV?$QList@VQPolygonF@@@@AEBVQTransform@@@Z"
"?toFrameFormat@QTextFormat@@QEBA?AVQTextFrameFormat@@XZ"
"?toHBITMAP@QImage@@QEBAPEAUHBITMAP__@@XZ"
"?toHICON@QImage@@QEBAPEAUHICON__@@AEBV1@@Z"
"?toHRGN@QRegion@@QEBAPEAUHRGN__@@XZ"
"?toHsl@QColor@@QEBA?AV1@XZ"
"?toHsv@QColor@@QEBA?AV1@XZ"
"?toHtml@QTextDocument@@QEBA?AVQString@@XZ"
"?toHtml@QTextDocumentFragment@@QEBA?AVQString@@XZ"
"?toImage@QBlittablePlatformPixmap@@UEBA?AVQImage@@XZ"
"?toImage@QDistanceField@@QEBA?AVQImage@@W4Format@2@@Z"
"?toImage@QPixmap@@QEBA?AVQImage@@XZ"
"?toImage@QPlatformBackingStore@@UEBA?AVQImage@@XZ"
"?toImage@QPlatformPixmap@@UEBA?AVQImage@@AEBVQRect@@@Z"
"?toImage@QRasterPlatformPixmap@@UEBA?AVQImage@@AEBVQRect@@@Z"
"?toImage@QRasterPlatformPixmap@@UEBA?AVQImage@@XZ"
"?toImageFormat@QImage@@SA?AW4Format@1@VQPixelFormat@@@Z"
"?toImageFormat@QTextFormat@@QEBA?AVQTextImageFormat@@XZ"
"?toJson@QShaderDescription@@QEBA?AVQByteArray@@XZ"
"?toLinear64@QColorTrcLut@@QEBA?AVQRgba64@@I@Z"
"?toLinear@QColorTrcLut@@QEBA?AVQRgba64@@V2@@Z"
"?toLinear@QColorTrcLut@@QEBAII@Z"
"?toLinear@QColorTrcLut@@QEBAMM@Z"
"?toListFormat@QTextFormat@@QEBA?AVQTextListFormat@@XZ"
"?toMarkdown@QTextDocument@@QEBA?AVQString@@V?$QFlags@W4MarkdownFeature@QTextDocument@@@@@Z"
"?toMarkdown@QTextDocumentFragment@@QEBA?AVQString@@V?$QFlags@W4MarkdownFeature@QTextDocument@@@@@Z"
"?toNativeTouchPoint@QWindowSystemInterfacePrivate@@SA?AUTouchPoint@QWindowSystemInterface@@AEBVQEventPoint@@PEBVQWindow@@@Z"
"?toNormalizedFillRect@QRasterPaintEngine@@AEAA?AVQRect@@AEBVQRectF@@@Z"
"?toPixelFormat@QImage@@SA?AVQPixelFormat@@W4Format@1@@Z"
"?toPlainText@QTextDocument@@QEBA?AVQString@@XZ"
"?toPlainText@QTextDocumentFragment@@QEBA?AVQString@@XZ"
"?toPoint@QLastCursorPosition@QGuiApplicationPrivate@@QEBA?AVQPoint@@XZ"
"?toPolygon@QBezier@@QEBA?AVQPolygonF@@N@Z"
"?toPolygon@QPolygonF@@QEBA?AVQPolygon@@XZ"
"?toRangeList@QPageRanges@@QEBA?AV?$QList@URange@QPageRanges@@@@XZ"
"?toRawText@QTextDocument@@QEBA?AVQString@@XZ"
"?toRawText@QTextDocumentFragment@@QEBA?AVQString@@XZ"
"?toReversed@QPainterPath@@QEBA?AV1@XZ"
"?toRgb@QColor@@QEBA?AV1@XZ"
"?toRotationMatrix@QQuaternion@@QEBA?AV?$QGenericMatrix@$02$02M@@XZ"
"?toString@QFont@@QEBA?AVQString@@XZ"
"?toString@QGridLayoutItem@@UEBA?AVQString@@XZ"
"?toString@QKeySequence@@QEBA?AVQString@@W4SequenceFormat@1@@Z"
"?toString@QPageRanges@@QEBA?AVQString@@XZ"
"?toString@Value@QCss@@QEBA?AVQString@@XZ"
"?toSubpathPolygons@QPainterPath@@QEBA?AV?$QList@VQPolygonF@@@@AEBVQTransform@@@Z"
"?toTableCellFormat@QTextFormat@@QEBA?AVQTextTableCellFormat@@XZ"
"?toTableFormat@QTextFormat@@QEBA?AVQTextTableFormat@@XZ"
"?toTexture@QPlatformBackingStore@@UEBAPEAVQRhiTexture@@PEAVQRhiResourceUpdateBatch@@AEBVQRegion@@PEAV?$QFlags@W4TextureFlag@QPlatformBackingStore@@@@@Z"
"?toTransform@QMatrix4x4@@QEBA?AVQTransform@@M@Z"
"?toTransform@QMatrix4x4@@QEBA?AVQTransform@@XZ"
"?toVector4D@QQuaternion@@QEBA?AVQVector4D@@XZ"
"?toggle@QAction@@QEAAXXZ"
"?toggle@QToolBarChangeEvent@@QEBA_NXZ"
"?toggleAction@QAccessibleActionInterface@@SAAEBVQString@@XZ"
"?toggled@QAction@@QEAAX_N@Z"
"?toolTip@QAction@@QEBA?AVQString@@XZ"
"?toolTip@QStandardItem@@QEBA?AVQString@@XZ"
"?toolTip@QTextCharFormat@@QEBA?AVQString@@XZ"
"?toolTipBase@QPalette@@QEBAAEBVQBrush@@XZ"
"?toolTipText@QPalette@@QEBAAEBVQBrush@@XZ"
"?top@QDoubleValidator@@QEBANXZ"
"?top@QIntValidator@@QEBAHXZ"
"?topBorder@QTextTableCellFormat@@QEBANXZ"
"?topBorderBrush@QTextTableCellFormat@@QEBA?AVQBrush@@XZ"
"?topBorderStyle@QTextTableCellFormat@@QEBA?AW4BorderStyle@QTextFrameFormat@@XZ"
"?topChanged@QDoubleValidator@@QEAAXN@Z"
"?topChanged@QIntValidator@@QEAAXH@Z"
"?topLevelAt@QGuiApplication@@SAPEAVQWindow@@AEBVQPoint@@@Z"
"?topLevelAt@QPlatformScreen@@UEBAPEAVQWindow@@AEBVQPoint@@@Z"
"?topLevelWindow@QWindowPrivate@@QEBAPEAVQWindow@@W4AncestorMode@2@@Z"
"?topLevelWindows@QGuiApplication@@SA?AV?$QList@PEAVQWindow@@@@XZ"
"?topMargin@QTextBlockFormat@@QEBANXZ"
"?topMargin@QTextFrameFormat@@QEBANXZ"
"?topPadding@QTextTableCellFormat@@QEBANXZ"
"?topology@QRhiGraphicsPipeline@@QEBA?AW4Topology@1@XZ"
"?touchDoubleTapDistance@QStyleHints@@QEBAHXZ"
"?touchEvent@QWindow@@MEAAXPEAVQTouchEvent@@@Z"
"?touchPointStates@QTouchEvent@@QEBA?AV?$QFlags@W4State@QEventPoint@@@@XZ"
"?touchPoints@QTouchEvent@@QEBAAEBV?$QList@VQEventPoint@@@@XZ"
