LIBRARY Qt6Widgets
EXPORTS
"??0QAbstractButton@@IEAA@AEAVQAbstractButtonPrivate@@PEAVQWidget@@@Z"
"??0QAbstractButton@@QEAA@PEAVQWidget@@@Z"
"??0QAbstractGraphicsShapeItem@@IEAA@AEAVQAbstractGraphicsShapeItemPrivate@@PEAVQGraphicsItem@@@Z"
"??0QAbstractGraphicsShapeItem@@QEAA@PEAVQGraphicsItem@@@Z"
"??0QAbstractItemDelegate@@IEAA@AEAVQObjectPrivate@@PEAVQObject@@@Z"
"??0QAbstractItemDelegate@@QEAA@PEAVQObject@@@Z"
"??0QAbstractItemView@@IEAA@AEAVQAbstractItemViewPrivate@@PEAVQWidget@@@Z"
"??0QAbstractItemView@@QEAA@PEAVQWidget@@@Z"
"??0QAbstractScrollArea@@IEAA@AEAVQAbstractScrollAreaPrivate@@PEAVQWidget@@@Z"
"??0QAbstractScrollArea@@QEAA@PEAVQWidget@@@Z"
"??0QAbstractSlider@@IEAA@AEAVQAbstractSliderPrivate@@PEAVQWidget@@@Z"
"??0QAbstractSlider@@QEAA@PEAVQWidget@@@Z"
"??0QAbstractSpinBox@@IEAA@AEAVQAbstractSpinBoxPrivate@@PEAVQWidget@@@Z"
"??0QAbstractSpinBox@@QEAA@PEAVQWidget@@@Z"
"??0QAccessibleWidget@@QEAA@PEAVQWidget@@W4Role@QAccessible@@AEBVQString@@@Z"
"??0QApplication@@QEAA@AEAHPEAPEADH@Z"
"??0QApplicationPrivate@@QEAA@AEAHPEAPEAD@Z"
"??0QBlendStyleAnimation@@QEAA@W4Type@0@PEAVQObject@@@Z"
"??0QBoxLayout@@QEAA@W4Direction@0@PEAVQWidget@@@Z"
"??0QButtonGroup@@QEAA@PEAVQObject@@@Z"
"??0QCalendarWidget@@QEAA@PEAVQWidget@@@Z"
"??0QCheckBox@@QEAA@AEBVQString@@PEAVQWidget@@@Z"
"??0QCheckBox@@QEAA@PEAVQWidget@@@Z"
"??0QColorDialog@@QEAA@AEBVQColor@@PEAVQWidget@@@Z"
"??0QColorDialog@@QEAA@PEAVQWidget@@@Z"
"??0QColormap@@AEAA@XZ"
"??0QColormap@@QEAA@AEBV0@@Z"
"??0QColumnView@@IEAA@AEAVQColumnViewPrivate@@PEAVQWidget@@@Z"
"??0QColumnView@@QEAA@PEAVQWidget@@@Z"
"??0QComboBox@@IEAA@AEAVQComboBoxPrivate@@PEAVQWidget@@@Z"
"??0QComboBox@@QEAA@PEAVQWidget@@@Z"
"??0QComboBoxPrivateContainer@@QEAA@PEAVQAbstractItemView@@PEAVQComboBox@@@Z"
"??0QCommandLinkButton@@QEAA@AEBVQString@@0PEAVQWidget@@@Z"
"??0QCommandLinkButton@@QEAA@AEBVQString@@PEAVQWidget@@@Z"
"??0QCommandLinkButton@@QEAA@PEAVQWidget@@@Z"
"??0QCommonStyle@@IEAA@AEAVQCommonStylePrivate@@@Z"
"??0QCommonStyle@@QEAA@XZ"
"??0QCommonStylePrivate@@QEAA@XZ"
"??0QCompleter@@QEAA@AEBV?$QList@VQString@@@@PEAVQObject@@@Z"
"??0QCompleter@@QEAA@PEAVQAbstractItemModel@@PEAVQObject@@@Z"
"??0QCompleter@@QEAA@PEAVQObject@@@Z"
"??0QDataWidgetMapper@@QEAA@PEAVQObject@@@Z"
"??0QDateEdit@@QEAA@PEAVQWidget@@@Z"
"??0QDateEdit@@QEAA@VQDate@@PEAVQWidget@@@Z"
"??0QDateTimeEdit@@IEAA@AEBVQVariant@@W4Type@QMetaType@@PEAVQWidget@@@Z"
"??0QDateTimeEdit@@QEAA@AEBVQDateTime@@PEAVQWidget@@@Z"
"??0QDateTimeEdit@@QEAA@PEAVQWidget@@@Z"
"??0QDateTimeEdit@@QEAA@VQDate@@PEAVQWidget@@@Z"
"??0QDateTimeEdit@@QEAA@VQTime@@PEAVQWidget@@@Z"
"??0QDial@@QEAA@PEAVQWidget@@@Z"
"??0QDialog@@IEAA@AEAVQDialogPrivate@@PEAVQWidget@@V?$QFlags@W4WindowType@Qt@@@@@Z"
"??0QDialog@@QEAA@PEAVQWidget@@V?$QFlags@W4WindowType@Qt@@@@@Z"
"??0QDialogButtonBox@@QEAA@PEAVQWidget@@@Z"
"??0QDialogButtonBox@@QEAA@V?$QFlags@W4StandardButton@QDialogButtonBox@@@@PEAVQWidget@@@Z"
"??0QDialogButtonBox@@QEAA@V?$QFlags@W4StandardButton@QDialogButtonBox@@@@W4Orientation@Qt@@PEAVQWidget@@@Z"
"??0QDialogButtonBox@@QEAA@W4Orientation@Qt@@PEAVQWidget@@@Z"
"??0QDialogPrivate@@QEAA@XZ"
"??0QDockWidget@@QEAA@AEBVQString@@PEAVQWidget@@V?$QFlags@W4WindowType@Qt@@@@@Z"
"??0QDockWidget@@QEAA@PEAVQWidget@@V?$QFlags@W4WindowType@Qt@@@@@Z"
"??0QDockWidgetLayout@@QEAA@PEAVQWidget@@@Z"
"??0QDoubleSpinBox@@QEAA@PEAVQWidget@@@Z"
"??0QErrorMessage@@QEAA@PEAVQWidget@@@Z"
"??0QFSCompleter@@QEAA@PEAVQFileSystemModel@@PEAVQObject@@@Z"
"??0QFileDialog@@IEAA@AEBUQFileDialogArgs@@@Z"
"??0QFileDialog@@QEAA@PEAVQWidget@@AEBVQString@@11@Z"
"??0QFileDialog@@QEAA@PEAVQWidget@@V?$QFlags@W4WindowType@Qt@@@@@Z"
"??0QFileDialogPrivate@@QEAA@XZ"
"??0QFileIconProvider@@QEAA@XZ"
"??0QFlickGesture@@QEAA@PEAVQObject@@W4MouseButton@Qt@@0@Z"
"??0QFocusFrame@@QEAA@PEAVQWidget@@@Z"
"??0QFontComboBox@@QEAA@PEAVQWidget@@@Z"
"??0QFontDialog@@QEAA@AEBVQFont@@PEAVQWidget@@@Z"
"??0QFontDialog@@QEAA@PEAVQWidget@@@Z"
"??0QFormLayout@@QEAA@PEAVQWidget@@@Z"
"??0QFrame@@IEAA@AEAVQFramePrivate@@PEAVQWidget@@V?$QFlags@W4WindowType@Qt@@@@@Z"
"??0QFrame@@QEAA@PEAVQWidget@@V?$QFlags@W4WindowType@Qt@@@@@Z"
"??0QFusionStyle@@IEAA@AEAVQFusionStylePrivate@@@Z"
"??0QFusionStyle@@QEAA@XZ"
"??0QGesture@@IEAA@AEAVQGesturePrivate@@PEAVQObject@@@Z"
"??0QGesture@@QEAA@PEAVQObject@@@Z"
"??0QGestureEvent@@QEAA@AEBV0@@Z"
"??0QGestureEvent@@QEAA@AEBV?$QList@PEAVQGesture@@@@@Z"
"??0QGestureRecognizer@@QEAA@AEBV0@@Z"
"??0QGestureRecognizer@@QEAA@XZ"
"??0QGraphicsAnchor@@AEAA@PEAVQGraphicsAnchorLayout@@@Z"
"??0QGraphicsAnchorLayout@@QEAA@PEAVQGraphicsLayoutItem@@@Z"
"??0QGraphicsBlurEffect@@QEAA@PEAVQObject@@@Z"
"??0QGraphicsColorizeEffect@@QEAA@PEAVQObject@@@Z"
"??0QGraphicsDropShadowEffect@@QEAA@PEAVQObject@@@Z"
"??0QGraphicsEffect@@IEAA@AEAVQGraphicsEffectPrivate@@PEAVQObject@@@Z"
"??0QGraphicsEffect@@QEAA@PEAVQObject@@@Z"
"??0QGraphicsEffectPrivate@@QEAA@XZ"
"??0QGraphicsEffectSource@@IEAA@AEAVQGraphicsEffectSourcePrivate@@PEAVQObject@@@Z"
"??0QGraphicsEllipseItem@@QEAA@AEBVQRectF@@PEAVQGraphicsItem@@@Z"
"??0QGraphicsEllipseItem@@QEAA@NNNNPEAVQGraphicsItem@@@Z"
"??0QGraphicsEllipseItem@@QEAA@PEAVQGraphicsItem@@@Z"
"??0QGraphicsGridLayout@@QEAA@PEAVQGraphicsLayoutItem@@@Z"
"??0QGraphicsItem@@IEAA@AEAVQGraphicsItemPrivate@@PEAV0@@Z"
"??0QGraphicsItem@@QEAA@PEAV0@@Z"
"??0QGraphicsItemAnimation@@QEAA@PEAVQObject@@@Z"
"??0QGraphicsItemGroup@@QEAA@PEAVQGraphicsItem@@@Z"
"??0QGraphicsItemPrivate@@QEAA@AEBV0@@Z"
"??0QGraphicsItemPrivate@@QEAA@XZ"
"??0QGraphicsLayout@@IEAA@AEAVQGraphicsLayoutPrivate@@PEAVQGraphicsLayoutItem@@@Z"
"??0QGraphicsLayout@@QEAA@PEAVQGraphicsLayoutItem@@@Z"
"??0QGraphicsLayoutItem@@IEAA@AEAVQGraphicsLayoutItemPrivate@@@Z"
"??0QGraphicsLayoutItem@@QEAA@PEAV0@_N@Z"
"??0QGraphicsLineItem@@QEAA@AEBVQLineF@@PEAVQGraphicsItem@@@Z"
"??0QGraphicsLineItem@@QEAA@NNNNPEAVQGraphicsItem@@@Z"
"??0QGraphicsLineItem@@QEAA@PEAVQGraphicsItem@@@Z"
"??0QGraphicsLinearLayout@@QEAA@PEAVQGraphicsLayoutItem@@@Z"
"??0QGraphicsLinearLayout@@QEAA@W4Orientation@Qt@@PEAVQGraphicsLayoutItem@@@Z"
"??0QGraphicsObject@@IEAA@AEAVQGraphicsItemPrivate@@PEAVQGraphicsItem@@@Z"
"??0QGraphicsObject@@QEAA@PEAVQGraphicsItem@@@Z"
"??0QGraphicsOpacityEffect@@QEAA@PEAVQObject@@@Z"
"??0QGraphicsPathItem@@QEAA@AEBVQPainterPath@@PEAVQGraphicsItem@@@Z"
"??0QGraphicsPathItem@@QEAA@PEAVQGraphicsItem@@@Z"
"??0QGraphicsPixmapItem@@QEAA@AEBVQPixmap@@PEAVQGraphicsItem@@@Z"
"??0QGraphicsPixmapItem@@QEAA@PEAVQGraphicsItem@@@Z"
"??0QGraphicsPolygonItem@@QEAA@AEBVQPolygonF@@PEAVQGraphicsItem@@@Z"
"??0QGraphicsPolygonItem@@QEAA@PEAVQGraphicsItem@@@Z"
"??0QGraphicsProxyWidget@@QEAA@PEAVQGraphicsItem@@V?$QFlags@W4WindowType@Qt@@@@@Z"
"??0QGraphicsRectItem@@QEAA@AEBVQRectF@@PEAVQGraphicsItem@@@Z"
"??0QGraphicsRectItem@@QEAA@NNNNPEAVQGraphicsItem@@@Z"
"??0QGraphicsRectItem@@QEAA@PEAVQGraphicsItem@@@Z"
"??0QGraphicsRotation@@QEAA@PEAVQObject@@@Z"
"??0QGraphicsScale@@QEAA@PEAVQObject@@@Z"
"??0QGraphicsScene@@QEAA@AEBVQRectF@@PEAVQObject@@@Z"
"??0QGraphicsScene@@QEAA@NNNNPEAVQObject@@@Z"
"??0QGraphicsScene@@QEAA@PEAVQObject@@@Z"
"??0QGraphicsSceneContextMenuEvent@@QEAA@W4Type@QEvent@@@Z"
"??0QGraphicsSceneDragDropEvent@@QEAA@W4Type@QEvent@@@Z"
"??0QGraphicsSceneEvent@@IEAA@AEAVQGraphicsSceneEventPrivate@@W4Type@QEvent@@@Z"
"??0QGraphicsSceneEvent@@QEAA@W4Type@QEvent@@@Z"
"??0QGraphicsSceneHelpEvent@@QEAA@W4Type@QEvent@@@Z"
"??0QGraphicsSceneHoverEvent@@QEAA@W4Type@QEvent@@@Z"
"??0QGraphicsSceneMouseEvent@@QEAA@W4Type@QEvent@@@Z"
"??0QGraphicsSceneMoveEvent@@QEAA@XZ"
"??0QGraphicsSceneResizeEvent@@QEAA@XZ"
"??0QGraphicsSceneWheelEvent@@QEAA@W4Type@QEvent@@@Z"
"??0QGraphicsSimpleTextItem@@QEAA@AEBVQString@@PEAVQGraphicsItem@@@Z"
"??0QGraphicsSimpleTextItem@@QEAA@PEAVQGraphicsItem@@@Z"
"??0QGraphicsTextItem@@QEAA@AEBVQString@@PEAVQGraphicsItem@@@Z"
"??0QGraphicsTextItem@@QEAA@PEAVQGraphicsItem@@@Z"
"??0QGraphicsTransform@@IEAA@AEAVQGraphicsTransformPrivate@@PEAVQObject@@@Z"
"??0QGraphicsTransform@@QEAA@PEAVQObject@@@Z"
"??0QGraphicsView@@IEAA@AEAVQGraphicsViewPrivate@@PEAVQWidget@@@Z"
"??0QGraphicsView@@QEAA@PEAVQGraphicsScene@@PEAVQWidget@@@Z"
"??0QGraphicsView@@QEAA@PEAVQWidget@@@Z"
"??0QGraphicsViewPrivate@@QEAA@XZ"
"??0QGraphicsWidget@@IEAA@AEAVQGraphicsWidgetPrivate@@PEAVQGraphicsItem@@V?$QFlags@W4WindowType@Qt@@@@@Z"
"??0QGraphicsWidget@@QEAA@PEAVQGraphicsItem@@V?$QFlags@W4WindowType@Qt@@@@@Z"
"??0QGridLayout@@QEAA@PEAVQWidget@@@Z"
"??0QGroupBox@@QEAA@AEBVQString@@PEAVQWidget@@@Z"
"??0QGroupBox@@QEAA@PEAVQWidget@@@Z"
"??0QHBoxLayout@@QEAA@PEAVQWidget@@@Z"
"??0QHBoxLayout@@QEAA@XZ"
"??0QHeaderView@@IEAA@AEAVQHeaderViewPrivate@@W4Orientation@Qt@@PEAVQWidget@@@Z"
"??0QHeaderView@@QEAA@W4Orientation@Qt@@PEAVQWidget@@@Z"
"??0QInputDialog@@QEAA@PEAVQWidget@@V?$QFlags@W4WindowType@Qt@@@@@Z"
"??0QItemDelegate@@QEAA@PEAVQObject@@@Z"
"??0QItemEditorCreatorBase@@QEAA@AEBV0@@Z"
"??0QItemEditorCreatorBase@@QEAA@XZ"
"??0QItemEditorFactory@@QEAA@AEBV0@@Z"
"??0QItemEditorFactory@@QEAA@XZ"
"??0QKeySequenceEdit@@IEAA@AEAVQKeySequenceEditPrivate@@PEAVQWidget@@V?$QFlags@W4WindowType@Qt@@@@@Z"
"??0QKeySequenceEdit@@QEAA@AEBVQKeySequence@@PEAVQWidget@@@Z"
"??0QKeySequenceEdit@@QEAA@PEAVQWidget@@@Z"
"??0QLCDNumber@@QEAA@IPEAVQWidget@@@Z"
"??0QLCDNumber@@QEAA@PEAVQWidget@@@Z"
"??0QLabel@@QEAA@AEBVQString@@PEAVQWidget@@V?$QFlags@W4WindowType@Qt@@@@@Z"
"??0QLabel@@QEAA@PEAVQWidget@@V?$QFlags@W4WindowType@Qt@@@@@Z"
"??0QLayout@@IEAA@AEAVQLayoutPrivate@@PEAV0@PEAVQWidget@@@Z"
"??0QLayout@@QEAA@PEAVQWidget@@@Z"
"??0QLayoutItem@@QEAA@AEBV0@@Z"
"??0QLayoutItem@@QEAA@V?$QFlags@W4AlignmentFlag@Qt@@@@@Z"
"??0QLayoutPrivate@@QEAA@XZ"
"??0QLineEdit@@QEAA@AEBVQString@@PEAVQWidget@@@Z"
"??0QLineEdit@@QEAA@PEAVQWidget@@@Z"
"??0QListView@@IEAA@AEAVQListViewPrivate@@PEAVQWidget@@@Z"
"??0QListView@@QEAA@PEAVQWidget@@@Z"
"??0QListWidget@@QEAA@PEAVQWidget@@@Z"
"??0QListWidgetItem@@QEAA@AEBV0@@Z"
"??0QListWidgetItem@@QEAA@AEBVQIcon@@AEBVQString@@PEAVQListWidget@@H@Z"
"??0QListWidgetItem@@QEAA@AEBVQString@@PEAVQListWidget@@H@Z"
"??0QListWidgetItem@@QEAA@PEAVQListWidget@@H@Z"
"??0QMainWindow@@QEAA@PEAVQWidget@@V?$QFlags@W4WindowType@Qt@@@@@Z"
"??0QMdiArea@@QEAA@PEAVQWidget@@@Z"
"??0QMdiSubWindow@@QEAA@PEAVQWidget@@V?$QFlags@W4WindowType@Qt@@@@@Z"
"??0QMenu@@IEAA@AEAVQMenuPrivate@@PEAVQWidget@@@Z"
"??0QMenu@@QEAA@AEBVQString@@PEAVQWidget@@@Z"
"??0QMenu@@QEAA@PEAVQWidget@@@Z"
"??0QMenuBar@@QEAA@PEAVQWidget@@@Z"
"??0QMessageBox@@QEAA@AEBVQString@@0W4Icon@0@HHHPEAVQWidget@@V?$QFlags@W4WindowType@Qt@@@@@Z"
"??0QMessageBox@@QEAA@PEAVQWidget@@@Z"
"??0QMessageBox@@QEAA@W4Icon@0@AEBVQString@@1V?$QFlags@W4StandardButton@QMessageBox@@@@PEAVQWidget@@V?$QFlags@W4WindowType@Qt@@@@@Z"
"??0QNumberStyleAnimation@@QEAA@PEAVQObject@@@Z"
"??0QPanGesture@@QEAA@PEAVQObject@@@Z"
"??0QPinchGesture@@QEAA@PEAVQObject@@@Z"
"??0QPixmapBlurFilter@@QEAA@PEAVQObject@@@Z"
"??0QPixmapColorizeFilter@@QEAA@PEAVQObject@@@Z"
"??0QPixmapConvolutionFilter@@QEAA@PEAVQObject@@@Z"
"??0QPixmapDropShadowFilter@@QEAA@PEAVQObject@@@Z"
"??0QPixmapFilter@@IEAA@AEAVQPixmapFilterPrivate@@W4FilterType@0@PEAVQObject@@@Z"
"??0QPixmapFilter@@IEAA@W4FilterType@0@PEAVQObject@@@Z"
"??0QPixmapStyle@@IEAA@AEAVQPixmapStylePrivate@@@Z"
"??0QPixmapStyle@@QEAA@XZ"
"??0QPlainTextDocumentLayout@@QEAA@PEAVQTextDocument@@@Z"
"??0QPlainTextEdit@@IEAA@AEAVQPlainTextEditPrivate@@PEAVQWidget@@@Z"
"??0QPlainTextEdit@@QEAA@AEBVQString@@PEAVQWidget@@@Z"
"??0QPlainTextEdit@@QEAA@PEAVQWidget@@@Z"
"??0QProgressBar@@QEAA@PEAVQWidget@@@Z"
"??0QProgressDialog@@QEAA@AEBVQString@@0HHPEAVQWidget@@V?$QFlags@W4WindowType@Qt@@@@@Z"
"??0QProgressDialog@@QEAA@PEAVQWidget@@V?$QFlags@W4WindowType@Qt@@@@@Z"
"??0QProgressStyleAnimation@@QEAA@HPEAVQObject@@@Z"
"??0QProxyStyle@@QEAA@AEBVQString@@@Z"
"??0QProxyStyle@@QEAA@PEAVQStyle@@@Z"
"??0QPushButton@@IEAA@AEAVQPushButtonPrivate@@PEAVQWidget@@@Z"
"??0QPushButton@@QEAA@AEBVQIcon@@AEBVQString@@PEAVQWidget@@@Z"
"??0QPushButton@@QEAA@AEBVQString@@PEAVQWidget@@@Z"
"??0QPushButton@@QEAA@PEAVQWidget@@@Z"
"??0QRadioButton@@QEAA@AEBVQString@@PEAVQWidget@@@Z"
"??0QRadioButton@@QEAA@PEAVQWidget@@@Z"
"??0QRhiWidget@@QEAA@PEAVQWidget@@V?$QFlags@W4WindowType@Qt@@@@@Z"
"??0QRubberBand@@QEAA@W4Shape@0@PEAVQWidget@@@Z"
"??0QScrollArea@@IEAA@AEAVQScrollAreaPrivate@@PEAVQWidget@@@Z"
"??0QScrollArea@@QEAA@PEAVQWidget@@@Z"
"??0QScrollBar@@QEAA@PEAVQWidget@@@Z"
"??0QScrollBar@@QEAA@W4Orientation@Qt@@PEAVQWidget@@@Z"
"??0QScrollbarStyleAnimation@@QEAA@W4Mode@0@PEAVQObject@@@Z"
"??0QScroller@@AEAA@PEAVQObject@@@Z"
"??0QScrollerProperties@@QEAA@AEBV0@@Z"
"??0QScrollerProperties@@QEAA@XZ"
"??0QSizeGrip@@QEAA@PEAVQWidget@@@Z"
"??0QSizePolicy@@AEAA@H@Z"
"??0QSizePolicy@@AEAA@UBits@0@@Z"
"??0QSizePolicy@@QEAA@W4Policy@0@0W4ControlType@0@@Z"
"??0QSizePolicy@@QEAA@XZ"
"??0QSlider@@QEAA@PEAVQWidget@@@Z"
"??0QSlider@@QEAA@W4Orientation@Qt@@PEAVQWidget@@@Z"
"??0QSpacerItem@@QEAA@AEBV0@@Z"
"??0QSpacerItem@@QEAA@HHW4Policy@QSizePolicy@@0@Z"
"??0QSpinBox@@QEAA@PEAVQWidget@@@Z"
"??0QSplashScreen@@QEAA@AEBVQPixmap@@V?$QFlags@W4WindowType@Qt@@@@@Z"
"??0QSplashScreen@@QEAA@PEAVQScreen@@AEBVQPixmap@@V?$QFlags@W4WindowType@Qt@@@@@Z"
"??0QSplitter@@QEAA@PEAVQWidget@@@Z"
"??0QSplitter@@QEAA@W4Orientation@Qt@@PEAVQWidget@@@Z"
"??0QSplitterHandle@@QEAA@W4Orientation@Qt@@PEAVQSplitter@@@Z"
"??0QStackedLayout@@QEAA@PEAVQLayout@@@Z"
"??0QStackedLayout@@QEAA@PEAVQWidget@@@Z"
"??0QStackedLayout@@QEAA@XZ"
"??0QStackedWidget@@QEAA@PEAVQWidget@@@Z"
"??0QStatusBar@@QEAA@PEAVQWidget@@@Z"
"??0QStyle@@IEAA@AEAVQStylePrivate@@@Z"
"??0QStyle@@QEAA@XZ"
"??0QStyleAnimation@@QEAA@PEAVQObject@@@Z"
"??0QStyleHintReturn@@QEAA@HH@Z"
"??0QStyleHintReturnMask@@QEAA@AEBV0@@Z"
"??0QStyleHintReturnMask@@QEAA@XZ"
"??0QStyleHintReturnVariant@@QEAA@AEBV0@@Z"
"??0QStyleHintReturnVariant@@QEAA@XZ"
"??0QStyleOption@@QEAA@AEBV0@@Z"
"??0QStyleOption@@QEAA@HH@Z"
"??0QStyleOptionButton@@IEAA@H@Z"
"??0QStyleOptionButton@@QEAA@AEBV0@@Z"
"??0QStyleOptionButton@@QEAA@XZ"
"??0QStyleOptionComboBox@@IEAA@H@Z"
"??0QStyleOptionComboBox@@QEAA@AEBV0@@Z"
"??0QStyleOptionComboBox@@QEAA@XZ"
"??0QStyleOptionComplex@@QEAA@AEBV0@@Z"
"??0QStyleOptionComplex@@QEAA@HH@Z"
"??0QStyleOptionDockWidget@@IEAA@H@Z"
"??0QStyleOptionDockWidget@@QEAA@AEBV0@@Z"
"??0QStyleOptionDockWidget@@QEAA@XZ"
"??0QStyleOptionFocusRect@@IEAA@H@Z"
"??0QStyleOptionFocusRect@@QEAA@AEBV0@@Z"
"??0QStyleOptionFocusRect@@QEAA@XZ"
"??0QStyleOptionFrame@@IEAA@H@Z"
"??0QStyleOptionFrame@@QEAA@AEBV0@@Z"
"??0QStyleOptionFrame@@QEAA@XZ"
"??0QStyleOptionGraphicsItem@@IEAA@H@Z"
"??0QStyleOptionGraphicsItem@@QEAA@AEBV0@@Z"
"??0QStyleOptionGraphicsItem@@QEAA@XZ"
"??0QStyleOptionGroupBox@@IEAA@H@Z"
"??0QStyleOptionGroupBox@@QEAA@AEBV0@@Z"
"??0QStyleOptionGroupBox@@QEAA@XZ"
"??0QStyleOptionHeader@@IEAA@H@Z"
"??0QStyleOptionHeader@@QEAA@AEBV0@@Z"
"??0QStyleOptionHeader@@QEAA@XZ"
"??0QStyleOptionHeaderV2@@IEAA@H@Z"
"??0QStyleOptionHeaderV2@@QEAA@AEBV0@@Z"
"??0QStyleOptionHeaderV2@@QEAA@XZ"
"??0QStyleOptionMenuItem@@IEAA@H@Z"
"??0QStyleOptionMenuItem@@QEAA@AEBV0@@Z"
"??0QStyleOptionMenuItem@@QEAA@XZ"
"??0QStyleOptionProgressBar@@IEAA@H@Z"
"??0QStyleOptionProgressBar@@QEAA@AEBV0@@Z"
"??0QStyleOptionProgressBar@@QEAA@XZ"
"??0QStyleOptionRubberBand@@IEAA@H@Z"
"??0QStyleOptionRubberBand@@QEAA@AEBV0@@Z"
"??0QStyleOptionRubberBand@@QEAA@XZ"
"??0QStyleOptionSizeGrip@@IEAA@H@Z"
"??0QStyleOptionSizeGrip@@QEAA@AEBV0@@Z"
"??0QStyleOptionSizeGrip@@QEAA@XZ"
"??0QStyleOptionSlider@@IEAA@H@Z"
"??0QStyleOptionSlider@@QEAA@AEBV0@@Z"
"??0QStyleOptionSlider@@QEAA@XZ"
"??0QStyleOptionSpinBox@@IEAA@H@Z"
"??0QStyleOptionSpinBox@@QEAA@AEBV0@@Z"
"??0QStyleOptionSpinBox@@QEAA@XZ"
"??0QStyleOptionTab@@IEAA@H@Z"
"??0QStyleOptionTab@@QEAA@AEBV0@@Z"
"??0QStyleOptionTab@@QEAA@XZ"
"??0QStyleOptionTabBarBase@@IEAA@H@Z"
"??0QStyleOptionTabBarBase@@QEAA@AEBV0@@Z"
"??0QStyleOptionTabBarBase@@QEAA@XZ"
"??0QStyleOptionTabWidgetFrame@@IEAA@H@Z"
"??0QStyleOptionTabWidgetFrame@@QEAA@AEBV0@@Z"
"??0QStyleOptionTabWidgetFrame@@QEAA@XZ"
"??0QStyleOptionTitleBar@@IEAA@H@Z"
"??0QStyleOptionTitleBar@@QEAA@AEBV0@@Z"
"??0QStyleOptionTitleBar@@QEAA@XZ"
"??0QStyleOptionToolBar@@IEAA@H@Z"
"??0QStyleOptionToolBar@@QEAA@AEBV0@@Z"
"??0QStyleOptionToolBar@@QEAA@XZ"
"??0QStyleOptionToolBox@@IEAA@H@Z"
"??0QStyleOptionToolBox@@QEAA@AEBV0@@Z"
"??0QStyleOptionToolBox@@QEAA@XZ"
"??0QStyleOptionToolButton@@IEAA@H@Z"
"??0QStyleOptionToolButton@@QEAA@AEBV0@@Z"
"??0QStyleOptionToolButton@@QEAA@XZ"
"??0QStyleOptionViewItem@@IEAA@H@Z"
"??0QStyleOptionViewItem@@QEAA@AEBV0@@Z"
"??0QStyleOptionViewItem@@QEAA@XZ"
"??0QStylePlugin@@QEAA@PEAVQObject@@@Z"
"??0QStyledItemDelegate@@QEAA@PEAVQObject@@@Z"
"??0QSwipeGesture@@QEAA@PEAVQObject@@@Z"
"??0QSystemTrayIcon@@QEAA@AEBVQIcon@@PEAVQObject@@@Z"
"??0QSystemTrayIcon@@QEAA@PEAVQObject@@@Z"
"??0QTabBar@@QEAA@PEAVQWidget@@@Z"
"??0QTabBarPrivate@@QEAA@XZ"
"??0QTabWidget@@QEAA@PEAVQWidget@@@Z"
"??0QTableView@@IEAA@AEAVQTableViewPrivate@@PEAVQWidget@@@Z"
"??0QTableView@@QEAA@PEAVQWidget@@@Z"
"??0QTableWidget@@QEAA@HHPEAVQWidget@@@Z"
"??0QTableWidget@@QEAA@PEAVQWidget@@@Z"
"??0QTableWidgetItem@@QEAA@AEBV0@@Z"
"??0QTableWidgetItem@@QEAA@AEBVQIcon@@AEBVQString@@H@Z"
"??0QTableWidgetItem@@QEAA@AEBVQString@@H@Z"
"??0QTableWidgetItem@@QEAA@H@Z"
"??0QTapAndHoldGesture@@QEAA@PEAVQObject@@@Z"
"??0QTapGesture@@QEAA@PEAVQObject@@@Z"
"??0QTextBrowser@@QEAA@PEAVQWidget@@@Z"
"??0QTextEdit@@IEAA@AEAVQTextEditPrivate@@PEAVQWidget@@@Z"
"??0QTextEdit@@QEAA@AEBVQString@@PEAVQWidget@@@Z"
"??0QTextEdit@@QEAA@PEAVQWidget@@@Z"
"??0QTimeEdit@@QEAA@PEAVQWidget@@@Z"
"??0QTimeEdit@@QEAA@VQTime@@PEAVQWidget@@@Z"
"??0QToolBar@@QEAA@AEBVQString@@PEAVQWidget@@@Z"
"??0QToolBar@@QEAA@PEAVQWidget@@@Z"
"??0QToolBox@@QEAA@PEAVQWidget@@V?$QFlags@W4WindowType@Qt@@@@@Z"
"??0QToolButton@@QEAA@PEAVQWidget@@@Z"
"??0QTouchEventWidgetSequence@QTest@@AEAA@PEAVQWidget@@PEAVQPointingDevice@@_N@Z"
"??0QTouchEventWidgetSequence@QTest@@QEAA@AEBV01@@Z"
"??0QTreeView@@IEAA@AEAVQTreeViewPrivate@@PEAVQWidget@@@Z"
"??0QTreeView@@QEAA@PEAVQWidget@@@Z"
"??0QTreeViewPrivate@@QEAA@XZ"
"??0QTreeWidget@@QEAA@PEAVQWidget@@@Z"
"??0QTreeWidgetItem@@QEAA@AEBV0@@Z"
"??0QTreeWidgetItem@@QEAA@AEBV?$QList@VQString@@@@H@Z"
"??0QTreeWidgetItem@@QEAA@H@Z"
"??0QTreeWidgetItem@@QEAA@PEAV0@0H@Z"
"??0QTreeWidgetItem@@QEAA@PEAV0@AEBV?$QList@VQString@@@@H@Z"
"??0QTreeWidgetItem@@QEAA@PEAV0@H@Z"
"??0QTreeWidgetItem@@QEAA@PEAVQTreeWidget@@AEBV?$QList@VQString@@@@H@Z"
"??0QTreeWidgetItem@@QEAA@PEAVQTreeWidget@@H@Z"
"??0QTreeWidgetItem@@QEAA@PEAVQTreeWidget@@PEAV0@H@Z"
"??0QTreeWidgetItemIterator@@QEAA@AEBV0@@Z"
"??0QTreeWidgetItemIterator@@QEAA@PEAVQTreeWidget@@V?$QFlags@W4IteratorFlag@QTreeWidgetItemIterator@@@@@Z"
"??0QTreeWidgetItemIterator@@QEAA@PEAVQTreeWidgetItem@@V?$QFlags@W4IteratorFlag@QTreeWidgetItemIterator@@@@@Z"
"??0QUndoView@@QEAA@PEAVQUndoGroup@@PEAVQWidget@@@Z"
"??0QUndoView@@QEAA@PEAVQUndoStack@@PEAVQWidget@@@Z"
"??0QUndoView@@QEAA@PEAVQWidget@@@Z"
"??0QVBoxLayout@@QEAA@PEAVQWidget@@@Z"
"??0QVBoxLayout@@QEAA@XZ"
"??0QWidget@@IEAA@AEAVQWidgetPrivate@@PEAV0@V?$QFlags@W4WindowType@Qt@@@@@Z"
"??0QWidget@@QEAA@PEAV0@V?$QFlags@W4WindowType@Qt@@@@@Z"
"??0QWidgetAction@@QEAA@PEAVQObject@@@Z"
"??0QWidgetItem@@QEAA@PEAVQWidget@@@Z"
"??0QWidgetItemV2@@QEAA@PEAVQWidget@@@Z"
"??0QWidgetLineControl@@QEAA@AEBVQString@@@Z"
"??0QWidgetPrivate@@QEAA@H@Z"
"??0QWidgetRepaintManager@@QEAA@PEAVQWidget@@@Z"
"??0QWidgetTextControl@@QEAA@AEBVQString@@PEAVQObject@@@Z"
"??0QWidgetTextControl@@QEAA@PEAVQObject@@@Z"
"??0QWidgetTextControl@@QEAA@PEAVQTextDocument@@PEAVQObject@@@Z"
"??0QWindowContainer@@QEAA@PEAVQWindow@@PEAVQWidget@@V?$QFlags@W4WindowType@Qt@@@@@Z"
"??0QWindowsStyle@@IEAA@AEAVQWindowsStylePrivate@@@Z"
"??0QWindowsStyle@@QEAA@XZ"
"??0QWindowsStylePrivate@@QEAA@XZ"
"??0QWizard@@QEAA@PEAVQWidget@@V?$QFlags@W4WindowType@Qt@@@@@Z"
"??0QWizardPage@@QEAA@PEAVQWidget@@@Z"
"??0QtWidgetsActionPrivate@@QEAA@XZ"
"??1QAbstractButton@@UEAA@XZ"
"??1QAbstractGraphicsShapeItem@@UEAA@XZ"
"??1QAbstractItemDelegate@@UEAA@XZ"
"??1QAbstractItemView@@UEAA@XZ"
"??1QAbstractScrollArea@@UEAA@XZ"
"??1QAbstractSlider@@UEAA@XZ"
"??1QAbstractSpinBox@@UEAA@XZ"
"??1QAccessibleWidget@@MEAA@XZ"
"??1QApplication@@UEAA@XZ"
"??1QApplicationPrivate@@UEAA@XZ"
"??1QBlendStyleAnimation@@UEAA@XZ"
"??1QBoxLayout@@UEAA@XZ"
"??1QButtonGroup@@UEAA@XZ"
"??1QCalendarWidget@@UEAA@XZ"
"??1QCheckBox@@UEAA@XZ"
"??1QColorDialog@@UEAA@XZ"
"??1QColormap@@QEAA@XZ"
"??1QColumnView@@UEAA@XZ"
"??1QComboBox@@UEAA@XZ"
"??1QComboBoxPrivateContainer@@UEAA@XZ"
"??1QCommandLinkButton@@UEAA@XZ"
"??1QCommonStyle@@UEAA@XZ"
"??1QCommonStylePrivate@@UEAA@XZ"
"??1QCompleter@@UEAA@XZ"
"??1QDataWidgetMapper@@UEAA@XZ"
"??1QDateEdit@@UEAA@XZ"
"??1QDateTimeEdit@@UEAA@XZ"
"??1QDial@@UEAA@XZ"
"??1QDialog@@UEAA@XZ"
"??1QDialogButtonBox@@UEAA@XZ"
"??1QDialogPrivate@@UEAA@XZ"
"??1QDockWidget@@UEAA@XZ"
"??1QDockWidgetLayout@@UEAA@XZ"
"??1QDoubleSpinBox@@UEAA@XZ"
"??1QErrorMessage@@UEAA@XZ"
"??1QFSCompleter@@UEAA@XZ"
"??1QFileDialog@@UEAA@XZ"
"??1QFileDialogPrivate@@UEAA@XZ"
"??1QFileIconProvider@@UEAA@XZ"
"??1QFlickGesture@@UEAA@XZ"
"??1QFocusFrame@@UEAA@XZ"
"??1QFontComboBox@@UEAA@XZ"
"??1QFontDialog@@UEAA@XZ"
"??1QFormLayout@@UEAA@XZ"
"??1QFrame@@UEAA@XZ"
"??1QFusionStyle@@UEAA@XZ"
"??1QGesture@@UEAA@XZ"
"??1QGestureEvent@@UEAA@XZ"
"??1QGestureRecognizer@@UEAA@XZ"
"??1QGraphicsAnchor@@UEAA@XZ"
"??1QGraphicsAnchorLayout@@UEAA@XZ"
"??1QGraphicsBlurEffect@@UEAA@XZ"
"??1QGraphicsColorizeEffect@@UEAA@XZ"
"??1QGraphicsDropShadowEffect@@UEAA@XZ"
"??1QGraphicsEffect@@UEAA@XZ"
"??1QGraphicsEffectPrivate@@UEAA@XZ"
"??1QGraphicsEffectSource@@UEAA@XZ"
"??1QGraphicsEllipseItem@@UEAA@XZ"
"??1QGraphicsGridLayout@@UEAA@XZ"
"??1QGraphicsItem@@UEAA@XZ"
"??1QGraphicsItemAnimation@@UEAA@XZ"
"??1QGraphicsItemGroup@@UEAA@XZ"
"??1QGraphicsItemPrivate@@UEAA@XZ"
"??1QGraphicsLayout@@UEAA@XZ"
"??1QGraphicsLayoutItem@@UEAA@XZ"
"??1QGraphicsLineItem@@UEAA@XZ"
"??1QGraphicsLinearLayout@@UEAA@XZ"
"??1QGraphicsObject@@UEAA@XZ"
"??1QGraphicsOpacityEffect@@UEAA@XZ"
"??1QGraphicsPathItem@@UEAA@XZ"
"??1QGraphicsPixmapItem@@UEAA@XZ"
"??1QGraphicsPolygonItem@@UEAA@XZ"
"??1QGraphicsProxyWidget@@UEAA@XZ"
"??1QGraphicsRectItem@@UEAA@XZ"
"??1QGraphicsRotation@@UEAA@XZ"
"??1QGraphicsScale@@UEAA@XZ"
"??1QGraphicsScene@@UEAA@XZ"
"??1QGraphicsSceneContextMenuEvent@@UEAA@XZ"
"??1QGraphicsSceneDragDropEvent@@UEAA@XZ"
"??1QGraphicsSceneEvent@@UEAA@XZ"
"??1QGraphicsSceneHelpEvent@@UEAA@XZ"
"??1QGraphicsSceneHoverEvent@@UEAA@XZ"
"??1QGraphicsSceneMouseEvent@@UEAA@XZ"
"??1QGraphicsSceneMoveEvent@@UEAA@XZ"
"??1QGraphicsSceneResizeEvent@@UEAA@XZ"
"??1QGraphicsSceneWheelEvent@@UEAA@XZ"
"??1QGraphicsSimpleTextItem@@UEAA@XZ"
"??1QGraphicsTextItem@@UEAA@XZ"
"??1QGraphicsTransform@@UEAA@XZ"
"??1QGraphicsView@@UEAA@XZ"
"??1QGraphicsViewPrivate@@UEAA@XZ"
"??1QGraphicsWidget@@UEAA@XZ"
"??1QGridLayout@@UEAA@XZ"
"??1QGroupBox@@UEAA@XZ"
"??1QHBoxLayout@@UEAA@XZ"
"??1QHeaderView@@UEAA@XZ"
"??1QInputDialog@@UEAA@XZ"
"??1QItemDelegate@@UEAA@XZ"
"??1QItemEditorCreatorBase@@UEAA@XZ"
"??1QItemEditorFactory@@UEAA@XZ"
"??1QKeySequenceEdit@@UEAA@XZ"
"??1QLCDNumber@@UEAA@XZ"
"??1QLabel@@UEAA@XZ"
"??1QLayout@@UEAA@XZ"
"??1QLayoutItem@@UEAA@XZ"
"??1QLayoutPrivate@@UEAA@XZ"
"??1QLineEdit@@UEAA@XZ"
"??1QListView@@UEAA@XZ"
"??1QListWidget@@UEAA@XZ"
"??1QListWidgetItem@@UEAA@XZ"
"??1QMainWindow@@UEAA@XZ"
"??1QMdiArea@@UEAA@XZ"
"??1QMdiSubWindow@@UEAA@XZ"
"??1QMenu@@UEAA@XZ"
"??1QMenuBar@@UEAA@XZ"
"??1QMessageBox@@UEAA@XZ"
"??1QNumberStyleAnimation@@UEAA@XZ"
"??1QPanGesture@@UEAA@XZ"
"??1QPinchGesture@@UEAA@XZ"
"??1QPixmapBlurFilter@@UEAA@XZ"
"??1QPixmapColorizeFilter@@UEAA@XZ"
"??1QPixmapConvolutionFilter@@UEAA@XZ"
"??1QPixmapDropShadowFilter@@UEAA@XZ"
"??1QPixmapFilter@@UEAA@XZ"
"??1QPixmapStyle@@UEAA@XZ"
"??1QPlainTextDocumentLayout@@UEAA@XZ"
"??1QPlainTextEdit@@UEAA@XZ"
"??1QProgressBar@@UEAA@XZ"
"??1QProgressDialog@@UEAA@XZ"
"??1QProgressStyleAnimation@@UEAA@XZ"
"??1QProxyStyle@@UEAA@XZ"
"??1QPushButton@@UEAA@XZ"
"??1QRadioButton@@UEAA@XZ"
"??1QRhiWidget@@UEAA@XZ"
"??1QRubberBand@@UEAA@XZ"
"??1QScrollArea@@UEAA@XZ"
"??1QScrollBar@@UEAA@XZ"
"??1QScrollbarStyleAnimation@@UEAA@XZ"
"??1QScroller@@EEAA@XZ"
"??1QScrollerProperties@@UEAA@XZ"
"??1QSizeGrip@@UEAA@XZ"
"??1QSlider@@UEAA@XZ"
"??1QSpacerItem@@UEAA@XZ"
"??1QSpinBox@@UEAA@XZ"
"??1QSplashScreen@@UEAA@XZ"
"??1QSplitter@@UEAA@XZ"
"??1QSplitterHandle@@UEAA@XZ"
"??1QStackedLayout@@UEAA@XZ"
"??1QStackedWidget@@UEAA@XZ"
"??1QStatusBar@@UEAA@XZ"
"??1QStyle@@UEAA@XZ"
"??1QStyleAnimation@@UEAA@XZ"
"??1QStyleHintReturn@@QEAA@XZ"
"??1QStyleHintReturnMask@@QEAA@XZ"
"??1QStyleHintReturnVariant@@QEAA@XZ"
"??1QStyleOption@@QEAA@XZ"
"??1QStyleOptionButton@@QEAA@XZ"
"??1QStyleOptionComboBox@@QEAA@XZ"
"??1QStyleOptionComplex@@QEAA@XZ"
"??1QStyleOptionDockWidget@@QEAA@XZ"
"??1QStyleOptionFocusRect@@QEAA@XZ"
"??1QStyleOptionFrame@@QEAA@XZ"
"??1QStyleOptionGraphicsItem@@QEAA@XZ"
"??1QStyleOptionGroupBox@@QEAA@XZ"
"??1QStyleOptionHeader@@QEAA@XZ"
"??1QStyleOptionHeaderV2@@QEAA@XZ"
"??1QStyleOptionMenuItem@@QEAA@XZ"
"??1QStyleOptionProgressBar@@QEAA@XZ"
"??1QStyleOptionRubberBand@@QEAA@XZ"
"??1QStyleOptionSizeGrip@@QEAA@XZ"
"??1QStyleOptionSlider@@QEAA@XZ"
"??1QStyleOptionSpinBox@@QEAA@XZ"
"??1QStyleOptionTab@@QEAA@XZ"
"??1QStyleOptionTabBarBase@@QEAA@XZ"
"??1QStyleOptionTabWidgetFrame@@QEAA@XZ"
"??1QStyleOptionTitleBar@@QEAA@XZ"
"??1QStyleOptionToolBar@@QEAA@XZ"
"??1QStyleOptionToolBox@@QEAA@XZ"
"??1QStyleOptionToolButton@@QEAA@XZ"
"??1QStyleOptionViewItem@@QEAA@XZ"
"??1QStylePlugin@@UEAA@XZ"
"??1QStyledItemDelegate@@UEAA@XZ"
"??1QSwipeGesture@@UEAA@XZ"
"??1QSystemTrayIcon@@UEAA@XZ"
"??1QTabBar@@UEAA@XZ"
"??1QTabBarPrivate@@UEAA@XZ"
"??1QTabWidget@@UEAA@XZ"
"??1QTableView@@UEAA@XZ"
"??1QTableWidget@@UEAA@XZ"
"??1QTableWidgetItem@@UEAA@XZ"
"??1QTapAndHoldGesture@@UEAA@XZ"
"??1QTapGesture@@UEAA@XZ"
"??1QTextBrowser@@UEAA@XZ"
"??1QTextEdit@@UEAA@XZ"
"??1QTimeEdit@@UEAA@XZ"
"??1QToolBar@@UEAA@XZ"
"??1QToolBox@@UEAA@XZ"
"??1QToolButton@@UEAA@XZ"
"??1QTouchEventWidgetSequence@QTest@@UEAA@XZ"
"??1QTreeView@@UEAA@XZ"
"??1QTreeViewPrivate@@UEAA@XZ"
"??1QTreeWidget@@UEAA@XZ"
"??1QTreeWidgetItem@@UEAA@XZ"
"??1QTreeWidgetItemIterator@@QEAA@XZ"
"??1QUndoView@@UEAA@XZ"
"??1QVBoxLayout@@UEAA@XZ"
"??1QWidget@@UEAA@XZ"
"??1QWidgetAction@@UEAA@XZ"
"??1QWidgetItem@@UEAA@XZ"
"??1QWidgetItemV2@@UEAA@XZ"
"??1QWidgetLineControl@@UEAA@XZ"
"??1QWidgetPrivate@@UEAA@XZ"
"??1QWidgetRepaintManager@@QEAA@XZ"
"??1QWidgetTextControl@@UEAA@XZ"
"??1QWindowContainer@@UEAA@XZ"
"??1QWindowsStyle@@UEAA@XZ"
"??1QWindowsStylePrivate@@UEAA@XZ"
"??1QWizard@@UEAA@XZ"
"??1QWizardPage@@UEAA@XZ"
"??1QtWidgetsActionPrivate@@UEAA@XZ"
"??4QColormap@@QEAAAEAV0@AEBV0@@Z"
"??4QGestureEvent@@QEAAAEAV0@AEBV0@@Z"
"??4QGestureRecognizer@@QEAAAEAV0@AEBV0@@Z"
"??4QGraphicsItemPrivate@@QEAAAEAV0@AEBV0@@Z"
"??4QItemEditorCreatorBase@@QEAAAEAV0@AEBV0@@Z"
"??4QItemEditorFactory@@QEAAAEAV0@AEBV0@@Z"
"??4QLayoutItem@@QEAAAEAV0@AEBV0@@Z"
"??4QListWidgetItem@@QEAAAEAV0@AEBV0@@Z"
"??4QScrollerProperties@@QEAAAEAV0@AEBV0@@Z"
"??4QSizePolicy@@QEAAAEAV0@$$QEAV0@@Z"
"??4QSizePolicy@@QEAAAEAV0@AEBV0@@Z"
"??4QSpacerItem@@QEAAAEAV0@AEBV0@@Z"
"??4QStyleFactory@@QEAAAEAV0@$$QEAV0@@Z"
"??4QStyleFactory@@QEAAAEAV0@AEBV0@@Z"
"??4QStyleHintReturn@@QEAAAEAV0@AEBV0@@Z"
"??4QStyleHintReturnMask@@QEAAAEAV0@AEBV0@@Z"
"??4QStyleHintReturnVariant@@QEAAAEAV0@AEBV0@@Z"
"??4QStyleOption@@QEAAAEAV0@AEBV0@@Z"
"??4QStyleOptionButton@@QEAAAEAV0@AEBV0@@Z"
"??4QStyleOptionComboBox@@QEAAAEAV0@AEBV0@@Z"
"??4QStyleOptionComplex@@QEAAAEAV0@AEBV0@@Z"
"??4QStyleOptionDockWidget@@QEAAAEAV0@AEBV0@@Z"
"??4QStyleOptionFocusRect@@QEAAAEAV0@AEBV0@@Z"
"??4QStyleOptionFrame@@QEAAAEAV0@AEBV0@@Z"
"??4QStyleOptionGraphicsItem@@QEAAAEAV0@AEBV0@@Z"
"??4QStyleOptionGroupBox@@QEAAAEAV0@AEBV0@@Z"
"??4QStyleOptionHeader@@QEAAAEAV0@AEBV0@@Z"
"??4QStyleOptionHeaderV2@@QEAAAEAV0@AEBV0@@Z"
"??4QStyleOptionMenuItem@@QEAAAEAV0@AEBV0@@Z"
"??4QStyleOptionProgressBar@@QEAAAEAV0@AEBV0@@Z"
"??4QStyleOptionRubberBand@@QEAAAEAV0@AEBV0@@Z"
"??4QStyleOptionSizeGrip@@QEAAAEAV0@AEBV0@@Z"
"??4QStyleOptionSlider@@QEAAAEAV0@AEBV0@@Z"
"??4QStyleOptionSpinBox@@QEAAAEAV0@AEBV0@@Z"
"??4QStyleOptionTab@@QEAAAEAV0@AEBV0@@Z"
"??4QStyleOptionTabBarBase@@QEAAAEAV0@AEBV0@@Z"
"??4QStyleOptionTabWidgetFrame@@QEAAAEAV0@AEBV0@@Z"
"??4QStyleOptionTitleBar@@QEAAAEAV0@AEBV0@@Z"
"??4QStyleOptionToolBar@@QEAAAEAV0@AEBV0@@Z"
"??4QStyleOptionToolBox@@QEAAAEAV0@AEBV0@@Z"
"??4QStyleOptionToolButton@@QEAAAEAV0@AEBV0@@Z"
"??4QStyleOptionViewItem@@QEAAAEAV0@AEBV0@@Z"
"??4QTableWidgetItem@@QEAAAEAV0@AEBV0@@Z"
"??4QToolTip@@QEAAAEAV0@$$QEAV0@@Z"
"??4QToolTip@@QEAAAEAV0@AEBV0@@Z"
"??4QTouchEventWidgetSequence@QTest@@QEAAAEAV01@AEBV01@@Z"
"??4QTreeWidgetItem@@QEAAAEAV0@AEBV0@@Z"
"??4QTreeWidgetItemIterator@@QEAAAEAV0@AEBV0@@Z"
"??4QWhatsThis@@QEAAAEAV0@$$QEAV0@@Z"
"??4QWhatsThis@@QEAAAEAV0@AEBV0@@Z"
"??5@YAAEAVQDataStream@@AEAV0@AEAVQListWidgetItem@@@Z"
"??5@YAAEAVQDataStream@@AEAV0@AEAVQSizePolicy@@@Z"
"??5@YAAEAVQDataStream@@AEAV0@AEAVQTableWidgetItem@@@Z"
"??5@YAAEAVQDataStream@@AEAV0@AEAVQTreeWidgetItem@@@Z"
"??6@YA?AVQDebug@@V0@AEBVQSizePolicy@@@Z"
"??6@YA?AVQDebug@@V0@AEBVQStyleOption@@@Z"
"??6@YA?AVQDebug@@V0@AEBW4OptionType@QStyleOption@@@Z"
"??6@YA?AVQDebug@@V0@PEBVQDockWidget@@@Z"
"??6@YA?AVQDebug@@V0@PEBVQGesture@@@Z"
"??6@YA?AVQDebug@@V0@PEBVQGestureEvent@@@Z"
"??6@YA?AVQDebug@@V0@PEBVQGraphicsItem@@@Z"
"??6@YA?AVQDebug@@V0@PEBVQGraphicsObject@@@Z"
"??6@YA?AVQDebug@@V0@PEBVQGraphicsSceneEvent@@@Z"
"??6@YA?AVQDebug@@V0@PEBVQWidget@@@Z"
"??6@YA?AVQDebug@@V0@V?$QFlags@W4GraphicsItemFlag@QGraphicsItem@@@@@Z"
"??6@YA?AVQDebug@@V0@W4GraphicsItemChange@QGraphicsItem@@@Z"
"??6@YA?AVQDebug@@V0@W4GraphicsItemFlag@QGraphicsItem@@@Z"
"??6@YAAEAVQDataStream@@AEAV0@AEBVQListWidgetItem@@@Z"
"??6@YAAEAVQDataStream@@AEAV0@AEBVQSizePolicy@@@Z"
"??6@YAAEAVQDataStream@@AEAV0@AEBVQTableWidgetItem@@@Z"
"??6@YAAEAVQDataStream@@AEAV0@AEBVQTreeWidgetItem@@@Z"
"??8QScrollerProperties@@QEBA_NAEBV0@@Z"
"??8QSizePolicy@@QEBA_NAEBV0@@Z"
"??9QScrollerProperties@@QEBA_NAEBV0@@Z"
"??9QSizePolicy@@QEBA_NAEBV0@@Z"
"??BQSizePolicy@@QEBA?AVQVariant@@XZ"
"??DQTreeWidgetItemIterator@@QEBAPEAVQTreeWidgetItem@@XZ"
"??EQTreeWidgetItemIterator@@QEAA?BV0@H@Z"
"??EQTreeWidgetItemIterator@@QEAAAEAV0@XZ"
"??FQTreeWidgetItemIterator@@QEAA?BV0@H@Z"
"??FQTreeWidgetItemIterator@@QEAAAEAV0@XZ"
"??MQListWidgetItem@@UEBA_NAEBV0@@Z"
"??MQTableWidgetItem@@UEBA_NAEBV0@@Z"
"??MQTreeWidgetItem@@UEBA_NAEBV0@@Z"
"??YQTreeWidgetItemIterator@@QEAAAEAV0@H@Z"
"??ZQTreeWidgetItemIterator@@QEAAAEAV0@H@Z"
"??_7QAbstractButton@@6BQObject@@@"
"??_7QAbstractButton@@6BQPaintDevice@@@"
"??_7QAbstractGraphicsShapeItem@@6B@"
"??_7QAbstractItemDelegate@@6B@"
"??_7QAbstractItemView@@6BQObject@@@"
"??_7QAbstractItemView@@6BQPaintDevice@@@"
"??_7QAbstractScrollArea@@6BQObject@@@"
"??_7QAbstractScrollArea@@6BQPaintDevice@@@"
"??_7QAbstractSlider@@6BQObject@@@"
"??_7QAbstractSlider@@6BQPaintDevice@@@"
"??_7QAbstractSpinBox@@6BQObject@@@"
"??_7QAbstractSpinBox@@6BQPaintDevice@@@"
"??_7QAccessibleWidget@@6BQAccessibleActionInterface@@@"
"??_7QAccessibleWidget@@6BQAccessibleObject@@@"
"??_7QApplication@@6B@"
"??_7QApplicationPrivate@@6B@"
"??_7QBlendStyleAnimation@@6B@"
"??_7QBoxLayout@@6BQLayoutItem@@@"
"??_7QBoxLayout@@6BQObject@@@"
"??_7QButtonGroup@@6B@"
"??_7QCalendarWidget@@6BQObject@@@"
"??_7QCalendarWidget@@6BQPaintDevice@@@"
"??_7QCheckBox@@6BQObject@@@"
"??_7QCheckBox@@6BQPaintDevice@@@"
"??_7QColorDialog@@6BQObject@@@"
"??_7QColorDialog@@6BQPaintDevice@@@"
"??_7QColumnView@@6BQObject@@@"
"??_7QColumnView@@6BQPaintDevice@@@"
"??_7QComboBox@@6BQObject@@@"
"??_7QComboBox@@6BQPaintDevice@@@"
"??_7QComboBoxPrivateContainer@@6BQObject@@@"
"??_7QComboBoxPrivateContainer@@6BQPaintDevice@@@"
"??_7QCommandLinkButton@@6BQObject@@@"
"??_7QCommandLinkButton@@6BQPaintDevice@@@"
"??_7QCommonStyle@@6B@"
"??_7QCommonStylePrivate@@6B@"
"??_7QCompleter@@6B@"
"??_7QDataWidgetMapper@@6B@"
"??_7QDateEdit@@6BQObject@@@"
"??_7QDateEdit@@6BQPaintDevice@@@"
"??_7QDateTimeEdit@@6BQObject@@@"
"??_7QDateTimeEdit@@6BQPaintDevice@@@"
"??_7QDial@@6BQObject@@@"
"??_7QDial@@6BQPaintDevice@@@"
"??_7QDialog@@6BQObject@@@"
"??_7QDialog@@6BQPaintDevice@@@"
"??_7QDialogButtonBox@@6BQObject@@@"
"??_7QDialogButtonBox@@6BQPaintDevice@@@"
"??_7QDialogPrivate@@6B@"
"??_7QDockWidget@@6BQObject@@@"
"??_7QDockWidget@@6BQPaintDevice@@@"
"??_7QDockWidgetLayout@@6BQLayoutItem@@@"
"??_7QDockWidgetLayout@@6BQObject@@@"
"??_7QDoubleSpinBox@@6BQObject@@@"
"??_7QDoubleSpinBox@@6BQPaintDevice@@@"
"??_7QErrorMessage@@6BQObject@@@"
"??_7QErrorMessage@@6BQPaintDevice@@@"
"??_7QFSCompleter@@6B@"
"??_7QFileDialog@@6BQObject@@@"
"??_7QFileDialog@@6BQPaintDevice@@@"
"??_7QFileDialogPrivate@@6B@"
"??_7QFileIconProvider@@6B@"
"??_7QFlickGesture@@6B@"
"??_7QFocusFrame@@6BQObject@@@"
"??_7QFocusFrame@@6BQPaintDevice@@@"
"??_7QFontComboBox@@6BQObject@@@"
"??_7QFontComboBox@@6BQPaintDevice@@@"
"??_7QFontDialog@@6BQObject@@@"
"??_7QFontDialog@@6BQPaintDevice@@@"
"??_7QFormLayout@@6BQLayoutItem@@@"
"??_7QFormLayout@@6BQObject@@@"
"??_7QFrame@@6BQObject@@@"
"??_7QFrame@@6BQPaintDevice@@@"
"??_7QFusionStyle@@6B@"
"??_7QGesture@@6B@"
"??_7QGestureEvent@@6B@"
"??_7QGestureRecognizer@@6B@"
"??_7QGraphicsAnchor@@6B@"
"??_7QGraphicsAnchorLayout@@6B@"
"??_7QGraphicsBlurEffect@@6B@"
"??_7QGraphicsColorizeEffect@@6B@"
"??_7QGraphicsDropShadowEffect@@6B@"
"??_7QGraphicsEffect@@6B@"
"??_7QGraphicsEffectPrivate@@6B@"
"??_7QGraphicsEffectSource@@6B@"
"??_7QGraphicsEllipseItem@@6B@"
"??_7QGraphicsGridLayout@@6B@"
"??_7QGraphicsItem@@6B@"
"??_7QGraphicsItemAnimation@@6B@"
"??_7QGraphicsItemGroup@@6B@"
"??_7QGraphicsItemPrivate@@6B@"
"??_7QGraphicsLayout@@6B@"
"??_7QGraphicsLayoutItem@@6B@"
"??_7QGraphicsLineItem@@6B@"
"??_7QGraphicsLinearLayout@@6B@"
"??_7QGraphicsObject@@6BQGraphicsItem@@@"
"??_7QGraphicsObject@@6BQObject@@@"
"??_7QGraphicsOpacityEffect@@6B@"
"??_7QGraphicsPathItem@@6B@"
"??_7QGraphicsPixmapItem@@6B@"
"??_7QGraphicsPolygonItem@@6B@"
"??_7QGraphicsProxyWidget@@6B@"
"??_7QGraphicsProxyWidget@@6BQGraphicsItem@@@"
"??_7QGraphicsProxyWidget@@6BQObject@@@"
"??_7QGraphicsRectItem@@6B@"
"??_7QGraphicsRotation@@6B@"
"??_7QGraphicsScale@@6B@"
"??_7QGraphicsScene@@6B@"
"??_7QGraphicsSceneContextMenuEvent@@6B@"
"??_7QGraphicsSceneDragDropEvent@@6B@"
"??_7QGraphicsSceneEvent@@6B@"
"??_7QGraphicsSceneHelpEvent@@6B@"
"??_7QGraphicsSceneHoverEvent@@6B@"
"??_7QGraphicsSceneMouseEvent@@6B@"
"??_7QGraphicsSceneMoveEvent@@6B@"
"??_7QGraphicsSceneResizeEvent@@6B@"
"??_7QGraphicsSceneWheelEvent@@6B@"
"??_7QGraphicsSimpleTextItem@@6B@"
"??_7QGraphicsTextItem@@6BQGraphicsItem@@@"
"??_7QGraphicsTextItem@@6BQObject@@@"
"??_7QGraphicsTransform@@6B@"
"??_7QGraphicsView@@6BQObject@@@"
"??_7QGraphicsView@@6BQPaintDevice@@@"
"??_7QGraphicsViewPrivate@@6B@"
"??_7QGraphicsWidget@@6B@"
"??_7QGraphicsWidget@@6BQGraphicsItem@@@"
"??_7QGraphicsWidget@@6BQObject@@@"
"??_7QGridLayout@@6BQLayoutItem@@@"
"??_7QGridLayout@@6BQObject@@@"
"??_7QGroupBox@@6BQObject@@@"
"??_7QGroupBox@@6BQPaintDevice@@@"
"??_7QHBoxLayout@@6BQLayoutItem@@@"
"??_7QHBoxLayout@@6BQObject@@@"
"??_7QHeaderView@@6BQObject@@@"
"??_7QHeaderView@@6BQPaintDevice@@@"
"??_7QInputDialog@@6BQObject@@@"
"??_7QInputDialog@@6BQPaintDevice@@@"
"??_7QItemDelegate@@6B@"
"??_7QItemEditorCreatorBase@@6B@"
"??_7QItemEditorFactory@@6B@"
"??_7QKeySequenceEdit@@6BQObject@@@"
"??_7QKeySequenceEdit@@6BQPaintDevice@@@"
"??_7QLCDNumber@@6BQObject@@@"
"??_7QLCDNumber@@6BQPaintDevice@@@"
"??_7QLabel@@6BQObject@@@"
"??_7QLabel@@6BQPaintDevice@@@"
"??_7QLayout@@6BQLayoutItem@@@"
"??_7QLayout@@6BQObject@@@"
"??_7QLayoutItem@@6B@"
"??_7QLayoutPrivate@@6B@"
"??_7QLineEdit@@6BQObject@@@"
"??_7QLineEdit@@6BQPaintDevice@@@"
"??_7QListView@@6BQObject@@@"
"??_7QListView@@6BQPaintDevice@@@"
"??_7QListWidget@@6BQObject@@@"
"??_7QListWidget@@6BQPaintDevice@@@"
"??_7QListWidgetItem@@6B@"
"??_7QMainWindow@@6BQObject@@@"
"??_7QMainWindow@@6BQPaintDevice@@@"
"??_7QMdiArea@@6BQObject@@@"
"??_7QMdiArea@@6BQPaintDevice@@@"
"??_7QMdiSubWindow@@6BQObject@@@"
"??_7QMdiSubWindow@@6BQPaintDevice@@@"
"??_7QMenu@@6BQObject@@@"
"??_7QMenu@@6BQPaintDevice@@@"
"??_7QMenuBar@@6BQObject@@@"
"??_7QMenuBar@@6BQPaintDevice@@@"
"??_7QMessageBox@@6BQObject@@@"
"??_7QMessageBox@@6BQPaintDevice@@@"
"??_7QNumberStyleAnimation@@6B@"
"??_7QPanGesture@@6B@"
"??_7QPinchGesture@@6B@"
"??_7QPixmapBlurFilter@@6B@"
"??_7QPixmapColorizeFilter@@6B@"
"??_7QPixmapConvolutionFilter@@6B@"
"??_7QPixmapDropShadowFilter@@6B@"
"??_7QPixmapFilter@@6B@"
"??_7QPixmapStyle@@6B@"
"??_7QPlainTextDocumentLayout@@6B@"
"??_7QPlainTextEdit@@6BQObject@@@"
"??_7QPlainTextEdit@@6BQPaintDevice@@@"
"??_7QProgressBar@@6BQObject@@@"
"??_7QProgressBar@@6BQPaintDevice@@@"
"??_7QProgressDialog@@6BQObject@@@"
"??_7QProgressDialog@@6BQPaintDevice@@@"
"??_7QProgressStyleAnimation@@6B@"
"??_7QProxyStyle@@6B@"
"??_7QPushButton@@6BQObject@@@"
"??_7QPushButton@@6BQPaintDevice@@@"
"??_7QRadioButton@@6BQObject@@@"
"??_7QRadioButton@@6BQPaintDevice@@@"
"??_7QRhiWidget@@6BQObject@@@"
"??_7QRhiWidget@@6BQPaintDevice@@@"
"??_7QRubberBand@@6BQObject@@@"
"??_7QRubberBand@@6BQPaintDevice@@@"
"??_7QScrollArea@@6BQObject@@@"
"??_7QScrollArea@@6BQPaintDevice@@@"
"??_7QScrollBar@@6BQObject@@@"
"??_7QScrollBar@@6BQPaintDevice@@@"
"??_7QScrollbarStyleAnimation@@6B@"
"??_7QScroller@@6B@"
"??_7QScrollerProperties@@6B@"
"??_7QSizeGrip@@6BQObject@@@"
"??_7QSizeGrip@@6BQPaintDevice@@@"
"??_7QSlider@@6BQObject@@@"
"??_7QSlider@@6BQPaintDevice@@@"
"??_7QSpacerItem@@6B@"
"??_7QSpinBox@@6BQObject@@@"
"??_7QSpinBox@@6BQPaintDevice@@@"
"??_7QSplashScreen@@6BQObject@@@"
"??_7QSplashScreen@@6BQPaintDevice@@@"
"??_7QSplitter@@6BQObject@@@"
"??_7QSplitter@@6BQPaintDevice@@@"
"??_7QSplitterHandle@@6BQObject@@@"
"??_7QSplitterHandle@@6BQPaintDevice@@@"
"??_7QStackedLayout@@6BQLayoutItem@@@"
"??_7QStackedLayout@@6BQObject@@@"
"??_7QStackedWidget@@6BQObject@@@"
"??_7QStackedWidget@@6BQPaintDevice@@@"
"??_7QStatusBar@@6BQObject@@@"
"??_7QStatusBar@@6BQPaintDevice@@@"
"??_7QStyle@@6B@"
"??_7QStyleAnimation@@6B@"
"??_7QStylePlugin@@6B@"
"??_7QStyledItemDelegate@@6B@"
"??_7QSwipeGesture@@6B@"
"??_7QSystemTrayIcon@@6B@"
"??_7QTabBar@@6BQObject@@@"
"??_7QTabBar@@6BQPaintDevice@@@"
"??_7QTabBarPrivate@@6B@"
"??_7QTabWidget@@6BQObject@@@"
"??_7QTabWidget@@6BQPaintDevice@@@"
"??_7QTableView@@6BQObject@@@"
"??_7QTableView@@6BQPaintDevice@@@"
"??_7QTableWidget@@6BQObject@@@"
"??_7QTableWidget@@6BQPaintDevice@@@"
"??_7QTableWidgetItem@@6B@"
"??_7QTapAndHoldGesture@@6B@"
"??_7QTapGesture@@6B@"
"??_7QTextBrowser@@6BQObject@@@"
"??_7QTextBrowser@@6BQPaintDevice@@@"
"??_7QTextEdit@@6BQObject@@@"
"??_7QTextEdit@@6BQPaintDevice@@@"
"??_7QTimeEdit@@6BQObject@@@"
"??_7QTimeEdit@@6BQPaintDevice@@@"
"??_7QToolBar@@6BQObject@@@"
"??_7QToolBar@@6BQPaintDevice@@@"
"??_7QToolBox@@6BQObject@@@"
"??_7QToolBox@@6BQPaintDevice@@@"
"??_7QToolButton@@6BQObject@@@"
"??_7QToolButton@@6BQPaintDevice@@@"
"??_7QTouchEventWidgetSequence@QTest@@6B@"
"??_7QTreeView@@6BQObject@@@"
"??_7QTreeView@@6BQPaintDevice@@@"
"??_7QTreeViewPrivate@@6B@"
"??_7QTreeWidget@@6BQObject@@@"
"??_7QTreeWidget@@6BQPaintDevice@@@"
"??_7QTreeWidgetItem@@6B@"
"??_7QUndoView@@6BQObject@@@"
"??_7QUndoView@@6BQPaintDevice@@@"
"??_7QVBoxLayout@@6BQLayoutItem@@@"
"??_7QVBoxLayout@@6BQObject@@@"
"??_7QWidget@@6BQObject@@@"
"??_7QWidget@@6BQPaintDevice@@@"
"??_7QWidgetAction@@6B@"
"??_7QWidgetItem@@6B@"
"??_7QWidgetItemV2@@6B@"
"??_7QWidgetLineControl@@6B@"
"??_7QWidgetPrivate@@6B@"
"??_7QWidgetTextControl@@6B@"
"??_7QWindowContainer@@6BQObject@@@"
"??_7QWindowContainer@@6BQPaintDevice@@@"
"??_7QWindowsStyle@@6B@"
"??_7QWindowsStylePrivate@@6B@"
"??_7QWizard@@6BQObject@@@"
"??_7QWizard@@6BQPaintDevice@@@"
"??_7QWizardPage@@6BQObject@@@"
"??_7QWizardPage@@6BQPaintDevice@@@"
"??_7QtWidgetsActionPrivate@@6B@"
"??_FQAbstractButton@@QEAAXXZ"
"??_FQAbstractGraphicsShapeItem@@QEAAXXZ"
"??_FQAbstractItemDelegate@@QEAAXXZ"
"??_FQAbstractItemView@@QEAAXXZ"
"??_FQAbstractScrollArea@@QEAAXXZ"
"??_FQAbstractSlider@@QEAAXXZ"
"??_FQAbstractSpinBox@@QEAAXXZ"
"??_FQButtonGroup@@QEAAXXZ"
"??_FQCalendarWidget@@QEAAXXZ"
"??_FQCheckBox@@QEAAXXZ"
"??_FQColorDialog@@QEAAXXZ"
"??_FQColumnView@@QEAAXXZ"
"??_FQComboBox@@QEAAXXZ"
"??_FQCommandLinkButton@@QEAAXXZ"
"??_FQCompleter@@QEAAXXZ"
"??_FQDataWidgetMapper@@QEAAXXZ"
"??_FQDateEdit@@QEAAXXZ"
"??_FQDateTimeEdit@@QEAAXXZ"
"??_FQDial@@QEAAXXZ"
"??_FQDialog@@QEAAXXZ"
"??_FQDialogButtonBox@@QEAAXXZ"
"??_FQDockWidget@@QEAAXXZ"
"??_FQDockWidgetLayout@@QEAAXXZ"
"??_FQDoubleSpinBox@@QEAAXXZ"
"??_FQErrorMessage@@QEAAXXZ"
"??_FQFileDialog@@QEAAXXZ"
"??_FQFocusFrame@@QEAAXXZ"
"??_FQFontComboBox@@QEAAXXZ"
"??_FQFontDialog@@QEAAXXZ"
"??_FQFormLayout@@QEAAXXZ"
"??_FQFrame@@QEAAXXZ"
"??_FQGesture@@QEAAXXZ"
"??_FQGraphicsAnchorLayout@@QEAAXXZ"
"??_FQGraphicsBlurEffect@@QEAAXXZ"
"??_FQGraphicsColorizeEffect@@QEAAXXZ"
"??_FQGraphicsDropShadowEffect@@QEAAXXZ"
"??_FQGraphicsEffect@@QEAAXXZ"
"??_FQGraphicsEllipseItem@@QEAAXXZ"
"??_FQGraphicsGridLayout@@QEAAXXZ"
"??_FQGraphicsItem@@QEAAXXZ"
"??_FQGraphicsItemAnimation@@QEAAXXZ"
"??_FQGraphicsItemGroup@@QEAAXXZ"
"??_FQGraphicsLayout@@QEAAXXZ"
"??_FQGraphicsLayoutItem@@QEAAXXZ"
"??_FQGraphicsLineItem@@QEAAXXZ"
"??_FQGraphicsLinearLayout@@QEAAXXZ"
"??_FQGraphicsObject@@QEAAXXZ"
"??_FQGraphicsOpacityEffect@@QEAAXXZ"
"??_FQGraphicsPathItem@@QEAAXXZ"
"??_FQGraphicsPixmapItem@@QEAAXXZ"
"??_FQGraphicsPolygonItem@@QEAAXXZ"
"??_FQGraphicsProxyWidget@@QEAAXXZ"
"??_FQGraphicsRectItem@@QEAAXXZ"
"??_FQGraphicsRotation@@QEAAXXZ"
"??_FQGraphicsScale@@QEAAXXZ"
"??_FQGraphicsScene@@QEAAXXZ"
"??_FQGraphicsSceneContextMenuEvent@@QEAAXXZ"
"??_FQGraphicsSceneDragDropEvent@@QEAAXXZ"
"??_FQGraphicsSceneHelpEvent@@QEAAXXZ"
"??_FQGraphicsSceneHoverEvent@@QEAAXXZ"
"??_FQGraphicsSceneMouseEvent@@QEAAXXZ"
"??_FQGraphicsSceneWheelEvent@@QEAAXXZ"
"??_FQGraphicsSimpleTextItem@@QEAAXXZ"
"??_FQGraphicsTextItem@@QEAAXXZ"
"??_FQGraphicsTransform@@QEAAXXZ"
"??_FQGraphicsView@@QEAAXXZ"
"??_FQGraphicsWidget@@QEAAXXZ"
"??_FQGridLayout@@QEAAXXZ"
"??_FQGroupBox@@QEAAXXZ"
"??_FQInputDialog@@QEAAXXZ"
"??_FQItemDelegate@@QEAAXXZ"
"??_FQKeySequenceEdit@@QEAAXXZ"
"??_FQLCDNumber@@QEAAXXZ"
"??_FQLabel@@QEAAXXZ"
"??_FQLayout@@QEAAXXZ"
"??_FQLayoutItem@@QEAAXXZ"
"??_FQLineEdit@@QEAAXXZ"
"??_FQListView@@QEAAXXZ"
"??_FQListWidget@@QEAAXXZ"
"??_FQListWidgetItem@@QEAAXXZ"
"??_FQMainWindow@@QEAAXXZ"
"??_FQMdiArea@@QEAAXXZ"
"??_FQMdiSubWindow@@QEAAXXZ"
"??_FQMenu@@QEAAXXZ"
"??_FQMenuBar@@QEAAXXZ"
"??_FQMessageBox@@QEAAXXZ"
"??_FQPanGesture@@QEAAXXZ"
"??_FQPinchGesture@@QEAAXXZ"
"??_FQPixmapBlurFilter@@QEAAXXZ"
"??_FQPixmapColorizeFilter@@QEAAXXZ"
"??_FQPixmapConvolutionFilter@@QEAAXXZ"
"??_FQPixmapDropShadowFilter@@QEAAXXZ"
"??_FQPlainTextEdit@@QEAAXXZ"
"??_FQProgressBar@@QEAAXXZ"
"??_FQProgressDialog@@QEAAXXZ"
"??_FQProxyStyle@@QEAAXXZ"
"??_FQPushButton@@QEAAXXZ"
"??_FQRadioButton@@QEAAXXZ"
"??_FQRhiWidget@@QEAAXXZ"
"??_FQScrollArea@@QEAAXXZ"
"??_FQScrollBar@@QEAAXXZ"
"??_FQSlider@@QEAAXXZ"
"??_FQSpinBox@@QEAAXXZ"
"??_FQSplashScreen@@QEAAXXZ"
"??_FQSplitter@@QEAAXXZ"
"??_FQStackedWidget@@QEAAXXZ"
"??_FQStatusBar@@QEAAXXZ"
"??_FQStyleHintReturn@@QEAAXXZ"
"??_FQStyleOption@@QEAAXXZ"
"??_FQStyleOptionComplex@@QEAAXXZ"
"??_FQStylePlugin@@QEAAXXZ"
"??_FQStyledItemDelegate@@QEAAXXZ"
"??_FQSwipeGesture@@QEAAXXZ"
"??_FQSystemTrayIcon@@QEAAXXZ"
"??_FQTabBar@@QEAAXXZ"
"??_FQTabWidget@@QEAAXXZ"
"??_FQTableView@@QEAAXXZ"
"??_FQTableWidget@@QEAAXXZ"
"??_FQTableWidgetItem@@QEAAXXZ"
"??_FQTapAndHoldGesture@@QEAAXXZ"
"??_FQTapGesture@@QEAAXXZ"
"??_FQTextBrowser@@QEAAXXZ"
"??_FQTextEdit@@QEAAXXZ"
"??_FQTimeEdit@@QEAAXXZ"
"??_FQToolBar@@QEAAXXZ"
"??_FQToolBox@@QEAAXXZ"
"??_FQToolButton@@QEAAXXZ"
"??_FQTreeView@@QEAAXXZ"
"??_FQTreeWidget@@QEAAXXZ"
"??_FQTreeWidgetItem@@QEAAXXZ"
"??_FQUndoView@@QEAAXXZ"
"??_FQWidget@@QEAAXXZ"
"??_FQWidgetLineControl@@QEAAXXZ"
"??_FQWidgetPrivate@@QEAAXXZ"
"??_FQWidgetTextControl@@QEAAXXZ"
"??_FQWizard@@QEAAXXZ"
"??_FQWizardPage@@QEAAXXZ"
"?_q_closestWindowHandle@QWidgetPrivate@@QEBAPEAVQWindow@@XZ"
"?_q_deleteSelected@QWidgetLineControl@@AEAAXXZ"
"?_q_setViewportCursor@QGraphicsViewPrivate@@QEAAXAEBVQCursor@@@Z"
"?_q_showIfNotHidden@QWidgetPrivate@@QEAAXXZ"
"?_q_unsetViewportCursor@QGraphicsViewPrivate@@QEAAXXZ"
"?about@QMessageBox@@SAXPEAVQWidget@@AEBVQString@@1@Z"
"?aboutQt@QApplication@@SAXXZ"
"?aboutQt@QMessageBox@@SAXPEAVQWidget@@AEBVQString@@@Z"
"?aboutToActivate@QMdiSubWindow@@QEAAXXZ"
"?aboutToDestroy@QWidgetPrivate@@UEAAXXZ"
"?aboutToHide@QMenu@@QEAAXXZ"
"?aboutToShow@QMenu@@QEAAXXZ"
"?above@QTreeViewPrivate@@QEBAHH@Z"
"?acceleration@QPanGesture@@QEBANXZ"
"?accept@QDialog@@UEAAXXZ"
"?accept@QFileDialog@@MEAAXXZ"
"?accept@QGestureEvent@@QEAAXPEAVQGesture@@@Z"
"?accept@QGestureEvent@@QEAAXW4GestureType@Qt@@@Z"
"?acceptDrops@QGraphicsItem@@QEBA_NXZ"
"?acceptDrops@QWidget@@QEBA_NXZ"
"?acceptHoverEvents@QGraphicsItem@@QEBA_NXZ"
"?acceptMode@QFileDialog@@QEBA?AW4AcceptMode@1@XZ"
"?acceptProposedAction@QGraphicsSceneDragDropEvent@@QEAAXXZ"
"?acceptRichText@QTextEdit@@QEBA_NXZ"
"?acceptRichText@QWidgetTextControl@@QEBA_NXZ"
"?acceptTouchEvents@QGraphicsItem@@QEBA_NXZ"
"?accepted@QDialog@@QEAAXXZ"
"?accepted@QDialogButtonBox@@QEAAXXZ"
"?accepted@QWidgetLineControl@@QEAAXXZ"
"?acceptedMouseButtons@QGraphicsItem@@QEBA?AV?$QFlags@W4MouseButton@Qt@@@@XZ"
"?accessibleDescription@QWidget@@QEBA?AVQString@@XZ"
"?accessibleName@QWidget@@QEBA?AVQString@@XZ"
"?accessibleObject@QWidgetLineControl@@QEAAPEAVQObject@@XZ"
"?accessibleTabName@QTabBar@@QEBA?AVQString@@H@Z"
"?accessibleTable2Index@QTreeViewPrivate@@QEBAHAEBVQModelIndex@@@Z"
"?accessibleTree2Index@QTreeViewPrivate@@QEBAHAEBVQModelIndex@@@Z"
"?actionAt@QMenu@@QEBAPEAVQAction@@AEBVQPoint@@@Z"
"?actionAt@QMenuBar@@QEBAPEAVQAction@@AEBVQPoint@@@Z"
"?actionAt@QToolBar@@QEBAPEAVQAction@@AEBVQPoint@@@Z"
"?actionAt@QToolBar@@QEBAPEAVQAction@@HH@Z"
"?actionEvent@QMenu@@MEAAXPEAVQActionEvent@@@Z"
"?actionEvent@QMenuBar@@MEAAXPEAVQActionEvent@@@Z"
"?actionEvent@QToolBar@@MEAAXPEAVQActionEvent@@@Z"
"?actionEvent@QToolButton@@MEAAXPEAVQActionEvent@@@Z"
"?actionEvent@QWidget@@MEAAXPEAVQActionEvent@@@Z"
"?actionGeometry@QMenu@@QEBA?AVQRect@@PEAVQAction@@@Z"
"?actionGeometry@QMenuBar@@QEBA?AVQRect@@PEAVQAction@@@Z"
"?actionGeometry@QToolBar@@QEBA?AVQRect@@PEAVQAction@@@Z"
"?actionNames@QAccessibleWidget@@UEBA?AV?$QList@VQString@@@@XZ"
"?actionTriggered@QAbstractSlider@@QEAAXH@Z"
"?actionTriggered@QToolBar@@QEAAXPEAVQAction@@@Z"
"?actions@QGraphicsWidget@@QEBA?AV?$QList@PEAVQAction@@@@XZ"
"?actions@QWidget@@QEBA?AV?$QList@PEAVQAction@@@@XZ"
"?activate@QGraphicsLayout@@QEAAXXZ"
"?activate@QLayout@@QEAA_NXZ"
"?activateChildLayoutsRecursively@QWidgetPrivate@@QEAAXXZ"
"?activateImplicitTouchGrab@QApplicationPrivate@@QEAAXPEAVQWidget@@PEAVQTouchEvent@@W4ImplicitTouchGrabMode@1@@Z"
"?activateNextSubWindow@QMdiArea@@QEAAXXZ"
"?activatePreviousSubWindow@QMdiArea@@QEAAXXZ"
"?activateRecursiveHelper@QLayout@@CAXPEAVQLayoutItem@@@Z"
"?activateWindow@QWidget@@QEAAXXZ"
"?activated@QAbstractItemView@@QEAAXAEBVQModelIndex@@@Z"
"?activated@QCalendarWidget@@QEAAXVQDate@@@Z"
"?activated@QComboBox@@QEAAXH@Z"
"?activated@QCompleter@@QEAAXAEBVQModelIndex@@@Z"
"?activated@QCompleter@@QEAAXAEBVQString@@@Z"
"?activated@QSystemTrayIcon@@QEAAXW4ActivationReason@1@@Z"
"?activationOrder@QMdiArea@@QEBA?AW4WindowOrder@1@XZ"
"?activeAction@QMenu@@QEBAPEAVQAction@@XZ"
"?activeAction@QMenuBar@@QEBAPEAVQAction@@XZ"
"?activeGestures@QGestureEvent@@QEBA?AV?$QList@PEAVQGesture@@@@XZ"
"?activeModalWidget@QApplication@@SAPEAVQWidget@@XZ"
"?activePanel@QGraphicsScene@@QEBAPEAVQGraphicsItem@@XZ"
"?activePopupWidget@QApplication@@SAPEAVQWidget@@XZ"
"?activeScrollers@QScroller@@SA?AV?$QList@PEAVQScroller@@@@XZ"
"?activeSubWindow@QMdiArea@@QEBAPEAVQMdiSubWindow@@XZ"
"?activeWindow@QApplication@@SAPEAVQWidget@@XZ"
"?activeWindow@QGraphicsScene@@QEBAPEAVQGraphicsWidget@@XZ"
"?active_window@QApplicationPrivate@@0PEAVQWidget@@EA"
"?addAction@QGraphicsWidget@@QEAAXPEAVQAction@@@Z"
"?addAction@QLineEdit@@QEAAPEAVQAction@@AEBVQIcon@@W4ActionPosition@1@@Z"
"?addAction@QLineEdit@@QEAAXPEAVQAction@@W4ActionPosition@1@@Z"
"?addAction@QMenu@@QEAAPEAVQAction@@AEBVQIcon@@AEBVQString@@@Z"
"?addAction@QMenu@@QEAAPEAVQAction@@AEBVQIcon@@AEBVQString@@PEBVQObject@@PEBDAEBVQKeySequence@@@Z"
"?addAction@QMenu@@QEAAPEAVQAction@@AEBVQString@@@Z"
"?addAction@QMenu@@QEAAPEAVQAction@@AEBVQString@@PEBVQObject@@PEBDAEBVQKeySequence@@@Z"
"?addAction@QMenuBar@@QEAAPEAVQAction@@AEBVQString@@@Z"
"?addAction@QMenuBar@@QEAAPEAVQAction@@AEBVQString@@PEBVQObject@@PEBD@Z"
"?addAction@QToolBar@@QEAAPEAVQAction@@AEBVQIcon@@AEBVQString@@@Z"
"?addAction@QToolBar@@QEAAPEAVQAction@@AEBVQIcon@@AEBVQString@@PEBVQObject@@PEBD@Z"
"?addAction@QToolBar@@QEAAPEAVQAction@@AEBVQString@@@Z"
"?addAction@QToolBar@@QEAAPEAVQAction@@AEBVQString@@PEBVQObject@@PEBD@Z"
"?addAction@QWidget@@QEAAPEAVQAction@@AEBVQIcon@@AEBVQString@@@Z"
"?addAction@QWidget@@QEAAPEAVQAction@@AEBVQIcon@@AEBVQString@@AEBVQKeySequence@@@Z"
"?addAction@QWidget@@QEAAPEAVQAction@@AEBVQIcon@@AEBVQString@@AEBVQKeySequence@@PEBVQObject@@PEBDW4ConnectionType@Qt@@@Z"
"?addAction@QWidget@@QEAAPEAVQAction@@AEBVQIcon@@AEBVQString@@PEBVQObject@@PEBDW4ConnectionType@Qt@@@Z"
"?addAction@QWidget@@QEAAPEAVQAction@@AEBVQString@@@Z"
"?addAction@QWidget@@QEAAPEAVQAction@@AEBVQString@@AEBVQKeySequence@@@Z"
"?addAction@QWidget@@QEAAPEAVQAction@@AEBVQString@@AEBVQKeySequence@@PEBVQObject@@PEBDW4ConnectionType@Qt@@@Z"
"?addAction@QWidget@@QEAAPEAVQAction@@AEBVQString@@PEBVQObject@@PEBDW4ConnectionType@Qt@@@Z"
"?addAction@QWidget@@QEAAXPEAVQAction@@@Z"
"?addActions@QGraphicsWidget@@QEAAXAEBV?$QList@PEAVQAction@@@@@Z"
"?addActions@QWidget@@QEAAXAEBV?$QList@PEAVQAction@@@@@Z"
"?addAnchor@QGraphicsAnchorLayout@@QEAAPEAVQGraphicsAnchor@@PEAVQGraphicsLayoutItem@@W4AnchorPoint@Qt@@01@Z"
"?addAnchors@QGraphicsAnchorLayout@@QEAAXPEAVQGraphicsLayoutItem@@0V?$QFlags@W4Orientation@Qt@@@@@Z"
"?addButton@QButtonGroup@@QEAAXPEAVQAbstractButton@@H@Z"
"?addButton@QDialogButtonBox@@QEAAPEAVQPushButton@@AEBVQString@@W4ButtonRole@1@@Z"
"?addButton@QDialogButtonBox@@QEAAPEAVQPushButton@@W4StandardButton@1@@Z"
"?addButton@QDialogButtonBox@@QEAAXPEAVQAbstractButton@@W4ButtonRole@1@@Z"
"?addButton@QMessageBox@@QEAAPEAVQPushButton@@AEBVQString@@W4ButtonRole@1@@Z"
"?addButton@QMessageBox@@QEAAPEAVQPushButton@@W4StandardButton@1@@Z"
"?addButton@QMessageBox@@QEAAXPEAVQAbstractButton@@W4ButtonRole@1@@Z"
"?addChild@QGraphicsItemPrivate@@QEAAXPEAVQGraphicsItem@@@Z"
"?addChild@QTreeWidgetItem@@QEAAXPEAV1@@Z"
"?addChildLayout@QLayout@@IEAAXPEAV1@@Z"
"?addChildLayoutItem@QGraphicsLayout@@IEAAXPEAVQGraphicsLayoutItem@@@Z"
"?addChildWidget@QLayout@@IEAAXPEAVQWidget@@@Z"
"?addChildren@QTreeWidgetItem@@QEAAXAEBV?$QList@PEAVQTreeWidgetItem@@@@@Z"
"?addCommand@QWidgetLineControl@@AEAAXAEBUCommand@1@@Z"
"?addControllingSignal@QAccessibleWidget@@IEAAXAEBVQString@@@Z"
"?addCornerAnchors@QGraphicsAnchorLayout@@QEAAXPEAVQGraphicsLayoutItem@@W4Corner@Qt@@01@Z"
"?addDefaultSuffixToFiles@QFileDialogPrivate@@QEBA?AV?$QList@VQString@@@@AEBV2@@Z"
"?addDefaultSuffixToUrls@QFileDialogPrivate@@QEBA?AV?$QList@VQUrl@@@@AEBV2@@Z"
"?addDescriptor@QPixmapStyle@@QEAAXW4ControlDescriptor@1@AEBVQString@@VQMargins@@UQTileRules@@@Z"
"?addDirtyRenderToTextureWidget@QWidgetRepaintManager@@AEAAXPEAVQWidget@@@Z"
"?addDirtyWidget@QWidgetRepaintManager@@AEAAXPEAVQWidget@@AEBVQRegion@@@Z"
"?addDockWidget@QMainWindow@@QEAAXW4DockWidgetArea@Qt@@PEAVQDockWidget@@@Z"
"?addDockWidget@QMainWindow@@QEAAXW4DockWidgetArea@Qt@@PEAVQDockWidget@@W4Orientation@3@@Z"
"?addEllipse@QGraphicsScene@@QEAAPEAVQGraphicsEllipseItem@@AEBVQRectF@@AEBVQPen@@AEBVQBrush@@@Z"
"?addEllipse@QGraphicsScene@@QEAAPEAVQGraphicsEllipseItem@@NNNNAEBVQPen@@AEBVQBrush@@@Z"
"?addItem@QBoxLayout@@UEAAXPEAVQLayoutItem@@@Z"
"?addItem@QComboBox@@QEAAXAEBVQIcon@@AEBVQString@@AEBVQVariant@@@Z"
"?addItem@QComboBox@@QEAAXAEBVQString@@AEBVQVariant@@@Z"
"?addItem@QDockWidgetLayout@@UEAAXPEAVQLayoutItem@@@Z"
"?addItem@QFormLayout@@UEAAXPEAVQLayoutItem@@@Z"
"?addItem@QGraphicsGridLayout@@QEAAXPEAVQGraphicsLayoutItem@@HHHHV?$QFlags@W4AlignmentFlag@Qt@@@@@Z"
"?addItem@QGraphicsGridLayout@@QEAAXPEAVQGraphicsLayoutItem@@HHV?$QFlags@W4AlignmentFlag@Qt@@@@@Z"
"?addItem@QGraphicsLinearLayout@@QEAAXPEAVQGraphicsLayoutItem@@@Z"
"?addItem@QGraphicsScene@@QEAAXPEAVQGraphicsItem@@@Z"
"?addItem@QGridLayout@@MEAAXPEAVQLayoutItem@@@Z"
"?addItem@QGridLayout@@QEAAXPEAVQLayoutItem@@HHHHV?$QFlags@W4AlignmentFlag@Qt@@@@@Z"
"?addItem@QListWidget@@QEAAXAEBVQString@@@Z"
"?addItem@QListWidget@@QEAAXPEAVQListWidgetItem@@@Z"
"?addItem@QStackedLayout@@UEAAXPEAVQLayoutItem@@@Z"
"?addItem@QToolBox@@QEAAHPEAVQWidget@@AEBVQIcon@@AEBVQString@@@Z"
"?addItem@QToolBox@@QEAAHPEAVQWidget@@AEBVQString@@@Z"
"?addItems@QComboBox@@QEAAXAEBV?$QList@VQString@@@@@Z"
"?addItems@QListWidget@@QEAAXAEBV?$QList@VQString@@@@@Z"
"?addLayout@QBoxLayout@@QEAAXPEAVQLayout@@H@Z"
"?addLayout@QGridLayout@@QEAAXPEAVQLayout@@HHHHV?$QFlags@W4AlignmentFlag@Qt@@@@@Z"
"?addLayout@QGridLayout@@QEAAXPEAVQLayout@@HHV?$QFlags@W4AlignmentFlag@Qt@@@@@Z"
"?addLine@QGraphicsScene@@QEAAPEAVQGraphicsLineItem@@AEBVQLineF@@AEBVQPen@@@Z"
"?addLine@QGraphicsScene@@QEAAPEAVQGraphicsLineItem@@NNNNAEBVQPen@@@Z"
"?addMapping@QDataWidgetMapper@@QEAAXPEAVQWidget@@H@Z"
"?addMapping@QDataWidgetMapper@@QEAAXPEAVQWidget@@HAEBVQByteArray@@@Z"
"?addMenu@QMenu@@QEAAPEAV1@AEBVQIcon@@AEBVQString@@@Z"
"?addMenu@QMenu@@QEAAPEAV1@AEBVQString@@@Z"
"?addMenu@QMenu@@QEAAPEAVQAction@@PEAV1@@Z"
"?addMenu@QMenuBar@@QEAAPEAVQAction@@PEAVQMenu@@@Z"
"?addMenu@QMenuBar@@QEAAPEAVQMenu@@AEBVQIcon@@AEBVQString@@@Z"
"?addMenu@QMenuBar@@QEAAPEAVQMenu@@AEBVQString@@@Z"
"?addPage@QWizard@@QEAAHPEAVQWizardPage@@@Z"
"?addPath@QGraphicsScene@@QEAAPEAVQGraphicsPathItem@@AEBVQPainterPath@@AEBVQPen@@AEBVQBrush@@@Z"
"?addPermanentWidget@QStatusBar@@QEAAXPEAVQWidget@@H@Z"
"?addPixmap@QGraphicsScene@@QEAAPEAVQGraphicsPixmapItem@@AEBVQPixmap@@@Z"
"?addPixmap@QPixmapStyle@@QEAAXW4ControlPixmap@1@AEBVQString@@VQMargins@@@Z"
"?addPolygon@QGraphicsScene@@QEAAPEAVQGraphicsPolygonItem@@AEBVQPolygonF@@AEBVQPen@@AEBVQBrush@@@Z"
"?addRect@QGraphicsScene@@QEAAPEAVQGraphicsRectItem@@AEBVQRectF@@AEBVQPen@@AEBVQBrush@@@Z"
"?addRect@QGraphicsScene@@QEAAPEAVQGraphicsRectItem@@NNNNAEBVQPen@@AEBVQBrush@@@Z"
"?addRow@QFormLayout@@QEAAXAEBVQString@@PEAVQLayout@@@Z"
"?addRow@QFormLayout@@QEAAXAEBVQString@@PEAVQWidget@@@Z"
"?addRow@QFormLayout@@QEAAXPEAVQLayout@@@Z"
"?addRow@QFormLayout@@QEAAXPEAVQWidget@@0@Z"
"?addRow@QFormLayout@@QEAAXPEAVQWidget@@@Z"
"?addRow@QFormLayout@@QEAAXPEAVQWidget@@PEAVQLayout@@@Z"
"?addScrollBarWidget@QAbstractScrollArea@@QEAAXPEAVQWidget@@V?$QFlags@W4AlignmentFlag@Qt@@@@@Z"
"?addSection@QMenu@@QEAAPEAVQAction@@AEBVQIcon@@AEBVQString@@@Z"
"?addSection@QMenu@@QEAAPEAVQAction@@AEBVQString@@@Z"
"?addSeparator@QMenu@@QEAAPEAVQAction@@XZ"
"?addSeparator@QMenuBar@@QEAAPEAVQAction@@XZ"
"?addSeparator@QToolBar@@QEAAPEAVQAction@@XZ"
"?addSimpleText@QGraphicsScene@@QEAAPEAVQGraphicsSimpleTextItem@@AEBVQString@@AEBVQFont@@@Z"
"?addSpacerItem@QBoxLayout@@QEAAXPEAVQSpacerItem@@@Z"
"?addSpacing@QBoxLayout@@QEAAXH@Z"
"?addStaticWidget@QWidgetRepaintManager@@QEAAXPEAVQWidget@@@Z"
"?addStretch@QBoxLayout@@QEAAXH@Z"
"?addStretch@QGraphicsLinearLayout@@QEAAXH@Z"
"?addStrut@QBoxLayout@@QEAAXH@Z"
"?addSubWindow@QMdiArea@@QEAAPEAVQMdiSubWindow@@PEAVQWidget@@V?$QFlags@W4WindowType@Qt@@@@@Z"
"?addTab@QTabBar@@QEAAHAEBVQIcon@@AEBVQString@@@Z"
"?addTab@QTabBar@@QEAAHAEBVQString@@@Z"
"?addTab@QTabWidget@@QEAAHPEAVQWidget@@AEBVQIcon@@AEBVQString@@@Z"
"?addTab@QTabWidget@@QEAAHPEAVQWidget@@AEBVQString@@@Z"
"?addText@QGraphicsScene@@QEAAPEAVQGraphicsTextItem@@AEBVQString@@AEBVQFont@@@Z"
"?addToGroup@QGraphicsItemGroup@@QEAAXPEAVQGraphicsItem@@@Z"
"?addToIndex@QGraphicsItem@@IEAAXXZ"
"?addToolBar@QMainWindow@@QEAAPEAVQToolBar@@AEBVQString@@@Z"
"?addToolBar@QMainWindow@@QEAAXPEAVQToolBar@@@Z"
"?addToolBar@QMainWindow@@QEAAXW4ToolBarArea@Qt@@PEAVQToolBar@@@Z"
"?addToolBarBreak@QMainWindow@@QEAAXW4ToolBarArea@Qt@@@Z"
"?addTopLevelItem@QTreeWidget@@QEAAXPEAVQTreeWidgetItem@@@Z"
"?addTopLevelItems@QTreeWidget@@QEAAXAEBV?$QList@PEAVQTreeWidgetItem@@@@@Z"
"?addWidget@QBoxLayout@@QEAAXPEAVQWidget@@HV?$QFlags@W4AlignmentFlag@Qt@@@@@Z"
"?addWidget@QGraphicsScene@@QEAAPEAVQGraphicsProxyWidget@@PEAVQWidget@@V?$QFlags@W4WindowType@Qt@@@@@Z"
"?addWidget@QGridLayout@@QEAAXPEAVQWidget@@@Z"
"?addWidget@QGridLayout@@QEAAXPEAVQWidget@@HHHHV?$QFlags@W4AlignmentFlag@Qt@@@@@Z"
"?addWidget@QGridLayout@@QEAAXPEAVQWidget@@HHV?$QFlags@W4AlignmentFlag@Qt@@@@@Z"
"?addWidget@QLayout@@QEAAXPEAVQWidget@@@Z"
"?addWidget@QSplitter@@QEAAXPEAVQWidget@@@Z"
"?addWidget@QStackedLayout@@QEAAHPEAVQWidget@@@Z"
"?addWidget@QStackedWidget@@QEAAHPEAVQWidget@@@Z"
"?addWidget@QStatusBar@@QEAAXPEAVQWidget@@H@Z"
"?addWidget@QToolBar@@QEAAPEAVQAction@@PEAVQWidget@@@Z"
"?adjustFlags@QWidgetPrivate@@SAXAEAV?$QFlags@W4WindowType@Qt@@@@PEAVQWidget@@@Z"
"?adjustPosition@QDialog@@IEAAXPEAVQWidget@@@Z"
"?adjustQuitOnCloseAttribute@QWidgetPrivate@@QEAAXXZ"
"?adjustSize@QGraphicsTextItem@@QEAAXXZ"
"?adjustSize@QGraphicsWidget@@QEAAXXZ"
"?adjustSize@QWidget@@QEAAXXZ"
"?adjustSize@QWidgetTextControl@@QEAAXXZ"
"?adjustViewOptionsForIndex@QTreeViewPrivate@@UEBAXPEAVQStyleOptionViewItem@@AEBVQModelIndex@@@Z"
"?adjustedSize@QWidgetPrivate@@QEBA?AVQSize@@XZ"
"?adoptLayout@QLayout@@IEAA_NPEAV1@@Z"
"?advance@QGraphicsItem@@UEAAXH@Z"
"?advance@QGraphicsScene@@QEAAXXZ"
"?advanceToEnabledItem@QWidgetLineControl@@AEAA_NH@Z"
"?afterAnimationStep@QGraphicsItemAnimation@@MEAAXN@Z"
"?alert@QApplication@@SAXPEAVQWidget@@H@Z"
"?alignedRect@QStyle@@SA?AVQRect@@W4LayoutDirection@Qt@@V?$QFlags@W4AlignmentFlag@Qt@@@@AEBVQSize@@AEBV2@@Z"
"?alignment@QAbstractSpinBox@@QEBA?AV?$QFlags@W4AlignmentFlag@Qt@@@@XZ"
"?alignment@QGraphicsGridLayout@@QEBA?AV?$QFlags@W4AlignmentFlag@Qt@@@@PEAVQGraphicsLayoutItem@@@Z"
"?alignment@QGraphicsLinearLayout@@QEBA?AV?$QFlags@W4AlignmentFlag@Qt@@@@PEAVQGraphicsLayoutItem@@@Z"
"?alignment@QGraphicsView@@QEBA?AV?$QFlags@W4AlignmentFlag@Qt@@@@XZ"
"?alignment@QGroupBox@@QEBA?AV?$QFlags@W4AlignmentFlag@Qt@@@@XZ"
"?alignment@QLabel@@QEBA?AV?$QFlags@W4AlignmentFlag@Qt@@@@XZ"
"?alignment@QLayoutItem@@QEBA?AV?$QFlags@W4AlignmentFlag@Qt@@@@XZ"
"?alignment@QLineEdit@@QEBA?AV?$QFlags@W4AlignmentFlag@Qt@@@@XZ"
"?alignment@QProgressBar@@QEBA?AV?$QFlags@W4AlignmentFlag@Qt@@@@XZ"
"?alignment@QScrollArea@@QEBA?AV?$QFlags@W4AlignmentFlag@Qt@@@@XZ"
"?alignment@QTextEdit@@QEBA?AV?$QFlags@W4AlignmentFlag@Qt@@@@XZ"
"?alignmentRect@QLayout@@IEBA?AVQRect@@AEBV2@@Z"
"?allColumnsShowFocus@QTreeView@@QEBA_NXZ"
"?allSelected@QWidgetLineControl@@QEBA_NXZ"
"?allWidgets@QApplication@@SA?AV?$QList@PEAVQWidget@@@@XZ"
"?allWidgets@QWidgetPrivate@@2PEAV?$QSet@PEAVQWidget@@@@EA"
"?allocStyleOptionsArray@QGraphicsViewPrivate@@QEAAPEAVQStyleOptionGraphicsItem@@H@Z"
"?allowedAreas@QDockWidget@@QEBA?AV?$QFlags@W4DockWidgetArea@Qt@@@@XZ"
"?allowedAreas@QToolBar@@QEBA?AV?$QFlags@W4ToolBarArea@Qt@@@@XZ"
"?allowedAreasChanged@QDockWidget@@QEAAXV?$QFlags@W4DockWidgetArea@Qt@@@@@Z"
"?allowedAreasChanged@QToolBar@@QEAAXV?$QFlags@W4ToolBarArea@Qt@@@@@Z"
"?altDown@QWindowsStylePrivate@@QEBA_NXZ"
"?alternatingRowColors@QAbstractItemView@@QEBA_NXZ"
"?anchor@QGraphicsAnchorLayout@@QEAAPEAVQGraphicsAnchor@@PEAVQGraphicsLayoutItem@@W4AnchorPoint@Qt@@01@Z"
"?anchorAt@QPlainTextEdit@@QEBA?AVQString@@AEBVQPoint@@@Z"
"?anchorAt@QTextEdit@@QEBA?AVQString@@AEBVQPoint@@@Z"
"?anchorAt@QWidgetTextControl@@UEBA?AVQString@@AEBVQPointF@@@Z"
"?anchorAtCursor@QWidgetTextControl@@QEBA?AVQString@@XZ"
"?anchorClicked@QTextBrowser@@QEAAXAEBVQUrl@@@Z"
"?anchorPosition@QWidgetTextControl@@QEBA?AVQPointF@@AEBVQString@@@Z"
"?anchorRect@QWidgetLineControl@@QEBA?AVQRect@@XZ"
"?angle@QGraphicsRotation@@QEBANXZ"
"?angleChanged@QGraphicsRotation@@QEAAXXZ"
"?animateClick@QAbstractButton@@QEAAXXZ"
"?animation@QCommonStylePrivate@@QEBAPEAVQStyleAnimation@@PEBVQObject@@@Z"
"?animationStep@QProgressStyleAnimation@@QEBAHXZ"
"?api@QRhiWidget@@QEBA?AW4Api@1@XZ"
"?app_style@QApplicationPrivate@@2PEAVQStyle@@EA"
"?append@QTextEdit@@QEAAXAEBVQString@@@Z"
"?append@QWidgetTextControl@@QEAAXAEBVQString@@@Z"
"?appendGraphicsTransform@QGraphicsItemPrivate@@QEAAXPEAVQGraphicsTransform@@@Z"
"?appendHtml@QPlainTextEdit@@QEAAXAEBVQString@@@Z"
"?appendHtml@QWidgetTextControl@@QEAAXAEBVQString@@@Z"
"?appendPlainText@QPlainTextEdit@@QEAAXAEBVQString@@@Z"
"?appendPlainText@QWidgetTextControl@@QEAAXAEBVQString@@@Z"
"?applyQIconStyleHelper@QApplicationPrivate@@UEBA?AVQPixmap@@W4Mode@QIcon@@AEBV2@@Z"
"?applyTo@QGraphicsRotation@@UEBAXPEAVQMatrix4x4@@@Z"
"?applyTo@QGraphicsScale@@UEBAXPEAVQMatrix4x4@@@Z"
"?arrowType@QToolButton@@QEBA?AW4ArrowType@Qt@@XZ"
"?ascent@QWidgetLineControl@@QEBAHXZ"
"?associatedScreen@QWidgetPrivate@@QEBAPEAVQScreen@@XZ"
"?at@QTabBarPrivate@@QEAAPEAUTab@1@H@Z"
"?at@QTabBarPrivate@@QEBAPEBUTab@1@H@Z"
"?autoClose@QProgressDialog@@QEBA_NXZ"
"?autoCompleteFileName@QFileDialogPrivate@@QEAAXAEBVQString@@@Z"
"?autoDefault@QPushButton@@QEBA_NXZ"
"?autoExclusive@QAbstractButton@@QEBA_NXZ"
"?autoExpandDelay@QTreeView@@QEBAHXZ"
"?autoFillBackground@QGraphicsWidget@@QEBA_NXZ"
"?autoFillBackground@QWidget@@QEBA_NXZ"
"?autoFormatting@QTextEdit@@QEBA?AV?$QFlags@W4AutoFormattingFlag@QTextEdit@@@@XZ"
"?autoHide@QTabBar@@QEBA_NXZ"
"?autoHideTabs@QTabBarPrivate@@QEAAXXZ"
"?autoRaise@QToolButton@@QEBA_NXZ"
"?autoRepeat@QAbstractButton@@QEBA_NXZ"
"?autoRepeatDelay@QAbstractButton@@QEBAHXZ"
"?autoRepeatInterval@QAbstractButton@@QEBAHXZ"
"?autoReset@QProgressDialog@@QEBA_NXZ"
"?autoScrollMargin@QAbstractItemView@@QEBAHXZ"
"?autoSipEnabled@QApplication@@QEBA_NXZ"
"?autoSipEnabled@QApplicationPrivate@@2_NA"
"?availableScreenGeometry@QWidgetPrivate@@SA?AVQRect@@PEBVQWidget@@@Z"
"?availableScreenGeometry@QWidgetPrivate@@SA?AVQRect@@PEBVQWidget@@AEBVQPoint@@_N@Z"
"?axis@QGraphicsRotation@@QEBA?AVQVector3D@@XZ"
"?axisChanged@QGraphicsRotation@@QEAAXXZ"
"?back@QWizard@@QEAAXXZ"
"?background@QListWidgetItem@@QEBA?AVQBrush@@XZ"
"?background@QMdiArea@@QEBA?AVQBrush@@XZ"
"?background@QTableWidgetItem@@QEBA?AVQBrush@@XZ"
"?background@QTreeWidgetItem@@QEBA?AVQBrush@@H@Z"
"?backgroundBrush@QGraphicsScene@@QEBA?AVQBrush@@XZ"
"?backgroundBrush@QGraphicsView@@QEBA?AVQBrush@@XZ"
"?backgroundColor@QAccessibleWidget@@UEBA?AVQColor@@XZ"
"?backgroundColor@QStyleHelper@@YA?AVQColor@@AEBVQPalette@@PEBVQWidget@@@Z"
"?backgroundRole@QWidget@@QEBA?AW4ColorRole@QPalette@@XZ"
"?backgroundVisible@QPlainTextEdit@@QEBA_NXZ"
"?backingStore@QWidget@@QEBAPEAVQBackingStore@@XZ"
"?backingStore@QWidgetRepaintManager@@QEBAPEAVQBackingStore@@XZ"
"?backspace@QLineEdit@@QEAAXXZ"
"?backspace@QWidgetLineControl@@QEAAXXZ"
"?backward@QTextBrowser@@UEAAXXZ"
"?backwardAvailable@QTextBrowser@@QEAAX_N@Z"
"?backwardHistoryCount@QTextBrowser@@QEBAHXZ"
"?basePalette@QApplicationPrivate@@MEBA?AVQPalette@@XZ"
"?baseSize@QWidget@@QEBA?AVQSize@@XZ"
"?baseStyle@QProxyStyle@@QEBAPEAVQStyle@@XZ"
"?basename@QFileDialogPrivate@@QEBA?AVQString@@AEBV2@@Z"
"?batchSize@QListView@@QEBAHXZ"
"?beep@QApplication@@SAXXZ"
"?beforeAnimationStep@QGraphicsItemAnimation@@MEAAXN@Z"
"?beginAnimatedOperation@QTreeViewPrivate@@QEAAXXZ"
"?beginBackingStorePainting@QWidgetPrivate@@UEAAXXZ"
"?beginCompose@QWidgetPrivate@@UEAAXXZ"
"?below@QTreeViewPrivate@@QEBAHH@Z"
"?blockBoundingGeometry@QPlainTextEdit@@IEBA?AVQRectF@@AEBVQTextBlock@@@Z"
"?blockBoundingRect@QPlainTextDocumentLayout@@UEBA?AVQRectF@@AEBVQTextBlock@@@Z"
"?blockBoundingRect@QPlainTextEdit@@IEBA?AVQRectF@@AEBVQTextBlock@@@Z"
"?blockBoundingRect@QWidgetTextControl@@UEBA?AVQRectF@@AEBVQTextBlock@@@Z"
"?blockCount@QPlainTextEdit@@QEBAHXZ"
"?blockCountChanged@QPlainTextEdit@@QEAAXH@Z"
"?blockCountChanged@QWidgetTextControl@@QEAAXH@Z"
"?blockMarkerHovered@QWidgetTextControl@@QEAAXAEBVQTextBlock@@@Z"
"?blockWidth@QPlainTextDocumentLayout@@AEAANAEBVQTextBlock@@@Z"
"?blockWithMarkerAt@QWidgetTextControl@@QEBA?AVQTextBlock@@AEBVQPointF@@@Z"
"?bltRect@QWidgetRepaintManager@@QEAA_NAEBVQRect@@HHPEAVQWidget@@@Z"
"?blurHints@QGraphicsBlurEffect@@QEBA?AV?$QFlags@W4BlurHint@QGraphicsBlurEffect@@@@XZ"
"?blurHints@QPixmapBlurFilter@@QEBA?AV?$QFlags@W4BlurHint@QGraphicsBlurEffect@@@@XZ"
"?blurHintsChanged@QGraphicsBlurEffect@@QEAAXV?$QFlags@W4BlurHint@QGraphicsBlurEffect@@@@@Z"
"?blurRadius@QGraphicsBlurEffect@@QEBANXZ"
"?blurRadius@QGraphicsDropShadowEffect@@QEBANXZ"
"?blurRadius@QPixmapDropShadowFilter@@QEBANXZ"
"?blurRadiusChanged@QGraphicsBlurEffect@@QEAAXN@Z"
"?blurRadiusChanged@QGraphicsDropShadowEffect@@QEAAXN@Z"
"?bottomMargin@QComboBoxPrivateContainer@@QEBAHXZ"
"?boundingRect@QGraphicsEffect@@QEBA?AVQRectF@@XZ"
"?boundingRect@QGraphicsEffectSource@@QEBA?AVQRectF@@W4CoordinateSystem@Qt@@@Z"
"?boundingRect@QGraphicsEllipseItem@@UEBA?AVQRectF@@XZ"
"?boundingRect@QGraphicsItemGroup@@UEBA?AVQRectF@@XZ"
"?boundingRect@QGraphicsLineItem@@UEBA?AVQRectF@@XZ"
"?boundingRect@QGraphicsPathItem@@UEBA?AVQRectF@@XZ"
"?boundingRect@QGraphicsPixmapItem@@UEBA?AVQRectF@@XZ"
"?boundingRect@QGraphicsPolygonItem@@UEBA?AVQRectF@@XZ"
"?boundingRect@QGraphicsRectItem@@UEBA?AVQRectF@@XZ"
"?boundingRect@QGraphicsSimpleTextItem@@UEBA?AVQRectF@@XZ"
"?boundingRect@QGraphicsTextItem@@UEBA?AVQRectF@@XZ"
"?boundingRect@QGraphicsWidget@@UEBA?AVQRectF@@XZ"
"?boundingRectFor@QGraphicsBlurEffect@@UEBA?AVQRectF@@AEBV2@@Z"
"?boundingRectFor@QGraphicsDropShadowEffect@@UEBA?AVQRectF@@AEBV2@@Z"
"?boundingRectFor@QGraphicsEffect@@UEBA?AVQRectF@@AEBV2@@Z"
"?boundingRectFor@QPixmapBlurFilter@@UEBA?AVQRectF@@AEBV2@@Z"
"?boundingRectFor@QPixmapConvolutionFilter@@UEBA?AVQRectF@@AEBV2@@Z"
"?boundingRectFor@QPixmapDropShadowFilter@@UEBA?AVQRectF@@AEBV2@@Z"
"?boundingRectFor@QPixmapFilter@@UEBA?AVQRectF@@AEBV2@@Z"
"?boundingRegion@QGraphicsItem@@QEBA?AVQRegion@@AEBVQTransform@@@Z"
"?boundingRegionGranularity@QGraphicsItem@@QEBANXZ"
"?brush@QAbstractGraphicsShapeItem@@QEBA?AVQBrush@@XZ"
"?bspTreeDepth@QGraphicsScene@@QEBAHXZ"
"?buddy@QLabel@@QEBAPEAVQWidget@@XZ"
"?button@QButtonGroup@@QEBAPEAVQAbstractButton@@H@Z"
"?button@QDialogButtonBox@@QEBAPEAVQPushButton@@W4StandardButton@1@@Z"
"?button@QGraphicsSceneMouseEvent@@QEBA?AW4MouseButton@Qt@@XZ"
"?button@QMessageBox@@QEBAPEAVQAbstractButton@@W4StandardButton@1@@Z"
"?button@QWizard@@QEBAPEAVQAbstractButton@@W4WizardButton@1@@Z"
"?buttonClicked@QButtonGroup@@QEAAXPEAVQAbstractButton@@@Z"
"?buttonClicked@QMessageBox@@QEAAXPEAVQAbstractButton@@@Z"
"?buttonDownPos@QGraphicsSceneMouseEvent@@QEBA?AVQPointF@@W4MouseButton@Qt@@@Z"
"?buttonDownScenePos@QGraphicsSceneMouseEvent@@QEBA?AVQPointF@@W4MouseButton@Qt@@@Z"
"?buttonDownScreenPos@QGraphicsSceneMouseEvent@@QEBA?AVQPoint@@W4MouseButton@Qt@@@Z"
"?buttonPressed@QButtonGroup@@QEAAXPEAVQAbstractButton@@@Z"
"?buttonReleased@QButtonGroup@@QEAAXPEAVQAbstractButton@@@Z"
"?buttonRole@QDialogButtonBox@@QEBA?AW4ButtonRole@1@PEAVQAbstractButton@@@Z"
"?buttonRole@QMessageBox@@QEBA?AW4ButtonRole@1@PEAVQAbstractButton@@@Z"
"?buttonSymbols@QAbstractSpinBox@@QEBA?AW4ButtonSymbols@1@XZ"
"?buttonText@QMessageBox@@QEBA?AVQString@@H@Z"
"?buttonText@QWizard@@QEBA?AVQString@@W4WizardButton@1@@Z"
"?buttonText@QWizardPage@@QEBA?AVQString@@W4WizardButton@QWizard@@@Z"
"?buttonToggled@QButtonGroup@@QEAAXPEAVQAbstractButton@@_N@Z"
"?buttons@QButtonGroup@@QEBA?AV?$QList@PEAVQAbstractButton@@@@XZ"
"?buttons@QDialogButtonBox@@QEBA?AV?$QList@PEAVQAbstractButton@@@@XZ"
"?buttons@QGraphicsSceneDragDropEvent@@QEBA?AV?$QFlags@W4MouseButton@Qt@@@@XZ"
"?buttons@QGraphicsSceneMouseEvent@@QEBA?AV?$QFlags@W4MouseButton@Qt@@@@XZ"
"?buttons@QGraphicsSceneWheelEvent@@QEBA?AV?$QFlags@W4MouseButton@Qt@@@@XZ"
"?buttons@QMessageBox@@QEBA?AV?$QList@PEAVQAbstractButton@@@@XZ"
"?cacheMode@QGraphicsItem@@QEBA?AW4CacheMode@1@XZ"
"?cacheMode@QGraphicsView@@QEBA?AV?$QFlags@W4CacheModeFlag@QGraphicsView@@@@XZ"
"?calcEffectiveOpacity@QGraphicsItemPrivate@@QEBANXZ"
"?calcLogicalIndices@QTreeViewPrivate@@QEBAXPEAV?$QList@H@@PEAV?$QList@W4ViewItemPosition@QStyleOptionViewItem@@@@HH@Z"
"?calculateElidedText@QCommonStylePrivate@@QEBA?AVQString@@AEBV2@AEBVQTextOption@@AEBVQFont@@AEBVQRect@@V?$QFlags@W4AlignmentFlag@Qt@@@@W4TextElideMode@Qt@@H_NPEAVQPointF@@@Z"
"?calculateFirstLastVisible@QTabBarPrivate@@QEAAXH_N0@Z"
"?calculateNewPosition@QTabBarPrivate@@QEBAHHHH@Z"
"?calendar@QCalendarWidget@@QEBA?AVQCalendar@@XZ"
"?calendar@QDateTimeEdit@@QEBA?AVQCalendar@@XZ"
"?calendarPopup@QDateTimeEdit@@QEBA_NXZ"
"?calendarWidget@QDateTimeEdit@@QEBAPEAVQCalendarWidget@@XZ"
"?canBeNativeDialog@QDialogPrivate@@UEBA_NXZ"
"?canBeNativeDialog@QFileDialogPrivate@@UEBA_NXZ"
"?canInsertFromMimeData@QPlainTextEdit@@MEBA_NPEBVQMimeData@@@Z"
"?canInsertFromMimeData@QTextEdit@@MEBA_NPEBVQMimeData@@@Z"
"?canInsertFromMimeData@QWidgetTextControl@@UEBA_NPEBVQMimeData@@@Z"
"?canPaste@QPlainTextEdit@@QEBA_NXZ"
"?canPaste@QTextEdit@@QEBA_NXZ"
"?canPaste@QWidgetTextControl@@QEBA_NXZ"
"?canStartScrollingAt@QGraphicsViewPrivate@@UEBA_NAEBVQPoint@@@Z"
"?cancel@QProgressDialog@@QEAAXXZ"
"?cancelButtonText@QInputDialog@@QEBA?AVQString@@XZ"
"?cancelPasswordEchoTimer@QWidgetLineControl@@AEAAXXZ"
"?cancelText@QWidgetLineControl@@QEBA?AVQString@@XZ"
"?canceled@QProgressDialog@@QEAAXXZ"
"?canceledGestures@QGestureEvent@@QEBA?AV?$QList@PEAVQGesture@@@@XZ"
"?cascadeSubWindows@QMdiArea@@QEAAXXZ"
"?cascadingSectionResizes@QHeaderView@@QEBA_NXZ"
"?caseSensitivity@QCompleter@@QEBA?AW4CaseSensitivity@Qt@@XZ"
"?cellActivated@QTableWidget@@QEAAXHH@Z"
"?cellChanged@QTableWidget@@QEAAXHH@Z"
"?cellClicked@QTableWidget@@QEAAXHH@Z"
"?cellDoubleClicked@QTableWidget@@QEAAXHH@Z"
"?cellEntered@QTableWidget@@QEAAXHH@Z"
"?cellPressed@QTableWidget@@QEAAXHH@Z"
"?cellRect@QGridLayout@@QEBA?AVQRect@@HH@Z"
"?cellWidget@QTableWidget@@QEBAPEAVQWidget@@HH@Z"
"?centerButtons@QDialogButtonBox@@QEBA_NXZ"
"?centerCursor@QPlainTextEdit@@QEAAXXZ"
"?centerOn@QGraphicsView@@QEAAXAEBVQPointF@@@Z"
"?centerOn@QGraphicsView@@QEAAXNN@Z"
"?centerOn@QGraphicsView@@QEAAXPEBVQGraphicsItem@@@Z"
"?centerOnScroll@QPlainTextEdit@@QEBA_NXZ"
"?centerPoint@QPinchGesture@@QEBA?AVQPointF@@XZ"
"?centerView@QGraphicsViewPrivate@@QEAAXW4ViewportAnchor@QGraphicsView@@@Z"
"?centralWidget@QMainWindow@@QEBAPEAVQWidget@@XZ"
"?changeCurrentOnDrag@QTabBar@@QEBA_NXZ"
"?changeEvent@QAbstractButton@@MEAAXPEAVQEvent@@@Z"
"?changeEvent@QAbstractSlider@@MEAAXPEAVQEvent@@@Z"
"?changeEvent@QAbstractSpinBox@@MEAAXPEAVQEvent@@@Z"
"?changeEvent@QColorDialog@@MEAAXPEAVQEvent@@@Z"
"?changeEvent@QComboBox@@MEAAXPEAVQEvent@@@Z"
"?changeEvent@QComboBoxPrivateContainer@@MEAAXPEAVQEvent@@@Z"
"?changeEvent@QDialogButtonBox@@MEAAXPEAVQEvent@@@Z"
"?changeEvent@QDockWidget@@MEAAXPEAVQEvent@@@Z"
"?changeEvent@QErrorMessage@@MEAAXPEAVQEvent@@@Z"
"?changeEvent@QFileDialog@@MEAAXPEAVQEvent@@@Z"
"?changeEvent@QFontDialog@@MEAAXPEAVQEvent@@@Z"
"?changeEvent@QFrame@@MEAAXPEAVQEvent@@@Z"
"?changeEvent@QGraphicsWidget@@MEAAXPEAVQEvent@@@Z"
"?changeEvent@QGroupBox@@MEAAXPEAVQEvent@@@Z"
"?changeEvent@QLabel@@MEAAXPEAVQEvent@@@Z"
"?changeEvent@QLineEdit@@MEAAXPEAVQEvent@@@Z"
"?changeEvent@QMdiSubWindow@@MEAAXPEAVQEvent@@@Z"
"?changeEvent@QMenu@@MEAAXPEAVQEvent@@@Z"
"?changeEvent@QMenuBar@@MEAAXPEAVQEvent@@@Z"
"?changeEvent@QMessageBox@@MEAAXPEAVQEvent@@@Z"
"?changeEvent@QPlainTextEdit@@MEAAXPEAVQEvent@@@Z"
"?changeEvent@QProgressDialog@@MEAAXPEAVQEvent@@@Z"
"?changeEvent@QRubberBand@@MEAAXPEAVQEvent@@@Z"
"?changeEvent@QSplitter@@MEAAXPEAVQEvent@@@Z"
"?changeEvent@QTabBar@@MEAAXPEAVQEvent@@@Z"
"?changeEvent@QTabWidget@@MEAAXPEAVQEvent@@@Z"
"?changeEvent@QTextEdit@@MEAAXPEAVQEvent@@@Z"
"?changeEvent@QToolBar@@MEAAXPEAVQEvent@@@Z"
"?changeEvent@QToolBox@@MEAAXPEAVQEvent@@@Z"
"?changeEvent@QToolButton@@MEAAXPEAVQEvent@@@Z"
"?changeEvent@QTreeView@@MEAAXPEAVQEvent@@@Z"
"?changeEvent@QWidget@@MEAAXPEAVQEvent@@@Z"
"?changeFlags@QPinchGesture@@QEBA?AV?$QFlags@W4ChangeFlag@QPinchGesture@@@@XZ"
"?changeSize@QSpacerItem@@QEAAXHHW4Policy@QSizePolicy@@0@Z"
"?changed@QGraphicsScene@@QEAAXAEBV?$QList@VQRectF@@@@@Z"
"?checkBox@QMessageBox@@QEBAPEAVQCheckBox@@XZ"
"?checkLayout@QLayoutPrivate@@QEBA_NPEAVQLayout@@@Z"
"?checkOverflow@QLCDNumber@@QEBA_NH@Z"
"?checkOverflow@QLCDNumber@@QEBA_NN@Z"
"?checkRestoredGeometry@QWidgetPrivate@@SAXAEBVQRect@@PEAV2@H@Z"
"?checkState@QCheckBox@@QEBA?AW4CheckState@Qt@@XZ"
"?checkState@QListWidgetItem@@QEBA?AW4CheckState@Qt@@XZ"
"?checkState@QTableWidgetItem@@QEBA?AW4CheckState@Qt@@XZ"
"?checkState@QTreeWidgetItem@@QEBA?AW4CheckState@Qt@@H@Z"
"?checkStateChanged@QCheckBox@@QEAAXW4CheckState@Qt@@@Z"
"?checkStateSet@QAbstractButton@@MEAAXXZ"
"?checkStateSet@QCheckBox@@MEAAXXZ"
"?checkStateSet@QToolButton@@MEAAXXZ"
"?checkWidget@QLayoutPrivate@@QEBA_NPEAVQWidget@@@Z"
"?checkedButton@QButtonGroup@@QEBAPEAVQAbstractButton@@XZ"
"?checkedId@QButtonGroup@@QEBAHXZ"
"?child@QAccessibleWidget@@UEBAPEAVQAccessibleInterface@@H@Z"
"?child@QTreeWidgetItem@@QEBAPEAV1@H@Z"
"?childAt@QWidget@@QEBAPEAV1@AEBVQPoint@@@Z"
"?childAt@QWidget@@QEBAPEAV1@AEBVQPointF@@@Z"
"?childAt@QWidget@@QEBAPEAV1@HH@Z"
"?childAtRecursiveHelper@QWidgetPrivate@@QEBAPEAVQWidget@@AEBVQPointF@@_N@Z"
"?childAt_helper@QWidgetPrivate@@QEBAPEAVQWidget@@AEBVQPointF@@_N@Z"
"?childCount@QAccessibleWidget@@UEBAHXZ"
"?childCount@QTreeWidgetItem@@QEBAHXZ"
"?childEvent@QGroupBox@@MEAAXPEAVQChildEvent@@@Z"
"?childEvent@QLayout@@MEAAXPEAVQChildEvent@@@Z"
"?childEvent@QMdiArea@@MEAAXPEAVQChildEvent@@@Z"
"?childEvent@QMdiSubWindow@@MEAAXPEAVQChildEvent@@@Z"
"?childEvent@QSplitter@@MEAAXPEAVQChildEvent@@@Z"
"?childIndicatorPolicy@QTreeWidgetItem@@QEBA?AW4ChildIndicatorPolicy@1@XZ"
"?childItems@QGraphicsItem@@QEBA?AV?$QList@PEAVQGraphicsItem@@@@XZ"
"?childrenBoundingRect@QGraphicsItem@@QEBA?AVQRectF@@XZ"
"?childrenBoundingRectHelper@QGraphicsItemPrivate@@QEAAXPEAVQTransform@@PEAVQRectF@@PEAVQGraphicsItem@@@Z"
"?childrenChanged@QGraphicsObject@@QEAAXXZ"
"?childrenCheckState@QTreeWidgetItem@@AEBA?AVQVariant@@H@Z"
"?childrenClippedToShape@QGraphicsItemPrivate@@QEBA_NXZ"
"?childrenCollapsible@QSplitter@@QEBA_NXZ"
"?childrenCombineOpacity@QGraphicsItemPrivate@@QEBA_NXZ"
"?childrenRect@QWidget@@QEBA?AVQRect@@XZ"
"?childrenRegion@QWidget@@QEBA?AVQRegion@@XZ"
"?cleanIcon@QUndoView@@QEBA?AVQIcon@@XZ"
"?cleanText@QDoubleSpinBox@@QEBA?AVQString@@XZ"
"?cleanText@QSpinBox@@QEBA?AVQString@@XZ"
"?cleanup@QColormap@@SAXXZ"
"?cleanupMultitouch@QApplicationPrivate@@QEAAXXZ"
"?cleanupMultitouch_sys@QApplicationPrivate@@QEAAXXZ"
"?cleanupPage@QWizard@@MEAAXH@Z"
"?cleanupPage@QWizardPage@@UEAAXXZ"
"?clear@QAbstractSpinBox@@UEAAXXZ"
"?clear@QComboBox@@QEAAXXZ"
"?clear@QDateTimeEdit@@UEAAXXZ"
"?clear@QDialogButtonBox@@QEAAXXZ"
"?clear@QGraphicsItemAnimation@@QEAAXXZ"
"?clear@QGraphicsScene@@QEAAXXZ"
"?clear@QKeySequenceEdit@@QEAAXXZ"
"?clear@QLabel@@QEAAXXZ"
"?clear@QLineEdit@@QEAAXXZ"
"?clear@QListWidget@@QEAAXXZ"
"?clear@QMenu@@QEAAXXZ"
"?clear@QMenuBar@@QEAAXXZ"
"?clear@QPlainTextEdit@@QEAAXXZ"
"?clear@QTabWidget@@QEAAXXZ"
"?clear@QTableWidget@@QEAAXXZ"
"?clear@QTextEdit@@QEAAXXZ"
"?clear@QToolBar@@QEAAXXZ"
"?clear@QTreeWidget@@QEAAXXZ"
"?clear@QWidgetLineControl@@QEAAXXZ"
"?clear@QWidgetTextControl@@QEAAXXZ"
"?clearConnections@QTreeViewPrivate@@QEAAXXZ"
"?clearContents@QTableWidget@@QEAAXXZ"
"?clearEditText@QComboBox@@QEAAXXZ"
"?clearFocus@QGraphicsItem@@QEAAXXZ"
"?clearFocus@QGraphicsScene@@QEAAXXZ"
"?clearFocus@QWidget@@QEAAXXZ"
"?clearFocusHelper@QGraphicsItemPrivate@@QEAAX_N0@Z"
"?clearHistory@QTextBrowser@@QEAAXXZ"
"?clearMapping@QDataWidgetMapper@@QEAAXXZ"
"?clearMask@QWidget@@QEAAXXZ"
"?clearMaximumDate@QCalendarWidget@@QEAAXXZ"
"?clearMaximumDate@QDateTimeEdit@@QEAAXXZ"
"?clearMaximumDateTime@QDateTimeEdit@@QEAAXXZ"
"?clearMaximumTime@QDateTimeEdit@@QEAAXXZ"
"?clearMessage@QSplashScreen@@QEAAXXZ"
"?clearMessage@QStatusBar@@QEAAXXZ"
"?clearMinimumDate@QCalendarWidget@@QEAAXXZ"
"?clearMinimumDate@QDateTimeEdit@@QEAAXXZ"
"?clearMinimumDateTime@QDateTimeEdit@@QEAAXXZ"
"?clearMinimumTime@QDateTimeEdit@@QEAAXXZ"
"?clearPropertyFlags@QListView@@QEAAXXZ"
"?clearRubberBand@QGraphicsViewPrivate@@QEAAXXZ"
"?clearSelection@QAbstractItemView@@QEAAXXZ"
"?clearSelection@QGraphicsScene@@QEAAXXZ"
"?clearSpans@QTableView@@QEAAXXZ"
"?clearString@QWidgetLineControl@@AEBA?AVQString@@HH@Z"
"?clearSubFocus@QGraphicsItemPrivate@@QEAAXPEAVQGraphicsItem@@0@Z"
"?clearUndo@QWidgetLineControl@@QEAAXXZ"
"?click@QAbstractButton@@QEAAXXZ"
"?clicked@QAbstractButton@@QEAAX_N@Z"
"?clicked@QAbstractItemView@@QEAAXAEBVQModelIndex@@@Z"
"?clicked@QCalendarWidget@@QEAAXVQDate@@@Z"
"?clicked@QDialogButtonBox@@QEAAXPEAVQAbstractButton@@@Z"
"?clicked@QGroupBox@@QEAAX_N@Z"
"?clickedButton@QMessageBox@@QEBAPEAVQAbstractButton@@XZ"
"?clipPath@QGraphicsItem@@QEBA?AVQPainterPath@@XZ"
"?clipRect@QWidgetPrivate@@QEBA?AVQRect@@XZ"
"?clipRegion@QWidgetPrivate@@QEBA?AVQRegion@@XZ"
"?clipToEffectiveMask@QWidgetPrivate@@QEBAXAEAVQRegion@@@Z"
"?clone@QListWidgetItem@@UEBAPEAV1@XZ"
"?clone@QTableWidgetItem@@UEBAPEAV1@XZ"
"?clone@QTreeWidgetItem@@UEBAPEAV1@XZ"
"?close@QDialogPrivate@@QEAAXH@Z"
"?close@QGraphicsWidget@@QEAA_NXZ"
"?close@QWidget@@QEAA_NXZ"
"?close@QWidgetPrivate@@QEAA_NXZ"
"?closeActiveSubWindow@QMdiArea@@QEAAXXZ"
"?closeAllSubWindows@QMdiArea@@QEAAXXZ"
"?closeAllWindows@QApplication@@SAXXZ"
"?closeEditor@QAbstractItemDelegate@@QEAAXPEAVQWidget@@W4EndEditHint@1@@Z"
"?closeEditor@QAbstractItemView@@MEAAXPEAVQWidget@@W4EndEditHint@QAbstractItemDelegate@@@Z"
"?closeEvent@QAbstractSpinBox@@MEAAXPEAVQCloseEvent@@@Z"
"?closeEvent@QDialog@@MEAAXPEAVQCloseEvent@@@Z"
"?closeEvent@QDockWidget@@MEAAXPEAVQCloseEvent@@@Z"
"?closeEvent@QGraphicsWidget@@MEAAXPEAVQCloseEvent@@@Z"
"?closeEvent@QMdiSubWindow@@MEAAXPEAVQCloseEvent@@@Z"
"?closeEvent@QMessageBox@@MEAAXPEAVQCloseEvent@@@Z"
"?closeEvent@QProgressDialog@@MEAAXPEAVQCloseEvent@@@Z"
"?closeEvent@QWidget@@MEAAXPEAVQCloseEvent@@@Z"
"?closePersistentEditor@QAbstractItemView@@QEAAXAEBVQModelIndex@@@Z"
"?closePersistentEditor@QListWidget@@QEAAXPEAVQListWidgetItem@@@Z"
"?closePersistentEditor@QTableWidget@@QEAAXPEAVQTableWidgetItem@@@Z"
"?closePersistentEditor@QTreeWidget@@QEAAXPEAVQTreeWidgetItem@@H@Z"
"?closePopup@QApplicationPrivate@@QEAAXPEAVQWidget@@@Z"
"?closeTab@QTabBarPrivate@@QEAAXXZ"
"?closestAcceptableSize@QLayout@@SA?AVQSize@@PEBVQWidget@@AEBV2@@Z"
"?closestLegalPosition@QSplitter@@IEAAHHH@Z"
"?closestLegalPosition@QSplitterHandle@@IEAAHH@Z"
"?closestParentWidgetWithWindowHandle@QWidgetPrivate@@QEBAPEAVQWidget@@XZ"
"?collapse@QTreeView@@QEAAXAEBVQModelIndex@@@Z"
"?collapse@QTreeViewPrivate@@QEAAXH_N@Z"
"?collapseAll@QTreeView@@QEAAXXZ"
"?collapseItem@QTreeWidget@@QEAAXPEBVQTreeWidgetItem@@@Z"
"?collapsed@QTreeView@@QEAAXAEBVQModelIndex@@@Z"
"?collidesWithItem@QGraphicsItem@@UEBA_NPEBV1@W4ItemSelectionMode@Qt@@@Z"
"?collidesWithPath@QGraphicsItem@@UEBA_NAEBVQPainterPath@@W4ItemSelectionMode@Qt@@@Z"
"?collidingItems@QGraphicsItem@@QEBA?AV?$QList@PEAVQGraphicsItem@@@@W4ItemSelectionMode@Qt@@@Z"
"?collidingItems@QGraphicsScene@@QEBA?AV?$QList@PEAVQGraphicsItem@@@@PEBVQGraphicsItem@@W4ItemSelectionMode@Qt@@@Z"
"?color@QGraphicsColorizeEffect@@QEBA?AVQColor@@XZ"
"?color@QGraphicsDropShadowEffect@@QEBA?AVQColor@@XZ"
"?color@QPixmapColorizeFilter@@QEBA?AVQColor@@XZ"
"?color@QPixmapDropShadowFilter@@QEBA?AVQColor@@XZ"
"?colorAt@QColormap@@QEBA?BVQColor@@I@Z"
"?colorBufferFormat@QRhiWidget@@QEBA?AW4TextureFormat@1@XZ"
"?colorBufferFormatChanged@QRhiWidget@@QEAAXW4TextureFormat@1@@Z"
"?colorChanged@QGraphicsColorizeEffect@@QEAAXAEBVQColor@@@Z"
"?colorChanged@QGraphicsDropShadowEffect@@QEAAXAEBVQColor@@@Z"
"?colorSelected@QColorDialog@@QEAAXAEBVQColor@@@Z"
"?colorTexture@QRhiWidget@@IEBAPEAVQRhiTexture@@XZ"
"?colormap@QColormap@@QEBA?BV?$QList@VQColor@@@@XZ"
"?column@QTableWidget@@QEBAHPEBVQTableWidgetItem@@@Z"
"?column@QTableWidgetItem@@QEBAHXZ"
"?columnAlignment@QGraphicsGridLayout@@QEBA?AV?$QFlags@W4AlignmentFlag@Qt@@@@H@Z"
"?columnAt@QTableView@@QEBAHH@Z"
"?columnAt@QTreeView@@QEBAHH@Z"
"?columnAt@QTreeViewPrivate@@QEBAHH@Z"
"?columnCount@QGraphicsGridLayout@@QEBAHXZ"
"?columnCount@QGridLayout@@QEBAHXZ"
"?columnCount@QMenu@@IEBAHXZ"
"?columnCount@QTableWidget@@QEBAHXZ"
"?columnCount@QTreeWidget@@QEBAHXZ"
"?columnCount@QTreeWidgetItem@@QEBAHXZ"
"?columnCountChanged@QTableView@@IEAAXHH@Z"
"?columnCountChanged@QTreeView@@IEAAXHH@Z"
"?columnMaximumWidth@QGraphicsGridLayout@@QEBANH@Z"
"?columnMinimumWidth@QGraphicsGridLayout@@QEBANH@Z"
"?columnMinimumWidth@QGridLayout@@QEBAHH@Z"
"?columnMoved@QTableView@@IEAAXHHH@Z"
"?columnMoved@QTreeView@@IEAAXXZ"
"?columnPreferredWidth@QGraphicsGridLayout@@QEBANH@Z"
"?columnRanges@QTreeViewPrivate@@QEBA?AV?$QList@U?$pair@HH@std@@@@AEBVQModelIndex@@0@Z"
"?columnResized@QTableView@@IEAAXHHH@Z"
"?columnResized@QTreeView@@IEAAXHHH@Z"
"?columnSpacing@QGraphicsGridLayout@@QEBANH@Z"
"?columnSpan@QTableView@@QEBAHHH@Z"
"?columnStretch@QGridLayout@@QEBAHH@Z"
"?columnStretchFactor@QGraphicsGridLayout@@QEBAHH@Z"
"?columnViewportPosition@QTableView@@QEBAHH@Z"
"?columnViewportPosition@QTreeView@@QEBAHH@Z"
"?columnWidth@QTableView@@QEBAHH@Z"
"?columnWidth@QTreeView@@QEBAHH@Z"
"?columnWidths@QColumnView@@QEBA?AV?$QList@H@@XZ"
"?columns@QPixmapConvolutionFilter@@AEBAHXZ"
"?columnsAboutToBeRemoved@QTreeViewPrivate@@UEAAXAEBVQModelIndex@@HH@Z"
"?columnsRemoved@QTreeViewPrivate@@UEAAXAEBVQModelIndex@@HH@Z"
"?combineOpacityFromParent@QGraphicsItemPrivate@@QEBANN@Z"
"?combineTransformFromParent@QGraphicsItemPrivate@@QEBAXPEAVQTransform@@PEBV2@@Z"
"?combineTransformToParent@QGraphicsItemPrivate@@QEBAXPEAVQTransform@@PEBV2@@Z"
"?combinedLayoutSpacing@QStyle@@QEBAHV?$QFlags@W4ControlType@QSizePolicy@@@@0W4Orientation@Qt@@PEAVQStyleOption@@PEAVQWidget@@@Z"
"?comboBoxItems@QInputDialog@@QEBA?AV?$QList@VQString@@@@XZ"
"?comboBoxSizeFromContents@QPixmapStyle@@IEBA?AVQSize@@PEBVQStyleOption@@AEBV2@PEBVQWidget@@@Z"
"?comboBoxSubControlRect@QPixmapStyle@@IEBA?AVQRect@@PEBVQStyleOptionComplex@@W4SubControl@QStyle@@PEBVQWidget@@@Z"
"?comboStyleOption@QComboBoxPrivateContainer@@IEBA?AVQStyleOptionComboBox@@XZ"
"?commit@QTouchEventWidgetSequence@QTest@@UEAA_N_N@Z"
"?commitData@QAbstractItemDelegate@@QEAAXPEAVQWidget@@@Z"
"?commitData@QAbstractItemView@@MEAAXPEAVQWidget@@@Z"
"?commitPreedit@QWidgetLineControl@@QEAAXXZ"
"?commonAncestorItem@QGraphicsItem@@QEBAPEAV1@PEBV1@@Z"
"?complete@QCompleter@@QEAAXAEBVQRect@@@Z"
"?complete@QWidgetLineControl@@QEAAXH@Z"
"?completeChanged@QWizardPage@@QEAAXXZ"
"?completer@QComboBox@@QEBAPEAVQCompleter@@XZ"
"?completer@QLineEdit@@QEBAPEAVQCompleter@@XZ"
"?completer@QWidgetLineControl@@QEBAPEAVQCompleter@@XZ"
"?completionColumn@QCompleter@@QEBAHXZ"
"?completionCount@QCompleter@@QEBAHXZ"
"?completionMode@QCompleter@@QEBA?AW4CompletionMode@1@XZ"
"?completionModel@QCompleter@@QEBAPEAVQAbstractItemModel@@XZ"
"?completionPrefix@QCompleter@@QEBA?AVQString@@XZ"
"?completionRole@QCompleter@@QEBAHXZ"
"?composeMode@QWidgetLineControl@@QEBA_NXZ"
"?compressEvent@QApplication@@MEAA_NPEAVQEvent@@PEAVQObject@@PEAVQPostEventList@@@Z"
"?containedWindow@QWindowContainer@@QEBAPEAVQWindow@@XZ"
"?contains@QGraphicsEllipseItem@@UEBA_NAEBVQPointF@@@Z"
"?contains@QGraphicsItem@@UEBA_NAEBVQPointF@@@Z"
"?contains@QGraphicsLineItem@@UEBA_NAEBVQPointF@@@Z"
"?contains@QGraphicsPathItem@@UEBA_NAEBVQPointF@@@Z"
"?contains@QGraphicsPixmapItem@@UEBA_NAEBVQPointF@@@Z"
"?contains@QGraphicsPolygonItem@@UEBA_NAEBVQPointF@@@Z"
"?contains@QGraphicsRectItem@@UEBA_NAEBVQPointF@@@Z"
"?contains@QGraphicsSimpleTextItem@@UEBA_NAEBVQPointF@@@Z"
"?contains@QGraphicsTextItem@@UEBA_NAEBVQPointF@@@Z"
"?contentOffset@QPlainTextEdit@@IEBA?AVQPointF@@XZ"
"?contentsMargins@QLayout@@QEBA?AVQMargins@@XZ"
"?contentsMargins@QWidget@@QEBA?AVQMargins@@XZ"
"?contentsRect@QGraphicsLayoutItem@@QEBA?AVQRectF@@XZ"
"?contentsRect@QLayout@@QEBA?AVQRect@@XZ"
"?contentsRect@QWidget@@QEBA?AVQRect@@XZ"
"?contentsSize@QListView@@IEBA?AVQSize@@XZ"
"?contextMatcher@QtWidgetsActionPrivate@@UEBAP6A_NPEAVQObject@@W4ShortcutContext@Qt@@@ZXZ"
"?contextMenu@QSystemTrayIcon@@QEBAPEAVQMenu@@XZ"
"?contextMenuEvent@QAbstractScrollArea@@MEAAXPEAVQContextMenuEvent@@@Z"
"?contextMenuEvent@QAbstractSpinBox@@MEAAXPEAVQContextMenuEvent@@@Z"
"?contextMenuEvent@QComboBox@@MEAAXPEAVQContextMenuEvent@@@Z"
"?contextMenuEvent@QDialog@@MEAAXPEAVQContextMenuEvent@@@Z"
"?contextMenuEvent@QGraphicsItem@@MEAAXPEAVQGraphicsSceneContextMenuEvent@@@Z"
"?contextMenuEvent@QGraphicsProxyWidget@@MEAAXPEAVQGraphicsSceneContextMenuEvent@@@Z"
"?contextMenuEvent@QGraphicsScene@@MEAAXPEAVQGraphicsSceneContextMenuEvent@@@Z"
"?contextMenuEvent@QGraphicsTextItem@@MEAAXPEAVQGraphicsSceneContextMenuEvent@@@Z"
"?contextMenuEvent@QGraphicsView@@MEAAXPEAVQContextMenuEvent@@@Z"
"?contextMenuEvent@QLabel@@MEAAXPEAVQContextMenuEvent@@@Z"
"?contextMenuEvent@QLineEdit@@MEAAXPEAVQContextMenuEvent@@@Z"
"?contextMenuEvent@QMainWindow@@MEAAXPEAVQContextMenuEvent@@@Z"
"?contextMenuEvent@QMdiSubWindow@@MEAAXPEAVQContextMenuEvent@@@Z"
"?contextMenuEvent@QPlainTextEdit@@MEAAXPEAVQContextMenuEvent@@@Z"
"?contextMenuEvent@QScrollBar@@MEAAXPEAVQContextMenuEvent@@@Z"
"?contextMenuEvent@QTextEdit@@MEAAXPEAVQContextMenuEvent@@@Z"
"?contextMenuEvent@QWidget@@MEAAXPEAVQContextMenuEvent@@@Z"
"?contextMenuPolicy@QWidget@@QEBA?AW4ContextMenuPolicy@Qt@@XZ"
"?controlType@QSizePolicy@@QEBA?AW4ControlType@1@XZ"
"?controlTypes@QLayout@@UEBA?AV?$QFlags@W4ControlType@QSizePolicy@@@@XZ"
"?controlTypes@QLayoutItem@@UEBA?AV?$QFlags@W4ControlType@QSizePolicy@@@@XZ"
"?controlTypes@QWidgetItem@@UEBA?AV?$QFlags@W4ControlType@QSizePolicy@@@@XZ"
"?convolutionKernel@QPixmapConvolutionFilter@@AEBAPEBNXZ"
"?coordinateForItem@QTreeViewPrivate@@QEBAHH@Z"
"?copy@QLineEdit@@QEBAXXZ"
"?copy@QPlainTextEdit@@QEAAXXZ"
"?copy@QTextEdit@@QEAAXXZ"
"?copy@QWidgetLineControl@@QEBAXW4Mode@QClipboard@@@Z"
"?copy@QWidgetTextControl@@QEAAXXZ"
"?copyAvailable@QPlainTextEdit@@QEAAX_N@Z"
"?copyAvailable@QTextEdit@@QEAAX_N@Z"
"?copyAvailable@QWidgetTextControl@@QEAAX_N@Z"
"?copyDescriptor@QPixmapStyle@@QEAAXW4ControlDescriptor@1@0@Z"
"?copyPixmap@QPixmapStyle@@QEAAXW4ControlPixmap@1@0@Z"
"?corner@QMainWindow@@QEBA?AW4DockWidgetArea@Qt@@W4Corner@3@@Z"
"?cornerWidget@QAbstractScrollArea@@QEBAPEAVQWidget@@XZ"
"?cornerWidget@QMenuBar@@QEBAPEAVQWidget@@W4Corner@Qt@@@Z"
"?cornerWidget@QTabWidget@@QEBAPEAVQWidget@@W4Corner@Qt@@@Z"
"?correctionMode@QAbstractSpinBox@@QEBA?AW4CorrectionMode@1@XZ"
"?count@QBoxLayout@@UEBAHXZ"
"?count@QComboBox@@QEBAHXZ"
"?count@QDockWidgetLayout@@UEBAHXZ"
"?count@QFormLayout@@UEBAHXZ"
"?count@QGraphicsAnchorLayout@@UEBAHXZ"
"?count@QGraphicsGridLayout@@UEBAHXZ"
"?count@QGraphicsLinearLayout@@UEBAHXZ"
"?count@QGridLayout@@UEBAHXZ"
"?count@QHeaderView@@QEBAHXZ"
"?count@QListWidget@@QEBAHXZ"
"?count@QSplitter@@QEBAHXZ"
"?count@QStackedLayout@@UEBAHXZ"
"?count@QStackedWidget@@QEBAHXZ"
"?count@QTabBar@@QEBAHXZ"
"?count@QTabWidget@@QEBAHXZ"
"?count@QToolBox@@QEBAHXZ"
"?create@QGestureRecognizer@@UEAAPEAVQGesture@@PEAVQObject@@@Z"
"?create@QStyleFactory@@SAPEAVQStyle@@AEBVQString@@@Z"
"?create@QWidget@@IEAAX_K_N1@Z"
"?create@QWidgetPrivate@@QEAAXXZ"
"?createAction@QWhatsThis@@SAPEAVQAction@@PEAVQObject@@@Z"
"?createActionPrivate@QApplicationPrivate@@UEBAPEAVQActionPrivate@@XZ"
"?createColumn@QColumnView@@MEAAPEAVQAbstractItemView@@AEBVQModelIndex@@@Z"
"?createDirectory@QFileDialogPrivate@@QEAAXXZ"
"?createEditor@QAbstractItemDelegate@@UEBAPEAVQWidget@@PEAV2@AEBVQStyleOptionViewItem@@AEBVQModelIndex@@@Z"
"?createEditor@QItemDelegate@@UEBAPEAVQWidget@@PEAV2@AEBVQStyleOptionViewItem@@AEBVQModelIndex@@@Z"
"?createEditor@QItemEditorFactory@@UEBAPEAVQWidget@@HPEAV2@@Z"
"?createEditor@QStyledItemDelegate@@UEBAPEAVQWidget@@PEAV2@AEBVQStyleOptionViewItem@@AEBVQModelIndex@@@Z"
"?createEventDispatcher@QApplicationPrivate@@UEAAXXZ"
"?createExtra@QWidgetPrivate@@QEAAXXZ"
"?createHandle@QSplitter@@MEAAPEAVQSplitterHandle@@XZ"
"?createItemGroup@QGraphicsScene@@QEAAPEAVQGraphicsItemGroup@@AEBV?$QList@PEAVQGraphicsItem@@@@@Z"
"?createMenuActions@QFileDialogPrivate@@QEAAXXZ"
"?createMimeDataFromSelection@QPlainTextEdit@@MEBAPEAVQMimeData@@XZ"
"?createMimeDataFromSelection@QTextEdit@@MEBAPEAVQMimeData@@XZ"
"?createMimeDataFromSelection@QWidgetTextControl@@UEBAPEAVQMimeData@@XZ"
"?createPopupMenu@QMainWindow@@UEAAPEAVQMenu@@XZ"
"?createProxyForChildWidget@QGraphicsProxyWidget@@QEAAPEAV1@PEAVQWidget@@@Z"
"?createRecursively@QWidgetPrivate@@QEAAXXZ"
"?createShortcutPrivate@QApplicationPrivate@@UEBAPEAVQShortcutPrivate@@XZ"
"?createSpacerItem@QLayoutPrivate@@SAPEAVQSpacerItem@@PEBVQLayout@@HHW4Policy@QSizePolicy@@1@Z"
"?createStandardContextMenu@QLineEdit@@QEAAPEAVQMenu@@XZ"
"?createStandardContextMenu@QPlainTextEdit@@QEAAPEAVQMenu@@AEBVQPoint@@@Z"
"?createStandardContextMenu@QPlainTextEdit@@QEAAPEAVQMenu@@XZ"
"?createStandardContextMenu@QTextEdit@@QEAAPEAVQMenu@@AEBVQPoint@@@Z"
"?createStandardContextMenu@QTextEdit@@QEAAPEAVQMenu@@XZ"
"?createStandardContextMenu@QWidgetTextControl@@QEAAPEAVQMenu@@AEBVQPointF@@PEAVQWidget@@@Z"
"?createSysExtra@QWidgetPrivate@@QEAAXXZ"
"?createTLExtra@QWidgetPrivate@@QEAAXXZ"
"?createTLSysExtra@QWidgetPrivate@@QEAAXXZ"
"?createToolButtons@QFileDialogPrivate@@QEAAXXZ"
"?createWidget@QWidgetAction@@MEAAPEAVQWidget@@PEAV2@@Z"
"?createWidgetItem@QLayoutPrivate@@SAPEAVQWidgetItem@@PEBVQLayout@@PEAVQWidget@@@Z"
"?createWidgets@QFileDialogPrivate@@QEAAXXZ"
"?createWinId@QWidget@@QEAAXXZ"
"?createWinId@QWidgetPrivate@@QEAAXXZ"
"?createWindowContainer@QWidget@@SAPEAV1@PEAVQWindow@@PEAV1@V?$QFlags@W4WindowType@Qt@@@@@Z"
"?createdWidgets@QWidgetAction@@IEBA?AV?$QList@PEAVQWidget@@@@XZ"
"?critical@QMessageBox@@SA?AW4StandardButton@1@PEAVQWidget@@AEBVQString@@1V?$QFlags@W4StandardButton@QMessageBox@@@@W421@@Z"
"?critical@QMessageBox@@SAHPEAVQWidget@@AEBVQString@@1111HH@Z"
"?critical@QMessageBox@@SAHPEAVQWidget@@AEBVQString@@1HHH@Z"
"?critical@QMessageBox@@SAHPEAVQWidget@@AEBVQString@@1W4StandardButton@1@2@Z"
"?currentCellChanged@QTableWidget@@QEAAXHHHH@Z"
"?currentChanged@QAbstractItemView@@MEAAXAEBVQModelIndex@@0@Z"
"?currentChanged@QColumnView@@MEAAXAEBVQModelIndex@@0@Z"
"?currentChanged@QFileDialog@@QEAAXAEBVQString@@@Z"
"?currentChanged@QFileDialogPrivate@@QEAAXAEBVQModelIndex@@@Z"
"?currentChanged@QHeaderView@@MEAAXAEBVQModelIndex@@0@Z"
"?currentChanged@QListView@@MEAAXAEBVQModelIndex@@0@Z"
"?currentChanged@QStackedLayout@@QEAAXH@Z"
"?currentChanged@QStackedWidget@@QEAAXH@Z"
"?currentChanged@QTabBar@@QEAAXH@Z"
"?currentChanged@QTabWidget@@QEAAXH@Z"
"?currentChanged@QTableView@@MEAAXAEBVQModelIndex@@0@Z"
"?currentChanged@QToolBox@@QEAAXH@Z"
"?currentChanged@QTreeView@@MEAAXAEBVQModelIndex@@0@Z"
"?currentCharFormat@QPlainTextEdit@@QEBA?AVQTextCharFormat@@XZ"
"?currentCharFormat@QTextEdit@@QEBA?AVQTextCharFormat@@XZ"
"?currentCharFormat@QWidgetTextControl@@QEBA?AVQTextCharFormat@@XZ"
"?currentCharFormatChanged@QTextEdit@@QEAAXAEBVQTextCharFormat@@@Z"
"?currentCharFormatChanged@QWidgetTextControl@@QEAAXAEBVQTextCharFormat@@@Z"
"?currentColor@QColorDialog@@QEBA?AVQColor@@XZ"
"?currentColorChanged@QColorDialog@@QEAAXAEBVQColor@@@Z"
"?currentColumn@QTableWidget@@QEBAHXZ"
"?currentColumn@QTreeWidget@@QEBAHXZ"
"?currentCompletion@QCompleter@@QEBA?AVQString@@XZ"
"?currentData@QComboBox@@QEBA?AVQVariant@@H@Z"
"?currentFont@QFontComboBox@@QEBA?AVQFont@@XZ"
"?currentFont@QFontDialog@@QEBA?AVQFont@@XZ"
"?currentFont@QTextEdit@@QEBA?AVQFont@@XZ"
"?currentFontChanged@QFontComboBox@@QEAAXAEBVQFont@@@Z"
"?currentFontChanged@QFontDialog@@QEAAXAEBVQFont@@@Z"
"?currentId@QWizard@@QEBAHXZ"
"?currentIdChanged@QWizard@@QEAAXH@Z"
"?currentImage@QBlendStyleAnimation@@QEBA?AVQImage@@XZ"
"?currentIndex@QAbstractItemView@@QEBA?AVQModelIndex@@XZ"
"?currentIndex@QComboBox@@QEBAHXZ"
"?currentIndex@QCompleter@@QEBA?AVQModelIndex@@XZ"
"?currentIndex@QDataWidgetMapper@@QEBAHXZ"
"?currentIndex@QStackedLayout@@QEBAHXZ"
"?currentIndex@QStackedWidget@@QEBAHXZ"
"?currentIndex@QTabBar@@QEBAHXZ"
"?currentIndex@QTabWidget@@QEBAHXZ"
"?currentIndex@QToolBox@@QEBAHXZ"
"?currentIndexChanged@QComboBox@@QEAAXH@Z"
"?currentIndexChanged@QDataWidgetMapper@@QEAAXH@Z"
"?currentItem@QListWidget@@QEBAPEAVQListWidgetItem@@XZ"
"?currentItem@QTableWidget@@QEBAPEAVQTableWidgetItem@@XZ"
"?currentItem@QTreeWidget@@QEBAPEAVQTreeWidgetItem@@XZ"
"?currentItemChanged@QListWidget@@QEAAXPEAVQListWidgetItem@@0@Z"
"?currentItemChanged@QTableWidget@@QEAAXPEAVQTableWidgetItem@@0@Z"
"?currentItemChanged@QTreeWidget@@QEAAXPEAVQTreeWidgetItem@@0@Z"
"?currentMessage@QStatusBar@@QEBA?AVQString@@XZ"
"?currentPage@QWizard@@QEBAPEAVQWizardPage@@XZ"
"?currentPageChanged@QCalendarWidget@@QEAAXHH@Z"
"?currentRow@QCompleter@@QEBAHXZ"
"?currentRow@QListWidget@@QEBAHXZ"
"?currentRow@QTableWidget@@QEBAHXZ"
"?currentRowChanged@QListWidget@@QEAAXH@Z"
"?currentSection@QDateTimeEdit@@QEBA?AW4Section@1@XZ"
"?currentSectionIndex@QDateTimeEdit@@QEBAHXZ"
"?currentSubWindow@QMdiArea@@QEBAPEAVQMdiSubWindow@@XZ"
"?currentText@QComboBox@@QEBA?AVQString@@XZ"
"?currentTextChanged@QComboBox@@QEAAXAEBVQString@@@Z"
"?currentTextChanged@QListWidget@@QEAAXAEBVQString@@@Z"
"?currentUrlChanged@QFileDialog@@QEAAXAEBVQUrl@@@Z"
"?currentValue@QNumberStyleAnimation@@QEBANXZ"
"?currentView@QFileDialogPrivate@@QEBAPEAVQAbstractItemView@@XZ"
"?currentWidget@QStackedLayout@@QEBAPEAVQWidget@@XZ"
"?currentWidget@QStackedWidget@@QEBAPEAVQWidget@@XZ"
"?currentWidget@QTabWidget@@QEBAPEAVQWidget@@XZ"
"?currentWidget@QToolBox@@QEBAPEAVQWidget@@XZ"
"?cursor@QGraphicsItem@@QEBA?AVQCursor@@XZ"
"?cursor@QWidget@@QEBA?AVQCursor@@XZ"
"?cursor@QWidgetLineControl@@QEBAHXZ"
"?cursorBackward@QLineEdit@@QEAAX_NH@Z"
"?cursorBlinkStatus@QWidgetLineControl@@QEBA_NXZ"
"?cursorFlashTime@QApplication@@SAHXZ"
"?cursorForPosition@QPlainTextEdit@@QEBA?AVQTextCursor@@AEBVQPoint@@@Z"
"?cursorForPosition@QTextEdit@@QEBA?AVQTextCursor@@AEBVQPoint@@@Z"
"?cursorForPosition@QWidgetTextControl@@QEBA?AVQTextCursor@@AEBVQPointF@@@Z"
"?cursorForward@QLineEdit@@QEAAX_NH@Z"
"?cursorForward@QWidgetLineControl@@QEAAX_NH@Z"
"?cursorIsFocusIndicator@QWidgetTextControl@@QEBA_NXZ"
"?cursorMoveStyle@QLineEdit@@QEBA?AW4CursorMoveStyle@Qt@@XZ"
"?cursorMoveStyle@QWidgetLineControl@@QEBA?AW4CursorMoveStyle@Qt@@XZ"
"?cursorPosition@QLineEdit@@QEBAHXZ"
"?cursorPosition@QWidgetLineControl@@QEBAHXZ"
"?cursorPositionAt@QLineEdit@@QEAAHAEBVQPoint@@@Z"
"?cursorPositionChanged@QLineEdit@@QEAAXHH@Z"
"?cursorPositionChanged@QPlainTextEdit@@QEAAXXZ"
"?cursorPositionChanged@QTextEdit@@QEAAXXZ"
"?cursorPositionChanged@QWidgetLineControl@@QEAAXHH@Z"
"?cursorPositionChanged@QWidgetTextControl@@QEAAXXZ"
"?cursorRect@QLineEdit@@IEBA?AVQRect@@XZ"
"?cursorRect@QPlainTextEdit@@QEBA?AVQRect@@AEBVQTextCursor@@@Z"
"?cursorRect@QPlainTextEdit@@QEBA?AVQRect@@XZ"
"?cursorRect@QTextEdit@@QEBA?AVQRect@@AEBVQTextCursor@@@Z"
"?cursorRect@QTextEdit@@QEBA?AVQRect@@XZ"
"?cursorRect@QWidgetLineControl@@QEBA?AVQRect@@XZ"
"?cursorRect@QWidgetTextControl@@QEBA?AVQRectF@@AEBVQTextCursor@@@Z"
"?cursorRect@QWidgetTextControl@@QEBA?AVQRectF@@XZ"
"?cursorToX@QWidgetLineControl@@QEBANH@Z"
"?cursorToX@QWidgetLineControl@@QEBANXZ"
"?cursorWidth@QPlainTextDocumentLayout@@QEBAHXZ"
"?cursorWidth@QPlainTextEdit@@QEBAHXZ"
"?cursorWidth@QTextEdit@@QEBAHXZ"
"?cursorWidth@QWidgetLineControl@@QEBAHXZ"
"?cursorWidth@QWidgetTextControl@@QEBAHXZ"
"?cursorWordBackward@QLineEdit@@QEAAX_N@Z"
"?cursorWordBackward@QWidgetLineControl@@QEAAX_N@Z"
"?cursorWordForward@QLineEdit@@QEAAX_N@Z"
"?cursorWordForward@QWidgetLineControl@@QEAAX_N@Z"
"?customButtonClicked@QWizard@@QEAAXH@Z"
"?customColor@QColorDialog@@SA?AVQColor@@H@Z"
"?customContextMenuRequested@QWidget@@QEAAXAEBVQPoint@@@Z"
"?customCount@QColorDialog@@SAHXZ"
"?cut@QLineEdit@@QEAAXXZ"
"?cut@QPlainTextEdit@@QEAAXXZ"
"?cut@QTextEdit@@QEAAXXZ"
"?cut@QWidgetTextControl@@QEAAXXZ"
"?d_func@QAbstractButton@@AEAAPEAVQAbstractButtonPrivate@@XZ"
"?d_func@QAbstractButton@@AEBAPEBVQAbstractButtonPrivate@@XZ"
"?d_func@QAbstractGraphicsShapeItem@@AEAAPEAVQAbstractGraphicsShapeItemPrivate@@XZ"
"?d_func@QAbstractGraphicsShapeItem@@AEBAPEBVQAbstractGraphicsShapeItemPrivate@@XZ"
"?d_func@QAbstractItemDelegate@@AEAAPEAVQAbstractItemDelegatePrivate@@XZ"
"?d_func@QAbstractItemDelegate@@AEBAPEBVQAbstractItemDelegatePrivate@@XZ"
"?d_func@QAbstractItemView@@AEAAPEAVQAbstractItemViewPrivate@@XZ"
"?d_func@QAbstractItemView@@AEBAPEBVQAbstractItemViewPrivate@@XZ"
"?d_func@QAbstractScrollArea@@AEAAPEAVQAbstractScrollAreaPrivate@@XZ"
"?d_func@QAbstractScrollArea@@AEBAPEBVQAbstractScrollAreaPrivate@@XZ"
"?d_func@QAbstractSlider@@AEAAPEAVQAbstractSliderPrivate@@XZ"
"?d_func@QAbstractSlider@@AEBAPEBVQAbstractSliderPrivate@@XZ"
"?d_func@QAbstractSpinBox@@AEAAPEAVQAbstractSpinBoxPrivate@@XZ"
"?d_func@QAbstractSpinBox@@AEBAPEBVQAbstractSpinBoxPrivate@@XZ"
"?d_func@QApplication@@AEAAPEAVQApplicationPrivate@@XZ"
"?d_func@QApplication@@AEBAPEBVQApplicationPrivate@@XZ"
"?d_func@QBoxLayout@@AEAAPEAVQBoxLayoutPrivate@@XZ"
"?d_func@QBoxLayout@@AEBAPEBVQBoxLayoutPrivate@@XZ"
"?d_func@QButtonGroup@@AEAAPEAVQButtonGroupPrivate@@XZ"
"?d_func@QButtonGroup@@AEBAPEBVQButtonGroupPrivate@@XZ"
"?d_func@QCalendarWidget@@AEAAPEAVQCalendarWidgetPrivate@@XZ"
"?d_func@QCalendarWidget@@AEBAPEBVQCalendarWidgetPrivate@@XZ"
"?d_func@QCheckBox@@AEAAPEAVQCheckBoxPrivate@@XZ"
"?d_func@QCheckBox@@AEBAPEBVQCheckBoxPrivate@@XZ"
"?d_func@QColorDialog@@AEAAPEAVQColorDialogPrivate@@XZ"
"?d_func@QColorDialog@@AEBAPEBVQColorDialogPrivate@@XZ"
"?d_func@QColumnView@@AEAAPEAVQColumnViewPrivate@@XZ"
"?d_func@QColumnView@@AEBAPEBVQColumnViewPrivate@@XZ"
"?d_func@QComboBox@@AEAAPEAVQComboBoxPrivate@@XZ"
"?d_func@QComboBox@@AEBAPEBVQComboBoxPrivate@@XZ"
"?d_func@QCommandLinkButton@@AEAAPEAVQCommandLinkButtonPrivate@@XZ"
"?d_func@QCommandLinkButton@@AEBAPEBVQCommandLinkButtonPrivate@@XZ"
"?d_func@QCommonStyle@@AEAAPEAVQCommonStylePrivate@@XZ"
"?d_func@QCommonStyle@@AEBAPEBVQCommonStylePrivate@@XZ"
"?d_func@QCompleter@@AEAAPEAVQCompleterPrivate@@XZ"
"?d_func@QCompleter@@AEBAPEBVQCompleterPrivate@@XZ"
"?d_func@QDataWidgetMapper@@AEAAPEAVQDataWidgetMapperPrivate@@XZ"
"?d_func@QDataWidgetMapper@@AEBAPEBVQDataWidgetMapperPrivate@@XZ"
"?d_func@QDateTimeEdit@@AEAAPEAVQDateTimeEditPrivate@@XZ"
"?d_func@QDateTimeEdit@@AEBAPEBVQDateTimeEditPrivate@@XZ"
"?d_func@QDial@@AEAAPEAVQDialPrivate@@XZ"
"?d_func@QDial@@AEBAPEBVQDialPrivate@@XZ"
"?d_func@QDialog@@AEAAPEAVQDialogPrivate@@XZ"
"?d_func@QDialog@@AEBAPEBVQDialogPrivate@@XZ"
"?d_func@QDialogButtonBox@@AEAAPEAVQDialogButtonBoxPrivate@@XZ"
"?d_func@QDialogButtonBox@@AEBAPEBVQDialogButtonBoxPrivate@@XZ"
"?d_func@QDockWidget@@AEAAPEAVQDockWidgetPrivate@@XZ"
"?d_func@QDockWidget@@AEBAPEBVQDockWidgetPrivate@@XZ"
"?d_func@QDoubleSpinBox@@AEAAPEAVQDoubleSpinBoxPrivate@@XZ"
"?d_func@QDoubleSpinBox@@AEBAPEBVQDoubleSpinBoxPrivate@@XZ"
"?d_func@QErrorMessage@@AEAAPEAVQErrorMessagePrivate@@XZ"
"?d_func@QErrorMessage@@AEBAPEBVQErrorMessagePrivate@@XZ"
"?d_func@QFileDialog@@AEAAPEAVQFileDialogPrivate@@XZ"
"?d_func@QFileDialog@@AEBAPEBVQFileDialogPrivate@@XZ"
"?d_func@QFileIconProvider@@AEAAPEAVQFileIconProviderPrivate@@XZ"
"?d_func@QFileIconProvider@@AEBAPEBVQFileIconProviderPrivate@@XZ"
"?d_func@QFlickGesture@@AEAAPEAVQFlickGesturePrivate@@XZ"
"?d_func@QFlickGesture@@AEBAPEBVQFlickGesturePrivate@@XZ"
"?d_func@QFocusFrame@@AEAAPEAVQFocusFramePrivate@@XZ"
"?d_func@QFocusFrame@@AEBAPEBVQFocusFramePrivate@@XZ"
"?d_func@QFontComboBox@@AEAAPEAVQFontComboBoxPrivate@@XZ"
"?d_func@QFontComboBox@@AEBAPEBVQFontComboBoxPrivate@@XZ"
"?d_func@QFontDialog@@AEAAPEAVQFontDialogPrivate@@XZ"
"?d_func@QFontDialog@@AEBAPEBVQFontDialogPrivate@@XZ"
"?d_func@QFormLayout@@AEAAPEAVQFormLayoutPrivate@@XZ"
"?d_func@QFormLayout@@AEBAPEBVQFormLayoutPrivate@@XZ"
"?d_func@QFrame@@AEAAPEAVQFramePrivate@@XZ"
"?d_func@QFrame@@AEBAPEBVQFramePrivate@@XZ"
"?d_func@QFusionStyle@@AEAAPEAVQFusionStylePrivate@@XZ"
"?d_func@QFusionStyle@@AEBAPEBVQFusionStylePrivate@@XZ"
"?d_func@QGesture@@AEAAPEAVQGesturePrivate@@XZ"
"?d_func@QGesture@@AEBAPEBVQGesturePrivate@@XZ"
"?d_func@QGraphicsAnchor@@AEAAPEAVQGraphicsAnchorPrivate@@XZ"
"?d_func@QGraphicsAnchor@@AEBAPEBVQGraphicsAnchorPrivate@@XZ"
"?d_func@QGraphicsAnchorLayout@@AEAAPEAVQGraphicsAnchorLayoutPrivate@@XZ"
"?d_func@QGraphicsAnchorLayout@@AEBAPEBVQGraphicsAnchorLayoutPrivate@@XZ"
"?d_func@QGraphicsBlurEffect@@AEAAPEAVQGraphicsBlurEffectPrivate@@XZ"
"?d_func@QGraphicsBlurEffect@@AEBAPEBVQGraphicsBlurEffectPrivate@@XZ"
"?d_func@QGraphicsColorizeEffect@@AEAAPEAVQGraphicsColorizeEffectPrivate@@XZ"
"?d_func@QGraphicsColorizeEffect@@AEBAPEBVQGraphicsColorizeEffectPrivate@@XZ"
"?d_func@QGraphicsDropShadowEffect@@AEAAPEAVQGraphicsDropShadowEffectPrivate@@XZ"
"?d_func@QGraphicsDropShadowEffect@@AEBAPEBVQGraphicsDropShadowEffectPrivate@@XZ"
"?d_func@QGraphicsEffect@@AEAAPEAVQGraphicsEffectPrivate@@XZ"
"?d_func@QGraphicsEffect@@AEBAPEBVQGraphicsEffectPrivate@@XZ"
"?d_func@QGraphicsEffectSource@@AEAAPEAVQGraphicsEffectSourcePrivate@@XZ"
"?d_func@QGraphicsEffectSource@@AEBAPEBVQGraphicsEffectSourcePrivate@@XZ"
"?d_func@QGraphicsEllipseItem@@AEAAPEAVQGraphicsEllipseItemPrivate@@XZ"
"?d_func@QGraphicsEllipseItem@@AEBAPEBVQGraphicsEllipseItemPrivate@@XZ"
"?d_func@QGraphicsGridLayout@@AEAAPEAVQGraphicsGridLayoutPrivate@@XZ"
"?d_func@QGraphicsGridLayout@@AEBAPEBVQGraphicsGridLayoutPrivate@@XZ"
"?d_func@QGraphicsItem@@AEAAPEAVQGraphicsItemPrivate@@XZ"
"?d_func@QGraphicsItem@@AEBAPEBVQGraphicsItemPrivate@@XZ"
"?d_func@QGraphicsItemGroup@@AEAAPEAVQGraphicsItemGroupPrivate@@XZ"
"?d_func@QGraphicsItemGroup@@AEBAPEBVQGraphicsItemGroupPrivate@@XZ"
"?d_func@QGraphicsLayout@@AEAAPEAVQGraphicsLayoutPrivate@@XZ"
"?d_func@QGraphicsLayout@@AEBAPEBVQGraphicsLayoutPrivate@@XZ"
"?d_func@QGraphicsLayoutItem@@AEAAPEAVQGraphicsLayoutItemPrivate@@XZ"
"?d_func@QGraphicsLayoutItem@@AEBAPEBVQGraphicsLayoutItemPrivate@@XZ"
"?d_func@QGraphicsLineItem@@AEAAPEAVQGraphicsLineItemPrivate@@XZ"
"?d_func@QGraphicsLineItem@@AEBAPEBVQGraphicsLineItemPrivate@@XZ"
"?d_func@QGraphicsLinearLayout@@AEAAPEAVQGraphicsLinearLayoutPrivate@@XZ"
"?d_func@QGraphicsLinearLayout@@AEBAPEBVQGraphicsLinearLayoutPrivate@@XZ"
"?d_func@QGraphicsOpacityEffect@@AEAAPEAVQGraphicsOpacityEffectPrivate@@XZ"
"?d_func@QGraphicsOpacityEffect@@AEBAPEBVQGraphicsOpacityEffectPrivate@@XZ"
"?d_func@QGraphicsPathItem@@AEAAPEAVQGraphicsPathItemPrivate@@XZ"
"?d_func@QGraphicsPathItem@@AEBAPEBVQGraphicsPathItemPrivate@@XZ"
"?d_func@QGraphicsPixmapItem@@AEAAPEAVQGraphicsPixmapItemPrivate@@XZ"
"?d_func@QGraphicsPixmapItem@@AEBAPEBVQGraphicsPixmapItemPrivate@@XZ"
"?d_func@QGraphicsPolygonItem@@AEAAPEAVQGraphicsPolygonItemPrivate@@XZ"
"?d_func@QGraphicsPolygonItem@@AEBAPEBVQGraphicsPolygonItemPrivate@@XZ"
"?d_func@QGraphicsProxyWidget@@AEAAPEAVQGraphicsProxyWidgetPrivate@@XZ"
"?d_func@QGraphicsProxyWidget@@AEBAPEBVQGraphicsProxyWidgetPrivate@@XZ"
"?d_func@QGraphicsRectItem@@AEAAPEAVQGraphicsRectItemPrivate@@XZ"
"?d_func@QGraphicsRectItem@@AEBAPEBVQGraphicsRectItemPrivate@@XZ"
"?d_func@QGraphicsRotation@@AEAAPEAVQGraphicsRotationPrivate@@XZ"
"?d_func@QGraphicsRotation@@AEBAPEBVQGraphicsRotationPrivate@@XZ"
"?d_func@QGraphicsScale@@AEAAPEAVQGraphicsScalePrivate@@XZ"
"?d_func@QGraphicsScale@@AEBAPEBVQGraphicsScalePrivate@@XZ"
"?d_func@QGraphicsScene@@AEAAPEAVQGraphicsScenePrivate@@XZ"
"?d_func@QGraphicsScene@@AEBAPEBVQGraphicsScenePrivate@@XZ"
"?d_func@QGraphicsSceneContextMenuEvent@@AEAAPEAVQGraphicsSceneContextMenuEventPrivate@@XZ"
"?d_func@QGraphicsSceneContextMenuEvent@@AEBAPEBVQGraphicsSceneContextMenuEventPrivate@@XZ"
"?d_func@QGraphicsSceneDragDropEvent@@AEAAPEAVQGraphicsSceneDragDropEventPrivate@@XZ"
"?d_func@QGraphicsSceneDragDropEvent@@AEBAPEBVQGraphicsSceneDragDropEventPrivate@@XZ"
"?d_func@QGraphicsSceneEvent@@IEAAPEAVQGraphicsSceneEventPrivate@@XZ"
"?d_func@QGraphicsSceneEvent@@IEBAPEBVQGraphicsSceneEventPrivate@@XZ"
"?d_func@QGraphicsSceneHelpEvent@@AEAAPEAVQGraphicsSceneHelpEventPrivate@@XZ"
"?d_func@QGraphicsSceneHelpEvent@@AEBAPEBVQGraphicsSceneHelpEventPrivate@@XZ"
"?d_func@QGraphicsSceneHoverEvent@@AEAAPEAVQGraphicsSceneHoverEventPrivate@@XZ"
"?d_func@QGraphicsSceneHoverEvent@@AEBAPEBVQGraphicsSceneHoverEventPrivate@@XZ"
"?d_func@QGraphicsSceneMouseEvent@@AEAAPEAVQGraphicsSceneMouseEventPrivate@@XZ"
"?d_func@QGraphicsSceneMouseEvent@@AEBAPEBVQGraphicsSceneMouseEventPrivate@@XZ"
"?d_func@QGraphicsSceneMoveEvent@@AEAAPEAVQGraphicsSceneMoveEventPrivate@@XZ"
"?d_func@QGraphicsSceneMoveEvent@@AEBAPEBVQGraphicsSceneMoveEventPrivate@@XZ"
"?d_func@QGraphicsSceneResizeEvent@@AEAAPEAVQGraphicsSceneResizeEventPrivate@@XZ"
"?d_func@QGraphicsSceneResizeEvent@@AEBAPEBVQGraphicsSceneResizeEventPrivate@@XZ"
"?d_func@QGraphicsSceneWheelEvent@@AEAAPEAVQGraphicsSceneWheelEventPrivate@@XZ"
"?d_func@QGraphicsSceneWheelEvent@@AEBAPEBVQGraphicsSceneWheelEventPrivate@@XZ"
"?d_func@QGraphicsSimpleTextItem@@AEAAPEAVQGraphicsSimpleTextItemPrivate@@XZ"
"?d_func@QGraphicsSimpleTextItem@@AEBAPEBVQGraphicsSimpleTextItemPrivate@@XZ"
"?d_func@QGraphicsTransform@@AEAAPEAVQGraphicsTransformPrivate@@XZ"
"?d_func@QGraphicsTransform@@AEBAPEBVQGraphicsTransformPrivate@@XZ"
"?d_func@QGraphicsView@@AEAAPEAVQGraphicsViewPrivate@@XZ"
"?d_func@QGraphicsView@@AEBAPEBVQGraphicsViewPrivate@@XZ"
"?d_func@QGraphicsWidget@@AEAAPEAVQGraphicsWidgetPrivate@@XZ"
"?d_func@QGraphicsWidget@@AEBAPEBVQGraphicsWidgetPrivate@@XZ"
"?d_func@QGridLayout@@AEAAPEAVQGridLayoutPrivate@@XZ"
"?d_func@QGridLayout@@AEBAPEBVQGridLayoutPrivate@@XZ"
"?d_func@QGroupBox@@AEAAPEAVQGroupBoxPrivate@@XZ"
"?d_func@QGroupBox@@AEBAPEBVQGroupBoxPrivate@@XZ"
"?d_func@QHeaderView@@AEAAPEAVQHeaderViewPrivate@@XZ"
"?d_func@QHeaderView@@AEBAPEBVQHeaderViewPrivate@@XZ"
"?d_func@QInputDialog@@AEAAPEAVQInputDialogPrivate@@XZ"
"?d_func@QInputDialog@@AEBAPEBVQInputDialogPrivate@@XZ"
"?d_func@QItemDelegate@@AEAAPEAVQItemDelegatePrivate@@XZ"
"?d_func@QItemDelegate@@AEBAPEBVQItemDelegatePrivate@@XZ"
"?d_func@QKeySequenceEdit@@AEAAPEAVQKeySequenceEditPrivate@@XZ"
"?d_func@QKeySequenceEdit@@AEBAPEBVQKeySequenceEditPrivate@@XZ"
"?d_func@QLCDNumber@@AEAAPEAVQLCDNumberPrivate@@XZ"
"?d_func@QLCDNumber@@AEBAPEBVQLCDNumberPrivate@@XZ"
"?d_func@QLabel@@AEAAPEAVQLabelPrivate@@XZ"
"?d_func@QLabel@@AEBAPEBVQLabelPrivate@@XZ"
"?d_func@QLayout@@AEAAPEAVQLayoutPrivate@@XZ"
"?d_func@QLayout@@AEBAPEBVQLayoutPrivate@@XZ"
"?d_func@QLineEdit@@AEAAPEAVQLineEditPrivate@@XZ"
"?d_func@QLineEdit@@AEBAPEBVQLineEditPrivate@@XZ"
"?d_func@QListView@@AEAAPEAVQListViewPrivate@@XZ"
"?d_func@QListView@@AEBAPEBVQListViewPrivate@@XZ"
"?d_func@QListWidget@@AEAAPEAVQListWidgetPrivate@@XZ"
"?d_func@QListWidget@@AEBAPEBVQListWidgetPrivate@@XZ"
"?d_func@QMainWindow@@AEAAPEAVQMainWindowPrivate@@XZ"
"?d_func@QMainWindow@@AEBAPEBVQMainWindowPrivate@@XZ"
"?d_func@QMdiArea@@AEAAPEAVQMdiAreaPrivate@@XZ"
"?d_func@QMdiArea@@AEBAPEBVQMdiAreaPrivate@@XZ"
"?d_func@QMdiSubWindow@@AEAAPEAVQMdiSubWindowPrivate@@XZ"
"?d_func@QMdiSubWindow@@AEBAPEBVQMdiSubWindowPrivate@@XZ"
"?d_func@QMenu@@AEAAPEAVQMenuPrivate@@XZ"
"?d_func@QMenu@@AEBAPEBVQMenuPrivate@@XZ"
"?d_func@QMenuBar@@AEAAPEAVQMenuBarPrivate@@XZ"
"?d_func@QMenuBar@@AEBAPEBVQMenuBarPrivate@@XZ"
"?d_func@QMessageBox@@AEAAPEAVQMessageBoxPrivate@@XZ"
"?d_func@QMessageBox@@AEBAPEBVQMessageBoxPrivate@@XZ"
"?d_func@QPanGesture@@AEAAPEAVQPanGesturePrivate@@XZ"
"?d_func@QPanGesture@@AEBAPEBVQPanGesturePrivate@@XZ"
"?d_func@QPinchGesture@@AEAAPEAVQPinchGesturePrivate@@XZ"
"?d_func@QPinchGesture@@AEBAPEBVQPinchGesturePrivate@@XZ"
"?d_func@QPixmapBlurFilter@@AEAAPEAVQPixmapBlurFilterPrivate@@XZ"
"?d_func@QPixmapBlurFilter@@AEBAPEBVQPixmapBlurFilterPrivate@@XZ"
"?d_func@QPixmapColorizeFilter@@AEAAPEAVQPixmapColorizeFilterPrivate@@XZ"
"?d_func@QPixmapColorizeFilter@@AEBAPEBVQPixmapColorizeFilterPrivate@@XZ"
"?d_func@QPixmapConvolutionFilter@@AEAAPEAVQPixmapConvolutionFilterPrivate@@XZ"
"?d_func@QPixmapConvolutionFilter@@AEBAPEBVQPixmapConvolutionFilterPrivate@@XZ"
"?d_func@QPixmapDropShadowFilter@@AEAAPEAVQPixmapDropShadowFilterPrivate@@XZ"
"?d_func@QPixmapDropShadowFilter@@AEBAPEBVQPixmapDropShadowFilterPrivate@@XZ"
"?d_func@QPixmapFilter@@AEAAPEAVQPixmapFilterPrivate@@XZ"
"?d_func@QPixmapFilter@@AEBAPEBVQPixmapFilterPrivate@@XZ"
"?d_func@QPixmapStyle@@AEAAPEAVQPixmapStylePrivate@@XZ"
"?d_func@QPixmapStyle@@AEBAPEBVQPixmapStylePrivate@@XZ"
"?d_func@QPlainTextDocumentLayout@@AEAAPEAVQPlainTextDocumentLayoutPrivate@@XZ"
"?d_func@QPlainTextDocumentLayout@@AEBAPEBVQPlainTextDocumentLayoutPrivate@@XZ"
"?d_func@QPlainTextEdit@@AEAAPEAVQPlainTextEditPrivate@@XZ"
"?d_func@QPlainTextEdit@@AEBAPEBVQPlainTextEditPrivate@@XZ"
"?d_func@QProgressBar@@AEAAPEAVQProgressBarPrivate@@XZ"
"?d_func@QProgressBar@@AEBAPEBVQProgressBarPrivate@@XZ"
"?d_func@QProgressDialog@@AEAAPEAVQProgressDialogPrivate@@XZ"
"?d_func@QProgressDialog@@AEBAPEBVQProgressDialogPrivate@@XZ"
"?d_func@QProxyStyle@@AEAAPEAVQProxyStylePrivate@@XZ"
"?d_func@QProxyStyle@@AEBAPEBVQProxyStylePrivate@@XZ"
"?d_func@QPushButton@@AEAAPEAVQPushButtonPrivate@@XZ"
"?d_func@QPushButton@@AEBAPEBVQPushButtonPrivate@@XZ"
"?d_func@QRadioButton@@AEAAPEAVQRadioButtonPrivate@@XZ"
"?d_func@QRadioButton@@AEBAPEBVQRadioButtonPrivate@@XZ"
"?d_func@QRhiWidget@@AEAAPEAVQRhiWidgetPrivate@@XZ"
"?d_func@QRhiWidget@@AEBAPEBVQRhiWidgetPrivate@@XZ"
"?d_func@QRubberBand@@AEAAPEAVQRubberBandPrivate@@XZ"
"?d_func@QRubberBand@@AEBAPEBVQRubberBandPrivate@@XZ"
"?d_func@QScrollArea@@AEAAPEAVQScrollAreaPrivate@@XZ"
"?d_func@QScrollArea@@AEBAPEBVQScrollAreaPrivate@@XZ"
"?d_func@QScrollBar@@AEAAPEAVQScrollBarPrivate@@XZ"
"?d_func@QScrollBar@@AEBAPEBVQScrollBarPrivate@@XZ"
"?d_func@QScroller@@AEAAPEAVQScrollerPrivate@@XZ"
"?d_func@QScroller@@AEBAPEBVQScrollerPrivate@@XZ"
"?d_func@QSizeGrip@@AEAAPEAVQSizeGripPrivate@@XZ"
"?d_func@QSizeGrip@@AEBAPEBVQSizeGripPrivate@@XZ"
"?d_func@QSlider@@AEAAPEAVQSliderPrivate@@XZ"
"?d_func@QSlider@@AEBAPEBVQSliderPrivate@@XZ"
"?d_func@QSpinBox@@AEAAPEAVQSpinBoxPrivate@@XZ"
"?d_func@QSpinBox@@AEBAPEBVQSpinBoxPrivate@@XZ"
"?d_func@QSplashScreen@@AEAAPEAVQSplashScreenPrivate@@XZ"
"?d_func@QSplashScreen@@AEBAPEBVQSplashScreenPrivate@@XZ"
"?d_func@QSplitter@@AEAAPEAVQSplitterPrivate@@XZ"
"?d_func@QSplitter@@AEBAPEBVQSplitterPrivate@@XZ"
"?d_func@QSplitterHandle@@AEAAPEAVQSplitterHandlePrivate@@XZ"
"?d_func@QSplitterHandle@@AEBAPEBVQSplitterHandlePrivate@@XZ"
"?d_func@QStackedLayout@@AEAAPEAVQStackedLayoutPrivate@@XZ"
"?d_func@QStackedLayout@@AEBAPEBVQStackedLayoutPrivate@@XZ"
"?d_func@QStackedWidget@@AEAAPEAVQStackedWidgetPrivate@@XZ"
"?d_func@QStackedWidget@@AEBAPEBVQStackedWidgetPrivate@@XZ"
"?d_func@QStatusBar@@AEAAPEAVQStatusBarPrivate@@XZ"
"?d_func@QStatusBar@@AEBAPEBVQStatusBarPrivate@@XZ"
"?d_func@QStyle@@AEAAPEAVQStylePrivate@@XZ"
"?d_func@QStyle@@AEBAPEBVQStylePrivate@@XZ"
"?d_func@QStyledItemDelegate@@AEAAPEAVQStyledItemDelegatePrivate@@XZ"
"?d_func@QStyledItemDelegate@@AEBAPEBVQStyledItemDelegatePrivate@@XZ"
"?d_func@QSwipeGesture@@AEAAPEAVQSwipeGesturePrivate@@XZ"
"?d_func@QSwipeGesture@@AEBAPEBVQSwipeGesturePrivate@@XZ"
"?d_func@QSystemTrayIcon@@AEAAPEAVQSystemTrayIconPrivate@@XZ"
"?d_func@QSystemTrayIcon@@AEBAPEBVQSystemTrayIconPrivate@@XZ"
"?d_func@QTabBar@@AEAAPEAVQTabBarPrivate@@XZ"
"?d_func@QTabBar@@AEBAPEBVQTabBarPrivate@@XZ"
"?d_func@QTabWidget@@AEAAPEAVQTabWidgetPrivate@@XZ"
"?d_func@QTabWidget@@AEBAPEBVQTabWidgetPrivate@@XZ"
"?d_func@QTableView@@AEAAPEAVQTableViewPrivate@@XZ"
"?d_func@QTableView@@AEBAPEBVQTableViewPrivate@@XZ"
"?d_func@QTableWidget@@AEAAPEAVQTableWidgetPrivate@@XZ"
"?d_func@QTableWidget@@AEBAPEBVQTableWidgetPrivate@@XZ"
"?d_func@QTapAndHoldGesture@@AEAAPEAVQTapAndHoldGesturePrivate@@XZ"
"?d_func@QTapAndHoldGesture@@AEBAPEBVQTapAndHoldGesturePrivate@@XZ"
"?d_func@QTapGesture@@AEAAPEAVQTapGesturePrivate@@XZ"
"?d_func@QTapGesture@@AEBAPEBVQTapGesturePrivate@@XZ"
"?d_func@QTextBrowser@@AEAAPEAVQTextBrowserPrivate@@XZ"
"?d_func@QTextBrowser@@AEBAPEBVQTextBrowserPrivate@@XZ"
"?d_func@QTextEdit@@AEAAPEAVQTextEditPrivate@@XZ"
"?d_func@QTextEdit@@AEBAPEBVQTextEditPrivate@@XZ"
"?d_func@QToolBar@@AEAAPEAVQToolBarPrivate@@XZ"
"?d_func@QToolBar@@AEBAPEBVQToolBarPrivate@@XZ"
"?d_func@QToolBox@@AEAAPEAVQToolBoxPrivate@@XZ"
"?d_func@QToolBox@@AEBAPEBVQToolBoxPrivate@@XZ"
"?d_func@QToolButton@@AEAAPEAVQToolButtonPrivate@@XZ"
"?d_func@QToolButton@@AEBAPEBVQToolButtonPrivate@@XZ"
"?d_func@QTreeView@@AEAAPEAVQTreeViewPrivate@@XZ"
"?d_func@QTreeView@@AEBAPEBVQTreeViewPrivate@@XZ"
"?d_func@QTreeWidget@@AEAAPEAVQTreeWidgetPrivate@@XZ"
"?d_func@QTreeWidget@@AEBAPEBVQTreeWidgetPrivate@@XZ"
"?d_func@QTreeWidgetItemIterator@@AEAAPEAVQTreeWidgetItemIteratorPrivate@@XZ"
"?d_func@QTreeWidgetItemIterator@@AEBAPEBVQTreeWidgetItemIteratorPrivate@@XZ"
"?d_func@QUndoView@@AEAAPEAVQUndoViewPrivate@@XZ"
"?d_func@QUndoView@@AEBAPEBVQUndoViewPrivate@@XZ"
"?d_func@QWidget@@AEAAPEAVQWidgetPrivate@@XZ"
"?d_func@QWidget@@AEBAPEBVQWidgetPrivate@@XZ"
"?d_func@QWidgetAction@@AEAAPEAVQWidgetActionPrivate@@XZ"
"?d_func@QWidgetAction@@AEBAPEBVQWidgetActionPrivate@@XZ"
"?d_func@QWidgetTextControl@@AEAAPEAVQWidgetTextControlPrivate@@XZ"
"?d_func@QWidgetTextControl@@AEBAPEBVQWidgetTextControlPrivate@@XZ"
"?d_func@QWindowContainer@@AEAAPEAVQWindowContainerPrivate@@XZ"
"?d_func@QWindowContainer@@AEBAPEBVQWindowContainerPrivate@@XZ"
"?d_func@QWindowsStyle@@AEAAPEAVQWindowsStylePrivate@@XZ"
"?d_func@QWindowsStyle@@AEBAPEBVQWindowsStylePrivate@@XZ"
"?d_func@QWizard@@AEAAPEAVQWizardPrivate@@XZ"
"?d_func@QWizard@@AEBAPEBVQWizardPrivate@@XZ"
"?d_func@QWizardPage@@AEAAPEAVQWizardPagePrivate@@XZ"
"?d_func@QWizardPage@@AEBAPEBVQWizardPagePrivate@@XZ"
"?data@QGraphicsItem@@QEBA?AVQVariant@@H@Z"
"?data@QListWidgetItem@@UEBA?AVQVariant@@H@Z"
"?data@QTableWidgetItem@@UEBA?AVQVariant@@H@Z"
"?data@QTreeWidgetItem@@UEBA?AVQVariant@@HH@Z"
"?dataChanged@QAbstractItemView@@MEAAXAEBVQModelIndex@@0AEBV?$QList@H@@@Z"
"?dataChanged@QHeaderView@@MEAAXAEBVQModelIndex@@0AEBV?$QList@H@@@Z"
"?dataChanged@QListView@@MEAAXAEBVQModelIndex@@0AEBV?$QList@H@@@Z"
"?dataChanged@QTreeView@@UEAAXAEBVQModelIndex@@0AEBV?$QList@H@@@Z"
"?date@QDateTimeEdit@@QEBA?AVQDate@@XZ"
"?dateChanged@QDateTimeEdit@@QEAAXVQDate@@@Z"
"?dateEditAcceptDelay@QCalendarWidget@@QEBAHXZ"
"?dateTextFormat@QCalendarWidget@@QEBA?AV?$QMap@VQDate@@VQTextCharFormat@@@@XZ"
"?dateTextFormat@QCalendarWidget@@QEBA?AVQTextCharFormat@@VQDate@@@Z"
"?dateTime@QDateTimeEdit@@QEBA?AVQDateTime@@XZ"
"?dateTimeChanged@QDateTimeEdit@@QEAAXAEBVQDateTime@@@Z"
"?dateTimeFromText@QDateTimeEdit@@MEBA?AVQDateTime@@AEBVQString@@@Z"
"?deactivateWidgetCleanup@QWidgetPrivate@@QEAAXXZ"
"?decimals@QDoubleSpinBox@@QEBAHXZ"
"?decoration@QItemDelegate@@IEBA?AVQPixmap@@AEBVQStyleOptionViewItem@@AEBVQVariant@@@Z"
"?deepestFocusProxy@QWidgetPrivate@@QEBAPEAVQWidget@@XZ"
"?defaultAction@QMenu@@QEBAPEAVQAction@@XZ"
"?defaultAction@QToolButton@@QEBAPEAVQAction@@XZ"
"?defaultAlignment@QHeaderView@@QEBA?AV?$QFlags@W4AlignmentFlag@Qt@@@@XZ"
"?defaultButton@QMessageBox@@QEBAPEAVQPushButton@@XZ"
"?defaultDropAction@QAbstractItemView@@QEBA?AW4DropAction@Qt@@XZ"
"?defaultFactory@QItemEditorFactory@@SAPEBV1@XZ"
"?defaultModality@QApplicationPrivate@@UEBA?AW4WindowModality@Qt@@XZ"
"?defaultSectionSize@QHeaderView@@QEBAHXZ"
"?defaultSuffix@QFileDialog@@QEBA?AVQString@@XZ"
"?defaultTextColor@QGraphicsTextItem@@QEBA?AVQColor@@XZ"
"?defaultWidget@QWidgetAction@@QEBAPEAVQWidget@@XZ"
"?del@QLineEdit@@QEAAXXZ"
"?del@QWidgetLineControl@@QEAAXXZ"
"?delay@QStyleAnimation@@QEBAHXZ"
"?deleteCurrent@QFileDialogPrivate@@QEAAXXZ"
"?deleteExtra@QWidgetPrivate@@QEAAXXZ"
"?deleteSysExtra@QWidgetPrivate@@QEAAXXZ"
"?deleteTLSysExtra@QWidgetPrivate@@QEAAXXZ"
"?deleteWidget@QWidgetAction@@MEAAXPEAVQWidget@@@Z"
"?delta@QGraphicsSceneWheelEvent@@QEBAHXZ"
"?delta@QPanGesture@@QEBA?AVQPointF@@XZ"
"?depth@QColormap@@QEBAHXZ"
"?depth@QGraphicsItemPrivate@@QEBAHXZ"
"?depthStencilBuffer@QRhiWidget@@IEBAPEAVQRhiRenderBuffer@@XZ"
"?description@QCommandLinkButton@@QEBA?AVQString@@XZ"
"?deselect@QLineEdit@@QEAAXXZ"
"?deselect@QWidgetLineControl@@QEAAXXZ"
"?desktop@QApplicationPrivate@@SAPEAVQWidget@@XZ"
"?desktopStyleKey@QApplicationPrivate@@SA?AVQString@@XZ"
"?destroy@QWidget@@IEAAX_N0@Z"
"?destroy@QtWidgetsActionPrivate@@UEAAXXZ"
"?destroyEditor@QAbstractItemDelegate@@UEBAXPEAVQWidget@@AEBVQModelIndex@@@Z"
"?destroyItemGroup@QGraphicsScene@@QEAAXPEAVQGraphicsItemGroup@@@Z"
"?detailedText@QMessageBox@@QEBA?AVQString@@XZ"
"?determineLastFocusChild@QWidgetPrivate@@QEAAPEAVQWidget@@PEAV2@@Z"
"?devType@QWidget@@UEBAHXZ"
"?deviceTransform@QGraphicsItem@@QEBA?AVQTransform@@AEBV2@@Z"
"?dialogCode@QDialogPrivate@@MEBAHXZ"
"?digitCount@QLCDNumber@@QEBAHXZ"
"?direction@QBoxLayout@@QEBA?AW4Direction@1@XZ"
"?directory@QFileDialog@@QEBA?AVQDir@@XZ"
"?directoryEntered@QFileDialog@@QEAAXAEBVQString@@@Z"
"?directoryUrl@QFileDialog@@QEBA?AVQUrl@@XZ"
"?directoryUrlEntered@QFileDialog@@QEAAXAEBVQUrl@@@Z"
"?directory_sys@QFileDialogPrivate@@QEBA?AVQUrl@@XZ"
"?dirtyRegion@QWidgetRepaintManager@@QEBA?AVQRegion@@XZ"
"?dirtyRegionOffset@QAbstractItemView@@IEBA?AVQPoint@@XZ"
"?dirtyWidgetList@QWidgetRepaintManager@@QEBA?AV?$QList@PEAVQWidget@@@@XZ"
"?discardUpdateRequest@QGraphicsItemPrivate@@QEBA_N_N00@Z"
"?dispatchEnterLeave@QApplicationPrivate@@SAXPEAVQWidget@@0AEBVQPointF@@@Z"
"?dispatchPendingUpdateRequests@QGraphicsViewPrivate@@QEAAXXZ"
"?display@QLCDNumber@@QEAAXAEBVQString@@@Z"
"?display@QLCDNumber@@QEAAXH@Z"
"?display@QLCDNumber@@QEAAXN@Z"
"?displayFont@QFontComboBox@@QEBA?AV?$optional@VQFont@@@std@@AEBVQString@@@Z"
"?displayFormat@QDateTimeEdit@@QEBA?AVQString@@XZ"
"?displayIntegerBase@QSpinBox@@QEBAHXZ"
"?displayText@QLineEdit@@QEBA?AVQString@@XZ"
"?displayText@QStyledItemDelegate@@UEBA?AVQString@@AEBVQVariant@@AEBVQLocale@@@Z"
"?displayText@QWidgetLineControl@@QEBA?AVQString@@XZ"
"?displayTextChanged@QWidgetLineControl@@QEAAXAEBVQString@@@Z"
"?displayedSections@QDateTimeEdit@@QEBA?AV?$QFlags@W4Section@QDateTimeEdit@@@@XZ"
"?doAction@QAccessibleWidget@@UEAAXAEBVQString@@@Z"
"?doAutoScroll@QAbstractItemView@@IEAAXXZ"
"?doCheck@QItemDelegate@@IEBA?AVQRect@@AEBVQStyleOptionViewItem@@AEBV2@AEBVQVariant@@@Z"
"?doItemsLayout@QAbstractItemView@@UEAAXXZ"
"?doItemsLayout@QHeaderView@@UEAAXXZ"
"?doItemsLayout@QListView@@UEAAXXZ"
"?doItemsLayout@QTableView@@UEAAXXZ"
"?doItemsLayout@QTreeView@@UEAAXXZ"
"?doLayout@QItemDelegate@@IEBAXAEBVQStyleOptionViewItem@@PEAVQRect@@11_N@Z"
"?doResize@QLayoutPrivate@@QEAAXXZ"
"?doSetSource@QTextBrowser@@MEAAXAEBVQUrl@@W4ResourceType@QTextDocument@@@Z"
"?doSetTextCursor@QPlainTextEdit@@MEAAXAEBVQTextCursor@@@Z"
"?doSetTextCursor@QTextEdit@@MEAAXAEBVQTextCursor@@@Z"
"?dockLocationChanged@QDockWidget@@QEAAXW4DockWidgetArea@Qt@@@Z"
"?dockOptions@QMainWindow@@QEBA?AV?$QFlags@W4DockOption@QMainWindow@@@@XZ"
"?dockWidgetArea@QMainWindow@@QEBA?AW4DockWidgetArea@Qt@@PEAVQDockWidget@@@Z"
"?document@QGraphicsTextItem@@QEBAPEAVQTextDocument@@XZ"
"?document@QPlainTextEdit@@QEBAPEAVQTextDocument@@XZ"
"?document@QTextEdit@@QEBAPEAVQTextDocument@@XZ"
"?document@QWidgetTextControl@@QEBAPEAVQTextDocument@@XZ"
"?documentChanged@QPlainTextDocumentLayout@@MEAAXHHH@Z"
"?documentMode@QMainWindow@@QEBA_NXZ"
"?documentMode@QMdiArea@@QEBA_NXZ"
"?documentMode@QTabBar@@QEBA_NXZ"
"?documentMode@QTabWidget@@QEBA_NXZ"
"?documentSize@QPlainTextDocumentLayout@@UEBA?AVQSizeF@@XZ"
"?documentSizeChanged@QWidgetTextControl@@QEAAXAEBVQSizeF@@@Z"
"?documentTitle@QPlainTextEdit@@QEBA?AVQString@@XZ"
"?documentTitle@QTextEdit@@QEBA?AVQString@@XZ"
"?done@QColorDialog@@MEAAXH@Z"
"?done@QDialog@@UEAAXH@Z"
"?done@QErrorMessage@@MEAAXH@Z"
"?done@QFileDialog@@MEAAXH@Z"
"?done@QFontDialog@@MEAAXH@Z"
"?done@QInputDialog@@UEAAXH@Z"
"?done@QWizard@@MEAAXH@Z"
"?doubleClickInterval@QApplication@@SAHXZ"
"?doubleClicked@QAbstractItemView@@QEAAXAEBVQModelIndex@@@Z"
"?doubleDecimals@QInputDialog@@QEBAHXZ"
"?doubleMaximum@QInputDialog@@QEBANXZ"
"?doubleMinimum@QInputDialog@@QEBANXZ"
"?doubleStep@QInputDialog@@QEBANXZ"
"?doubleValue@QInputDialog@@QEBANXZ"
"?doubleValueChanged@QInputDialog@@QEAAXN@Z"
"?doubleValueSelected@QInputDialog@@QEAAXN@Z"
"?dpi@QStyleHelper@@YANPEBVQStyleOption@@@Z"
"?dpiScaled@QStyleHelper@@YANNN@Z"
"?dpiScaled@QStyleHelper@@YANNPEBVQPaintDevice@@@Z"
"?dpiScaled@QStyleHelper@@YANNPEBVQStyleOption@@@Z"
"?dragDropMode@QAbstractItemView@@QEBA?AW4DragDropMode@1@XZ"
"?dragDropOverwriteMode@QAbstractItemView@@QEBA_NXZ"
"?dragEnabled@QAbstractItemView@@QEBA_NXZ"
"?dragEnabled@QLineEdit@@QEBA_NXZ"
"?dragEnterEvent@QAbstractItemView@@MEAAXPEAVQDragEnterEvent@@@Z"
"?dragEnterEvent@QAbstractScrollArea@@MEAAXPEAVQDragEnterEvent@@@Z"
"?dragEnterEvent@QGraphicsItem@@MEAAXPEAVQGraphicsSceneDragDropEvent@@@Z"
"?dragEnterEvent@QGraphicsProxyWidget@@MEAAXPEAVQGraphicsSceneDragDropEvent@@@Z"
"?dragEnterEvent@QGraphicsScene@@MEAAXPEAVQGraphicsSceneDragDropEvent@@@Z"
"?dragEnterEvent@QGraphicsTextItem@@MEAAXPEAVQGraphicsSceneDragDropEvent@@@Z"
"?dragEnterEvent@QGraphicsView@@MEAAXPEAVQDragEnterEvent@@@Z"
"?dragEnterEvent@QLineEdit@@MEAAXPEAVQDragEnterEvent@@@Z"
"?dragEnterEvent@QPlainTextEdit@@MEAAXPEAVQDragEnterEvent@@@Z"
"?dragEnterEvent@QTextEdit@@MEAAXPEAVQDragEnterEvent@@@Z"
"?dragEnterEvent@QWidget@@MEAAXPEAVQDragEnterEvent@@@Z"
"?dragLeaveEvent@QAbstractItemView@@MEAAXPEAVQDragLeaveEvent@@@Z"
"?dragLeaveEvent@QAbstractScrollArea@@MEAAXPEAVQDragLeaveEvent@@@Z"
"?dragLeaveEvent@QGraphicsItem@@MEAAXPEAVQGraphicsSceneDragDropEvent@@@Z"
"?dragLeaveEvent@QGraphicsProxyWidget@@MEAAXPEAVQGraphicsSceneDragDropEvent@@@Z"
"?dragLeaveEvent@QGraphicsScene@@MEAAXPEAVQGraphicsSceneDragDropEvent@@@Z"
"?dragLeaveEvent@QGraphicsTextItem@@MEAAXPEAVQGraphicsSceneDragDropEvent@@@Z"
"?dragLeaveEvent@QGraphicsView@@MEAAXPEAVQDragLeaveEvent@@@Z"
"?dragLeaveEvent@QLineEdit@@MEAAXPEAVQDragLeaveEvent@@@Z"
"?dragLeaveEvent@QListView@@MEAAXPEAVQDragLeaveEvent@@@Z"
"?dragLeaveEvent@QPlainTextEdit@@MEAAXPEAVQDragLeaveEvent@@@Z"
"?dragLeaveEvent@QTextEdit@@MEAAXPEAVQDragLeaveEvent@@@Z"
"?dragLeaveEvent@QWidget@@MEAAXPEAVQDragLeaveEvent@@@Z"
"?dragMode@QGraphicsView@@QEBA?AW4DragMode@1@XZ"
"?dragMoveEvent@QAbstractItemView@@MEAAXPEAVQDragMoveEvent@@@Z"
"?dragMoveEvent@QAbstractScrollArea@@MEAAXPEAVQDragMoveEvent@@@Z"
"?dragMoveEvent@QGraphicsItem@@MEAAXPEAVQGraphicsSceneDragDropEvent@@@Z"
"?dragMoveEvent@QGraphicsProxyWidget@@MEAAXPEAVQGraphicsSceneDragDropEvent@@@Z"
"?dragMoveEvent@QGraphicsScene@@MEAAXPEAVQGraphicsSceneDragDropEvent@@@Z"
"?dragMoveEvent@QGraphicsTextItem@@MEAAXPEAVQGraphicsSceneDragDropEvent@@@Z"
"?dragMoveEvent@QGraphicsView@@MEAAXPEAVQDragMoveEvent@@@Z"
"?dragMoveEvent@QLineEdit@@MEAAXPEAVQDragMoveEvent@@@Z"
"?dragMoveEvent@QListView@@MEAAXPEAVQDragMoveEvent@@@Z"
"?dragMoveEvent@QPlainTextEdit@@MEAAXPEAVQDragMoveEvent@@@Z"
"?dragMoveEvent@QTextEdit@@MEAAXPEAVQDragMoveEvent@@@Z"
"?dragMoveEvent@QTreeView@@MEAAXPEAVQDragMoveEvent@@@Z"
"?dragMoveEvent@QWidget@@MEAAXPEAVQDragMoveEvent@@@Z"
"?draggablePaintPairs@QTreeViewPrivate@@UEBA?AV?$QList@UQItemViewPaintPair@@@@AEBV?$QList@VQModelIndex@@@@PEAVQRect@@@Z"
"?draw@QGraphicsBlurEffect@@MEAAXPEAVQPainter@@@Z"
"?draw@QGraphicsColorizeEffect@@MEAAXPEAVQPainter@@@Z"
"?draw@QGraphicsDropShadowEffect@@MEAAXPEAVQPainter@@@Z"
"?draw@QGraphicsEffectSource@@QEAAXPEAVQPainter@@@Z"
"?draw@QGraphicsOpacityEffect@@MEAAXPEAVQPainter@@@Z"
"?draw@QPixmapBlurFilter@@UEBAXPEAVQPainter@@AEBVQPointF@@AEBVQPixmap@@AEBVQRectF@@@Z"
"?draw@QPixmapColorizeFilter@@UEBAXPEAVQPainter@@AEBVQPointF@@AEBVQPixmap@@AEBVQRectF@@@Z"
"?draw@QPixmapConvolutionFilter@@UEBAXPEAVQPainter@@AEBVQPointF@@AEBVQPixmap@@AEBVQRectF@@@Z"
"?draw@QPixmapDropShadowFilter@@UEBAXPEAVQPainter@@AEBVQPointF@@AEBVQPixmap@@AEBVQRectF@@@Z"
"?draw@QPlainTextDocumentLayout@@UEAAXPEAVQPainter@@AEBUPaintContext@QAbstractTextDocumentLayout@@@Z"
"?draw@QWidgetLineControl@@QEAAXPEAVQPainter@@AEBVQPoint@@AEBVQRect@@H@Z"
"?drawAnimatedOperation@QTreeViewPrivate@@QEBAXPEAVQPainter@@@Z"
"?drawBackground@QGraphicsScene@@MEAAXPEAVQPainter@@AEBVQRectF@@@Z"
"?drawBackground@QGraphicsView@@MEAAXPEAVQPainter@@AEBVQRectF@@@Z"
"?drawBackground@QItemDelegate@@IEBAXPEAVQPainter@@AEBVQStyleOptionViewItem@@AEBVQModelIndex@@@Z"
"?drawBase@QTabBar@@QEBA_NXZ"
"?drawBorderPixmap@QStyleHelper@@YAXAEBVQPixmap@@PEAVQPainter@@AEBVQRect@@HHHH@Z"
"?drawBranches@QTreeView@@MEBAXPEAVQPainter@@AEBVQRect@@AEBVQModelIndex@@@Z"
"?drawCachedPixmap@QPixmapStyle@@QEBAXW4ControlDescriptor@1@AEBVQRect@@PEAVQPainter@@@Z"
"?drawCheck@QItemDelegate@@MEBAXPEAVQPainter@@AEBVQStyleOptionViewItem@@AEBVQRect@@W4CheckState@Qt@@@Z"
"?drawCheckBox@QPixmapStyle@@IEBAXPEBVQStyleOption@@PEAVQPainter@@PEBVQWidget@@@Z"
"?drawComboBox@QPixmapStyle@@IEBAXPEBVQStyleOptionComplex@@PEAVQPainter@@PEBVQWidget@@@Z"
"?drawComplexControl@QCommonStyle@@UEBAXW4ComplexControl@QStyle@@PEBVQStyleOptionComplex@@PEAVQPainter@@PEBVQWidget@@@Z"
"?drawComplexControl@QFusionStyle@@UEBAXW4ComplexControl@QStyle@@PEBVQStyleOptionComplex@@PEAVQPainter@@PEBVQWidget@@@Z"
"?drawComplexControl@QPixmapStyle@@UEBAXW4ComplexControl@QStyle@@PEBVQStyleOptionComplex@@PEAVQPainter@@PEBVQWidget@@@Z"
"?drawComplexControl@QProxyStyle@@UEBAXW4ComplexControl@QStyle@@PEBVQStyleOptionComplex@@PEAVQPainter@@PEBVQWidget@@@Z"
"?drawComplexControl@QWindowsStyle@@UEBAXW4ComplexControl@QStyle@@PEBVQStyleOptionComplex@@PEAVQPainter@@PEBVQWidget@@@Z"
"?drawContents@QSplashScreen@@MEAAXPEAVQPainter@@@Z"
"?drawContents@QWidgetTextControl@@QEAAXPEAVQPainter@@AEBVQRectF@@PEAVQWidget@@@Z"
"?drawControl@QCommonStyle@@UEBAXW4ControlElement@QStyle@@PEBVQStyleOption@@PEAVQPainter@@PEBVQWidget@@@Z"
"?drawControl@QFusionStyle@@UEBAXW4ControlElement@QStyle@@PEBVQStyleOption@@PEAVQPainter@@PEBVQWidget@@@Z"
"?drawControl@QPixmapStyle@@UEBAXW4ControlElement@QStyle@@PEBVQStyleOption@@PEAVQPainter@@PEBVQWidget@@@Z"
"?drawControl@QProxyStyle@@UEBAXW4ControlElement@QStyle@@PEBVQStyleOption@@PEAVQPainter@@PEBVQWidget@@@Z"
"?drawControl@QWindowsStyle@@UEBAXW4ControlElement@QStyle@@PEBVQStyleOption@@PEAVQPainter@@PEBVQWidget@@@Z"
"?drawDecoration@QItemDelegate@@MEBAXPEAVQPainter@@AEBVQStyleOptionViewItem@@AEBVQRect@@AEBVQPixmap@@@Z"
"?drawDial@QStyleHelper@@YAXPEBVQStyleOptionSlider@@PEAVQPainter@@@Z"
"?drawDisplay@QItemDelegate@@MEBAXPEAVQPainter@@AEBVQStyleOptionViewItem@@AEBVQRect@@AEBVQString@@@Z"
"?drawFocus@QItemDelegate@@MEBAXPEAVQPainter@@AEBVQStyleOptionViewItem@@AEBVQRect@@@Z"
"?drawForeground@QGraphicsScene@@MEAAXPEAVQPainter@@AEBVQRectF@@@Z"
"?drawForeground@QGraphicsView@@MEAAXPEAVQPainter@@AEBVQRectF@@@Z"
"?drawFrame@QFrame@@IEAAXPEAVQPainter@@@Z"
"?drawItemPixmap@QFusionStyle@@UEBAXPEAVQPainter@@AEBVQRect@@HAEBVQPixmap@@@Z"
"?drawItemPixmap@QProxyStyle@@UEBAXPEAVQPainter@@AEBVQRect@@HAEBVQPixmap@@@Z"
"?drawItemPixmap@QStyle@@UEBAXPEAVQPainter@@AEBVQRect@@HAEBVQPixmap@@@Z"
"?drawItemText@QFusionStyle@@UEBAXPEAVQPainter@@AEBVQRect@@HAEBVQPalette@@_NAEBVQString@@W4ColorRole@4@@Z"
"?drawItemText@QProxyStyle@@UEBAXPEAVQPainter@@AEBVQRect@@HAEBVQPalette@@_NAEBVQString@@W4ColorRole@4@@Z"
"?drawItemText@QStyle@@UEBAXPEAVQPainter@@AEBVQRect@@HAEBVQPalette@@_NAEBVQString@@W4ColorRole@4@@Z"
"?drawItems@QGraphicsScene@@MEAAXPEAVQPainter@@HQEAPEAVQGraphicsItem@@QEBVQStyleOptionGraphicsItem@@PEAVQWidget@@@Z"
"?drawItems@QGraphicsView@@MEAAXPEAVQPainter@@HQEAPEAVQGraphicsItem@@QEBVQStyleOptionGraphicsItem@@@Z"
"?drawLineEdit@QPixmapStyle@@IEBAXPEBVQStyleOption@@PEAVQPainter@@PEBVQWidget@@@Z"
"?drawPanelItemViewItem@QPixmapStyle@@IEBAXPEBVQStyleOption@@PEAVQPainter@@PEBVQWidget@@@Z"
"?drawPrimitive@QCommonStyle@@UEBAXW4PrimitiveElement@QStyle@@PEBVQStyleOption@@PEAVQPainter@@PEBVQWidget@@@Z"
"?drawPrimitive@QFusionStyle@@UEBAXW4PrimitiveElement@QStyle@@PEBVQStyleOption@@PEAVQPainter@@PEBVQWidget@@@Z"
"?drawPrimitive@QPixmapStyle@@UEBAXW4PrimitiveElement@QStyle@@PEBVQStyleOption@@PEAVQPainter@@PEBVQWidget@@@Z"
"?drawPrimitive@QProxyStyle@@UEBAXW4PrimitiveElement@QStyle@@PEBVQStyleOption@@PEAVQPainter@@PEBVQWidget@@@Z"
"?drawPrimitive@QWindowsStyle@@UEBAXW4PrimitiveElement@QStyle@@PEBVQStyleOption@@PEAVQPainter@@PEBVQWidget@@@Z"
"?drawProgressBarBackground@QPixmapStyle@@IEBAXPEBVQStyleOption@@PEAVQPainter@@PEBVQWidget@@@Z"
"?drawProgressBarFill@QPixmapStyle@@IEBAXPEBVQStyleOption@@PEAVQPainter@@PEBVQWidget@@@Z"
"?drawProgressBarLabel@QPixmapStyle@@IEBAXPEBVQStyleOption@@PEAVQPainter@@PEBVQWidget@@@Z"
"?drawPushButton@QPixmapStyle@@IEBAXPEBVQStyleOption@@PEAVQPainter@@PEBVQWidget@@@Z"
"?drawRadioButton@QPixmapStyle@@IEBAXPEBVQStyleOption@@PEAVQPainter@@PEBVQWidget@@@Z"
"?drawRow@QTreeView@@MEBAXPEAVQPainter@@AEBVQStyleOptionViewItem@@AEBVQModelIndex@@@Z"
"?drawScrollBar@QPixmapStyle@@IEBAXPEBVQStyleOptionComplex@@PEAVQPainter@@PEBVQWidget@@@Z"
"?drawSlider@QPixmapStyle@@IEBAXPEBVQStyleOptionComplex@@PEAVQPainter@@PEBVQWidget@@@Z"
"?drawSource@QGraphicsEffect@@IEAAXPEAVQPainter@@@Z"
"?drawTextEdit@QPixmapStyle@@IEBAXPEBVQStyleOption@@PEAVQPainter@@PEBVQWidget@@@Z"
"?drawTree@QTreeView@@IEBAXPEAVQPainter@@AEBVQRegion@@@Z"
"?drawWidget@QWidgetPrivate@@QEAAXPEAVQPaintDevice@@AEBVQRegion@@AEBVQPoint@@V?$QFlags@W4DrawWidgetFlag@QWidgetPrivate@@@@PEAVQPainter@@PEAVQWidgetRepaintManager@@@Z"
"?dropAction@QGraphicsSceneDragDropEvent@@QEBA?AW4DropAction@Qt@@XZ"
"?dropEvent@QAbstractItemView@@MEAAXPEAVQDropEvent@@@Z"
"?dropEvent@QAbstractScrollArea@@MEAAXPEAVQDropEvent@@@Z"
"?dropEvent@QGraphicsItem@@MEAAXPEAVQGraphicsSceneDragDropEvent@@@Z"
"?dropEvent@QGraphicsProxyWidget@@MEAAXPEAVQGraphicsSceneDragDropEvent@@@Z"
"?dropEvent@QGraphicsScene@@MEAAXPEAVQGraphicsSceneDragDropEvent@@@Z"
"?dropEvent@QGraphicsTextItem@@MEAAXPEAVQGraphicsSceneDragDropEvent@@@Z"
"?dropEvent@QGraphicsView@@MEAAXPEAVQDropEvent@@@Z"
"?dropEvent@QLineEdit@@MEAAXPEAVQDropEvent@@@Z"
"?dropEvent@QListView@@MEAAXPEAVQDropEvent@@@Z"
"?dropEvent@QListWidget@@MEAAXPEAVQDropEvent@@@Z"
"?dropEvent@QPlainTextEdit@@MEAAXPEAVQDropEvent@@@Z"
"?dropEvent@QTableView@@MEAAXPEAVQDropEvent@@@Z"
"?dropEvent@QTableWidget@@MEAAXPEAVQDropEvent@@@Z"
"?dropEvent@QTextEdit@@MEAAXPEAVQDropEvent@@@Z"
"?dropEvent@QTreeWidget@@MEAAXPEAVQDropEvent@@@Z"
"?dropEvent@QWidget@@MEAAXPEAVQDropEvent@@@Z"
"?dropIndicatorPosition@QAbstractItemView@@IEBA?AW4DropIndicatorPosition@1@XZ"
"?dropMimeData@QListWidget@@MEAA_NHPEBVQMimeData@@W4DropAction@Qt@@@Z"
"?dropMimeData@QTableWidget@@MEAA_NHHPEBVQMimeData@@W4DropAction@Qt@@@Z"
"?dropMimeData@QTreeWidget@@MEAA_NPEAVQTreeWidgetItem@@HPEBVQMimeData@@W4DropAction@Qt@@@Z"
"?dump@QGraphicsLinearLayout@@QEBAXH@Z"
"?duplicatesEnabled@QComboBox@@QEBA_NXZ"
"?duration@QStyleAnimation@@UEBAHXZ"
"?echoMode@QLineEdit@@QEBA?AW4EchoMode@1@XZ"
"?echoMode@QWidgetLineControl@@QEBAIXZ"
"?edit@QAbstractItemView@@MEAA_NAEBVQModelIndex@@W4EditTrigger@1@PEAVQEvent@@@Z"
"?edit@QAbstractItemView@@QEAAXAEBVQModelIndex@@@Z"
"?editItem@QListWidget@@QEAAXPEAVQListWidgetItem@@@Z"
"?editItem@QTableWidget@@QEAAXPEAVQTableWidgetItem@@@Z"
"?editItem@QTreeWidget@@QEAAXPEAVQTreeWidgetItem@@H@Z"
"?editTextChanged@QComboBox@@QEAAXAEBVQString@@@Z"
"?editTriggers@QAbstractItemView@@QEBA?AV?$QFlags@W4EditTrigger@QAbstractItemView@@@@XZ"
"?editingFinished@QAbstractSpinBox@@QEAAXXZ"
"?editingFinished@QKeySequenceEdit@@QEAAXXZ"
"?editingFinished@QLineEdit@@QEAAXXZ"
"?editingFinished@QWidgetLineControl@@QEAAXXZ"
"?editorDestroyed@QAbstractItemView@@MEAAXPEAVQObject@@@Z"
"?editorEvent@QAbstractItemDelegate@@UEAA_NPEAVQEvent@@PEAVQAbstractItemModel@@AEBVQStyleOptionViewItem@@AEBVQModelIndex@@@Z"
"?editorEvent@QItemDelegate@@MEAA_NPEAVQEvent@@PEAVQAbstractItemModel@@AEBVQStyleOptionViewItem@@AEBVQModelIndex@@@Z"
"?editorEvent@QStyledItemDelegate@@MEAA_NPEAVQEvent@@PEAVQAbstractItemModel@@AEBVQStyleOptionViewItem@@AEBVQModelIndex@@@Z"
"?effectiveBoundingRect@QGraphicsItemPrivate@@QEBA?AVQRectF@@AEBV2@@Z"
"?effectiveBoundingRect@QGraphicsItemPrivate@@QEBA?AVQRectF@@PEAVQGraphicsItem@@@Z"
"?effectiveFocusWidget@QWidgetPrivate@@QEAAPEAVQWidget@@XZ"
"?effectiveOpacity@QGraphicsItem@@QEBANXZ"
"?effectiveOpacity@QGraphicsItemPrivate@@QEBANXZ"
"?effectiveRectFor@QWidgetPrivate@@QEBA?AVQRect@@AEBV2@@Z"
"?effectiveRectFor@QWidgetPrivate@@QEBA?AVQRect@@AEBVQRegion@@@Z"
"?effectiveSizeHint@QGraphicsLayoutItem@@QEBA?AVQSizeF@@W4SizeHint@Qt@@AEBV2@@Z"
"?effectiveWinId@QWidget@@QEBA_KXZ"
"?elideMode@QTabBar@@QEBA?AW4TextElideMode@Qt@@XZ"
"?elideMode@QTabWidget@@QEBA?AW4TextElideMode@Qt@@XZ"
"?emitCursorPositionChanged@QWidgetLineControl@@AEAAXXZ"
"?emitDataChanged@QTreeWidgetItem@@IEAAXXZ"
"?emitFilesSelected@QFileDialogPrivate@@QEAAXAEBV?$QList@VQString@@@@@Z"
"?emitUrlSelected@QFileDialogPrivate@@QEAAXAEBVQUrl@@@Z"
"?emitUrlsSelected@QFileDialogPrivate@@QEAAXAEBV?$QList@VQUrl@@@@@Z"
"?emptyLabel@QUndoView@@QEBA?AVQString@@XZ"
"?enabledAnimations@QApplicationPrivate@@2HA"
"?enabledChanged@QGraphicsEffect@@QEAAX_N@Z"
"?enabledChanged@QGraphicsObject@@QEAAXXZ"
"?end@QLineEdit@@QEAAX_N@Z"
"?end@QWidgetLineControl@@QEAAX_N@Z"
"?end@QWidgetLineControl@@QEBAHXZ"
"?endAnimatedOperation@QTreeViewPrivate@@QEAAXXZ"
"?endBackingStorePainting@QWidgetPrivate@@UEAAXXZ"
"?endCompose@QWidgetPrivate@@UEAAXXZ"
"?endImage@QBlendStyleAnimation@@QEBA?AVQImage@@XZ"
"?endValue@QNumberStyleAnimation@@QEBANXZ"
"?enforceNativeChildren@QWidgetPrivate@@QEAAXXZ"
"?ensureBlockLayout@QPlainTextDocumentLayout@@QEBAXAEBVQTextBlock@@@Z"
"?ensureCursorVisible@QPlainTextEdit@@QEAAXXZ"
"?ensureCursorVisible@QTextEdit@@QEAAXXZ"
"?ensureCursorVisible@QWidgetTextControl@@UEAAXXZ"
"?ensurePolished@QWidget@@QEBAXXZ"
"?ensureSceneTransform@QGraphicsItemPrivate@@QEAAXXZ"
"?ensureSceneTransformRecursive@QGraphicsItemPrivate@@QEAAXPEAPEAVQGraphicsItem@@@Z"
"?ensureSequentialSiblingIndex@QGraphicsItemPrivate@@QEAAXXZ"
"?ensureSortedChildren@QGraphicsItemPrivate@@QEAAXXZ"
"?ensureVisible@QGraphicsItem@@QEAAXAEBVQRectF@@HH@Z"
"?ensureVisible@QGraphicsItem@@QEAAXNNNNHH@Z"
"?ensureVisible@QGraphicsView@@QEAAXAEBVQRectF@@HH@Z"
"?ensureVisible@QGraphicsView@@QEAAXNNNNHH@Z"
"?ensureVisible@QGraphicsView@@QEAAXPEBVQGraphicsItem@@HH@Z"
"?ensureVisible@QScrollArea@@QEAAXHHHH@Z"
"?ensureVisible@QScroller@@QEAAXAEBVQRectF@@NN@Z"
"?ensureVisible@QScroller@@QEAAXAEBVQRectF@@NNH@Z"
"?ensureWidgetVisible@QScrollArea@@QEAAXPEAVQWidget@@HH@Z"
"?enterDirectory@QFileDialogPrivate@@QEAAXAEBVQModelIndex@@@Z"
"?enterEvent@QMenu@@MEAAXPEAVQEnterEvent@@@Z"
"?enterEvent@QToolButton@@MEAAXPEAVQEnterEvent@@@Z"
"?enterEvent@QWidget@@MEAAXPEAVQEnterEvent@@@Z"
"?enterWhatsThisMode@QWhatsThis@@SAXXZ"
"?entered@QAbstractItemView@@QEAAXAEBVQModelIndex@@@Z"
"?escapeButton@QMessageBox@@QEBAPEAVQAbstractButton@@XZ"
"?event@QAbstractButton@@MEAA_NPEAVQEvent@@@Z"
"?event@QAbstractItemView@@MEAA_NPEAVQEvent@@@Z"
"?event@QAbstractScrollArea@@MEAA_NPEAVQEvent@@@Z"
"?event@QAbstractSlider@@MEAA_NPEAVQEvent@@@Z"
"?event@QAbstractSpinBox@@UEAA_NPEAVQEvent@@@Z"
"?event@QApplication@@MEAA_NPEAVQEvent@@@Z"
"?event@QCalendarWidget@@MEAA_NPEAVQEvent@@@Z"
"?event@QCheckBox@@MEAA_NPEAVQEvent@@@Z"
"?event@QComboBox@@UEAA_NPEAVQEvent@@@Z"
"?event@QCommandLinkButton@@MEAA_NPEAVQEvent@@@Z"
"?event@QCompleter@@MEAA_NPEAVQEvent@@@Z"
"?event@QDateTimeEdit@@UEAA_NPEAVQEvent@@@Z"
"?event@QDial@@MEAA_NPEAVQEvent@@@Z"
"?event@QDialogButtonBox@@MEAA_NPEAVQEvent@@@Z"
"?event@QDockWidget@@MEAA_NPEAVQEvent@@@Z"
"?event@QFocusFrame@@MEAA_NPEAVQEvent@@@Z"
"?event@QFontComboBox@@MEAA_NPEAVQEvent@@@Z"
"?event@QFrame@@MEAA_NPEAVQEvent@@@Z"
"?event@QGraphicsObject@@MEAA_NPEAVQEvent@@@Z"
"?event@QGraphicsProxyWidget@@MEAA_NPEAVQEvent@@@Z"
"?event@QGraphicsScene@@MEAA_NPEAVQEvent@@@Z"
"?event@QGraphicsView@@MEAA_NPEAVQEvent@@@Z"
"?event@QGraphicsWidget@@MEAA_NPEAVQEvent@@@Z"
"?event@QGroupBox@@MEAA_NPEAVQEvent@@@Z"
"?event@QHeaderView@@MEAA_NPEAVQEvent@@@Z"
"?event@QKeySequenceEdit@@MEAA_NPEAVQEvent@@@Z"
"?event@QLCDNumber@@MEAA_NPEAVQEvent@@@Z"
"?event@QLabel@@MEAA_NPEAVQEvent@@@Z"
"?event@QLineEdit@@UEAA_NPEAVQEvent@@@Z"
"?event@QListView@@MEAA_NPEAVQEvent@@@Z"
"?event@QListWidget@@MEAA_NPEAVQEvent@@@Z"
"?event@QMainWindow@@MEAA_NPEAVQEvent@@@Z"
"?event@QMdiArea@@MEAA_NPEAVQEvent@@@Z"
"?event@QMdiSubWindow@@MEAA_NPEAVQEvent@@@Z"
"?event@QMenu@@MEAA_NPEAVQEvent@@@Z"
"?event@QMenuBar@@MEAA_NPEAVQEvent@@@Z"
"?event@QMessageBox@@MEAA_NPEAVQEvent@@@Z"
"?event@QPlainTextEdit@@MEAA_NPEAVQEvent@@@Z"
"?event@QProgressBar@@MEAA_NPEAVQEvent@@@Z"
"?event@QProxyStyle@@MEAA_NPEAVQEvent@@@Z"
"?event@QPushButton@@MEAA_NPEAVQEvent@@@Z"
"?event@QRadioButton@@MEAA_NPEAVQEvent@@@Z"
"?event@QRhiWidget@@MEAA_NPEAVQEvent@@@Z"
"?event@QRubberBand@@MEAA_NPEAVQEvent@@@Z"
"?event@QScrollArea@@MEAA_NPEAVQEvent@@@Z"
"?event@QScrollBar@@UEAA_NPEAVQEvent@@@Z"
"?event@QSizeGrip@@MEAA_NPEAVQEvent@@@Z"
"?event@QSlider@@UEAA_NPEAVQEvent@@@Z"
"?event@QSpinBox@@MEAA_NPEAVQEvent@@@Z"
"?event@QSplashScreen@@MEAA_NPEAVQEvent@@@Z"
"?event@QSplitter@@MEAA_NPEAVQEvent@@@Z"
"?event@QSplitterHandle@@MEAA_NPEAVQEvent@@@Z"
"?event@QStackedWidget@@MEAA_NPEAVQEvent@@@Z"
"?event@QStatusBar@@MEAA_NPEAVQEvent@@@Z"
"?event@QSystemTrayIcon@@MEAA_NPEAVQEvent@@@Z"
"?event@QTabBar@@MEAA_NPEAVQEvent@@@Z"
"?event@QTabWidget@@MEAA_NPEAVQEvent@@@Z"
"?event@QTableWidget@@MEAA_NPEAVQEvent@@@Z"
"?event@QTextBrowser@@MEAA_NPEAVQEvent@@@Z"
"?event@QTextEdit@@MEAA_NPEAVQEvent@@@Z"
"?event@QToolBar@@MEAA_NPEAVQEvent@@@Z"
"?event@QToolBox@@MEAA_NPEAVQEvent@@@Z"
"?event@QToolButton@@MEAA_NPEAVQEvent@@@Z"
"?event@QTreeWidget@@MEAA_NPEAVQEvent@@@Z"
"?event@QWidget@@MEAA_NPEAVQEvent@@@Z"
"?event@QWidgetAction@@MEAA_NPEAVQEvent@@@Z"
"?event@QWidgetTextControl@@MEAA_NPEAVQEvent@@@Z"
"?event@QWindowContainer@@MEAA_NPEAVQEvent@@@Z"
"?event@QWizard@@MEAA_NPEAVQEvent@@@Z"
"?eventFilter@QAbstractItemView@@MEAA_NPEAVQObject@@PEAVQEvent@@@Z"
"?eventFilter@QAbstractScrollArea@@MEAA_NPEAVQObject@@PEAVQEvent@@@Z"
"?eventFilter@QCalendarWidget@@MEAA_NPEAVQObject@@PEAVQEvent@@@Z"
"?eventFilter@QComboBoxPrivateContainer@@MEAA_NPEAVQObject@@PEAVQEvent@@@Z"
"?eventFilter@QCompleter@@MEAA_NPEAVQObject@@PEAVQEvent@@@Z"
"?eventFilter@QDialog@@MEAA_NPEAVQObject@@PEAVQEvent@@@Z"
"?eventFilter@QFocusFrame@@MEAA_NPEAVQObject@@PEAVQEvent@@@Z"
"?eventFilter@QFontDialog@@MEAA_NPEAVQObject@@PEAVQEvent@@@Z"
"?eventFilter@QGraphicsProxyWidget@@MEAA_NPEAVQObject@@PEAVQEvent@@@Z"
"?eventFilter@QGraphicsScene@@MEAA_NPEAVQObject@@PEAVQEvent@@@Z"
"?eventFilter@QItemDelegate@@MEAA_NPEAVQObject@@PEAVQEvent@@@Z"
"?eventFilter@QMdiArea@@MEAA_NPEAVQObject@@PEAVQEvent@@@Z"
"?eventFilter@QMdiSubWindow@@MEAA_NPEAVQObject@@PEAVQEvent@@@Z"
"?eventFilter@QMenuBar@@MEAA_NPEAVQObject@@PEAVQEvent@@@Z"
"?eventFilter@QPixmapStyle@@UEAA_NPEAVQObject@@PEAVQEvent@@@Z"
"?eventFilter@QScrollArea@@MEAA_NPEAVQObject@@PEAVQEvent@@@Z"
"?eventFilter@QSizeGrip@@MEAA_NPEAVQObject@@PEAVQEvent@@@Z"
"?eventFilter@QStyledItemDelegate@@MEAA_NPEAVQObject@@PEAVQEvent@@@Z"
"?eventFilter@QWidgetAction@@MEAA_NPEAVQObject@@PEAVQEvent@@@Z"
"?eventFilter@QWindowContainer@@MEAA_NPEAVQObject@@PEAVQEvent@@@Z"
"?eventFilter@QWindowsStyle@@MEAA_NPEAVQObject@@PEAVQEvent@@@Z"
"?exclusive@QButtonGroup@@QEBA_NXZ"
"?exec@QApplication@@SAHXZ"
"?exec@QDialog@@UEAAHXZ"
"?exec@QMenu@@QEAAPEAVQAction@@AEBVQPoint@@PEAV2@@Z"
"?exec@QMenu@@QEAAPEAVQAction@@XZ"
"?exec@QMenu@@SAPEAVQAction@@AEBV?$QList@PEAVQAction@@@@AEBVQPoint@@PEAV2@PEAVQWidget@@@Z"
"?executeDelayedItemsLayout@QAbstractItemView@@IEAAXXZ"
"?executePendingSort@QTreeWidgetItem@@AEBAXXZ"
"?expand@QTreeView@@QEAAXAEBVQModelIndex@@@Z"
"?expand@QTreeViewPrivate@@QEAAXH_N@Z"
"?expandAll@QTreeView@@QEAAXXZ"
"?expandItem@QTreeWidget@@QEAAXPEBVQTreeWidgetItem@@@Z"
"?expandOrCollapseItemAtPos@QTreeViewPrivate@@QEAA_NAEBVQPoint@@@Z"
"?expandRecursively@QTreeView@@QEAAXAEBVQModelIndex@@H@Z"
"?expandToDepth@QTreeView@@QEAAXH@Z"
"?expanded@QTreeView@@QEAAXAEBVQModelIndex@@@Z"
"?expanding@QTabBar@@QEBA_NXZ"
"?expandingDirections@QBoxLayout@@UEBA?AV?$QFlags@W4Orientation@Qt@@@@XZ"
"?expandingDirections@QFormLayout@@UEBA?AV?$QFlags@W4Orientation@Qt@@@@XZ"
"?expandingDirections@QGridLayout@@UEBA?AV?$QFlags@W4Orientation@Qt@@@@XZ"
"?expandingDirections@QLayout@@UEBA?AV?$QFlags@W4Orientation@Qt@@@@XZ"
"?expandingDirections@QSizePolicy@@QEBA?AV?$QFlags@W4Orientation@Qt@@@@XZ"
"?expandingDirections@QSpacerItem@@UEBA?AV?$QFlags@W4Orientation@Qt@@@@XZ"
"?expandingDirections@QWidgetItem@@UEBA?AV?$QFlags@W4Orientation@Qt@@@@XZ"
"?expandsOnDoubleClick@QTreeView@@QEBA_NXZ"
"?extension@QGraphicsEllipseItem@@MEBA?AVQVariant@@AEBV2@@Z"
"?extension@QGraphicsItem@@MEBA?AVQVariant@@AEBV2@@Z"
"?extension@QGraphicsLineItem@@MEBA?AVQVariant@@AEBV2@@Z"
"?extension@QGraphicsPathItem@@MEBA?AVQVariant@@AEBV2@@Z"
"?extension@QGraphicsPixmapItem@@MEBA?AVQVariant@@AEBV2@@Z"
"?extension@QGraphicsPolygonItem@@MEBA?AVQVariant@@AEBV2@@Z"
"?extension@QGraphicsRectItem@@MEBA?AVQVariant@@AEBV2@@Z"
"?extension@QGraphicsSimpleTextItem@@MEBA?AVQVariant@@AEBV2@@Z"
"?extension@QGraphicsTextItem@@MEBA?AVQVariant@@AEBV2@@Z"
"?extra@QGraphicsItemPrivate@@QEBA?AVQVariant@@W4Extra@1@@Z"
"?extraData@QWidgetPrivate@@QEBAPEAUQWExtra@@XZ"
"?extraItemCache@QGraphicsItemPrivate@@QEBAPEAVQGraphicsItemCache@@XZ"
"?extraSelections@QPlainTextEdit@@QEBA?AV?$QList@UExtraSelection@QTextEdit@@@@XZ"
"?extraSelections@QTextEdit@@QEBA?AV?$QList@UExtraSelection@QTextEdit@@@@XZ"
"?extraSelections@QWidgetTextControl@@QEBA?AV?$QList@UExtraSelection@QTextEdit@@@@XZ"
"?features@QDockWidget@@QEBA?AV?$QFlags@W4DockWidgetFeature@QDockWidget@@@@XZ"
"?featuresChanged@QDockWidget@@QEAAXV?$QFlags@W4DockWidgetFeature@QDockWidget@@@@@Z"
"?field@QWizard@@QEBA?AVQVariant@@AEBVQString@@@Z"
"?field@QWizardPage@@IEBA?AVQVariant@@AEBVQString@@@Z"
"?fieldGrowthPolicy@QFormLayout@@QEBA?AW4FieldGrowthPolicy@1@XZ"
"?fileMode@QFileDialog@@QEBA?AW4FileMode@1@XZ"
"?fileRenamed@QFileDialogPrivate@@QEAAXAEBVQString@@00@Z"
"?fileSelected@QFileDialog@@QEAAXAEBVQString@@@Z"
"?filesSelected@QFileDialog@@QEAAXAEBV?$QList@VQString@@@@@Z"
"?fillRule@QGraphicsPolygonItem@@QEBA?AW4FillRule@Qt@@XZ"
"?filter@QFileDialog@@QEBA?AV?$QFlags@W4Filter@QDir@@@@XZ"
"?filterForMode@QFileDialogPrivate@@QEBA?AV?$QFlags@W4Filter@QDir@@@@V2@@Z"
"?filterMode@QCompleter@@QEBA?AV?$QFlags@W4MatchFlag@Qt@@@@XZ"
"?filterSelected@QFileDialog@@QEAAXAEBVQString@@@Z"
"?filtersChildEvents@QGraphicsItem@@QEBA_NXZ"
"?finalPosition@QScroller@@QEBA?AVQPointF@@XZ"
"?find@QPlainTextEdit@@QEAA_NAEBVQRegularExpression@@V?$QFlags@W4FindFlag@QTextDocument@@@@@Z"
"?find@QPlainTextEdit@@QEAA_NAEBVQString@@V?$QFlags@W4FindFlag@QTextDocument@@@@@Z"
"?find@QTextEdit@@QEAA_NAEBVQRegularExpression@@V?$QFlags@W4FindFlag@QTextDocument@@@@@Z"
"?find@QTextEdit@@QEAA_NAEBVQString@@V?$QFlags@W4FindFlag@QTextDocument@@@@@Z"
"?find@QWidget@@SAPEAV1@_K@Z"
"?find@QWidgetTextControl@@QEAA_NAEBVQRegularExpression@@V?$QFlags@W4FindFlag@QTextDocument@@@@@Z"
"?find@QWidgetTextControl@@QEAA_NAEBVQString@@V?$QFlags@W4FindFlag@QTextDocument@@@@@Z"
"?findClosestTouchPointTarget@QApplicationPrivate@@QEAAPEAVQWidget@@PEBVQPointingDevice@@AEBVQEventPoint@@@Z"
"?findData@QComboBox@@QEBAHAEBVQVariant@@HV?$QFlags@W4MatchFlag@Qt@@@@@Z"
"?findInMask@QWidgetLineControl@@AEBAHH_N0VQChar@@@Z"
"?findItems@QGraphicsViewPrivate@@QEBA?AV?$QList@PEAVQGraphicsItem@@@@AEBVQRegion@@PEA_NAEBVQTransform@@@Z"
"?findItems@QListWidget@@QEBA?AV?$QList@PEAVQListWidgetItem@@@@AEBVQString@@V?$QFlags@W4MatchFlag@Qt@@@@@Z"
"?findItems@QTableWidget@@QEBA?AV?$QList@PEAVQTableWidgetItem@@@@AEBVQString@@V?$QFlags@W4MatchFlag@Qt@@@@@Z"
"?findItems@QTreeWidget@@QEBA?AV?$QList@PEAVQTreeWidgetItem@@@@AEBVQString@@V?$QFlags@W4MatchFlag@Qt@@@@H@Z"
"?findNextPrevAnchor@QWidgetTextControl@@QEAA_NAEBVQTextCursor@@_NAEAV2@@Z"
"?findText@QComboBox@@QEBAHAEBVQString@@V?$QFlags@W4MatchFlag@Qt@@@@@Z"
"?finish@QSplashScreen@@QEAAXPEAVQWidget@@@Z"
"?finishChange@QWidgetLineControl@@AEAA_NH_N0@Z"
"?finished@QDialog@@QEAAXH@Z"
"?finishingKeyCombinations@QKeySequenceEdit@@QEBA?AV?$QList@VQKeyCombination@@@@XZ"
"?firstDayOfWeek@QCalendarWidget@@QEBA?AW4DayOfWeek@Qt@@XZ"
"?firstVisibleBlock@QPlainTextEdit@@IEBA?AVQTextBlock@@XZ"
"?firstVisibleItem@QTreeViewPrivate@@QEBAHPEAH@Z"
"?fitInView@QGraphicsView@@QEAAXAEBVQRectF@@W4AspectRatioMode@Qt@@@Z"
"?fitInView@QGraphicsView@@QEAAXNNNNW4AspectRatioMode@Qt@@@Z"
"?fitInView@QGraphicsView@@QEAAXPEBVQGraphicsItem@@W4AspectRatioMode@Qt@@@Z"
"?fixPosIncludesFrame@QWidgetPrivate@@QEAAXXZ"
"?fixedColorBufferSize@QRhiWidget@@QEBA?AVQSize@@XZ"
"?fixedColorBufferSizeChanged@QRhiWidget@@QEAAXAEBVQSize@@@Z"
"?fixedPixelMetric@QWindowsStylePrivate@@SAHW4PixelMetric@QStyle@@@Z"
"?fixup@QAbstractSpinBox@@UEBAXAEAVQString@@@Z"
"?fixup@QDateTimeEdit@@MEBAXAEAVQString@@@Z"
"?fixup@QDoubleSpinBox@@UEBAXAEAVQString@@@Z"
"?fixup@QSpinBox@@MEBAXAEAVQString@@@Z"
"?fixup@QWidgetLineControl@@QEAA_NXZ"
"?flags@QGraphicsItem@@QEBA?AV?$QFlags@W4GraphicsItemFlag@QGraphicsItem@@@@XZ"
"?flags@QGraphicsSceneMouseEvent@@QEBA?AV?$QFlags@W4MouseEventFlag@Qt@@@@XZ"
"?flags@QListWidgetItem@@QEBA?AV?$QFlags@W4ItemFlag@Qt@@@@XZ"
"?flags@QTableWidgetItem@@QEBA?AV?$QFlags@W4ItemFlag@Qt@@@@XZ"
"?flags@QTreeWidgetItem@@QEBA?AV?$QFlags@W4ItemFlag@Qt@@@@XZ"
"?flagsForDumping@QWidgetPrivate@@UEBA?AV?$basic_string@DU?$char_traits@D@std@@V?$allocator@D@2@@std@@XZ"
"?flow@QListView@@QEBA?AW4Flow@1@XZ"
"?flush@QWidgetRepaintManager@@AEAAXPEAVQWidget@@AEBVQRegion@@PEAVQPlatformTextureList@@@Z"
"?flush@QWidgetRepaintManager@@AEAAXXZ"
"?focusChanged@QApplication@@QEAAXPEAVQWidget@@0@Z"
"?focusChild@QAccessibleWidget@@UEBAPEAVQAccessibleInterface@@XZ"
"?focusInEvent@QAbstractButton@@MEAAXPEAVQFocusEvent@@@Z"
"?focusInEvent@QAbstractItemView@@MEAAXPEAVQFocusEvent@@@Z"
"?focusInEvent@QAbstractSpinBox@@MEAAXPEAVQFocusEvent@@@Z"
"?focusInEvent@QComboBox@@MEAAXPEAVQFocusEvent@@@Z"
"?focusInEvent@QDateTimeEdit@@MEAAXPEAVQFocusEvent@@@Z"
"?focusInEvent@QGraphicsItem@@MEAAXPEAVQFocusEvent@@@Z"
"?focusInEvent@QGraphicsProxyWidget@@MEAAXPEAVQFocusEvent@@@Z"
"?focusInEvent@QGraphicsScene@@MEAAXPEAVQFocusEvent@@@Z"
"?focusInEvent@QGraphicsTextItem@@MEAAXPEAVQFocusEvent@@@Z"
"?focusInEvent@QGraphicsView@@MEAAXPEAVQFocusEvent@@@Z"
"?focusInEvent@QGraphicsWidget@@MEAAXPEAVQFocusEvent@@@Z"
"?focusInEvent@QGroupBox@@MEAAXPEAVQFocusEvent@@@Z"
"?focusInEvent@QLabel@@MEAAXPEAVQFocusEvent@@@Z"
"?focusInEvent@QLineEdit@@MEAAXPEAVQFocusEvent@@@Z"
"?focusInEvent@QMdiSubWindow@@MEAAXPEAVQFocusEvent@@@Z"
"?focusInEvent@QMenuBar@@MEAAXPEAVQFocusEvent@@@Z"
"?focusInEvent@QPlainTextEdit@@MEAAXPEAVQFocusEvent@@@Z"
"?focusInEvent@QPushButton@@MEAAXPEAVQFocusEvent@@@Z"
"?focusInEvent@QTextEdit@@MEAAXPEAVQFocusEvent@@@Z"
"?focusInEvent@QWidget@@MEAAXPEAVQFocusEvent@@@Z"
"?focusItem@QGraphicsItem@@QEBAPEAV1@XZ"
"?focusItem@QGraphicsScene@@QEBAPEAVQGraphicsItem@@XZ"
"?focusItemChanged@QGraphicsScene@@QEAAXPEAVQGraphicsItem@@0W4FocusReason@Qt@@@Z"
"?focusNextChild@QWidget@@IEAA_NXZ"
"?focusNextPrevChild@QAbstractItemView@@MEAA_N_N@Z"
"?focusNextPrevChild@QDateTimeEdit@@MEAA_N_N@Z"
"?focusNextPrevChild@QGraphicsProxyWidget@@MEAA_N_N@Z"
"?focusNextPrevChild@QGraphicsScene@@MEAA_N_N@Z"
"?focusNextPrevChild@QGraphicsView@@MEAA_N_N@Z"
"?focusNextPrevChild@QGraphicsWidget@@MEAA_N_N@Z"
"?focusNextPrevChild@QLabel@@MEAA_N_N@Z"
"?focusNextPrevChild@QMenu@@MEAA_N_N@Z"
"?focusNextPrevChild@QPlainTextEdit@@MEAA_N_N@Z"
"?focusNextPrevChild@QScrollArea@@UEAA_N_N@Z"
"?focusNextPrevChild@QTextBrowser@@MEAA_N_N@Z"
"?focusNextPrevChild@QTextEdit@@MEAA_N_N@Z"
"?focusNextPrevChild@QWidget@@MEAA_N_N@Z"
"?focusNextPrevChild_helper@QApplicationPrivate@@SAPEAVQWidget@@PEAV2@_NPEA_N@Z"
"?focusObject@QWidgetPrivate@@UEAAPEAVQObject@@XZ"
"?focusOnTouch@QGraphicsScene@@QEBA_NXZ"
"?focusOutEvent@QAbstractButton@@MEAAXPEAVQFocusEvent@@@Z"
"?focusOutEvent@QAbstractItemView@@MEAAXPEAVQFocusEvent@@@Z"
"?focusOutEvent@QAbstractSpinBox@@MEAAXPEAVQFocusEvent@@@Z"
"?focusOutEvent@QComboBox@@MEAAXPEAVQFocusEvent@@@Z"
"?focusOutEvent@QGraphicsItem@@MEAAXPEAVQFocusEvent@@@Z"
"?focusOutEvent@QGraphicsProxyWidget@@MEAAXPEAVQFocusEvent@@@Z"
"?focusOutEvent@QGraphicsScene@@MEAAXPEAVQFocusEvent@@@Z"
"?focusOutEvent@QGraphicsTextItem@@MEAAXPEAVQFocusEvent@@@Z"
"?focusOutEvent@QGraphicsView@@MEAAXPEAVQFocusEvent@@@Z"
"?focusOutEvent@QGraphicsWidget@@MEAAXPEAVQFocusEvent@@@Z"
"?focusOutEvent@QKeySequenceEdit@@MEAAXPEAVQFocusEvent@@@Z"
"?focusOutEvent@QLabel@@MEAAXPEAVQFocusEvent@@@Z"
"?focusOutEvent@QLineEdit@@MEAAXPEAVQFocusEvent@@@Z"
"?focusOutEvent@QMdiSubWindow@@MEAAXPEAVQFocusEvent@@@Z"
"?focusOutEvent@QMenuBar@@MEAAXPEAVQFocusEvent@@@Z"
"?focusOutEvent@QPlainTextEdit@@MEAAXPEAVQFocusEvent@@@Z"
"?focusOutEvent@QPushButton@@MEAAXPEAVQFocusEvent@@@Z"
"?focusOutEvent@QTextBrowser@@MEAAXPEAVQFocusEvent@@@Z"
"?focusOutEvent@QTextEdit@@MEAAXPEAVQFocusEvent@@@Z"
"?focusOutEvent@QWidget@@MEAAXPEAVQFocusEvent@@@Z"
"?focusPolicy@QGraphicsWidget@@QEBA?AW4FocusPolicy@Qt@@XZ"
"?focusPolicy@QWidget@@QEBA?AW4FocusPolicy@Qt@@XZ"
"?focusPreviousChild@QWidget@@IEAA_NXZ"
"?focusProxy@QGraphicsItem@@QEBAPEAV1@XZ"
"?focusProxy@QWidget@@QEBAPEAV1@XZ"
"?focusScopeItem@QGraphicsItem@@QEBAPEAV1@XZ"
"?focusScopeItemChange@QGraphicsItemPrivate@@UEAAX_N@Z"
"?focusWidget@QApplication@@SAPEAVQWidget@@XZ"
"?focusWidget@QGraphicsWidget@@QEBAPEAV1@XZ"
"?focusWidget@QWidget@@QEBAPEAV1@XZ"
"?focus_widget@QApplicationPrivate@@2PEAVQWidget@@EA"
"?font@QApplication@@SA?AVQFont@@PEBD@Z"
"?font@QApplication@@SA?AVQFont@@PEBVQWidget@@@Z"
"?font@QApplication@@SA?AVQFont@@XZ"
"?font@QGraphicsScene@@QEBA?AVQFont@@XZ"
"?font@QGraphicsSimpleTextItem@@QEBA?AVQFont@@XZ"
"?font@QGraphicsTextItem@@QEBA?AVQFont@@XZ"
"?font@QGraphicsWidget@@QEBA?AVQFont@@XZ"
"?font@QListWidgetItem@@QEBA?AVQFont@@XZ"
"?font@QTableWidgetItem@@QEBA?AVQFont@@XZ"
"?font@QToolTip@@SA?AVQFont@@XZ"
"?font@QTreeWidgetItem@@QEBA?AVQFont@@H@Z"
"?font@QWidget@@QEBAAEBVQFont@@XZ"
"?fontFamily@QTextEdit@@QEBA?AVQString@@XZ"
"?fontFilters@QFontComboBox@@QEBA?AV?$QFlags@W4FontFilter@QFontComboBox@@@@XZ"
"?fontInfo@QWidget@@QEBA?AVQFontInfo@@XZ"
"?fontItalic@QTextEdit@@QEBA_NXZ"
"?fontMetrics@QApplication@@SA?AVQFontMetrics@@XZ"
"?fontMetrics@QWidget@@QEBA?AVQFontMetrics@@XZ"
"?fontPointSize@QTextEdit@@QEBANXZ"
"?fontSelected@QFontDialog@@QEAAXAEBVQFont@@@Z"
"?fontUnderline@QTextEdit@@QEBA_NXZ"
"?fontWeight@QTextEdit@@QEBAHXZ"
"?forceShow@QProgressDialog@@IEAAXXZ"
"?foreground@QListWidgetItem@@QEBA?AVQBrush@@XZ"
"?foreground@QTableWidgetItem@@QEBA?AVQBrush@@XZ"
"?foreground@QTreeWidgetItem@@QEBA?AVQBrush@@H@Z"
"?foregroundBrush@QGraphicsScene@@QEBA?AVQBrush@@XZ"
"?foregroundBrush@QGraphicsView@@QEBA?AVQBrush@@XZ"
"?foregroundColor@QAccessibleWidget@@UEBA?AVQColor@@XZ"
"?foregroundRole@QWidget@@QEBA?AW4ColorRole@QPalette@@XZ"
"?formAlignment@QFormLayout@@QEBA?AV?$QFlags@W4AlignmentFlag@Qt@@@@XZ"
"?format@QProgressBar@@QEBA?AVQString@@XZ"
"?forward@QTextBrowser@@UEAAXXZ"
"?forwardAvailable@QTextBrowser@@QEAAX_N@Z"
"?forwardHistoryCount@QTextBrowser@@QEBAHXZ"
"?frameBoundingRect@QPlainTextDocumentLayout@@UEBA?AVQRectF@@PEAVQTextFrame@@@Z"
"?frameGeometry@QWidget@@QEBA?AVQRect@@XZ"
"?frameRate@QStyleAnimation@@QEBA?AW4FrameRate@1@XZ"
"?frameRect@QFrame@@QEBA?AVQRect@@XZ"
"?frameShadow@QFrame@@QEBA?AW4Shadow@1@XZ"
"?frameShape@QFrame@@QEBA?AW4Shape@1@XZ"
"?frameSize@QWidget@@QEBA?AVQSize@@XZ"
"?frameStrut@QWidgetPrivate@@QEBA?AVQRect@@XZ"
"?frameStyle@QFrame@@QEBAHXZ"
"?frameSubmitted@QRhiWidget@@QEAAXXZ"
"?frameWidth@QFrame@@QEBAHXZ"
"?freeStyleOptionsArray@QGraphicsViewPrivate@@QEAAXPEAVQStyleOptionGraphicsItem@@@Z"
"?generatedIconPixmap@QCommonStyle@@UEBA?AVQPixmap@@W4Mode@QIcon@@AEBV2@PEBVQStyleOption@@@Z"
"?generatedIconPixmap@QFusionStyle@@UEBA?AVQPixmap@@W4Mode@QIcon@@AEBV2@PEBVQStyleOption@@@Z"
"?generatedIconPixmap@QProxyStyle@@UEBA?AVQPixmap@@W4Mode@QIcon@@AEBV2@PEBVQStyleOption@@@Z"
"?genericMapFromScene@QGraphicsItemPrivate@@QEBA?AVQPointF@@AEBV2@PEBVQWidget@@@Z"
"?genericMapFromSceneTransform@QGraphicsItemPrivate@@QEBA?AVQTransform@@PEBVQWidget@@@Z"
"?geometriesChanged@QHeaderView@@QEAAXXZ"
"?geometry@QGraphicsLayoutItem@@QEBA?AVQRectF@@XZ"
"?geometry@QLayout@@UEBA?AVQRect@@XZ"
"?geometry@QSpacerItem@@UEBA?AVQRect@@XZ"
"?geometry@QSystemTrayIcon@@QEBA?AVQRect@@XZ"
"?geometry@QWidget@@QEBAAEBVQRect@@XZ"
"?geometry@QWidgetItem@@UEBA?AVQRect@@XZ"
"?geometryChanged@QGraphicsWidget@@QEAAXXZ"
"?gesture@QGestureEvent@@QEBAPEAVQGesture@@W4GestureType@Qt@@@Z"
"?gestureCancelPolicy@QGesture@@QEBA?AW4GestureCancelPolicy@1@XZ"
"?gestureType@QGesture@@QEBA?AW4GestureType@Qt@@XZ"
"?gestures@QGestureEvent@@QEBA?AV?$QList@PEAVQGesture@@@@XZ"
"?get@QGraphicsItemPrivate@@SAPEAV1@PEAVQGraphicsItem@@@Z"
"?get@QGraphicsItemPrivate@@SAPEBV1@PEBVQGraphicsItem@@@Z"
"?get@QWidgetPrivate@@SAPEAV1@PEAVQWidget@@@Z"
"?get@QWidgetPrivate@@SAPEBV1@PEBVQWidget@@@Z"
"?getColor@QColorDialog@@SA?AVQColor@@AEBV2@PEAVQWidget@@AEBVQString@@V?$QFlags@W4ColorDialogOption@QColorDialog@@@@@Z"
"?getContentsMargins@QGraphicsLayout@@UEBAXPEAN000@Z"
"?getContentsMargins@QGraphicsLayoutItem@@UEBAXPEAN000@Z"
"?getContentsMargins@QGraphicsWidget@@UEBAXPEAN000@Z"
"?getContentsMargins@QLayout@@QEBAXPEAH000@Z"
"?getDouble@QInputDialog@@SANPEAVQWidget@@AEBVQString@@1NNNHPEA_NV?$QFlags@W4WindowType@Qt@@@@N@Z"
"?getEnvironmentVariable@QFileDialogPrivate@@QEAA?AVQString@@AEBV2@@Z"
"?getExistingDirectory@QFileDialog@@SA?AVQString@@PEAVQWidget@@AEBV2@1V?$QFlags@W4Option@QFileDialog@@@@@Z"
"?getExistingDirectoryUrl@QFileDialog@@SA?AVQUrl@@PEAVQWidget@@AEBVQString@@AEBV2@V?$QFlags@W4Option@QFileDialog@@@@AEBV?$QList@VQString@@@@@Z"
"?getFont@QFontDialog@@SA?AVQFont@@PEA_NAEBV2@PEAVQWidget@@AEBVQString@@V?$QFlags@W4FontDialogOption@QFontDialog@@@@@Z"
"?getFont@QFontDialog@@SA?AVQFont@@PEA_NPEAVQWidget@@@Z"
"?getHWNDForWidget@QApplicationPrivate@@SAPEAUHWND__@@PEBVQWidget@@@Z"
"?getInt@QInputDialog@@SAHPEAVQWidget@@AEBVQString@@1HHHHPEA_NV?$QFlags@W4WindowType@Qt@@@@@Z"
"?getItem@QInputDialog@@SA?AVQString@@PEAVQWidget@@AEBV2@1AEBV?$QList@VQString@@@@H_NPEA_NV?$QFlags@W4WindowType@Qt@@@@V?$QFlags@W4InputMethodHint@Qt@@@@@Z"
"?getItemPosition@QFormLayout@@QEBAXHPEAHPEAW4ItemRole@1@@Z"
"?getItemPosition@QGridLayout@@QEBAXHPEAH000@Z"
"?getLayoutItemMargins@QWidgetPrivate@@QEBAXPEAH000@Z"
"?getLayoutPosition@QFormLayout@@QEBAXPEAVQLayout@@PEAHPEAW4ItemRole@1@@Z"
"?getMargin@QLayoutPrivate@@QEBAXPEAHHW4PixelMetric@QStyle@@@Z"
"?getMultiLineText@QInputDialog@@SA?AVQString@@PEAVQWidget@@AEBV2@11PEA_NV?$QFlags@W4WindowType@Qt@@@@V?$QFlags@W4InputMethodHint@Qt@@@@@Z"
"?getOpaqueChildren@QWidgetPrivate@@QEBAAEBVQRegion@@XZ"
"?getOpenFileContent@QFileDialog@@SAXAEBVQString@@AEBV?$function@$$A6AXAEBVQString@@AEBVQByteArray@@@Z@std@@@Z"
"?getOpenFileContent@QFileDialog@@SAXAEBVQString@@AEBV?$function@$$A6AXAEBVQString@@AEBVQByteArray@@@Z@std@@PEAVQWidget@@@Z"
"?getOpenFileName@QFileDialog@@SA?AVQString@@PEAVQWidget@@AEBV2@11PEAV2@V?$QFlags@W4Option@QFileDialog@@@@@Z"
"?getOpenFileNames@QFileDialog@@SA?AV?$QList@VQString@@@@PEAVQWidget@@AEBVQString@@11PEAV4@V?$QFlags@W4Option@QFileDialog@@@@@Z"
"?getOpenFileUrl@QFileDialog@@SA?AVQUrl@@PEAVQWidget@@AEBVQString@@AEBV2@1PEAV4@V?$QFlags@W4Option@QFileDialog@@@@AEBV?$QList@VQString@@@@@Z"
"?getOpenFileUrls@QFileDialog@@SA?AV?$QList@VQUrl@@@@PEAVQWidget@@AEBVQString@@AEBVQUrl@@1PEAV4@V?$QFlags@W4Option@QFileDialog@@@@AEBV?$QList@VQString@@@@@Z"
"?getPaintContext@QPlainTextEdit@@IEBA?AUPaintContext@QAbstractTextDocumentLayout@@XZ"
"?getPaintContext@QWidgetTextControl@@QEBA?AUPaintContext@QAbstractTextDocumentLayout@@PEAVQWidget@@@Z"
"?getRange@QSplitter@@QEBAXHPEAH0@Z"
"?getSaveFileName@QFileDialog@@SA?AVQString@@PEAVQWidget@@AEBV2@11PEAV2@V?$QFlags@W4Option@QFileDialog@@@@@Z"
"?getSaveFileUrl@QFileDialog@@SA?AVQUrl@@PEAVQWidget@@AEBVQString@@AEBV2@1PEAV4@V?$QFlags@W4Option@QFileDialog@@@@AEBV?$QList@VQString@@@@@Z"
"?getText@QInputDialog@@SA?AVQString@@PEAVQWidget@@AEBV2@1W4EchoMode@QLineEdit@@1PEA_NV?$QFlags@W4WindowType@Qt@@@@V?$QFlags@W4InputMethodHint@Qt@@@@@Z"
"?getWidgetPosition@QFormLayout@@QEBAXPEAVQWidget@@PEAHPEAW4ItemRole@1@@Z"
"?getWindowFrameMargins@QGraphicsWidget@@QEBAXPEAN000@Z"
"?giveFocusAccordingToFocusPolicy@QApplicationPrivate@@CAXPEAVQWidget@@PEAVQEvent@@VQPoint@@@Z"
"?goHome@QFileDialogPrivate@@QEAAXXZ"
"?goToDirectory@QFileDialogPrivate@@QEAAXAEBVQString@@@Z"
"?goToUrl@QFileDialogPrivate@@QEAAXAEBVQUrl@@@Z"
"?grab@QWidget@@QEAA?AVQPixmap@@AEBVQRect@@@Z"
"?grabFramebuffer@QRhiWidget@@QEBA?AVQImage@@XZ"
"?grabFramebuffer@QWidgetPrivate@@UEAA?AVQImage@@XZ"
"?grabGesture@QGraphicsObject@@QEAAXW4GestureType@Qt@@V?$QFlags@W4GestureFlag@Qt@@@@@Z"
"?grabGesture@QScroller@@SA?AW4GestureType@Qt@@PEAVQObject@@W4ScrollerGestureType@1@@Z"
"?grabGesture@QWidget@@QEAAXW4GestureType@Qt@@V?$QFlags@W4GestureFlag@Qt@@@@@Z"
"?grabKeyboard@QGraphicsItem@@QEAAXXZ"
"?grabKeyboard@QWidget@@QEAAXXZ"
"?grabKeyboardEvent@QGraphicsWidget@@MEAAXPEAVQEvent@@@Z"
"?grabMouse@QGraphicsItem@@QEAAXXZ"
"?grabMouse@QWidget@@QEAAXAEBVQCursor@@@Z"
"?grabMouse@QWidget@@QEAAXXZ"
"?grabMouseEvent@QGraphicsProxyWidget@@MEAAXPEAVQEvent@@@Z"
"?grabMouseEvent@QGraphicsWidget@@MEAAXPEAVQEvent@@@Z"
"?grabShortcut@QGraphicsWidget@@QEAAHAEBVQKeySequence@@W4ShortcutContext@Qt@@@Z"
"?grabShortcut@QWidget@@QEAAHAEBVQKeySequence@@W4ShortcutContext@Qt@@@Z"
"?grabbedGesture@QScroller@@SA?AW4GestureType@Qt@@PEAVQObject@@@Z"
"?graphicsEffect@QGraphicsItem@@QEBAPEAVQGraphicsEffect@@XZ"
"?graphicsEffect@QWidget@@QEBAPEAVQGraphicsEffect@@XZ"
"?graphicsItem@QGraphicsEffectSource@@QEBAPEBVQGraphicsItem@@XZ"
"?graphicsItem@QGraphicsLayoutItem@@QEBAPEAVQGraphicsItem@@XZ"
"?graphicsProxyWidget@QWidget@@QEBAPEAVQGraphicsProxyWidget@@XZ"
"?gridSize@QListView@@QEBA?AVQSize@@XZ"
"?gridStyle@QTableView@@QEBA?AW4PenStyle@Qt@@XZ"
"?group@QAbstractButton@@QEBAPEAVQButtonGroup@@XZ"
"?group@QGraphicsItem@@QEBAPEAVQGraphicsItemGroup@@XZ"
"?group@QUndoView@@QEBAPEAVQUndoGroup@@XZ"
"?handle@QSplitter@@QEBAPEAVQSplitterHandle@@H@Z"
"?handleClose@QWidgetPrivate@@QEAA_NW4CloseMode@1@@Z"
"?handleInput@QScroller@@QEAA_NW4Input@1@AEBVQPointF@@_J@Z"
"?handlePaletteChanged@QApplicationPrivate@@MEAAXPEBD@Z"
"?handleSoftwareInputPanel@QWidgetPrivate@@QEAAXW4MouseButton@Qt@@_N@Z"
"?handleSoftwareInputPanel@QWidgetPrivate@@QEAAX_N@Z"
"?handleThemeChanged@QApplicationPrivate@@MEAAXXZ"
"?handleWidth@QSplitter@@QEBAHXZ"
"?handlesChildEvents@QGraphicsItem@@QEBA_NXZ"
"?hasAcceptableInput@QAbstractSpinBox@@QEBA_NXZ"
"?hasAcceptableInput@QLineEdit@@QEBA_NXZ"
"?hasAcceptableInput@QWidgetLineControl@@AEBA_NAEBVQString@@@Z"
"?hasAcceptableInput@QWidgetLineControl@@QEBA_NXZ"
"?hasAncestor@QStyleHelper@@YA_NPEAVQObject@@W4Role@QAccessible@@@Z"
"?hasAutoScroll@QAbstractItemView@@QEBA_NXZ"
"?hasChildWithFocusPolicy@QWidgetPrivate@@QEBA_NW4FocusPolicy@Qt@@PEBVQWidget@@@Z"
"?hasClipping@QItemDelegate@@QEBA_NXZ"
"?hasCursor@QGraphicsItem@@QEBA_NXZ"
"?hasFocus@QGraphicsItem@@QEBA_NXZ"
"?hasFocus@QGraphicsScene@@QEBA_NXZ"
"?hasFocus@QWidget@@QEBA_NXZ"
"?hasFrame@QAbstractSpinBox@@QEBA_NXZ"
"?hasFrame@QComboBox@@QEBA_NXZ"
"?hasFrame@QLineEdit@@QEBA_NXZ"
"?hasHeightForWidth@QBoxLayout@@UEBA_NXZ"
"?hasHeightForWidth@QFormLayout@@UEBA_NXZ"
"?hasHeightForWidth@QGridLayout@@UEBA_NXZ"
"?hasHeightForWidth@QLayoutItem@@UEBA_NXZ"
"?hasHeightForWidth@QSizePolicy@@QEBA_NXZ"
"?hasHeightForWidth@QStackedLayout@@UEBA_NXZ"
"?hasHeightForWidth@QTabWidget@@UEBA_NXZ"
"?hasHeightForWidth@QWidget@@UEBA_NXZ"
"?hasHeightForWidth@QWidgetItem@@UEBA_NXZ"
"?hasHotSpot@QGesture@@QEBA_NXZ"
"?hasMouseTracking@QWidget@@QEBA_NXZ"
"?hasScaledContents@QLabel@@QEBA_NXZ"
"?hasScroller@QScroller@@SA_NPEAVQObject@@@Z"
"?hasSeenAlt@QWindowsStylePrivate@@QEBA_NPEBVQWidget@@@Z"
"?hasSelectedText@QLabel@@QEBA_NXZ"
"?hasSelectedText@QLineEdit@@QEBA_NXZ"
"?hasSelectedText@QWidgetLineControl@@QEBA_NXZ"
"?hasStaticContents@QWidgetRepaintManager@@AEBA_NXZ"
"?hasTabletTracking@QWidget@@QEBA_NXZ"
"?hasTracking@QAbstractSlider@@QEBA_NXZ"
"?hasTranslateOnlySceneTransform@QGraphicsItemPrivate@@QEAA_NXZ"
"?hasVisibleChildren@QTreeViewPrivate@@QEBA_NAEBVQModelIndex@@@Z"
"?hasVisitedPage@QWizard@@QEBA_NH@Z"
"?hasWidthForHeight@QSizePolicy@@QEBA_NXZ"
"?header@QTreeView@@QEBAPEAVQHeaderView@@XZ"
"?headerDataChanged@QHeaderView@@QEAAXW4Orientation@Qt@@HH@Z"
"?headerItem@QTreeWidget@@QEBAPEAVQTreeWidgetItem@@XZ"
"?headerTextFormat@QCalendarWidget@@QEBA?AVQTextCharFormat@@XZ"
"?height@QGraphicsItemPrivate@@UEBANXZ"
"?height@QGraphicsScene@@QEBANXZ"
"?height@QWidget@@QEBAHXZ"
"?height@QWidgetLineControl@@QEBAHXZ"
"?heightChanged@QGraphicsObject@@QEAAXXZ"
"?heightForWidth@QBoxLayout@@UEBAHH@Z"
"?heightForWidth@QCommandLinkButton@@UEBAHH@Z"
"?heightForWidth@QFormLayout@@UEBAHH@Z"
"?heightForWidth@QGridLayout@@UEBAHH@Z"
"?heightForWidth@QLabel@@UEBAHH@Z"
"?heightForWidth@QLayoutItem@@UEBAHH@Z"
"?heightForWidth@QMenuBar@@UEBAHH@Z"
"?heightForWidth@QStackedLayout@@UEBAHH@Z"
"?heightForWidth@QTabWidget@@UEBAHH@Z"
"?heightForWidth@QWidget@@UEBAHH@Z"
"?heightForWidth@QWidgetItem@@UEBAHH@Z"
"?heightForWidth@QWidgetItemV2@@UEBAHH@Z"
"?helpEvent@QAbstractItemDelegate@@UEAA_NPEAVQHelpEvent@@PEAVQAbstractItemView@@AEBVQStyleOptionViewItem@@AEBVQModelIndex@@@Z"
"?helpEvent@QGraphicsScene@@MEAAXPEAVQGraphicsSceneHelpEvent@@@Z"
"?helpRequested@QDialogButtonBox@@QEAAXXZ"
"?helpRequested@QWizard@@QEAAXXZ"
"?helperDone@QDialogPrivate@@EEAAXW4DialogCode@QDialog@@PEAVQPlatformDialogHelper@@@Z"
"?helperDone@QFileDialogPrivate@@EEAAXW4DialogCode@QDialog@@PEAVQPlatformDialogHelper@@@Z"
"?helperPrepareShow@QDialogPrivate@@EEAAXPEAVQPlatformDialogHelper@@@Z"
"?helperPrepareShow@QFileDialogPrivate@@EEAAXPEAVQPlatformDialogHelper@@@Z"
"?hiddenSectionCount@QHeaderView@@QEBAHXZ"
"?hidden_focus_widget@QApplicationPrivate@@2PEAVQWidget@@EA"
"?hide@QGraphicsItem@@QEAAXXZ"
"?hide@QSystemTrayIcon@@QEAAXXZ"
"?hide@QWidget@@QEAAXXZ"
"?hideChildren@QWidgetPrivate@@QEAAX_N@Z"
"?hideColumn@QTableView@@QEAAXH@Z"
"?hideColumn@QTreeView@@QEAAXH@Z"
"?hideDefault@QDialogPrivate@@QEAAXXZ"
"?hideEvent@QAbstractSpinBox@@MEAAXPEAVQHideEvent@@@Z"
"?hideEvent@QComboBox@@MEAAXPEAVQHideEvent@@@Z"
"?hideEvent@QComboBoxPrivateContainer@@MEAAXPEAVQHideEvent@@@Z"
"?hideEvent@QGraphicsProxyWidget@@MEAAXPEAVQHideEvent@@@Z"
"?hideEvent@QGraphicsWidget@@MEAAXPEAVQHideEvent@@@Z"
"?hideEvent@QMdiSubWindow@@MEAAXPEAVQHideEvent@@@Z"
"?hideEvent@QMenu@@MEAAXPEAVQHideEvent@@@Z"
"?hideEvent@QScrollBar@@MEAAXPEAVQHideEvent@@@Z"
"?hideEvent@QSizeGrip@@MEAAXPEAVQHideEvent@@@Z"
"?hideEvent@QTabBar@@MEAAXPEAVQHideEvent@@@Z"
"?hideEvent@QWidget@@MEAAXPEAVQHideEvent@@@Z"
"?hideOrShow@QStatusBar@@IEAAXXZ"
"?hidePopup@QComboBox@@UEAAXXZ"
"?hideRow@QTableView@@QEAAXH@Z"
"?hideScrollers@QComboBoxPrivateContainer@@QEAAXXZ"
"?hideSection@QHeaderView@@QEAAXH@Z"
"?hideTearOffMenu@QMenu@@QEAAXXZ"
"?hideText@QToolTip@@SAXXZ"
"?hideText@QWhatsThis@@SAXXZ"
"?hide_helper@QWidgetPrivate@@QEAAXXZ"
"?hide_sys@QWidgetPrivate@@QEAAXXZ"
"?highlightSections@QHeaderView@@QEBA_NXZ"
"?highlighted@QComboBox@@QEAAXH@Z"
"?highlighted@QCompleter@@QEAAXAEBVQModelIndex@@@Z"
"?highlighted@QCompleter@@QEAAXAEBVQString@@@Z"
"?highlighted@QTextBrowser@@QEAAXAEBVQUrl@@@Z"
"?history@QFileDialog@@QEBA?AV?$QList@VQString@@@@XZ"
"?historyChanged@QTextBrowser@@QEAAXXZ"
"?historyTitle@QTextBrowser@@QEBA?AVQString@@H@Z"
"?historyUrl@QTextBrowser@@QEBA?AVQUrl@@H@Z"
"?hitButton@QAbstractButton@@MEBA_NAEBVQPoint@@@Z"
"?hitButton@QCheckBox@@MEBA_NAEBVQPoint@@@Z"
"?hitButton@QPushButton@@MEBA_NAEBVQPoint@@@Z"
"?hitButton@QRadioButton@@MEBA_NAEBVQPoint@@@Z"
"?hitButton@QToolButton@@MEBA_NAEBVQPoint@@@Z"
"?hitTest@QPlainTextDocumentLayout@@UEBAHAEBVQPointF@@W4HitTestAccuracy@Qt@@@Z"
"?hitTest@QWidgetTextControl@@UEBAHAEBVQPointF@@W4HitTestAccuracy@Qt@@@Z"
"?hitTestComplexControl@QCommonStyle@@UEBA?AW4SubControl@QStyle@@W4ComplexControl@3@PEBVQStyleOptionComplex@@AEBVQPoint@@PEBVQWidget@@@Z"
"?hitTestComplexControl@QFusionStyle@@UEBA?AW4SubControl@QStyle@@W4ComplexControl@3@PEBVQStyleOptionComplex@@AEBVQPoint@@PEBVQWidget@@@Z"
"?hitTestComplexControl@QPixmapStyle@@UEBA?AW4SubControl@QStyle@@W4ComplexControl@3@PEBVQStyleOptionComplex@@AEBVQPoint@@PEBVQWidget@@@Z"
"?hitTestComplexControl@QProxyStyle@@UEBA?AW4SubControl@QStyle@@W4ComplexControl@3@PEBVQStyleOptionComplex@@AEBVQPoint@@PEBVQWidget@@@Z"
"?home@QLineEdit@@QEAAX_N@Z"
"?home@QTextBrowser@@UEAAXXZ"
"?home@QWidgetLineControl@@QEAAX_N@Z"
"?horizontalDirection@QSwipeGesture@@QEBA?AW4SwipeDirection@1@XZ"
"?horizontalHeader@QTableView@@QEBAPEAVQHeaderView@@XZ"
"?horizontalHeaderFormat@QCalendarWidget@@QEBA?AW4HorizontalHeaderFormat@1@XZ"
"?horizontalHeaderItem@QTableWidget@@QEBAPEAVQTableWidgetItem@@H@Z"
"?horizontalOffset@QColumnView@@MEBAHXZ"
"?horizontalOffset@QHeaderView@@MEBAHXZ"
"?horizontalOffset@QListView@@MEBAHXZ"
"?horizontalOffset@QTableView@@MEBAHXZ"
"?horizontalOffset@QTreeView@@MEBAHXZ"
"?horizontalPolicy@QSizePolicy@@QEBA?AW4Policy@1@XZ"
"?horizontalScaleAt@QGraphicsItemAnimation@@QEBANN@Z"
"?horizontalScroll@QGraphicsViewPrivate@@QEBA_JXZ"
"?horizontalScrollBar@QAbstractScrollArea@@QEBAPEAVQScrollBar@@XZ"
"?horizontalScrollBarPolicy@QAbstractScrollArea@@QEBA?AW4ScrollBarPolicy@Qt@@XZ"
"?horizontalScrollMode@QAbstractItemView@@QEBA?AW4ScrollMode@1@XZ"
"?horizontalScrollbarAction@QAbstractItemView@@MEAAXH@Z"
"?horizontalScrollbarAction@QTableView@@MEAAXH@Z"
"?horizontalScrollbarAction@QTreeView@@MEAAXH@Z"
"?horizontalScrollbarValueChanged@QAbstractItemView@@MEAAXH@Z"
"?horizontalShearAt@QGraphicsItemAnimation@@QEBANN@Z"
"?horizontalSpacing@QFormLayout@@QEBAHXZ"
"?horizontalSpacing@QGraphicsAnchorLayout@@QEBANXZ"
"?horizontalSpacing@QGraphicsGridLayout@@QEBANXZ"
"?horizontalSpacing@QGridLayout@@QEBAHXZ"
"?horizontalStretch@QSizePolicy@@QEBAHXZ"
"?hotSpot@QGesture@@QEBA?AVQPointF@@XZ"
"?hoverEnterEvent@QGraphicsItem@@MEAAXPEAVQGraphicsSceneHoverEvent@@@Z"
"?hoverEnterEvent@QGraphicsProxyWidget@@MEAAXPEAVQGraphicsSceneHoverEvent@@@Z"
"?hoverEnterEvent@QGraphicsTextItem@@MEAAXPEAVQGraphicsSceneHoverEvent@@@Z"
"?hoverLeaveEvent@QGraphicsItem@@MEAAXPEAVQGraphicsSceneHoverEvent@@@Z"
"?hoverLeaveEvent@QGraphicsProxyWidget@@MEAAXPEAVQGraphicsSceneHoverEvent@@@Z"
"?hoverLeaveEvent@QGraphicsTextItem@@MEAAXPEAVQGraphicsSceneHoverEvent@@@Z"
"?hoverLeaveEvent@QGraphicsWidget@@MEAAXPEAVQGraphicsSceneHoverEvent@@@Z"
"?hoverMoveEvent@QGraphicsItem@@MEAAXPEAVQGraphicsSceneHoverEvent@@@Z"
"?hoverMoveEvent@QGraphicsProxyWidget@@MEAAXPEAVQGraphicsSceneHoverEvent@@@Z"
"?hoverMoveEvent@QGraphicsTextItem@@MEAAXPEAVQGraphicsSceneHoverEvent@@@Z"
"?hoverMoveEvent@QGraphicsWidget@@MEAAXPEAVQGraphicsSceneHoverEvent@@@Z"
"?hovered@QMenu@@QEAAXPEAVQAction@@@Z"
"?hovered@QMenuBar@@QEAAXPEAVQAction@@@Z"
"?hoveredTabIndex@QTabBarPrivate@@QEBAHXZ"
"?icon@QAbstractButton@@QEBA?AVQIcon@@XZ"
"?icon@QFileIconProvider@@UEBA?AVQIcon@@AEBVQFileInfo@@@Z"
"?icon@QFileIconProvider@@UEBA?AVQIcon@@W4IconType@QAbstractFileIconProvider@@@Z"
"?icon@QListWidgetItem@@QEBA?AVQIcon@@XZ"
"?icon@QMenu@@QEBA?AVQIcon@@XZ"
"?icon@QMessageBox@@QEBA?AW4Icon@1@XZ"
"?icon@QSystemTrayIcon@@QEBA?AVQIcon@@XZ"
"?icon@QTableWidgetItem@@QEBA?AVQIcon@@XZ"
"?icon@QTreeWidgetItem@@QEBA?AVQIcon@@H@Z"
"?iconFromApplicationTheme@QCommonStylePrivate@@QEBA?AVQIcon@@W4StandardPixmap@QStyle@@PEBVQStyleOption@@PEBVQWidget@@@Z"
"?iconFromMacTheme@QCommonStylePrivate@@QEBA?AVQIcon@@W4StandardPixmap@QStyle@@PEBVQStyleOption@@PEBVQWidget@@@Z"
"?iconFromResourceTheme@QCommonStylePrivate@@QEBA?AVQIcon@@W4StandardPixmap@QStyle@@PEBVQStyleOption@@PEBVQWidget@@@Z"
"?iconFromTheme@QFusionStyle@@QEBA?AVQIcon@@W4StandardPixmap@QStyle@@@Z"
"?iconFromWindowsTheme@QCommonStylePrivate@@QEBA?AVQIcon@@W4StandardPixmap@QStyle@@PEBVQStyleOption@@PEBVQWidget@@@Z"
"?iconPixmap@QMessageBox@@QEBA?AVQPixmap@@XZ"
"?iconProvider@QFileDialog@@QEBAPEAVQAbstractFileIconProvider@@XZ"
"?iconSize@QAbstractButton@@QEBA?AVQSize@@XZ"
"?iconSize@QAbstractItemView@@QEBA?AVQSize@@XZ"
"?iconSize@QComboBox@@QEBA?AVQSize@@XZ"
"?iconSize@QMainWindow@@QEBA?AVQSize@@XZ"
"?iconSize@QTabBar@@QEBA?AVQSize@@XZ"
"?iconSize@QTabWidget@@QEBA?AVQSize@@XZ"
"?iconSize@QToolBar@@QEBA?AVQSize@@XZ"
"?iconSizeChanged@QAbstractItemView@@QEAAXAEBVQSize@@@Z"
"?iconSizeChanged@QMainWindow@@QEAAXAEBVQSize@@@Z"
"?iconSizeChanged@QToolBar@@QEAAXAEBVQSize@@@Z"
"?id@QButtonGroup@@QEBAHPEAVQAbstractButton@@@Z"
"?idClicked@QButtonGroup@@QEAAXH@Z"
"?idPressed@QButtonGroup@@QEAAXH@Z"
"?idReleased@QButtonGroup@@QEAAXH@Z"
"?idToggled@QButtonGroup@@QEAAXH_N@Z"
"?ignore@QGestureEvent@@QEAAXPEAVQGesture@@@Z"
"?ignore@QGestureEvent@@QEAAXW4GestureType@Qt@@@Z"
"?ignoreUnusedNavigationEvents@QWidgetTextControl@@QEBA_NXZ"
"?inPopupMode@QApplicationPrivate@@SA_NXZ"
"?inSelection@QWidgetLineControl@@QEBA_NH@Z"
"?inWhatsThisMode@QWhatsThis@@SA_NXZ"
"?indent@QLabel@@QEBAHXZ"
"?indentation@QTreeView@@QEBAHXZ"
"?indentationForItem@QTreeViewPrivate@@QEBAHH@Z"
"?indexAbove@QTreeView@@QEBA?AVQModelIndex@@AEBV2@@Z"
"?indexAt@QColumnView@@UEBA?AVQModelIndex@@AEBVQPoint@@@Z"
"?indexAt@QHeaderView@@MEBA?AVQModelIndex@@AEBVQPoint@@@Z"
"?indexAt@QListView@@UEBA?AVQModelIndex@@AEBVQPoint@@@Z"
"?indexAt@QTableView@@UEBA?AVQModelIndex@@AEBVQPoint@@@Z"
"?indexAt@QTreeView@@UEBA?AVQModelIndex@@AEBVQPoint@@@Z"
"?indexAtPos@QTabBarPrivate@@QEBAHAEBVQPoint@@@Z"
"?indexBelow@QTreeView@@QEBA?AVQModelIndex@@AEBV2@@Z"
"?indexFromItem@QListWidget@@QEBA?AVQModelIndex@@PEBVQListWidgetItem@@@Z"
"?indexFromItem@QTableWidget@@QEBA?AVQModelIndex@@PEBVQTableWidgetItem@@@Z"
"?indexFromItem@QTreeWidget@@QEBA?AVQModelIndex@@PEBVQTreeWidgetItem@@H@Z"
"?indexOf@QLayout@@UEBAHPEBVQLayoutItem@@@Z"
"?indexOf@QLayout@@UEBAHPEBVQWidget@@@Z"
"?indexOf@QSplitter@@QEBAHPEAVQWidget@@@Z"
"?indexOf@QStackedWidget@@QEBAHPEBVQWidget@@@Z"
"?indexOf@QTabWidget@@QEBAHPEBVQWidget@@@Z"
"?indexOf@QToolBox@@QEBAHPEBVQWidget@@@Z"
"?indexOfChild@QAccessibleWidget@@UEBAHPEBVQAccessibleInterface@@@Z"
"?indexOfChild@QTreeWidgetItem@@QEBAHPEAV1@@Z"
"?indexOfTopLevelItem@QTreeWidget@@QEBAHPEAVQTreeWidgetItem@@@Z"
"?indexRowSizeHint@QTreeView@@IEBAHAEBVQModelIndex@@@Z"
"?indexWidget@QAbstractItemView@@QEBAPEAVQWidget@@AEBVQModelIndex@@@Z"
"?indexesMoved@QListView@@QEAAXAEBV?$QList@VQModelIndex@@@@@Z"
"?information@QMessageBox@@SA?AW4StandardButton@1@PEAVQWidget@@AEBVQString@@1V?$QFlags@W4StandardButton@QMessageBox@@@@W421@@Z"
"?information@QMessageBox@@SA?AW4StandardButton@1@PEAVQWidget@@AEBVQString@@1W421@2@Z"
"?information@QMessageBox@@SAHPEAVQWidget@@AEBVQString@@1111HH@Z"
"?information@QMessageBox@@SAHPEAVQWidget@@AEBVQString@@1HHH@Z"
"?informativeText@QMessageBox@@QEBA?AVQString@@XZ"
"?inheritStyle@QWidgetPrivate@@QEAAXXZ"
"?init@QApplicationPrivate@@QEAAXXZ"
"?init@QFileDialogPrivate@@QEAAXAEBUQFileDialogArgs@@@Z"
"?init@QTabBarPrivate@@QEAAXXZ"
"?init@QWidgetLineControl@@AEAAXAEBVQString@@@Z"
"?init@QWidgetPrivate@@QEAAXPEAVQWidget@@V?$QFlags@W4WindowType@Qt@@@@@Z"
"?initBasicStyleOption@QTabBarPrivate@@QEBAXPEAVQStyleOptionTab@@H@Z"
"?initFocusChain@QWidgetPrivate@@QEAAXXZ"
"?initFrom@QStyleOption@@QEAAXPEBVQWidget@@@Z"
"?initHelper@QDialogPrivate@@EEAAXPEAVQPlatformDialogHelper@@@Z"
"?initHelper@QFileDialogPrivate@@EEAAXPEAVQPlatformDialogHelper@@@Z"
"?initPainter@QWidget@@MEBAXPEAVQPainter@@@Z"
"?initStyleBaseOption@QTabBarPrivate@@SAXPEAVQStyleOptionTabBarBase@@PEAVQTabBar@@VQSize@@@Z"
"?initStyleOption@QAbstractSpinBox@@MEBAXPEAVQStyleOptionSpinBox@@@Z"
"?initStyleOption@QCheckBox@@MEBAXPEAVQStyleOptionButton@@@Z"
"?initStyleOption@QComboBox@@MEBAXPEAVQStyleOptionComboBox@@@Z"
"?initStyleOption@QCommandLinkButton@@UEBAXPEAVQStyleOptionButton@@@Z"
"?initStyleOption@QDateTimeEdit@@MEBAXPEAVQStyleOptionSpinBox@@@Z"
"?initStyleOption@QDial@@MEBAXPEAVQStyleOptionSlider@@@Z"
"?initStyleOption@QDockWidget@@MEBAXPEAVQStyleOptionDockWidget@@@Z"
"?initStyleOption@QFocusFrame@@MEBAXPEAVQStyleOption@@@Z"
"?initStyleOption@QFrame@@MEBAXPEAVQStyleOptionFrame@@@Z"
"?initStyleOption@QGraphicsItemPrivate@@QEBAXPEAVQStyleOptionGraphicsItem@@AEBVQTransform@@AEBVQRegion@@_N@Z"
"?initStyleOption@QGraphicsWidget@@MEBAXPEAVQStyleOption@@@Z"
"?initStyleOption@QGroupBox@@MEBAXPEAVQStyleOptionGroupBox@@@Z"
"?initStyleOption@QHeaderView@@EEBAXPEAVQStyleOptionFrame@@@Z"
"?initStyleOption@QHeaderView@@MEBAXPEAVQStyleOptionHeader@@@Z"
"?initStyleOption@QLineEdit@@MEBAXPEAVQStyleOptionFrame@@@Z"
"?initStyleOption@QMenu@@MEBAXPEAVQStyleOptionMenuItem@@PEBVQAction@@@Z"
"?initStyleOption@QMenuBar@@MEBAXPEAVQStyleOptionMenuItem@@PEBVQAction@@@Z"
"?initStyleOption@QProgressBar@@MEBAXPEAVQStyleOptionProgressBar@@@Z"
"?initStyleOption@QPushButton@@MEBAXPEAVQStyleOptionButton@@@Z"
"?initStyleOption@QRadioButton@@MEBAXPEAVQStyleOptionButton@@@Z"
"?initStyleOption@QRubberBand@@MEBAXPEAVQStyleOptionRubberBand@@@Z"
"?initStyleOption@QScrollBar@@MEBAXPEAVQStyleOptionSlider@@@Z"
"?initStyleOption@QSlider@@MEBAXPEAVQStyleOptionSlider@@@Z"
"?initStyleOption@QStyledItemDelegate@@MEBAXPEAVQStyleOptionViewItem@@AEBVQModelIndex@@@Z"
"?initStyleOption@QTabBar@@MEBAXPEAVQStyleOptionTab@@H@Z"
"?initStyleOption@QTabWidget@@MEBAXPEAVQStyleOptionTabWidgetFrame@@@Z"
"?initStyleOption@QToolBar@@MEBAXPEAVQStyleOptionToolBar@@@Z"
"?initStyleOption@QToolButton@@MEBAXPEAVQStyleOptionToolButton@@@Z"
"?initStyleOptionForIndex@QHeaderView@@MEBAXPEAVQStyleOptionHeader@@H@Z"
"?initViewItemOption@QAbstractItemView@@MEBAXPEAVQStyleOptionViewItem@@@Z"
"?initViewItemOption@QListView@@MEBAXPEAVQStyleOptionViewItem@@@Z"
"?initViewItemOption@QTableView@@MEBAXPEAVQStyleOptionViewItem@@@Z"
"?initialize@QApplicationPrivate@@QEAAXXZ"
"?initialize@QColormap@@SAXXZ"
"?initialize@QHeaderView@@IEAAXXZ"
"?initialize@QRhiWidget@@MEAAXPEAVQRhiCommandBuffer@@@Z"
"?initialize@QTreeViewPrivate@@QEAAXXZ"
"?initializeColumn@QColumnView@@IEBAXPEAVQAbstractItemView@@@Z"
"?initializeMultitouch@QApplicationPrivate@@QEAAXXZ"
"?initializeMultitouch_sys@QApplicationPrivate@@QEAAXXZ"
"?initializePage@QWizard@@MEAAXH@Z"
"?initializePage@QWizardPage@@UEAAXXZ"
"?initializeSections@QHeaderView@@IEAAXHH@Z"
"?initializeSections@QHeaderView@@IEAAXXZ"
"?initializeViewportFramebuffer@QWidgetPrivate@@UEAAXXZ"
"?initializeWidgetFontHash@QApplicationPrivate@@SAXXZ"
"?initializeWidgetPalettesFromTheme@QApplicationPrivate@@SAXXZ"
"?inputMask@QLineEdit@@QEBA?AVQString@@XZ"
"?inputMask@QWidgetLineControl@@QEBA?AVQString@@XZ"
"?inputMethodEvent@QAbstractItemView@@MEAAXPEAVQInputMethodEvent@@@Z"
"?inputMethodEvent@QComboBox@@MEAAXPEAVQInputMethodEvent@@@Z"
"?inputMethodEvent@QGraphicsItem@@MEAAXPEAVQInputMethodEvent@@@Z"
"?inputMethodEvent@QGraphicsProxyWidget@@MEAAXPEAVQInputMethodEvent@@@Z"
"?inputMethodEvent@QGraphicsScene@@MEAAXPEAVQInputMethodEvent@@@Z"
"?inputMethodEvent@QGraphicsTextItem@@MEAAXPEAVQInputMethodEvent@@@Z"
"?inputMethodEvent@QGraphicsView@@MEAAXPEAVQInputMethodEvent@@@Z"
"?inputMethodEvent@QLineEdit@@MEAAXPEAVQInputMethodEvent@@@Z"
"?inputMethodEvent@QPlainTextEdit@@MEAAXPEAVQInputMethodEvent@@@Z"
"?inputMethodEvent@QTextEdit@@MEAAXPEAVQInputMethodEvent@@@Z"
"?inputMethodEvent@QWidget@@MEAAXPEAVQInputMethodEvent@@@Z"
"?inputMethodHints@QGraphicsItem@@QEBA?AV?$QFlags@W4InputMethodHint@Qt@@@@XZ"
"?inputMethodHints@QWidget@@QEBA?AV?$QFlags@W4InputMethodHint@Qt@@@@XZ"
"?inputMethodQuery@QAbstractItemView@@UEBA?AVQVariant@@W4InputMethodQuery@Qt@@@Z"
"?inputMethodQuery@QAbstractSpinBox@@UEBA?AVQVariant@@W4InputMethodQuery@Qt@@@Z"
"?inputMethodQuery@QComboBox@@QEBA?AVQVariant@@W4InputMethodQuery@Qt@@AEBV2@@Z"
"?inputMethodQuery@QComboBox@@UEBA?AVQVariant@@W4InputMethodQuery@Qt@@@Z"
"?inputMethodQuery@QGraphicsItem@@MEBA?AVQVariant@@W4InputMethodQuery@Qt@@@Z"
"?inputMethodQuery@QGraphicsProxyWidget@@MEBA?AVQVariant@@W4InputMethodQuery@Qt@@@Z"
"?inputMethodQuery@QGraphicsScene@@UEBA?AVQVariant@@W4InputMethodQuery@Qt@@@Z"
"?inputMethodQuery@QGraphicsTextItem@@MEBA?AVQVariant@@W4InputMethodQuery@Qt@@@Z"
"?inputMethodQuery@QGraphicsView@@UEBA?AVQVariant@@W4InputMethodQuery@Qt@@@Z"
"?inputMethodQuery@QLineEdit@@QEBA?AVQVariant@@W4InputMethodQuery@Qt@@V2@@Z"
"?inputMethodQuery@QLineEdit@@UEBA?AVQVariant@@W4InputMethodQuery@Qt@@@Z"
"?inputMethodQuery@QPlainTextEdit@@QEBA?AVQVariant@@W4InputMethodQuery@Qt@@V2@@Z"
"?inputMethodQuery@QPlainTextEdit@@UEBA?AVQVariant@@W4InputMethodQuery@Qt@@@Z"
"?inputMethodQuery@QTextEdit@@QEBA?AVQVariant@@W4InputMethodQuery@Qt@@V2@@Z"
"?inputMethodQuery@QTextEdit@@UEBA?AVQVariant@@W4InputMethodQuery@Qt@@@Z"
"?inputMethodQuery@QWidget@@UEBA?AVQVariant@@W4InputMethodQuery@Qt@@@Z"
"?inputMethodQuery@QWidgetTextControl@@UEBA?AVQVariant@@W4InputMethodQuery@Qt@@V2@@Z"
"?inputMode@QInputDialog@@QEBA?AW4InputMode@1@XZ"
"?inputRejected@QLineEdit@@QEAAXXZ"
"?inputRejected@QWidgetLineControl@@QEAAXXZ"
"?insert@QLineEdit@@QEAAXAEBVQString@@@Z"
"?insert@QWidgetLineControl@@QEAAXAEBVQString@@@Z"
"?insertAction@QGraphicsWidget@@QEAAXPEAVQAction@@0@Z"
"?insertAction@QWidget@@QEAAXPEAVQAction@@0@Z"
"?insertActions@QGraphicsWidget@@QEAAXPEAVQAction@@AEBV?$QList@PEAVQAction@@@@@Z"
"?insertActions@QWidget@@QEAAXPEAVQAction@@AEBV?$QList@PEAVQAction@@@@@Z"
"?insertChild@QTreeWidgetItem@@QEAAXHPEAV1@@Z"
"?insertChildren@QTreeWidgetItem@@QEAAXHAEBV?$QList@PEAVQTreeWidgetItem@@@@@Z"
"?insertColumn@QTableWidget@@QEAAXH@Z"
"?insertFromMimeData@QPlainTextEdit@@MEAAXPEBVQMimeData@@@Z"
"?insertFromMimeData@QTextEdit@@MEAAXPEBVQMimeData@@@Z"
"?insertFromMimeData@QWidgetTextControl@@UEAAXPEBVQMimeData@@@Z"
"?insertHtml@QTextEdit@@QEAAXAEBVQString@@@Z"
"?insertHtml@QWidgetTextControl@@QEAAXAEBVQString@@@Z"
"?insertIntoFocusChain@QWidgetPrivate@@QEAA_NW4FocusDirection@1@PEAVQWidget@@@Z"
"?insertIntoFocusChain@QWidgetPrivate@@SA_NAEBV?$QList@PEAVQWidget@@@@W4FocusDirection@1@PEAVQWidget@@@Z"
"?insertIntoFocusChainAfter@QWidgetPrivate@@QEAA_NPEAVQWidget@@@Z"
"?insertIntoFocusChainBefore@QWidgetPrivate@@QEAA_NPEAVQWidget@@@Z"
"?insertItem@QBoxLayout@@QEAAXHPEAVQLayoutItem@@@Z"
"?insertItem@QComboBox@@QEAAXHAEBVQIcon@@AEBVQString@@AEBVQVariant@@@Z"
"?insertItem@QComboBox@@QEAAXHAEBVQString@@AEBVQVariant@@@Z"
"?insertItem@QGraphicsLinearLayout@@QEAAXHPEAVQGraphicsLayoutItem@@@Z"
"?insertItem@QListWidget@@QEAAXHAEBVQString@@@Z"
"?insertItem@QListWidget@@QEAAXHPEAVQListWidgetItem@@@Z"
"?insertItem@QToolBox@@QEAAHHPEAVQWidget@@AEBVQIcon@@AEBVQString@@@Z"
"?insertItem@QToolBox@@QEAAHHPEAVQWidget@@AEBVQString@@@Z"
"?insertItems@QComboBox@@QEAAXHAEBV?$QList@VQString@@@@@Z"
"?insertItems@QListWidget@@QEAAXHAEBV?$QList@VQString@@@@@Z"
"?insertLayout@QBoxLayout@@QEAAXHPEAVQLayout@@H@Z"
"?insertMenu@QMenu@@QEAAPEAVQAction@@PEAV2@PEAV1@@Z"
"?insertMenu@QMenuBar@@QEAAPEAVQAction@@PEAV2@PEAVQMenu@@@Z"
"?insertPermanentWidget@QStatusBar@@QEAAHHPEAVQWidget@@H@Z"
"?insertPlainText@QPlainTextEdit@@QEAAXAEBVQString@@@Z"
"?insertPlainText@QTextEdit@@QEAAXAEBVQString@@@Z"
"?insertPlainText@QWidgetTextControl@@QEAAXAEBVQString@@@Z"
"?insertPolicy@QComboBox@@QEBA?AW4InsertPolicy@1@XZ"
"?insertRow@QFormLayout@@QEAAXHAEBVQString@@PEAVQLayout@@@Z"
"?insertRow@QFormLayout@@QEAAXHAEBVQString@@PEAVQWidget@@@Z"
"?insertRow@QFormLayout@@QEAAXHPEAVQLayout@@@Z"
"?insertRow@QFormLayout@@QEAAXHPEAVQWidget@@0@Z"
"?insertRow@QFormLayout@@QEAAXHPEAVQWidget@@@Z"
"?insertRow@QFormLayout@@QEAAXHPEAVQWidget@@PEAVQLayout@@@Z"
"?insertRow@QTableWidget@@QEAAXH@Z"
"?insertSection@QMenu@@QEAAPEAVQAction@@PEAV2@AEBVQIcon@@AEBVQString@@@Z"
"?insertSection@QMenu@@QEAAPEAVQAction@@PEAV2@AEBVQString@@@Z"
"?insertSeparator@QComboBox@@QEAAXH@Z"
"?insertSeparator@QMenu@@QEAAPEAVQAction@@PEAV2@@Z"
"?insertSeparator@QMenuBar@@QEAAPEAVQAction@@PEAV2@@Z"
"?insertSeparator@QToolBar@@QEAAPEAVQAction@@PEAV2@@Z"
"?insertSpacerItem@QBoxLayout@@QEAAXHPEAVQSpacerItem@@@Z"
"?insertSpacing@QBoxLayout@@QEAAXHH@Z"
"?insertStretch@QBoxLayout@@QEAAXHH@Z"
"?insertStretch@QGraphicsLinearLayout@@QEAAXHH@Z"
"?insertTab@QTabBar@@QEAAHHAEBVQIcon@@AEBVQString@@@Z"
"?insertTab@QTabBar@@QEAAHHAEBVQString@@@Z"
"?insertTab@QTabWidget@@QEAAHHPEAVQWidget@@AEBVQIcon@@AEBVQString@@@Z"
"?insertTab@QTabWidget@@QEAAHHPEAVQWidget@@AEBVQString@@@Z"
"?insertToolBar@QMainWindow@@QEAAXPEAVQToolBar@@0@Z"
"?insertToolBarBreak@QMainWindow@@QEAAXPEAVQToolBar@@@Z"
"?insertTopLevelItem@QTreeWidget@@QEAAXHPEAVQTreeWidgetItem@@@Z"
"?insertTopLevelItems@QTreeWidget@@QEAAXHAEBV?$QList@PEAVQTreeWidgetItem@@@@@Z"
"?insertViewItems@QTreeViewPrivate@@QEAAXHHAEBUQTreeViewItem@@@Z"
"?insertWidget@QBoxLayout@@QEAAXHPEAVQWidget@@HV?$QFlags@W4AlignmentFlag@Qt@@@@@Z"
"?insertWidget@QSplitter@@QEAAXHPEAVQWidget@@@Z"
"?insertWidget@QStackedLayout@@QEAAHHPEAVQWidget@@@Z"
"?insertWidget@QStackedWidget@@QEAAHHPEAVQWidget@@@Z"
"?insertWidget@QStatusBar@@QEAAHHPEAVQWidget@@H@Z"
"?insertWidget@QToolBar@@QEAAPEAVQAction@@PEAV2@PEAVQWidget@@@Z"
"?insertionOrder@QGraphicsItemPrivate@@SA_NPEAVQGraphicsItem@@0@Z"
"?installSceneEventFilter@QGraphicsItem@@QEAAXPEAV1@@Z"
"?instance@QApplicationPrivate@@SAPEAV1@XZ"
"?instance@QColormap@@SA?AV1@H@Z"
"?instanceCounter@QWidgetPrivate@@2HA"
"?instantInvalidatePropagation@QGraphicsLayout@@SA_NXZ"
"?intMaximum@QInputDialog@@QEBAHXZ"
"?intMinimum@QInputDialog@@QEBAHXZ"
"?intStep@QInputDialog@@QEBAHXZ"
"?intValue@QInputDialog@@QEBAHXZ"
"?intValue@QLCDNumber@@QEBAHXZ"
"?intValueChanged@QInputDialog@@QEAAXH@Z"
"?intValueSelected@QInputDialog@@QEAAXH@Z"
"?interface_cast@QAccessibleWidget@@UEAAPEAXW4InterfaceType@QAccessible@@@Z"
"?internalDelayedPopup@QMenu@@AEAAXXZ"
"?internalDelete@QWidgetLineControl@@AEAAX_N@Z"
"?internalDeselect@QWidgetLineControl@@AEAAXXZ"
"?internalInsert@QWidgetLineControl@@AEAAXAEBVQString@@@Z"
"?internalRedo@QWidgetLineControl@@AEAAXXZ"
"?internalSetText@QWidgetLineControl@@AEAAXAEBVQString@@H_N@Z"
"?internalUndo@QWidgetLineControl@@AEAAXH@Z"
"?internalWinId@QWidget@@QEBA_KXZ"
"?interpretText@QAbstractSpinBox@@QEAAXXZ"
"?intersectedRect@QTreeViewPrivate@@UEBA?AVQRect@@V2@AEBVQModelIndex@@1@Z"
"?invalidate@QBoxLayout@@UEAAXXZ"
"?invalidate@QFormLayout@@UEAAXXZ"
"?invalidate@QGraphicsAnchorLayout@@UEAAXXZ"
"?invalidate@QGraphicsGridLayout@@UEAAXXZ"
"?invalidate@QGraphicsLayout@@UEAAXXZ"
"?invalidate@QGraphicsLinearLayout@@UEAAXXZ"
"?invalidate@QGraphicsScene@@QEAAXAEBVQRectF@@V?$QFlags@W4SceneLayer@QGraphicsScene@@@@@Z"
"?invalidate@QGraphicsScene@@QEAAXNNNNV?$QFlags@W4SceneLayer@QGraphicsScene@@@@@Z"
"?invalidate@QGridLayout@@UEAAXXZ"
"?invalidate@QLayout@@UEAAXXZ"
"?invalidate@QLayoutItem@@UEAAXXZ"
"?invalidateBackingStore_resizeHelper@QWidgetPrivate@@QEAAXAEBVQPoint@@AEBVQSize@@@Z"
"?invalidateChildGraphicsEffectsRecursively@QGraphicsItemPrivate@@QEAAXW4InvalidateReason@1@@Z"
"?invalidateChildrenSceneTransform@QGraphicsItemPrivate@@QEAAXXZ"
"?invalidateDepthRecursively@QGraphicsItemPrivate@@QEAAXXZ"
"?invalidateGraphicsEffectsRecursively@QWidgetPrivate@@QEAAXXZ"
"?invalidateHeightCache@QTreeViewPrivate@@QEBAXH@Z"
"?invalidateParentGraphicsEffectsRecursively@QGraphicsItemPrivate@@QEAAXXZ"
"?invalidateScene@QGraphicsView@@QEAAXAEBVQRectF@@V?$QFlags@W4SceneLayer@QGraphicsScene@@@@@Z"
"?invalidateSizeCache@QWidgetItemV2@@AEAAXXZ"
"?invertedAppearance@QAbstractSlider@@QEBA_NXZ"
"?invertedAppearance@QProgressBar@@QEBA_NXZ"
"?invertedControls@QAbstractSlider@@QEBA_NXZ"
"?invisibleRootItem@QTreeWidget@@QEBAPEAVQTreeWidgetItem@@XZ"
"?isAboutToShow@QWidgetPrivate@@QEBA_NXZ"
"?isAccelerated@QAbstractSpinBox@@QEBA_NXZ"
"?isAccepted@QGestureEvent@@QEBA_NPEAVQGesture@@@Z"
"?isAccepted@QGestureEvent@@QEBA_NW4GestureType@Qt@@@Z"
"?isActivated@QGraphicsLayout@@QEBA_NXZ"
"?isActive@QGraphicsItem@@QEBA_NXZ"
"?isActive@QGraphicsScene@@QEBA_NXZ"
"?isActiveWindow@QGraphicsWidget@@QEBA_NXZ"
"?isActiveWindow@QWidget@@QEBA_NXZ"
"?isAlien@QApplicationPrivate@@CA_NPEAVQWidget@@@Z"
"?isAncestorOf@QGraphicsItem@@QEBA_NPEBV1@@Z"
"?isAncestorOf@QWidget@@QEBA_NPEBV1@@Z"
"?isAnimated@QMainWindow@@QEBA_NXZ"
"?isAnimated@QTabBarPrivate@@QEBA_NXZ"
"?isAnimated@QTreeView@@QEBA_NXZ"
"?isAreaAllowed@QDockWidget@@QEBA_NW4DockWidgetArea@Qt@@@Z"
"?isAreaAllowed@QToolBar@@QEBA_NW4ToolBarArea@Qt@@@Z"
"?isAutoRenderTargetEnabled@QRhiWidget@@IEBA_NXZ"
"?isBackwardAvailable@QTextBrowser@@QEBA_NXZ"
"?isBlockedByModal@QApplicationPrivate@@SA_NPEAVQWidget@@@Z"
"?isBlockedByModalPanel@QGraphicsItem@@QEBA_NPEAPEAV1@@Z"
"?isCheckable@QAbstractButton@@QEBA_NXZ"
"?isCheckable@QGroupBox@@QEBA_NXZ"
"?isChecked@QAbstractButton@@QEBA_NXZ"
"?isChecked@QGroupBox@@QEBA_NXZ"
"?isClearButtonEnabled@QKeySequenceEdit@@QEBA_NXZ"
"?isClearButtonEnabled@QLineEdit@@QEBA_NXZ"
"?isClipped@QGraphicsItem@@QEBA_NXZ"
"?isCollapsible@QSplitter@@QEBA_NH@Z"
"?isColumnHidden@QTableView@@QEBA_NH@Z"
"?isColumnHidden@QTreeView@@QEBA_NH@Z"
"?isComboBoxEditable@QInputDialog@@QEBA_NXZ"
"?isCommitPage@QWizardPage@@QEBA_NXZ"
"?isComplete@QWizardPage@@UEBA_NXZ"
"?isCornerButtonEnabled@QTableView@@QEBA_NXZ"
"?isDateEditEnabled@QCalendarWidget@@QEBA_NXZ"
"?isDebugLayerEnabled@QRhiWidget@@QEBA_NXZ"
"?isDefault@QPushButton@@QEBA_NXZ"
"?isDefaultUp@QMenuBar@@QEBA_NXZ"
"?isDirty@QWidgetRepaintManager@@QEBA_NXZ"
"?isDisabled@QTreeWidgetItem@@QEBA_NXZ"
"?isDockNestingEnabled@QMainWindow@@QEBA_NXZ"
"?isDown@QAbstractButton@@QEBA_NXZ"
"?isDragEnabled@QWidgetTextControl@@QEBA_NXZ"
"?isEditable@QComboBox@@QEBA_NXZ"
"?isEffectEnabled@QApplication@@SA_NW4UIEffect@Qt@@@Z"
"?isEmpty@QGraphicsLayoutItem@@UEBA_NXZ"
"?isEmpty@QLayout@@UEBA_NXZ"
"?isEmpty@QMenu@@QEBA_NXZ"
"?isEmpty@QSpacerItem@@UEBA_NXZ"
"?isEmpty@QWidgetItem@@UEBA_NXZ"
"?isEnabled@QGraphicsEffect@@QEBA_NXZ"
"?isEnabled@QGraphicsItem@@QEBA_NXZ"
"?isEnabled@QLayout@@QEBA_NXZ"
"?isEnabled@QWidget@@QEBA_NXZ"
"?isEnabledTo@QWidget@@QEBA_NPEBV1@@Z"
"?isExpanded@QTreeView@@QEBA_NAEBVQModelIndex@@@Z"
"?isExpanded@QTreeWidgetItem@@QEBA_NXZ"
"?isExplicitlyHidden@QWidgetPrivate@@QEBA_NXZ"
"?isFinalPage@QWizardPage@@QEBA_NXZ"
"?isFirstColumnSpanned@QTreeView@@QEBA_NHAEBVQModelIndex@@@Z"
"?isFirstColumnSpanned@QTreeWidgetItem@@QEBA_NXZ"
"?isFirstSectionMovable@QHeaderView@@QEBA_NXZ"
"?isFlat@QGroupBox@@QEBA_NXZ"
"?isFlat@QPushButton@@QEBA_NXZ"
"?isFloatable@QToolBar@@QEBA_NXZ"
"?isFloating@QDockWidget@@QEBA_NXZ"
"?isFloating@QToolBar@@QEBA_NXZ"
"?isFocusChainConsistent@QWidgetPrivate@@QEBA_NXZ"
"?isForwardAvailable@QTextBrowser@@QEBA_NXZ"
"?isFullScreen@QWidget@@QEBA_NXZ"
"?isFullyTransparent@QGraphicsItemPrivate@@QEBA_NXZ"
"?isGridVisible@QCalendarWidget@@QEBA_NXZ"
"?isGroupSeparatorShown@QAbstractSpinBox@@QEBA_NXZ"
"?isHeaderHidden@QTreeView@@QEBA_NXZ"
"?isHidden@QListWidgetItem@@QEBA_NXZ"
"?isHidden@QTreeWidgetItem@@QEBA_NXZ"
"?isHidden@QWidget@@QEBA_NXZ"
"?isInFocusChain@QWidgetPrivate@@QEBA_NXZ"
"?isIndexExpanded@QTreeViewPrivate@@QEBA_NAEBVQModelIndex@@@Z"
"?isIndexHidden@QColumnView@@MEBA_NAEBVQModelIndex@@@Z"
"?isIndexHidden@QHeaderView@@MEBA_NAEBVQModelIndex@@@Z"
"?isIndexHidden@QListView@@MEBA_NAEBVQModelIndex@@@Z"
"?isIndexHidden@QTableView@@MEBA_NAEBVQModelIndex@@@Z"
"?isIndexHidden@QTreeView@@MEBA_NAEBVQModelIndex@@@Z"
"?isInstanceOf@QStyleHelper@@YA_NPEAVQObject@@W4Role@QAccessible@@@Z"
"?isInteractive@QGraphicsView@@QEBA_NXZ"
"?isInverted@QGraphicsSceneWheelEvent@@QEBA_NXZ"
"?isInvisible@QGraphicsItemPrivate@@QEBA_NXZ"
"?isItemEnabled@QToolBox@@QEBA_NH@Z"
"?isItemHiddenOrDisabled@QTreeViewPrivate@@QEBA_NH@Z"
"?isLayout@QGraphicsLayoutItem@@QEBA_NXZ"
"?isLeftToRight@QWidget@@QEBA_NXZ"
"?isMaximized@QWidget@@QEBA_NXZ"
"?isMinimized@QWidget@@QEBA_NXZ"
"?isMirrorVerticallyEnabled@QRhiWidget@@QEBA_NXZ"
"?isModal@QWidget@@QEBA_NXZ"
"?isModified@QLineEdit@@QEBA_NXZ"
"?isModified@QWidgetLineControl@@QEBA_NXZ"
"?isMovable@QTabBar@@QEBA_NXZ"
"?isMovable@QTabWidget@@QEBA_NXZ"
"?isMovable@QToolBar@@QEBA_NXZ"
"?isNativeMenuBar@QMenuBar@@QEBA_NXZ"
"?isNavigationBarVisible@QCalendarWidget@@QEBA_NXZ"
"?isObscured@QGraphicsItem@@QEBA_NAEBVQRectF@@@Z"
"?isObscured@QGraphicsItem@@QEBA_NNNNN@Z"
"?isObscuredBy@QAbstractGraphicsShapeItem@@UEBA_NPEBVQGraphicsItem@@@Z"
"?isObscuredBy@QGraphicsEllipseItem@@UEBA_NPEBVQGraphicsItem@@@Z"
"?isObscuredBy@QGraphicsItem@@UEBA_NPEBV1@@Z"
"?isObscuredBy@QGraphicsItemGroup@@UEBA_NPEBVQGraphicsItem@@@Z"
"?isObscuredBy@QGraphicsLineItem@@UEBA_NPEBVQGraphicsItem@@@Z"
"?isObscuredBy@QGraphicsPathItem@@UEBA_NPEBVQGraphicsItem@@@Z"
"?isObscuredBy@QGraphicsPixmapItem@@UEBA_NPEBVQGraphicsItem@@@Z"
"?isObscuredBy@QGraphicsPolygonItem@@UEBA_NPEBVQGraphicsItem@@@Z"
"?isObscuredBy@QGraphicsRectItem@@UEBA_NPEBVQGraphicsItem@@@Z"
"?isObscuredBy@QGraphicsSimpleTextItem@@UEBA_NPEBVQGraphicsItem@@@Z"
"?isObscuredBy@QGraphicsTextItem@@UEBA_NPEBVQGraphicsItem@@@Z"
"?isOpacityNull@QGraphicsItemPrivate@@QEBA_NXZ"
"?isOpacityNull@QGraphicsItemPrivate@@SA_NN@Z"
"?isOverlapped@QWidgetPrivate@@QEBA_NAEBVQRect@@@Z"
"?isPanel@QGraphicsItem@@QEBA_NXZ"
"?isPersistentEditorOpen@QAbstractItemView@@QEBA_NAEBVQModelIndex@@@Z"
"?isPersistentEditorOpen@QListWidget@@QEBA_NPEAVQListWidgetItem@@@Z"
"?isPersistentEditorOpen@QTableWidget@@QEBA_NPEAVQTableWidgetItem@@@Z"
"?isPersistentEditorOpen@QTreeWidget@@QEBA_NPEAVQTreeWidgetItem@@H@Z"
"?isPixmap@QGraphicsEffectSource@@QEBA_NXZ"
"?isPreediting@QWidgetTextControl@@QEAA_NXZ"
"?isProxyWidget@QGraphicsItemPrivate@@UEBA_NXZ"
"?isReadOnly@QAbstractSpinBox@@QEBA_NXZ"
"?isReadOnly@QLineEdit@@QEBA_NXZ"
"?isReadOnly@QPlainTextEdit@@QEBA_NXZ"
"?isReadOnly@QTextEdit@@QEBA_NXZ"
"?isReadOnly@QWidgetLineControl@@QEBA_NXZ"
"?isRedoAvailable@QLineEdit@@QEBA_NXZ"
"?isRedoAvailable@QWidgetLineControl@@QEBA_NXZ"
"?isRightToLeft@QWidget@@QEBA_NXZ"
"?isRowHidden@QListView@@QEBA_NH@Z"
"?isRowHidden@QTableView@@QEBA_NH@Z"
"?isRowHidden@QTreeView@@QEBA_NHAEBVQModelIndex@@@Z"
"?isRowHidden@QTreeViewPrivate@@QEBA_NAEBVQModelIndex@@@Z"
"?isRowVisible@QFormLayout@@QEBA_NH@Z"
"?isRowVisible@QFormLayout@@QEBA_NPEAVQLayout@@@Z"
"?isRowVisible@QFormLayout@@QEBA_NPEAVQWidget@@@Z"
"?isSectionHidden@QHeaderView@@QEBA_NH@Z"
"?isSelected@QGraphicsItem@@QEBA_NXZ"
"?isSelected@QListWidgetItem@@QEBA_NXZ"
"?isSelected@QTableWidgetItem@@QEBA_NXZ"
"?isSelected@QTreeWidgetItem@@QEBA_NXZ"
"?isSelectionRectVisible@QListView@@QEBA_NXZ"
"?isSeparator@QMainWindow@@QEBA_NAEBVQPoint@@@Z"
"?isShaded@QMdiSubWindow@@QEBA_NXZ"
"?isSizeGripEnabled@QDialog@@QEBA_NXZ"
"?isSizeGripEnabled@QStatusBar@@QEBA_NXZ"
"?isSliderDown@QAbstractSlider@@QEBA_NXZ"
"?isSortIndicatorClearable@QHeaderView@@QEBA_NXZ"
"?isSortIndicatorShown@QHeaderView@@QEBA_NXZ"
"?isSortingEnabled@QListWidget@@QEBA_NXZ"
"?isSortingEnabled@QTableView@@QEBA_NXZ"
"?isSortingEnabled@QTableWidget@@QEBA_NXZ"
"?isSortingEnabled@QTreeView@@QEBA_NXZ"
"?isStereoEnabled@QWidgetPrivate@@UEAA_NXZ"
"?isSystemTrayAvailable@QSystemTrayIcon@@SA_NXZ"
"?isTabEnabled@QTabBar@@QEBA_NH@Z"
"?isTabEnabled@QTabWidget@@QEBA_NH@Z"
"?isTabVisible@QTabBar@@QEBA_NH@Z"
"?isTabVisible@QTabWidget@@QEBA_NH@Z"
"?isTearOffEnabled@QMenu@@QEBA_NXZ"
"?isTearOffMenuVisible@QMenu@@QEBA_NXZ"
"?isTextVisible@QProgressBar@@QEBA_NXZ"
"?isTopLevel@QWidget@@QEBA_NXZ"
"?isTransformed@QGraphicsView@@QEBA_NXZ"
"?isTreePosition@QTreeViewPrivate@@QEBA_NH@Z"
"?isTristate@QCheckBox@@QEBA_NXZ"
"?isUnderMouse@QGraphicsItem@@QEBA_NXZ"
"?isUndoAvailable@QLineEdit@@QEBA_NXZ"
"?isUndoAvailable@QWidgetLineControl@@QEBA_NXZ"
"?isUndoRedoEnabled@QPlainTextEdit@@QEBA_NXZ"
"?isUndoRedoEnabled@QTextEdit@@QEBA_NXZ"
"?isUpdateNeeded@QNumberStyleAnimation@@MEBA_NXZ"
"?isUpdateNeeded@QProgressStyleAnimation@@MEBA_NXZ"
"?isUpdateNeeded@QStyleAnimation@@MEBA_NXZ"
"?isValid@QAccessibleWidget@@UEBA_NXZ"
"?isValidInput@QWidgetLineControl@@AEBA_NVQChar@@0@Z"
"?isViewItemCached@QCommonStylePrivate@@QEBA_NAEBVQStyleOptionViewItem@@@Z"
"?isVisible@QGraphicsItem@@QEBA_NXZ"
"?isVisible@QSystemTrayIcon@@QEBA_NXZ"
"?isVisible@QToolTip@@SA_NXZ"
"?isVisible@QWidget@@QEBA_NXZ"
"?isVisibleTo@QGraphicsItem@@QEBA_NPEBV1@@Z"
"?isVisibleTo@QWidget@@QEBA_NPEBV1@@Z"
"?isWidget@QGraphicsItem@@QEBA_NXZ"
"?isWindow@QGraphicsItem@@QEBA_NXZ"
"?isWindow@QWidget@@QEBA_NXZ"
"?isWindowModified@QWidget@@QEBA_NXZ"
"?isWordSelectionEnabled@QWidgetTextControl@@QEBA_NXZ"
"?isWrapping@QListView@@QEBA_NXZ"
"?item@QGraphicsItemAnimation@@QEBAPEAVQGraphicsItem@@XZ"
"?item@QListWidget@@QEBAPEAVQListWidgetItem@@H@Z"
"?item@QTableWidget@@QEBAPEAVQTableWidgetItem@@HH@Z"
"?itemAbove@QTreeWidget@@QEBAPEAVQTreeWidgetItem@@PEBV2@@Z"
"?itemActivated@QListWidget@@QEAAXPEAVQListWidgetItem@@@Z"
"?itemActivated@QTableWidget@@QEAAXPEAVQTableWidgetItem@@@Z"
"?itemActivated@QTreeWidget@@QEAAXPEAVQTreeWidgetItem@@H@Z"
"?itemAlignment@QListView@@QEBA?AV?$QFlags@W4AlignmentFlag@Qt@@@@XZ"
"?itemAlreadyExists@QFileDialogPrivate@@AEAA_NAEBVQString@@@Z"
"?itemAt@QBoxLayout@@UEBAPEAVQLayoutItem@@H@Z"
"?itemAt@QDockWidgetLayout@@UEBAPEAVQLayoutItem@@H@Z"
"?itemAt@QFormLayout@@QEBAPEAVQLayoutItem@@HW4ItemRole@1@@Z"
"?itemAt@QFormLayout@@UEBAPEAVQLayoutItem@@H@Z"
"?itemAt@QGraphicsAnchorLayout@@UEBAPEAVQGraphicsLayoutItem@@H@Z"
"?itemAt@QGraphicsGridLayout@@QEBAPEAVQGraphicsLayoutItem@@HH@Z"
"?itemAt@QGraphicsGridLayout@@UEBAPEAVQGraphicsLayoutItem@@H@Z"
"?itemAt@QGraphicsLinearLayout@@UEBAPEAVQGraphicsLayoutItem@@H@Z"
"?itemAt@QGraphicsScene@@QEBAPEAVQGraphicsItem@@AEBVQPointF@@AEBVQTransform@@@Z"
"?itemAt@QGraphicsScene@@QEBAPEAVQGraphicsItem@@NNAEBVQTransform@@@Z"
"?itemAt@QGraphicsView@@QEBAPEAVQGraphicsItem@@AEBVQPoint@@@Z"
"?itemAt@QGraphicsView@@QEBAPEAVQGraphicsItem@@HH@Z"
"?itemAt@QGridLayout@@UEBAPEAVQLayoutItem@@H@Z"
"?itemAt@QListWidget@@QEBAPEAVQListWidgetItem@@AEBVQPoint@@@Z"
"?itemAt@QListWidget@@QEBAPEAVQListWidgetItem@@HH@Z"
"?itemAt@QStackedLayout@@UEBAPEAVQLayoutItem@@H@Z"
"?itemAt@QTableWidget@@QEBAPEAVQTableWidgetItem@@AEBVQPoint@@@Z"
"?itemAt@QTableWidget@@QEBAPEAVQTableWidgetItem@@HH@Z"
"?itemAt@QTreeWidget@@QEBAPEAVQTreeWidgetItem@@AEBVQPoint@@@Z"
"?itemAt@QTreeWidget@@QEBAPEAVQTreeWidgetItem@@HH@Z"
"?itemAtCoordinate@QTreeViewPrivate@@QEBAHH@Z"
"?itemAtPosition@QGridLayout@@QEBAPEAVQLayoutItem@@HH@Z"
"?itemBelow@QTreeWidget@@QEBAPEAVQTreeWidgetItem@@PEBV2@@Z"
"?itemChange@QGraphicsItem@@MEAA?AVQVariant@@W4GraphicsItemChange@1@AEBV2@@Z"
"?itemChange@QGraphicsProxyWidget@@MEAA?AVQVariant@@W4GraphicsItemChange@QGraphicsItem@@AEBV2@@Z"
"?itemChange@QGraphicsWidget@@MEAA?AVQVariant@@W4GraphicsItemChange@QGraphicsItem@@AEBV2@@Z"
"?itemChanged@QListWidget@@QEAAXPEAVQListWidgetItem@@@Z"
"?itemChanged@QTableWidget@@QEAAXPEAVQTableWidgetItem@@@Z"
"?itemChanged@QTreeWidget@@QEAAXPEAVQTreeWidgetItem@@H@Z"
"?itemChanged@QTreeWidgetItem@@AEAAXXZ"
"?itemClicked@QListWidget@@QEAAXPEAVQListWidgetItem@@@Z"
"?itemClicked@QTableWidget@@QEAAXPEAVQTableWidgetItem@@@Z"
"?itemClicked@QTreeWidget@@QEAAXPEAVQTreeWidgetItem@@H@Z"
"?itemCollapsed@QTreeWidget@@QEAAXPEAVQTreeWidgetItem@@@Z"
"?itemData@QComboBox@@QEBA?AVQVariant@@HH@Z"
"?itemDecorationAt@QTreeViewPrivate@@QEBAHAEBVQPoint@@@Z"
"?itemDecorationRect@QTreeViewPrivate@@QEBA?AVQRect@@AEBVQModelIndex@@@Z"
"?itemDelegate@QAbstractItemView@@QEBAPEAVQAbstractItemDelegate@@AEBVQModelIndex@@@Z"
"?itemDelegate@QAbstractItemView@@QEBAPEAVQAbstractItemDelegate@@XZ"
"?itemDelegate@QComboBox@@QEBAPEAVQAbstractItemDelegate@@XZ"
"?itemDelegate@QDataWidgetMapper@@QEBAPEAVQAbstractItemDelegate@@XZ"
"?itemDelegate@QFileDialog@@QEBAPEAVQAbstractItemDelegate@@XZ"
"?itemDelegateForColumn@QAbstractItemView@@QEBAPEAVQAbstractItemDelegate@@H@Z"
"?itemDelegateForIndex@QAbstractItemView@@UEBAPEAVQAbstractItemDelegate@@AEBVQModelIndex@@@Z"
"?itemDelegateForRow@QAbstractItemView@@QEBAPEAVQAbstractItemDelegate@@H@Z"
"?itemDoubleClicked@QListWidget@@QEAAXPEAVQListWidgetItem@@@Z"
"?itemDoubleClicked@QTableWidget@@QEAAXPEAVQTableWidgetItem@@@Z"
"?itemDoubleClicked@QTreeWidget@@QEAAXPEAVQTreeWidgetItem@@H@Z"
"?itemEditorFactory@QItemDelegate@@QEBAPEAVQItemEditorFactory@@XZ"
"?itemEditorFactory@QStyledItemDelegate@@QEBAPEAVQItemEditorFactory@@XZ"
"?itemEntered@QListWidget@@QEAAXPEAVQListWidgetItem@@@Z"
"?itemEntered@QTableWidget@@QEAAXPEAVQTableWidgetItem@@@Z"
"?itemEntered@QTreeWidget@@QEAAXPEAVQTreeWidgetItem@@H@Z"
"?itemExpanded@QTreeWidget@@QEAAXPEAVQTreeWidgetItem@@@Z"
"?itemForKeyEnd@QTreeViewPrivate@@QEBAHXZ"
"?itemForKeyHome@QTreeViewPrivate@@QEBAHXZ"
"?itemForRole@QDockWidgetLayout@@QEBAPEAVQLayoutItem@@W4Role@1@@Z"
"?itemFromIndex@QListWidget@@QEBAPEAVQListWidgetItem@@AEBVQModelIndex@@@Z"
"?itemFromIndex@QTableWidget@@QEBAPEAVQTableWidgetItem@@AEBVQModelIndex@@@Z"
"?itemFromIndex@QTreeWidget@@QEBAPEAVQTreeWidgetItem@@AEBVQModelIndex@@@Z"
"?itemHeight@QTreeViewPrivate@@QEBAHH@Z"
"?itemIcon@QComboBox@@QEBA?AVQIcon@@H@Z"
"?itemIcon@QToolBox@@QEBA?AVQIcon@@H@Z"
"?itemIndexMethod@QGraphicsScene@@QEBA?AW4ItemIndexMethod@1@XZ"
"?itemInserted@QToolBox@@MEAAXH@Z"
"?itemIsUntransformable@QGraphicsItemPrivate@@QEBA_NXZ"
"?itemNotFound@QFileDialogPrivate@@AEAAXAEBVQString@@W4FileMode@QFileDialog@@@Z"
"?itemPixmapRect@QFusionStyle@@UEBA?AVQRect@@AEBV2@HAEBVQPixmap@@@Z"
"?itemPixmapRect@QProxyStyle@@UEBA?AVQRect@@AEBV2@HAEBVQPixmap@@@Z"
"?itemPixmapRect@QStyle@@UEBA?AVQRect@@AEBV2@HAEBVQPixmap@@@Z"
"?itemPressed@QListWidget@@QEAAXPEAVQListWidgetItem@@@Z"
"?itemPressed@QTableWidget@@QEAAXPEAVQTableWidgetItem@@@Z"
"?itemPressed@QTreeWidget@@QEAAXPEAVQTreeWidgetItem@@H@Z"
"?itemPrototype@QTableWidget@@QEBAPEBVQTableWidgetItem@@XZ"
"?itemRemoved@QToolBox@@MEAAXH@Z"
"?itemSelected@QComboBoxPrivateContainer@@QEAAXAEBVQModelIndex@@@Z"
"?itemSelectionChanged@QListWidget@@QEAAXXZ"
"?itemSelectionChanged@QTableWidget@@QEAAXXZ"
"?itemSelectionChanged@QTreeWidget@@QEAAXXZ"
"?itemSpacing@QGraphicsLinearLayout@@QEBANH@Z"
"?itemText@QComboBox@@QEBA?AVQString@@H@Z"
"?itemText@QToolBox@@QEBA?AVQString@@H@Z"
"?itemTextRect@QProxyStyle@@UEBA?AVQRect@@AEBVQFontMetrics@@AEBV2@H_NAEBVQString@@@Z"
"?itemTextRect@QStyle@@UEBA?AVQRect@@AEBVQFontMetrics@@AEBV2@H_NAEBVQString@@@Z"
"?itemToolTip@QToolBox@@QEBA?AVQString@@H@Z"
"?itemTransform@QGraphicsItem@@QEBA?AVQTransform@@PEBV1@PEA_N@Z"
"?itemView@QComboBoxPrivateContainer@@QEBAPEAVQAbstractItemView@@XZ"
"?itemViewKeyboardEvent@QFileDialogPrivate@@QEAA_NPEAVQKeyEvent@@@Z"
"?itemViewSizeFromContents@QPixmapStyle@@IEBA?AVQSize@@PEBVQStyleOption@@AEBV2@PEBVQWidget@@@Z"
"?itemWidget@QListWidget@@QEBAPEAVQWidget@@PEAVQListWidgetItem@@@Z"
"?itemWidget@QTreeWidget@@QEBAPEAVQWidget@@PEAVQTreeWidgetItem@@H@Z"
"?items@QGraphicsScene@@QEBA?AV?$QList@PEAVQGraphicsItem@@@@AEBVQPainterPath@@W4ItemSelectionMode@Qt@@W4SortOrder@5@AEBVQTransform@@@Z"
"?items@QGraphicsScene@@QEBA?AV?$QList@PEAVQGraphicsItem@@@@AEBVQPointF@@W4ItemSelectionMode@Qt@@W4SortOrder@5@AEBVQTransform@@@Z"
"?items@QGraphicsScene@@QEBA?AV?$QList@PEAVQGraphicsItem@@@@AEBVQPolygonF@@W4ItemSelectionMode@Qt@@W4SortOrder@5@AEBVQTransform@@@Z"
"?items@QGraphicsScene@@QEBA?AV?$QList@PEAVQGraphicsItem@@@@AEBVQRectF@@W4ItemSelectionMode@Qt@@W4SortOrder@5@AEBVQTransform@@@Z"
"?items@QGraphicsScene@@QEBA?AV?$QList@PEAVQGraphicsItem@@@@NNNNW4ItemSelectionMode@Qt@@W4SortOrder@4@AEBVQTransform@@@Z"
"?items@QGraphicsScene@@QEBA?AV?$QList@PEAVQGraphicsItem@@@@W4SortOrder@Qt@@@Z"
"?items@QGraphicsView@@QEBA?AV?$QList@PEAVQGraphicsItem@@@@AEBVQPainterPath@@W4ItemSelectionMode@Qt@@@Z"
"?items@QGraphicsView@@QEBA?AV?$QList@PEAVQGraphicsItem@@@@AEBVQPoint@@@Z"
"?items@QGraphicsView@@QEBA?AV?$QList@PEAVQGraphicsItem@@@@AEBVQPolygon@@W4ItemSelectionMode@Qt@@@Z"
"?items@QGraphicsView@@QEBA?AV?$QList@PEAVQGraphicsItem@@@@AEBVQRect@@W4ItemSelectionMode@Qt@@@Z"
"?items@QGraphicsView@@QEBA?AV?$QList@PEAVQGraphicsItem@@@@HH@Z"
"?items@QGraphicsView@@QEBA?AV?$QList@PEAVQGraphicsItem@@@@HHHHW4ItemSelectionMode@Qt@@@Z"
"?items@QGraphicsView@@QEBA?AV?$QList@PEAVQGraphicsItem@@@@XZ"
"?items@QListWidget@@QEBA?AV?$QList@PEAVQListWidgetItem@@@@PEBVQMimeData@@@Z"
"?items@QTableWidget@@QEBA?AV?$QList@PEAVQTableWidgetItem@@@@PEBVQMimeData@@@Z"
"?itemsBoundingRect@QGraphicsScene@@QEBA?AVQRectF@@XZ"
"?itemsExpandable@QTreeView@@QEBA_NXZ"
"?keyBindingsForAction@QAccessibleWidget@@UEBA?AV?$QList@VQString@@@@AEBVQString@@@Z"
"?keyPressEvent@QAbstractButton@@MEAAXPEAVQKeyEvent@@@Z"
"?keyPressEvent@QAbstractItemView@@MEAAXPEAVQKeyEvent@@@Z"
"?keyPressEvent@QAbstractScrollArea@@MEAAXPEAVQKeyEvent@@@Z"
"?keyPressEvent@QAbstractSlider@@MEAAXPEAVQKeyEvent@@@Z"
"?keyPressEvent@QAbstractSpinBox@@MEAAXPEAVQKeyEvent@@@Z"
"?keyPressEvent@QCalendarWidget@@MEAAXPEAVQKeyEvent@@@Z"
"?keyPressEvent@QComboBox@@MEAAXPEAVQKeyEvent@@@Z"
"?keyPressEvent@QDateTimeEdit@@MEAAXPEAVQKeyEvent@@@Z"
"?keyPressEvent@QDialog@@MEAAXPEAVQKeyEvent@@@Z"
"?keyPressEvent@QGraphicsItem@@MEAAXPEAVQKeyEvent@@@Z"
"?keyPressEvent@QGraphicsProxyWidget@@MEAAXPEAVQKeyEvent@@@Z"
"?keyPressEvent@QGraphicsScene@@MEAAXPEAVQKeyEvent@@@Z"
"?keyPressEvent@QGraphicsTextItem@@MEAAXPEAVQKeyEvent@@@Z"
"?keyPressEvent@QGraphicsView@@MEAAXPEAVQKeyEvent@@@Z"
"?keyPressEvent@QKeySequenceEdit@@MEAAXPEAVQKeyEvent@@@Z"
"?keyPressEvent@QLabel@@MEAAXPEAVQKeyEvent@@@Z"
"?keyPressEvent@QLineEdit@@MEAAXPEAVQKeyEvent@@@Z"
"?keyPressEvent@QMdiSubWindow@@MEAAXPEAVQKeyEvent@@@Z"
"?keyPressEvent@QMenu@@MEAAXPEAVQKeyEvent@@@Z"
"?keyPressEvent@QMenuBar@@MEAAXPEAVQKeyEvent@@@Z"
"?keyPressEvent@QMessageBox@@MEAAXPEAVQKeyEvent@@@Z"
"?keyPressEvent@QPlainTextEdit@@MEAAXPEAVQKeyEvent@@@Z"
"?keyPressEvent@QPushButton@@MEAAXPEAVQKeyEvent@@@Z"
"?keyPressEvent@QTabBar@@MEAAXPEAVQKeyEvent@@@Z"
"?keyPressEvent@QTabWidget@@MEAAXPEAVQKeyEvent@@@Z"
"?keyPressEvent@QTextBrowser@@MEAAXPEAVQKeyEvent@@@Z"
"?keyPressEvent@QTextEdit@@MEAAXPEAVQKeyEvent@@@Z"
"?keyPressEvent@QTreeView@@MEAAXPEAVQKeyEvent@@@Z"
"?keyPressEvent@QWidget@@MEAAXPEAVQKeyEvent@@@Z"
"?keyReleaseEvent@QAbstractButton@@MEAAXPEAVQKeyEvent@@@Z"
"?keyReleaseEvent@QAbstractSpinBox@@MEAAXPEAVQKeyEvent@@@Z"
"?keyReleaseEvent@QComboBox@@MEAAXPEAVQKeyEvent@@@Z"
"?keyReleaseEvent@QGraphicsItem@@MEAAXPEAVQKeyEvent@@@Z"
"?keyReleaseEvent@QGraphicsProxyWidget@@MEAAXPEAVQKeyEvent@@@Z"
"?keyReleaseEvent@QGraphicsScene@@MEAAXPEAVQKeyEvent@@@Z"
"?keyReleaseEvent@QGraphicsTextItem@@MEAAXPEAVQKeyEvent@@@Z"
"?keyReleaseEvent@QGraphicsView@@MEAAXPEAVQKeyEvent@@@Z"
"?keyReleaseEvent@QKeySequenceEdit@@MEAAXPEAVQKeyEvent@@@Z"
"?keyReleaseEvent@QLineEdit@@MEAAXPEAVQKeyEvent@@@Z"
"?keyReleaseEvent@QPlainTextEdit@@MEAAXPEAVQKeyEvent@@@Z"
"?keyReleaseEvent@QTextEdit@@MEAAXPEAVQKeyEvent@@@Z"
"?keyReleaseEvent@QWidget@@MEAAXPEAVQKeyEvent@@@Z"
"?keySequence@QKeySequenceEdit@@QEBA?AVQKeySequence@@XZ"
"?keySequenceChanged@QKeySequenceEdit@@QEAAXAEBVQKeySequence@@@Z"
"?keyboardGrabber@QWidget@@SAPEAV1@XZ"
"?keyboardInputInterval@QApplication@@SAHXZ"
"?keyboardPageStep@QMdiSubWindow@@QEBAHXZ"
"?keyboardSearch@QAbstractItemView@@UEAAXAEBVQString@@@Z"
"?keyboardSearch@QTreeView@@UEAAXAEBVQString@@@Z"
"?keyboardSingleStep@QMdiSubWindow@@QEBAHXZ"
"?keyboardTracking@QAbstractSpinBox@@QEBA_NXZ"
"?keys@QStyleFactory@@SA?AV?$QList@VQString@@@@XZ"
"?killSwitchTabTimer@QTabBarPrivate@@QEAAXXZ"
"?labelAlignment@QFormLayout@@QEBA?AV?$QFlags@W4AlignmentFlag@Qt@@@@XZ"
"?labelForField@QFormLayout@@QEBAPEAVQWidget@@PEAV2@@Z"
"?labelForField@QFormLayout@@QEBAPEAVQWidget@@PEAVQLayout@@@Z"
"?labelText@QFileDialog@@QEBA?AVQString@@W4DialogLabel@1@@Z"
"?labelText@QInputDialog@@QEBA?AVQString@@XZ"
"?labelText@QProgressDialog@@QEBA?AVQString@@XZ"
"?lastCenterPoint@QPinchGesture@@QEBA?AVQPointF@@XZ"
"?lastOffset@QPanGesture@@QEBA?AVQPointF@@XZ"
"?lastPos@QGraphicsSceneHoverEvent@@QEBA?AVQPointF@@XZ"
"?lastPos@QGraphicsSceneMouseEvent@@QEBA?AVQPointF@@XZ"
"?lastRotationAngle@QPinchGesture@@QEBANXZ"
"?lastScaleFactor@QPinchGesture@@QEBANXZ"
"?lastScenePos@QGraphicsSceneHoverEvent@@QEBA?AVQPointF@@XZ"
"?lastScenePos@QGraphicsSceneMouseEvent@@QEBA?AVQPointF@@XZ"
"?lastScreenPos@QGraphicsSceneHoverEvent@@QEBA?AVQPoint@@XZ"
"?lastScreenPos@QGraphicsSceneMouseEvent@@QEBA?AVQPoint@@XZ"
"?lastVisibleItem@QTreeViewPrivate@@QEBAHHH@Z"
"?layout@QGraphicsWidget@@QEBAPEAVQGraphicsLayout@@XZ"
"?layout@QLayout@@UEAAPEAV1@XZ"
"?layout@QLayoutItem@@UEAAPEAVQLayout@@XZ"
"?layout@QTreeViewPrivate@@QEAAXH_N0@Z"
"?layout@QWidget@@QEBAPEAVQLayout@@XZ"
"?layoutBlock@QPlainTextDocumentLayout@@AEAAXAEBVQTextBlock@@@Z"
"?layoutChanged@QGraphicsWidget@@QEAAXXZ"
"?layoutDirection@QGraphicsWidget@@QEBA?AW4LayoutDirection@Qt@@XZ"
"?layoutDirection@QWidget@@QEBA?AW4LayoutDirection@Qt@@XZ"
"?layoutDirection@QWidgetLineControl@@QEBA?AW4LayoutDirection@Qt@@XZ"
"?layoutMode@QListView@@QEBA?AW4LayoutMode@1@XZ"
"?layoutSpacing@QCommonStyle@@UEBAHW4ControlType@QSizePolicy@@0W4Orientation@Qt@@PEBVQStyleOption@@PEBVQWidget@@@Z"
"?layoutSpacing@QProxyStyle@@UEBAHW4ControlType@QSizePolicy@@0W4Orientation@Qt@@PEBVQStyleOption@@PEBVQWidget@@@Z"
"?layoutTab@QTabBarPrivate@@QEAAXH@Z"
"?layoutTabs@QTabBarPrivate@@QEAAXXZ"
"?layoutWidgets@QTabBarPrivate@@QEAAXH@Z"
"?leaveAfterRelease@QApplicationPrivate@@2V?$QPointer@VQWidget@@@@A"
"?leaveEvent@QMdiSubWindow@@MEAAXPEAVQEvent@@@Z"
"?leaveEvent@QMenu@@MEAAXPEAVQEvent@@@Z"
"?leaveEvent@QMenuBar@@MEAAXPEAVQEvent@@@Z"
"?leaveEvent@QToolButton@@MEAAXPEAVQEvent@@@Z"
"?leaveEvent@QWidget@@MEAAXPEAVQEvent@@@Z"
"?leaveWhatsThisMode@QWhatsThis@@SAXXZ"
"?length@QHeaderView@@QEBAHXZ"
"?levelOfDetailFromTransform@QStyleOptionGraphicsItem@@SANAEBVQTransform@@@Z"
"?line@QGraphicsLineItem@@QEBA?AVQLineF@@XZ"
"?lineEdit@QAbstractSpinBox@@IEBAPEAVQLineEdit@@XZ"
"?lineEdit@QComboBox@@QEBAPEAVQLineEdit@@XZ"
"?lineEdit@QFileDialogPrivate@@QEBAPEAVQLineEdit@@XZ"
"?lineEditSizeFromContents@QPixmapStyle@@IEBA?AVQSize@@PEBVQStyleOption@@AEBV2@PEBVQWidget@@@Z"
"?lineWidth@QFrame@@QEBAHXZ"
"?lineWrapColumnOrWidth@QTextEdit@@QEBAHXZ"
"?lineWrapMode@QPlainTextEdit@@QEBA?AW4LineWrapMode@1@XZ"
"?lineWrapMode@QTextEdit@@QEBA?AW4LineWrapMode@1@XZ"
"?linkActivated@QGraphicsTextItem@@QEAAXAEBVQString@@@Z"
"?linkActivated@QLabel@@QEAAXAEBVQString@@@Z"
"?linkActivated@QWidgetTextControl@@QEAAXAEBVQString@@@Z"
"?linkHovered@QGraphicsTextItem@@QEAAXAEBVQString@@@Z"
"?linkHovered@QLabel@@QEAAXAEBVQString@@@Z"
"?linkHovered@QWidgetTextControl@@QEAAXAEBVQString@@@Z"
"?listModel@QListWidgetItem@@AEBAPEAVQListModel@@XZ"
"?listWidget@QListWidgetItem@@QEBAPEAVQListWidget@@XZ"
"?loadResource@QPlainTextEdit@@UEAA?AVQVariant@@HAEBVQUrl@@@Z"
"?loadResource@QTextBrowser@@UEAA?AVQVariant@@HAEBVQUrl@@@Z"
"?loadResource@QTextEdit@@UEAA?AVQVariant@@HAEBVQUrl@@@Z"
"?loadResource@QWidgetTextControl@@UEAA?AVQVariant@@HAEBVQUrl@@@Z"
"?localFont@QWidgetPrivate@@QEBA?AVQFont@@XZ"
"?locale@QWidget@@QEBA?AVQLocale@@XZ"
"?logicalIndex@QHeaderView@@QEBAHH@Z"
"?logicalIndexAt@QHeaderView@@QEBAHAEBVQPoint@@@Z"
"?logicalIndexAt@QHeaderView@@QEBAHH@Z"
"?logicalIndexAt@QHeaderView@@QEBAHHH@Z"
"?logicalIndexForTree@QTreeViewPrivate@@QEBAHXZ"
"?lower@QWidget@@QEAAXXZ"
"?lower_sys@QWidgetPrivate@@QEAAXXZ"
"?main_widget@QApplicationPrivate@@2PEAVQWidget@@EA"
"?makeVisible@QTabBarPrivate@@QEAAXH@Z"
"?mapFrom@QWidget@@QEBA?AVQPoint@@PEBV1@AEBV2@@Z"
"?mapFrom@QWidget@@QEBA?AVQPointF@@PEBV1@AEBV2@@Z"
"?mapFromGlobal@QWidget@@QEBA?AVQPoint@@AEBV2@@Z"
"?mapFromGlobal@QWidget@@QEBA?AVQPointF@@AEBV2@@Z"
"?mapFromItem@QGraphicsItem@@QEBA?AVQPainterPath@@PEBV1@AEBV2@@Z"
"?mapFromItem@QGraphicsItem@@QEBA?AVQPointF@@PEBV1@AEBV2@@Z"
"?mapFromItem@QGraphicsItem@@QEBA?AVQPointF@@PEBV1@NN@Z"
"?mapFromItem@QGraphicsItem@@QEBA?AVQPolygonF@@PEBV1@AEBV2@@Z"
"?mapFromItem@QGraphicsItem@@QEBA?AVQPolygonF@@PEBV1@AEBVQRectF@@@Z"
"?mapFromItem@QGraphicsItem@@QEBA?AVQPolygonF@@PEBV1@NNNN@Z"
"?mapFromParent@QGraphicsItem@@QEBA?AVQPainterPath@@AEBV2@@Z"
"?mapFromParent@QGraphicsItem@@QEBA?AVQPointF@@AEBV2@@Z"
"?mapFromParent@QGraphicsItem@@QEBA?AVQPointF@@NN@Z"
"?mapFromParent@QGraphicsItem@@QEBA?AVQPolygonF@@AEBV2@@Z"
"?mapFromParent@QGraphicsItem@@QEBA?AVQPolygonF@@AEBVQRectF@@@Z"
"?mapFromParent@QGraphicsItem@@QEBA?AVQPolygonF@@NNNN@Z"
"?mapFromParent@QWidget@@QEBA?AVQPoint@@AEBV2@@Z"
"?mapFromParent@QWidget@@QEBA?AVQPointF@@AEBV2@@Z"
"?mapFromScene@QGraphicsItem@@QEBA?AVQPainterPath@@AEBV2@@Z"
"?mapFromScene@QGraphicsItem@@QEBA?AVQPointF@@AEBV2@@Z"
"?mapFromScene@QGraphicsItem@@QEBA?AVQPointF@@NN@Z"
"?mapFromScene@QGraphicsItem@@QEBA?AVQPolygonF@@AEBV2@@Z"
"?mapFromScene@QGraphicsItem@@QEBA?AVQPolygonF@@AEBVQRectF@@@Z"
"?mapFromScene@QGraphicsItem@@QEBA?AVQPolygonF@@NNNN@Z"
"?mapFromScene@QGraphicsView@@QEBA?AVQPainterPath@@AEBV2@@Z"
"?mapFromScene@QGraphicsView@@QEBA?AVQPoint@@AEBVQPointF@@@Z"
"?mapFromScene@QGraphicsView@@QEBA?AVQPoint@@NN@Z"
"?mapFromScene@QGraphicsView@@QEBA?AVQPolygon@@AEBVQPolygonF@@@Z"
"?mapFromScene@QGraphicsView@@QEBA?AVQPolygon@@AEBVQRectF@@@Z"
"?mapFromScene@QGraphicsView@@QEBA?AVQPolygon@@NNNN@Z"
"?mapFromSource@QFileDialogPrivate@@QEBA?AVQModelIndex@@AEBV2@@Z"
"?mapFromWS@QWidgetPrivate@@QEBA?AVQPoint@@AEBV2@@Z"
"?mapFromWS@QWidgetPrivate@@QEBA?AVQRect@@AEBV2@@Z"
"?mapRectFromItem@QGraphicsItem@@QEBA?AVQRectF@@PEBV1@AEBV2@@Z"
"?mapRectFromItem@QGraphicsItem@@QEBA?AVQRectF@@PEBV1@NNNN@Z"
"?mapRectFromParent@QGraphicsItem@@QEBA?AVQRectF@@AEBV2@@Z"
"?mapRectFromParent@QGraphicsItem@@QEBA?AVQRectF@@NNNN@Z"
"?mapRectFromScene@QGraphicsItem@@QEBA?AVQRectF@@AEBV2@@Z"
"?mapRectFromScene@QGraphicsItem@@QEBA?AVQRectF@@NNNN@Z"
"?mapRectFromScene@QGraphicsViewPrivate@@QEBA?AVQRectF@@AEBV2@@Z"
"?mapRectToItem@QGraphicsItem@@QEBA?AVQRectF@@PEBV1@AEBV2@@Z"
"?mapRectToItem@QGraphicsItem@@QEBA?AVQRectF@@PEBV1@NNNN@Z"
"?mapRectToParent@QGraphicsItem@@QEBA?AVQRectF@@AEBV2@@Z"
"?mapRectToParent@QGraphicsItem@@QEBA?AVQRectF@@NNNN@Z"
"?mapRectToScene@QGraphicsItem@@QEBA?AVQRectF@@AEBV2@@Z"
"?mapRectToScene@QGraphicsItem@@QEBA?AVQRectF@@NNNN@Z"
"?mapRectToScene@QGraphicsViewPrivate@@QEBA?AVQRectF@@AEBVQRect@@@Z"
"?mapTo@QWidget@@QEBA?AVQPoint@@PEBV1@AEBV2@@Z"
"?mapTo@QWidget@@QEBA?AVQPointF@@PEBV1@AEBV2@@Z"
"?mapToGlobal@QWidget@@QEBA?AVQPoint@@AEBV2@@Z"
"?mapToGlobal@QWidget@@QEBA?AVQPointF@@AEBV2@@Z"
"?mapToGraphicsScene@QGestureEvent@@QEBA?AVQPointF@@AEBV2@@Z"
"?mapToItem@QGraphicsItem@@QEBA?AVQPainterPath@@PEBV1@AEBV2@@Z"
"?mapToItem@QGraphicsItem@@QEBA?AVQPointF@@PEBV1@AEBV2@@Z"
"?mapToItem@QGraphicsItem@@QEBA?AVQPointF@@PEBV1@NN@Z"
"?mapToItem@QGraphicsItem@@QEBA?AVQPolygonF@@PEBV1@AEBV2@@Z"
"?mapToItem@QGraphicsItem@@QEBA?AVQPolygonF@@PEBV1@AEBVQRectF@@@Z"
"?mapToItem@QGraphicsItem@@QEBA?AVQPolygonF@@PEBV1@NNNN@Z"
"?mapToParent@QGraphicsItem@@QEBA?AVQPainterPath@@AEBV2@@Z"
"?mapToParent@QGraphicsItem@@QEBA?AVQPointF@@AEBV2@@Z"
"?mapToParent@QGraphicsItem@@QEBA?AVQPointF@@NN@Z"
"?mapToParent@QGraphicsItem@@QEBA?AVQPolygonF@@AEBV2@@Z"
"?mapToParent@QGraphicsItem@@QEBA?AVQPolygonF@@AEBVQRectF@@@Z"
"?mapToParent@QGraphicsItem@@QEBA?AVQPolygonF@@NNNN@Z"
"?mapToParent@QWidget@@QEBA?AVQPoint@@AEBV2@@Z"
"?mapToParent@QWidget@@QEBA?AVQPointF@@AEBV2@@Z"
"?mapToScene@QGraphicsItem@@QEBA?AVQPainterPath@@AEBV2@@Z"
"?mapToScene@QGraphicsItem@@QEBA?AVQPointF@@AEBV2@@Z"
"?mapToScene@QGraphicsItem@@QEBA?AVQPointF@@NN@Z"
"?mapToScene@QGraphicsItem@@QEBA?AVQPolygonF@@AEBV2@@Z"
"?mapToScene@QGraphicsItem@@QEBA?AVQPolygonF@@AEBVQRectF@@@Z"
"?mapToScene@QGraphicsItem@@QEBA?AVQPolygonF@@NNNN@Z"
"?mapToScene@QGraphicsView@@QEBA?AVQPainterPath@@AEBV2@@Z"
"?mapToScene@QGraphicsView@@QEBA?AVQPointF@@AEBVQPoint@@@Z"
"?mapToScene@QGraphicsView@@QEBA?AVQPointF@@HH@Z"
"?mapToScene@QGraphicsView@@QEBA?AVQPolygonF@@AEBVQPolygon@@@Z"
"?mapToScene@QGraphicsView@@QEBA?AVQPolygonF@@AEBVQRect@@@Z"
"?mapToScene@QGraphicsView@@QEBA?AVQPolygonF@@HHHH@Z"
"?mapToScene@QGraphicsViewPrivate@@QEBA?AVQPointF@@AEBV2@@Z"
"?mapToScene@QGraphicsViewPrivate@@QEBA?AVQRectF@@AEBV2@@Z"
"?mapToScreen@QTouchEventWidgetSequence@QTest@@AEAA?AVQPoint@@PEAVQWidget@@AEBV3@@Z"
"?mapToSource@QFileDialogPrivate@@QEBA?AVQModelIndex@@AEBV2@@Z"
"?mapToViewRect@QGraphicsViewPrivate@@QEBA?AVQRect@@PEBVQGraphicsItem@@AEBVQRectF@@@Z"
"?mapToViewRegion@QGraphicsViewPrivate@@QEBA?AVQRegion@@PEBVQGraphicsItem@@AEBVQRectF@@@Z"
"?mapToViewTransform@QGraphicsViewPrivate@@QEBA?AVQTransform@@PEBVQGraphicsItem@@@Z"
"?mapToWS@QWidgetPrivate@@QEBA?AVQPoint@@AEBV2@@Z"
"?mapToWS@QWidgetPrivate@@QEBA?AVQRect@@AEBV2@@Z"
"?mappedPropertyName@QDataWidgetMapper@@QEBA?AVQByteArray@@PEAVQWidget@@@Z"
"?mappedSection@QDataWidgetMapper@@QEBAHPEAVQWidget@@@Z"
"?mappedWidgetAt@QDataWidgetMapper@@QEBAPEAVQWidget@@H@Z"
"?mapper@QWidgetPrivate@@2PEAV?$QHash@_KPEAVQWidget@@@@EA"
"?margin@QLabel@@QEBAHXZ"
"?markNeedsFlush@QWidgetRepaintManager@@AEAAXPEAVQWidget@@AEBVQRegion@@@Z"
"?markNeedsFlush@QWidgetRepaintManager@@QEAAXPEAVQWidget@@AEBVQRegion@@AEBVQPoint@@@Z"
"?markParentDirty@QGraphicsItemPrivate@@QEAAX_N@Z"
"?mask@QWidget@@QEBA?AVQRegion@@XZ"
"?maskString@QWidgetLineControl@@AEBA?AVQString@@HAEBV2@_N@Z"
"?matchesFlags@QTreeWidgetItemIterator@@AEBA_NPEBVQTreeWidgetItem@@@Z"
"?maxCount@QComboBox@@QEBAHXZ"
"?maxInstances@QWidgetPrivate@@2HA"
"?maxLength@QLineEdit@@QEBAHXZ"
"?maxLength@QWidgetLineControl@@QEBAHXZ"
"?maxNameLength@QFileDialogPrivate@@SAJAEBVQString@@@Z"
"?maxVisibleItems@QComboBox@@QEBAHXZ"
"?maxVisibleItems@QCompleter@@QEBAHXZ"
"?maximizedButtonsWidget@QMdiSubWindow@@QEBAPEAVQWidget@@XZ"
"?maximizedSystemMenuIconWidget@QMdiSubWindow@@QEBAPEAVQWidget@@XZ"
"?maximum@QAbstractSlider@@QEBAHXZ"
"?maximum@QDoubleSpinBox@@QEBANXZ"
"?maximum@QProgressBar@@QEBAHXZ"
"?maximum@QProgressDialog@@QEBAHXZ"
"?maximum@QSpinBox@@QEBAHXZ"
"?maximumBlockCount@QPlainTextEdit@@QEBAHXZ"
"?maximumDate@QCalendarWidget@@QEBA?AVQDate@@XZ"
"?maximumDate@QDateTimeEdit@@QEBA?AVQDate@@XZ"
"?maximumDateTime@QDateTimeEdit@@QEBA?AVQDateTime@@XZ"
"?maximumHeight@QGraphicsLayoutItem@@QEBANXZ"
"?maximumHeight@QWidget@@QEBAHXZ"
"?maximumSectionSize@QHeaderView@@QEBAHXZ"
"?maximumSequenceLength@QKeySequenceEdit@@QEBA_JXZ"
"?maximumSize@QBoxLayout@@UEBA?AVQSize@@XZ"
"?maximumSize@QDockWidgetLayout@@UEBA?AVQSize@@XZ"
"?maximumSize@QGraphicsLayoutItem@@QEBA?AVQSizeF@@XZ"
"?maximumSize@QGridLayout@@UEBA?AVQSize@@XZ"
"?maximumSize@QLayout@@UEBA?AVQSize@@XZ"
"?maximumSize@QSpacerItem@@UEBA?AVQSize@@XZ"
"?maximumSize@QWidget@@QEBA?AVQSize@@XZ"
"?maximumSize@QWidgetItem@@UEBA?AVQSize@@XZ"
"?maximumSize@QWidgetItemV2@@UEBA?AVQSize@@XZ"
"?maximumTime@QDateTimeEdit@@QEBA?AVQTime@@XZ"
"?maximumViewportSize@QAbstractScrollArea@@QEBA?AVQSize@@XZ"
"?maximumWidth@QGraphicsLayoutItem@@QEBANXZ"
"?maximumWidth@QWidget@@QEBAHXZ"
"?maybeExtraItemCache@QGraphicsItemPrivate@@QEBAPEAVQGraphicsItemCache@@XZ"
"?maybeRepaintManager@QWidgetPrivate@@QEBAPEAVQWidgetRepaintManager@@XZ"
"?maybeTopData@QWidgetPrivate@@QEBAPEAUQTLWExtra@@XZ"
"?mdiArea@QMdiSubWindow@@QEBAPEAVQMdiArea@@XZ"
"?menu@QPushButton@@QEBAPEAVQMenu@@XZ"
"?menu@QToolButton@@QEBAPEAVQMenu@@XZ"
"?menu@QtWidgetsActionPrivate@@UEBAPEAVQObject@@XZ"
"?menuAction@QMenu@@QEBAPEAVQAction@@XZ"
"?menuBar@QLayout@@QEBAPEAVQWidget@@XZ"
"?menuBar@QMainWindow@@QEBAPEAVQMenuBar@@XZ"
"?menuInAction@QMenu@@SAPEAV1@PEBVQAction@@@Z"
"?menuWidget@QMainWindow@@QEBAPEAVQWidget@@XZ"
"?mergeCurrentCharFormat@QPlainTextEdit@@QEAAXAEBVQTextCharFormat@@@Z"
"?mergeCurrentCharFormat@QTextEdit@@QEAAXAEBVQTextCharFormat@@@Z"
"?mergeCurrentCharFormat@QWidgetTextControl@@QEAAXAEBVQTextCharFormat@@@Z"
"?message@QSplashScreen@@QEBA?AVQString@@XZ"
"?messageChanged@QSplashScreen@@QEAAXAEBVQString@@@Z"
"?messageChanged@QStatusBar@@QEAAXAEBVQString@@@Z"
"?messageClicked@QSystemTrayIcon@@QEAAXXZ"
"?metaObject@QAbstractButton@@UEBAPEBUQMetaObject@@XZ"
"?metaObject@QAbstractItemDelegate@@UEBAPEBUQMetaObject@@XZ"
"?metaObject@QAbstractItemView@@UEBAPEBUQMetaObject@@XZ"
"?metaObject@QAbstractScrollArea@@UEBAPEBUQMetaObject@@XZ"
"?metaObject@QAbstractSlider@@UEBAPEBUQMetaObject@@XZ"
"?metaObject@QAbstractSpinBox@@UEBAPEBUQMetaObject@@XZ"
"?metaObject@QApplication@@UEBAPEBUQMetaObject@@XZ"
"?metaObject@QBlendStyleAnimation@@UEBAPEBUQMetaObject@@XZ"
"?metaObject@QBoxLayout@@UEBAPEBUQMetaObject@@XZ"
"?metaObject@QButtonGroup@@UEBAPEBUQMetaObject@@XZ"
"?metaObject@QCalendarWidget@@UEBAPEBUQMetaObject@@XZ"
"?metaObject@QCheckBox@@UEBAPEBUQMetaObject@@XZ"
"?metaObject@QColorDialog@@UEBAPEBUQMetaObject@@XZ"
"?metaObject@QColumnView@@UEBAPEBUQMetaObject@@XZ"
"?metaObject@QComboBox@@UEBAPEBUQMetaObject@@XZ"
"?metaObject@QComboBoxPrivateContainer@@UEBAPEBUQMetaObject@@XZ"
"?metaObject@QCommandLinkButton@@UEBAPEBUQMetaObject@@XZ"
"?metaObject@QCommonStyle@@UEBAPEBUQMetaObject@@XZ"
"?metaObject@QCompleter@@UEBAPEBUQMetaObject@@XZ"
"?metaObject@QDataWidgetMapper@@UEBAPEBUQMetaObject@@XZ"
"?metaObject@QDateEdit@@UEBAPEBUQMetaObject@@XZ"
"?metaObject@QDateTimeEdit@@UEBAPEBUQMetaObject@@XZ"
"?metaObject@QDial@@UEBAPEBUQMetaObject@@XZ"
"?metaObject@QDialog@@UEBAPEBUQMetaObject@@XZ"
"?metaObject@QDialogButtonBox@@UEBAPEBUQMetaObject@@XZ"
"?metaObject@QDockWidget@@UEBAPEBUQMetaObject@@XZ"
"?metaObject@QDockWidgetLayout@@UEBAPEBUQMetaObject@@XZ"
"?metaObject@QDoubleSpinBox@@UEBAPEBUQMetaObject@@XZ"
"?metaObject@QErrorMessage@@UEBAPEBUQMetaObject@@XZ"
"?metaObject@QFileDialog@@UEBAPEBUQMetaObject@@XZ"
"?metaObject@QFlickGesture@@UEBAPEBUQMetaObject@@XZ"
"?metaObject@QFocusFrame@@UEBAPEBUQMetaObject@@XZ"
"?metaObject@QFontComboBox@@UEBAPEBUQMetaObject@@XZ"
"?metaObject@QFontDialog@@UEBAPEBUQMetaObject@@XZ"
"?metaObject@QFormLayout@@UEBAPEBUQMetaObject@@XZ"
"?metaObject@QFrame@@UEBAPEBUQMetaObject@@XZ"
"?metaObject@QFusionStyle@@UEBAPEBUQMetaObject@@XZ"
"?metaObject@QGesture@@UEBAPEBUQMetaObject@@XZ"
"?metaObject@QGraphicsAnchor@@UEBAPEBUQMetaObject@@XZ"
"?metaObject@QGraphicsBlurEffect@@UEBAPEBUQMetaObject@@XZ"
"?metaObject@QGraphicsColorizeEffect@@UEBAPEBUQMetaObject@@XZ"
"?metaObject@QGraphicsDropShadowEffect@@UEBAPEBUQMetaObject@@XZ"
"?metaObject@QGraphicsEffect@@UEBAPEBUQMetaObject@@XZ"
"?metaObject@QGraphicsEffectSource@@UEBAPEBUQMetaObject@@XZ"
"?metaObject@QGraphicsItemAnimation@@UEBAPEBUQMetaObject@@XZ"
"?metaObject@QGraphicsObject@@UEBAPEBUQMetaObject@@XZ"
"?metaObject@QGraphicsOpacityEffect@@UEBAPEBUQMetaObject@@XZ"
"?metaObject@QGraphicsProxyWidget@@UEBAPEBUQMetaObject@@XZ"
"?metaObject@QGraphicsRotation@@UEBAPEBUQMetaObject@@XZ"
"?metaObject@QGraphicsScale@@UEBAPEBUQMetaObject@@XZ"
"?metaObject@QGraphicsScene@@UEBAPEBUQMetaObject@@XZ"
"?metaObject@QGraphicsTextItem@@UEBAPEBUQMetaObject@@XZ"
"?metaObject@QGraphicsTransform@@UEBAPEBUQMetaObject@@XZ"
"?metaObject@QGraphicsView@@UEBAPEBUQMetaObject@@XZ"
"?metaObject@QGraphicsWidget@@UEBAPEBUQMetaObject@@XZ"
"?metaObject@QGridLayout@@UEBAPEBUQMetaObject@@XZ"
"?metaObject@QGroupBox@@UEBAPEBUQMetaObject@@XZ"
"?metaObject@QHBoxLayout@@UEBAPEBUQMetaObject@@XZ"
"?metaObject@QHeaderView@@UEBAPEBUQMetaObject@@XZ"
"?metaObject@QInputDialog@@UEBAPEBUQMetaObject@@XZ"
"?metaObject@QItemDelegate@@UEBAPEBUQMetaObject@@XZ"
"?metaObject@QKeySequenceEdit@@UEBAPEBUQMetaObject@@XZ"
"?metaObject@QLCDNumber@@UEBAPEBUQMetaObject@@XZ"
"?metaObject@QLabel@@UEBAPEBUQMetaObject@@XZ"
"?metaObject@QLayout@@UEBAPEBUQMetaObject@@XZ"
"?metaObject@QLineEdit@@UEBAPEBUQMetaObject@@XZ"
"?metaObject@QListView@@UEBAPEBUQMetaObject@@XZ"
"?metaObject@QListWidget@@UEBAPEBUQMetaObject@@XZ"
"?metaObject@QMainWindow@@UEBAPEBUQMetaObject@@XZ"
"?metaObject@QMdiArea@@UEBAPEBUQMetaObject@@XZ"
"?metaObject@QMdiSubWindow@@UEBAPEBUQMetaObject@@XZ"
"?metaObject@QMenu@@UEBAPEBUQMetaObject@@XZ"
"?metaObject@QMenuBar@@UEBAPEBUQMetaObject@@XZ"
"?metaObject@QMessageBox@@UEBAPEBUQMetaObject@@XZ"
"?metaObject@QNumberStyleAnimation@@UEBAPEBUQMetaObject@@XZ"
"?metaObject@QPanGesture@@UEBAPEBUQMetaObject@@XZ"
"?metaObject@QPinchGesture@@UEBAPEBUQMetaObject@@XZ"
"?metaObject@QPixmapBlurFilter@@UEBAPEBUQMetaObject@@XZ"
"?metaObject@QPixmapColorizeFilter@@UEBAPEBUQMetaObject@@XZ"
"?metaObject@QPixmapConvolutionFilter@@UEBAPEBUQMetaObject@@XZ"
"?metaObject@QPixmapDropShadowFilter@@UEBAPEBUQMetaObject@@XZ"
"?metaObject@QPixmapFilter@@UEBAPEBUQMetaObject@@XZ"
"?metaObject@QPixmapStyle@@UEBAPEBUQMetaObject@@XZ"
"?metaObject@QPlainTextDocumentLayout@@UEBAPEBUQMetaObject@@XZ"
"?metaObject@QPlainTextEdit@@UEBAPEBUQMetaObject@@XZ"
"?metaObject@QProgressBar@@UEBAPEBUQMetaObject@@XZ"
"?metaObject@QProgressDialog@@UEBAPEBUQMetaObject@@XZ"
"?metaObject@QProgressStyleAnimation@@UEBAPEBUQMetaObject@@XZ"
"?metaObject@QProxyStyle@@UEBAPEBUQMetaObject@@XZ"
"?metaObject@QPushButton@@UEBAPEBUQMetaObject@@XZ"
"?metaObject@QRadioButton@@UEBAPEBUQMetaObject@@XZ"
"?metaObject@QRhiWidget@@UEBAPEBUQMetaObject@@XZ"
"?metaObject@QRubberBand@@UEBAPEBUQMetaObject@@XZ"
"?metaObject@QScrollArea@@UEBAPEBUQMetaObject@@XZ"
"?metaObject@QScrollBar@@UEBAPEBUQMetaObject@@XZ"
"?metaObject@QScrollbarStyleAnimation@@UEBAPEBUQMetaObject@@XZ"
"?metaObject@QScroller@@UEBAPEBUQMetaObject@@XZ"
"?metaObject@QSizeGrip@@UEBAPEBUQMetaObject@@XZ"
"?metaObject@QSlider@@UEBAPEBUQMetaObject@@XZ"
"?metaObject@QSpinBox@@UEBAPEBUQMetaObject@@XZ"
"?metaObject@QSplashScreen@@UEBAPEBUQMetaObject@@XZ"
"?metaObject@QSplitter@@UEBAPEBUQMetaObject@@XZ"
"?metaObject@QSplitterHandle@@UEBAPEBUQMetaObject@@XZ"
"?metaObject@QStackedLayout@@UEBAPEBUQMetaObject@@XZ"
"?metaObject@QStackedWidget@@UEBAPEBUQMetaObject@@XZ"
"?metaObject@QStatusBar@@UEBAPEBUQMetaObject@@XZ"
"?metaObject@QStyle@@UEBAPEBUQMetaObject@@XZ"
"?metaObject@QStyleAnimation@@UEBAPEBUQMetaObject@@XZ"
"?metaObject@QStylePlugin@@UEBAPEBUQMetaObject@@XZ"
"?metaObject@QStyledItemDelegate@@UEBAPEBUQMetaObject@@XZ"
"?metaObject@QSwipeGesture@@UEBAPEBUQMetaObject@@XZ"
"?metaObject@QSystemTrayIcon@@UEBAPEBUQMetaObject@@XZ"
"?metaObject@QTabBar@@UEBAPEBUQMetaObject@@XZ"
"?metaObject@QTabWidget@@UEBAPEBUQMetaObject@@XZ"
"?metaObject@QTableView@@UEBAPEBUQMetaObject@@XZ"
"?metaObject@QTableWidget@@UEBAPEBUQMetaObject@@XZ"
"?metaObject@QTapAndHoldGesture@@UEBAPEBUQMetaObject@@XZ"
"?metaObject@QTapGesture@@UEBAPEBUQMetaObject@@XZ"
"?metaObject@QTextBrowser@@UEBAPEBUQMetaObject@@XZ"
"?metaObject@QTextEdit@@UEBAPEBUQMetaObject@@XZ"
"?metaObject@QTimeEdit@@UEBAPEBUQMetaObject@@XZ"
"?metaObject@QToolBar@@UEBAPEBUQMetaObject@@XZ"
"?metaObject@QToolBox@@UEBAPEBUQMetaObject@@XZ"
"?metaObject@QToolButton@@UEBAPEBUQMetaObject@@XZ"
"?metaObject@QTreeView@@UEBAPEBUQMetaObject@@XZ"
"?metaObject@QTreeWidget@@UEBAPEBUQMetaObject@@XZ"
"?metaObject@QUndoView@@UEBAPEBUQMetaObject@@XZ"
"?metaObject@QVBoxLayout@@UEBAPEBUQMetaObject@@XZ"
"?metaObject@QWidget@@UEBAPEBUQMetaObject@@XZ"
"?metaObject@QWidgetAction@@UEBAPEBUQMetaObject@@XZ"
"?metaObject@QWidgetLineControl@@UEBAPEBUQMetaObject@@XZ"
"?metaObject@QWidgetTextControl@@UEBAPEBUQMetaObject@@XZ"
"?metaObject@QWindowContainer@@UEBAPEBUQMetaObject@@XZ"
"?metaObject@QWindowsStyle@@UEBAPEBUQMetaObject@@XZ"
"?metaObject@QWizard@@UEBAPEBUQMetaObject@@XZ"
"?metaObject@QWizardPage@@UEBAPEBUQMetaObject@@XZ"
"?metric@QWidget@@MEBAHW4PaintDeviceMetric@QPaintDevice@@@Z"
"?microFocusChanged@QWidgetTextControl@@QEAAXXZ"
"?midLineWidth@QFrame@@QEBAHXZ"
"?mimeData@QGraphicsSceneDragDropEvent@@QEBAPEBVQMimeData@@XZ"
"?mimeData@QListWidget@@MEBAPEAVQMimeData@@AEBV?$QList@PEAVQListWidgetItem@@@@@Z"
"?mimeData@QTableWidget@@MEBAPEAVQMimeData@@AEBV?$QList@PEAVQTableWidgetItem@@@@@Z"
"?mimeData@QTreeWidget@@MEBAPEAVQMimeData@@AEBV?$QList@PEAVQTreeWidgetItem@@@@@Z"
"?mimeTypeFilters@QFileDialog@@QEBA?AV?$QList@VQString@@@@XZ"
"?mimeTypes@QListWidget@@MEBA?AV?$QList@VQString@@@@XZ"
"?mimeTypes@QTableWidget@@MEBA?AV?$QList@VQString@@@@XZ"
"?mimeTypes@QTreeWidget@@MEBA?AV?$QList@VQString@@@@XZ"
"?minimum@QAbstractSlider@@QEBAHXZ"
"?minimum@QDoubleSpinBox@@QEBANXZ"
"?minimum@QProgressBar@@QEBAHXZ"
"?minimum@QProgressDialog@@QEBAHXZ"
"?minimum@QSpinBox@@QEBAHXZ"
"?minimumContentsLength@QComboBox@@QEBAHXZ"
"?minimumDate@QCalendarWidget@@QEBA?AVQDate@@XZ"
"?minimumDate@QDateTimeEdit@@QEBA?AVQDate@@XZ"
"?minimumDateTime@QDateTimeEdit@@QEBA?AVQDateTime@@XZ"
"?minimumDuration@QProgressDialog@@QEBAHXZ"
"?minimumHeight@QGraphicsLayoutItem@@QEBANXZ"
"?minimumHeight@QWidget@@QEBAHXZ"
"?minimumHeightForWidth@QBoxLayout@@UEBAHH@Z"
"?minimumHeightForWidth@QGridLayout@@UEBAHH@Z"
"?minimumHeightForWidth@QLayoutItem@@UEBAHH@Z"
"?minimumHeightForWidth@QWidgetItem@@UEBAHH@Z"
"?minimumRenderSize@QGraphicsScene@@QEBANXZ"
"?minimumSectionSize@QHeaderView@@QEBAHXZ"
"?minimumSize@QBoxLayout@@UEBA?AVQSize@@XZ"
"?minimumSize@QDockWidgetLayout@@UEBA?AVQSize@@XZ"
"?minimumSize@QFormLayout@@UEBA?AVQSize@@XZ"
"?minimumSize@QGraphicsLayoutItem@@QEBA?AVQSizeF@@XZ"
"?minimumSize@QGridLayout@@UEBA?AVQSize@@XZ"
"?minimumSize@QLayout@@UEBA?AVQSize@@XZ"
"?minimumSize@QSpacerItem@@UEBA?AVQSize@@XZ"
"?minimumSize@QStackedLayout@@UEBA?AVQSize@@XZ"
"?minimumSize@QWidget@@QEBA?AVQSize@@XZ"
"?minimumSize@QWidgetItem@@UEBA?AVQSize@@XZ"
"?minimumSize@QWidgetItemV2@@UEBA?AVQSize@@XZ"
"?minimumSizeHint@QAbstractScrollArea@@UEBA?AVQSize@@XZ"
"?minimumSizeHint@QAbstractSpinBox@@UEBA?AVQSize@@XZ"
"?minimumSizeHint@QCalendarWidget@@UEBA?AVQSize@@XZ"
"?minimumSizeHint@QCheckBox@@UEBA?AVQSize@@XZ"
"?minimumSizeHint@QComboBox@@UEBA?AVQSize@@XZ"
"?minimumSizeHint@QCommandLinkButton@@UEBA?AVQSize@@XZ"
"?minimumSizeHint@QDial@@UEBA?AVQSize@@XZ"
"?minimumSizeHint@QDialog@@UEBA?AVQSize@@XZ"
"?minimumSizeHint@QGroupBox@@UEBA?AVQSize@@XZ"
"?minimumSizeHint@QInputDialog@@UEBA?AVQSize@@XZ"
"?minimumSizeHint@QLabel@@UEBA?AVQSize@@XZ"
"?minimumSizeHint@QLineEdit@@UEBA?AVQSize@@XZ"
"?minimumSizeHint@QMdiArea@@UEBA?AVQSize@@XZ"
"?minimumSizeHint@QMdiSubWindow@@UEBA?AVQSize@@XZ"
"?minimumSizeHint@QMenuBar@@UEBA?AVQSize@@XZ"
"?minimumSizeHint@QProgressBar@@UEBA?AVQSize@@XZ"
"?minimumSizeHint@QPushButton@@UEBA?AVQSize@@XZ"
"?minimumSizeHint@QRadioButton@@UEBA?AVQSize@@XZ"
"?minimumSizeHint@QSlider@@UEBA?AVQSize@@XZ"
"?minimumSizeHint@QSplitter@@UEBA?AVQSize@@XZ"
"?minimumSizeHint@QTabBar@@UEBA?AVQSize@@XZ"
"?minimumSizeHint@QTabWidget@@UEBA?AVQSize@@XZ"
"?minimumSizeHint@QToolButton@@UEBA?AVQSize@@XZ"
"?minimumSizeHint@QWidget@@UEBA?AVQSize@@XZ"
"?minimumSizeHint@QWindowContainer@@UEBA?AVQSize@@XZ"
"?minimumTabSizeHint@QTabBar@@MEBA?AVQSize@@H@Z"
"?minimumTime@QDateTimeEdit@@QEBA?AVQTime@@XZ"
"?minimumTitleWidth@QDockWidgetLayout@@QEBAHXZ"
"?minimumWidth@QGraphicsLayoutItem@@QEBANXZ"
"?minimumWidth@QWidget@@QEBAHXZ"
"?mirrorVerticallyChanged@QRhiWidget@@QEAAX_N@Z"
"?modalState@QApplicationPrivate@@SA_NXZ"
"?mode@QColormap@@QEBA?AW4Mode@1@XZ"
"?mode@QLCDNumber@@QEBA?AW4Mode@1@XZ"
"?mode@QScrollbarStyleAnimation@@QEBA?AW4Mode@1@XZ"
"?model@QAbstractItemView@@QEBAPEAVQAbstractItemModel@@XZ"
"?model@QComboBox@@QEBAPEAVQAbstractItemModel@@XZ"
"?model@QCompleter@@QEBAPEAVQAbstractItemModel@@XZ"
"?model@QDataWidgetMapper@@QEBAPEAVQAbstractItemModel@@XZ"
"?modelAboutToBeReset@QTreeViewPrivate@@QEAAXXZ"
"?modelColumn@QComboBox@@QEBAHXZ"
"?modelColumn@QListView@@QEBAHXZ"
"?modelDestroyed@QTreeViewPrivate@@UEAAXXZ"
"?modelIndex@QTreeViewPrivate@@QEBA?AVQModelIndex@@HH@Z"
"?modelSorting@QCompleter@@QEBA?AW4ModelSorting@1@XZ"
"?modificationChanged@QPlainTextEdit@@QEAAX_N@Z"
"?modificationChanged@QWidgetTextControl@@QEAAX_N@Z"
"?modifiers@QGraphicsSceneContextMenuEvent@@QEBA?AV?$QFlags@W4KeyboardModifier@Qt@@@@XZ"
"?modifiers@QGraphicsSceneDragDropEvent@@QEBA?AV?$QFlags@W4KeyboardModifier@Qt@@@@XZ"
"?modifiers@QGraphicsSceneHoverEvent@@QEBA?AV?$QFlags@W4KeyboardModifier@Qt@@@@XZ"
"?modifiers@QGraphicsSceneMouseEvent@@QEBA?AV?$QFlags@W4KeyboardModifier@Qt@@@@XZ"
"?modifiers@QGraphicsSceneWheelEvent@@QEBA?AV?$QFlags@W4KeyboardModifier@Qt@@@@XZ"
"?monthShown@QCalendarWidget@@QEBAHXZ"
"?mouseDoubleClickEvent@QAbstractItemView@@MEAAXPEAVQMouseEvent@@@Z"
"?mouseDoubleClickEvent@QAbstractScrollArea@@MEAAXPEAVQMouseEvent@@@Z"
"?mouseDoubleClickEvent@QGraphicsItem@@MEAAXPEAVQGraphicsSceneMouseEvent@@@Z"
"?mouseDoubleClickEvent@QGraphicsProxyWidget@@MEAAXPEAVQGraphicsSceneMouseEvent@@@Z"
"?mouseDoubleClickEvent@QGraphicsScene@@MEAAXPEAVQGraphicsSceneMouseEvent@@@Z"
"?mouseDoubleClickEvent@QGraphicsTextItem@@MEAAXPEAVQGraphicsSceneMouseEvent@@@Z"
"?mouseDoubleClickEvent@QGraphicsView@@MEAAXPEAVQMouseEvent@@@Z"
"?mouseDoubleClickEvent@QHeaderView@@MEAAXPEAVQMouseEvent@@@Z"
"?mouseDoubleClickEvent@QLineEdit@@MEAAXPEAVQMouseEvent@@@Z"
"?mouseDoubleClickEvent@QMdiSubWindow@@MEAAXPEAVQMouseEvent@@@Z"
"?mouseDoubleClickEvent@QPlainTextEdit@@MEAAXPEAVQMouseEvent@@@Z"
"?mouseDoubleClickEvent@QTabBar@@MEAAXPEAVQMouseEvent@@@Z"
"?mouseDoubleClickEvent@QTextEdit@@MEAAXPEAVQMouseEvent@@@Z"
"?mouseDoubleClickEvent@QTreeView@@MEAAXPEAVQMouseEvent@@@Z"
"?mouseDoubleClickEvent@QWidget@@MEAAXPEAVQMouseEvent@@@Z"
"?mouseGrabber@QWidget@@SAPEAV1@XZ"
"?mouseGrabberItem@QGraphicsScene@@QEBAPEAVQGraphicsItem@@XZ"
"?mouseMoveEvent@QAbstractButton@@MEAAXPEAVQMouseEvent@@@Z"
"?mouseMoveEvent@QAbstractItemView@@MEAAXPEAVQMouseEvent@@@Z"
"?mouseMoveEvent@QAbstractScrollArea@@MEAAXPEAVQMouseEvent@@@Z"
"?mouseMoveEvent@QAbstractSpinBox@@MEAAXPEAVQMouseEvent@@@Z"
"?mouseMoveEvent@QCheckBox@@MEAAXPEAVQMouseEvent@@@Z"
"?mouseMoveEvent@QDial@@MEAAXPEAVQMouseEvent@@@Z"
"?mouseMoveEvent@QGraphicsItem@@MEAAXPEAVQGraphicsSceneMouseEvent@@@Z"
"?mouseMoveEvent@QGraphicsProxyWidget@@MEAAXPEAVQGraphicsSceneMouseEvent@@@Z"
"?mouseMoveEvent@QGraphicsScene@@MEAAXPEAVQGraphicsSceneMouseEvent@@@Z"
"?mouseMoveEvent@QGraphicsTextItem@@MEAAXPEAVQGraphicsSceneMouseEvent@@@Z"
"?mouseMoveEvent@QGraphicsView@@MEAAXPEAVQMouseEvent@@@Z"
"?mouseMoveEvent@QGroupBox@@MEAAXPEAVQMouseEvent@@@Z"
"?mouseMoveEvent@QHeaderView@@MEAAXPEAVQMouseEvent@@@Z"
"?mouseMoveEvent@QLabel@@MEAAXPEAVQMouseEvent@@@Z"
"?mouseMoveEvent@QLineEdit@@MEAAXPEAVQMouseEvent@@@Z"
"?mouseMoveEvent@QListView@@MEAAXPEAVQMouseEvent@@@Z"
"?mouseMoveEvent@QMdiSubWindow@@MEAAXPEAVQMouseEvent@@@Z"
"?mouseMoveEvent@QMenu@@MEAAXPEAVQMouseEvent@@@Z"
"?mouseMoveEvent@QMenuBar@@MEAAXPEAVQMouseEvent@@@Z"
"?mouseMoveEvent@QPlainTextEdit@@MEAAXPEAVQMouseEvent@@@Z"
"?mouseMoveEvent@QPushButton@@MEAAXPEAVQMouseEvent@@@Z"
"?mouseMoveEvent@QRadioButton@@MEAAXPEAVQMouseEvent@@@Z"
"?mouseMoveEvent@QScrollBar@@MEAAXPEAVQMouseEvent@@@Z"
"?mouseMoveEvent@QSizeGrip@@MEAAXPEAVQMouseEvent@@@Z"
"?mouseMoveEvent@QSlider@@MEAAXPEAVQMouseEvent@@@Z"
"?mouseMoveEvent@QSplitterHandle@@MEAAXPEAVQMouseEvent@@@Z"
"?mouseMoveEvent@QTabBar@@MEAAXPEAVQMouseEvent@@@Z"
"?mouseMoveEvent@QTextBrowser@@MEAAXPEAVQMouseEvent@@@Z"
"?mouseMoveEvent@QTextEdit@@MEAAXPEAVQMouseEvent@@@Z"
"?mouseMoveEvent@QTreeView@@MEAAXPEAVQMouseEvent@@@Z"
"?mouseMoveEvent@QWidget@@MEAAXPEAVQMouseEvent@@@Z"
"?mouseMoveEventHandler@QGraphicsViewPrivate@@QEAAXPEAVQMouseEvent@@@Z"
"?mousePressEvent@QAbstractButton@@MEAAXPEAVQMouseEvent@@@Z"
"?mousePressEvent@QAbstractItemView@@MEAAXPEAVQMouseEvent@@@Z"
"?mousePressEvent@QAbstractScrollArea@@MEAAXPEAVQMouseEvent@@@Z"
"?mousePressEvent@QAbstractSpinBox@@MEAAXPEAVQMouseEvent@@@Z"
"?mousePressEvent@QCalendarWidget@@MEAAXPEAVQMouseEvent@@@Z"
"?mousePressEvent@QComboBox@@MEAAXPEAVQMouseEvent@@@Z"
"?mousePressEvent@QComboBoxPrivateContainer@@MEAAXPEAVQMouseEvent@@@Z"
"?mousePressEvent@QDateTimeEdit@@MEAAXPEAVQMouseEvent@@@Z"
"?mousePressEvent@QDial@@MEAAXPEAVQMouseEvent@@@Z"
"?mousePressEvent@QGraphicsItem@@MEAAXPEAVQGraphicsSceneMouseEvent@@@Z"
"?mousePressEvent@QGraphicsProxyWidget@@MEAAXPEAVQGraphicsSceneMouseEvent@@@Z"
"?mousePressEvent@QGraphicsScene@@MEAAXPEAVQGraphicsSceneMouseEvent@@@Z"
"?mousePressEvent@QGraphicsTextItem@@MEAAXPEAVQGraphicsSceneMouseEvent@@@Z"
"?mousePressEvent@QGraphicsView@@MEAAXPEAVQMouseEvent@@@Z"
"?mousePressEvent@QGroupBox@@MEAAXPEAVQMouseEvent@@@Z"
"?mousePressEvent@QHeaderView@@MEAAXPEAVQMouseEvent@@@Z"
"?mousePressEvent@QLabel@@MEAAXPEAVQMouseEvent@@@Z"
"?mousePressEvent@QLineEdit@@MEAAXPEAVQMouseEvent@@@Z"
"?mousePressEvent@QMdiSubWindow@@MEAAXPEAVQMouseEvent@@@Z"
"?mousePressEvent@QMenu@@MEAAXPEAVQMouseEvent@@@Z"
"?mousePressEvent@QMenuBar@@MEAAXPEAVQMouseEvent@@@Z"
"?mousePressEvent@QPlainTextEdit@@MEAAXPEAVQMouseEvent@@@Z"
"?mousePressEvent@QScrollBar@@MEAAXPEAVQMouseEvent@@@Z"
"?mousePressEvent@QSizeGrip@@MEAAXPEAVQMouseEvent@@@Z"
"?mousePressEvent@QSlider@@MEAAXPEAVQMouseEvent@@@Z"
"?mousePressEvent@QSplashScreen@@MEAAXPEAVQMouseEvent@@@Z"
"?mousePressEvent@QSplitterHandle@@MEAAXPEAVQMouseEvent@@@Z"
"?mousePressEvent@QTabBar@@MEAAXPEAVQMouseEvent@@@Z"
"?mousePressEvent@QTextBrowser@@MEAAXPEAVQMouseEvent@@@Z"
"?mousePressEvent@QTextEdit@@MEAAXPEAVQMouseEvent@@@Z"
"?mousePressEvent@QToolButton@@MEAAXPEAVQMouseEvent@@@Z"
"?mousePressEvent@QTreeView@@MEAAXPEAVQMouseEvent@@@Z"
"?mousePressEvent@QWidget@@MEAAXPEAVQMouseEvent@@@Z"
"?mouseReleaseEvent@QAbstractButton@@MEAAXPEAVQMouseEvent@@@Z"
"?mouseReleaseEvent@QAbstractItemView@@MEAAXPEAVQMouseEvent@@@Z"
"?mouseReleaseEvent@QAbstractScrollArea@@MEAAXPEAVQMouseEvent@@@Z"
"?mouseReleaseEvent@QAbstractSpinBox@@MEAAXPEAVQMouseEvent@@@Z"
"?mouseReleaseEvent@QComboBox@@MEAAXPEAVQMouseEvent@@@Z"
"?mouseReleaseEvent@QComboBoxPrivateContainer@@MEAAXPEAVQMouseEvent@@@Z"
"?mouseReleaseEvent@QDial@@MEAAXPEAVQMouseEvent@@@Z"
"?mouseReleaseEvent@QGraphicsItem@@MEAAXPEAVQGraphicsSceneMouseEvent@@@Z"
"?mouseReleaseEvent@QGraphicsProxyWidget@@MEAAXPEAVQGraphicsSceneMouseEvent@@@Z"
"?mouseReleaseEvent@QGraphicsScene@@MEAAXPEAVQGraphicsSceneMouseEvent@@@Z"
"?mouseReleaseEvent@QGraphicsTextItem@@MEAAXPEAVQGraphicsSceneMouseEvent@@@Z"
"?mouseReleaseEvent@QGraphicsView@@MEAAXPEAVQMouseEvent@@@Z"
"?mouseReleaseEvent@QGroupBox@@MEAAXPEAVQMouseEvent@@@Z"
"?mouseReleaseEvent@QHeaderView@@MEAAXPEAVQMouseEvent@@@Z"
"?mouseReleaseEvent@QLabel@@MEAAXPEAVQMouseEvent@@@Z"
"?mouseReleaseEvent@QLineEdit@@MEAAXPEAVQMouseEvent@@@Z"
"?mouseReleaseEvent@QListView@@MEAAXPEAVQMouseEvent@@@Z"
"?mouseReleaseEvent@QMdiSubWindow@@MEAAXPEAVQMouseEvent@@@Z"
"?mouseReleaseEvent@QMenu@@MEAAXPEAVQMouseEvent@@@Z"
"?mouseReleaseEvent@QMenuBar@@MEAAXPEAVQMouseEvent@@@Z"
"?mouseReleaseEvent@QPlainTextEdit@@MEAAXPEAVQMouseEvent@@@Z"
"?mouseReleaseEvent@QScrollBar@@MEAAXPEAVQMouseEvent@@@Z"
"?mouseReleaseEvent@QSizeGrip@@MEAAXPEAVQMouseEvent@@@Z"
"?mouseReleaseEvent@QSlider@@MEAAXPEAVQMouseEvent@@@Z"
"?mouseReleaseEvent@QSplitterHandle@@MEAAXPEAVQMouseEvent@@@Z"
"?mouseReleaseEvent@QTabBar@@MEAAXPEAVQMouseEvent@@@Z"
"?mouseReleaseEvent@QTextBrowser@@MEAAXPEAVQMouseEvent@@@Z"
"?mouseReleaseEvent@QTextEdit@@MEAAXPEAVQMouseEvent@@@Z"
"?mouseReleaseEvent@QToolButton@@MEAAXPEAVQMouseEvent@@@Z"
"?mouseReleaseEvent@QTreeView@@MEAAXPEAVQMouseEvent@@@Z"
"?mouseReleaseEvent@QWidget@@MEAAXPEAVQMouseEvent@@@Z"
"?movableAncestorIsSelected@QGraphicsItemPrivate@@SA_NPEBVQGraphicsItem@@@Z"
"?movableChanged@QToolBar@@QEAAX_N@Z"
"?move@QRubberBand@@QEAAXAEBVQPoint@@@Z"
"?move@QRubberBand@@QEAAXHH@Z"
"?move@QTouchEventWidgetSequence@QTest@@QEAAAEAV12@HAEBVQPoint@@PEAVQWidget@@@Z"
"?move@QWidget@@QEAAXAEBVQPoint@@@Z"
"?move@QWidget@@QEAAXHH@Z"
"?moveBy@QGraphicsItem@@QEAAXNN@Z"
"?moveCursor@QColumnView@@MEAA?AVQModelIndex@@W4CursorAction@QAbstractItemView@@V?$QFlags@W4KeyboardModifier@Qt@@@@@Z"
"?moveCursor@QHeaderView@@MEAA?AVQModelIndex@@W4CursorAction@QAbstractItemView@@V?$QFlags@W4KeyboardModifier@Qt@@@@@Z"
"?moveCursor@QListView@@MEAA?AVQModelIndex@@W4CursorAction@QAbstractItemView@@V?$QFlags@W4KeyboardModifier@Qt@@@@@Z"
"?moveCursor@QPlainTextEdit@@QEAAXW4MoveOperation@QTextCursor@@W4MoveMode@3@@Z"
"?moveCursor@QTableView@@MEAA?AVQModelIndex@@W4CursorAction@QAbstractItemView@@V?$QFlags@W4KeyboardModifier@Qt@@@@@Z"
"?moveCursor@QTextEdit@@QEAAXW4MoveOperation@QTextCursor@@W4MoveMode@3@@Z"
"?moveCursor@QTreeView@@MEAA?AVQModelIndex@@W4CursorAction@QAbstractItemView@@V?$QFlags@W4KeyboardModifier@Qt@@@@@Z"
"?moveCursor@QWidgetLineControl@@QEAAXH_N@Z"
"?moveCursor@QWidgetTextControl@@QEAAXW4MoveOperation@QTextCursor@@W4MoveMode@3@@Z"
"?moveEvent@QGraphicsWidget@@MEAAXPEAVQGraphicsSceneMoveEvent@@@Z"
"?moveEvent@QMdiSubWindow@@MEAAXPEAVQMoveEvent@@@Z"
"?moveEvent@QRubberBand@@MEAAXPEAVQMoveEvent@@@Z"
"?moveEvent@QSizeGrip@@MEAAXPEAVQMoveEvent@@@Z"
"?moveEvent@QWidget@@MEAAXPEAVQMoveEvent@@@Z"
"?moveRect@QWidgetPrivate@@QEAAXAEBVQRect@@HH@Z"
"?moveSection@QHeaderView@@QEAAXHH@Z"
"?moveSplitter@QSplitter@@IEAAXHH@Z"
"?moveSplitter@QSplitterHandle@@IEAAXH@Z"
"?moveStaticWidgets@QWidgetRepaintManager@@QEAAXPEAVQWidget@@@Z"
"?moveTab@QTabBar@@QEAAXHH@Z"
"?moveTab@QTabBarPrivate@@QEAAXHH@Z"
"?moveTabFinished@QTabBarPrivate@@QEAAXH@Z"
"?movement@QListView@@QEBA?AW4Movement@1@XZ"
"?movie@QLabel@@QEBAPEAVQMovie@@XZ"
"?msaaColorBuffer@QRhiWidget@@IEBAPEAVQRhiRenderBuffer@@XZ"
"?name@QStyle@@QEBA?AVQString@@XZ"
"?nameFilters@QFileDialog@@QEBA?AV?$QList@VQString@@@@XZ"
"?nativeChildrenForced@QWidgetPrivate@@QEBA_NXZ"
"?nativeCurrentChanged@QFileDialogPrivate@@QEAAXAEBVQUrl@@@Z"
"?nativeEnterDirectory@QFileDialogPrivate@@QEAAXAEBVQUrl@@@Z"
"?nativeEvent@QWidget@@MEAA_NAEBVQByteArray@@PEAXPEA_J@Z"
"?nativeEvent@QWizard@@MEAA_NAEBVQByteArray@@PEAXPEA_J@Z"
"?nativeMetricScaleFactor@QWindowsStylePrivate@@SANPEBVQWidget@@@Z"
"?nativeParentWidget@QWidget@@QEBAPEAV1@XZ"
"?nativeWindowDeco@QDockWidgetLayout@@QEBA_NXZ"
"?nativeWindowDeco@QDockWidgetLayout@@QEBA_N_N@Z"
"?naturalTextWidth@QWidgetLineControl@@QEBANXZ"
"?naturalWidgetFont@QWidgetPrivate@@QEBA?AVQFont@@I@Z"
"?naturalWidgetPalette@QWidgetPrivate@@QEBA?AVQPalette@@_K@Z"
"?navigate@QFileDialogPrivate@@QEAAXAEAUHistoryItem@1@@Z"
"?navigateBackward@QFileDialogPrivate@@QEAAXXZ"
"?navigateForward@QFileDialogPrivate@@QEAAXXZ"
"?navigateToParent@QFileDialogPrivate@@QEAAXXZ"
"?nearestGraphicsProxyWidget@QWidgetPrivate@@SAPEAVQGraphicsProxyWidget@@PEBVQWidget@@@Z"
"?newPos@QGraphicsSceneMoveEvent@@QEBA?AVQPointF@@XZ"
"?newProxyWidget@QGraphicsProxyWidget@@IEAAPEAV1@PEBVQWidget@@@Z"
"?newSize@QGraphicsSceneResizeEvent@@QEBA?AVQSizeF@@XZ"
"?next@QWizard@@QEAAXXZ"
"?nextCheckState@QAbstractButton@@MEAAXXZ"
"?nextCheckState@QCheckBox@@MEAAXXZ"
"?nextCheckState@QToolButton@@MEAAXXZ"
"?nextId@QWizard@@UEBAHXZ"
"?nextId@QWizardPage@@UEBAHXZ"
"?nextInFocusChain@QWidget@@QEBAPEAV1@XZ"
"?nextMaskBlank@QWidgetLineControl@@QEAAHH@Z"
"?nextPrevElementInFocusChain@QWidgetPrivate@@QEBAPEAVQWidget@@W4FocusDirection@1@@Z"
"?normalGeometry@QWidget@@QEBA?AVQRect@@XZ"
"?normalizedScrollRect@QTabBarPrivate@@QEAA?AVQRect@@H@Z"
"?notchSize@QDial@@QEBAHXZ"
"?notchTarget@QDial@@QEBANXZ"
"?notchesVisible@QDial@@QEBA_NXZ"
"?notify@QApplication@@UEAA_NPEAVQObject@@PEAVQEvent@@@Z"
"?notifyActiveWindowChange@QApplicationPrivate@@UEAAXPEAVQWindow@@@Z"
"?notifyDragStarted@QApplicationPrivate@@MEAAXPEBVQDrag@@@Z"
"?notifyLayoutDirectionChange@QApplicationPrivate@@UEAAXXZ"
"?notifyWindowIconChanged@QApplicationPrivate@@UEAAXXZ"
"?notify_helper@QApplicationPrivate@@QEAA_NPEAVQObject@@PEAVQEvent@@@Z"
"?offset@QGraphicsDropShadowEffect@@QEBA?AVQPointF@@XZ"
"?offset@QGraphicsPixmapItem@@QEBA?AVQPointF@@XZ"
"?offset@QHeaderView@@QEBAHXZ"
"?offset@QPanGesture@@QEBA?AVQPointF@@XZ"
"?offset@QPixmapDropShadowFilter@@QEBA?AVQPointF@@XZ"
"?offsetChanged@QGraphicsDropShadowEffect@@QEAAXAEBVQPointF@@@Z"
"?okButtonText@QInputDialog@@QEBA?AVQString@@XZ"
"?oldPos@QGraphicsSceneMoveEvent@@QEBA?AVQPointF@@XZ"
"?oldSize@QGraphicsSceneResizeEvent@@QEBA?AVQSizeF@@XZ"
"?opacity@QGraphicsItem@@QEBANXZ"
"?opacity@QGraphicsOpacityEffect@@QEBANXZ"
"?opacityChanged@QGraphicsObject@@QEAAXXZ"
"?opacityChanged@QGraphicsOpacityEffect@@QEAAXN@Z"
"?opacityMask@QGraphicsOpacityEffect@@QEBA?AVQBrush@@XZ"
"?opacityMaskChanged@QGraphicsOpacityEffect@@QEAAXAEBVQBrush@@@Z"
"?opaqueArea@QAbstractGraphicsShapeItem@@UEBA?AVQPainterPath@@XZ"
"?opaqueArea@QGraphicsEllipseItem@@UEBA?AVQPainterPath@@XZ"
"?opaqueArea@QGraphicsItem@@UEBA?AVQPainterPath@@XZ"
"?opaqueArea@QGraphicsItemGroup@@UEBA?AVQPainterPath@@XZ"
"?opaqueArea@QGraphicsLineItem@@UEBA?AVQPainterPath@@XZ"
"?opaqueArea@QGraphicsPathItem@@UEBA?AVQPainterPath@@XZ"
"?opaqueArea@QGraphicsPixmapItem@@UEBA?AVQPainterPath@@XZ"
"?opaqueArea@QGraphicsPolygonItem@@UEBA?AVQPainterPath@@XZ"
"?opaqueArea@QGraphicsRectItem@@UEBA?AVQPainterPath@@XZ"
"?opaqueArea@QGraphicsSimpleTextItem@@UEBA?AVQPainterPath@@XZ"
"?opaqueArea@QGraphicsTextItem@@UEBA?AVQPainterPath@@XZ"
"?opaqueResize@QSplitter@@QEBA_NXZ"
"?opaqueResize@QSplitterHandle@@QEBA_NXZ"
"?open@QColorDialog@@QEAAXPEAVQObject@@PEBD@Z"
"?open@QDialog@@UEAAXXZ"
"?open@QFileDialog@@QEAAXPEAVQObject@@PEBD@Z"
"?open@QFontDialog@@QEAAXPEAVQObject@@PEBD@Z"
"?open@QInputDialog@@QEAAXPEAVQObject@@PEBD@Z"
"?open@QMessageBox@@QEAAXPEAVQObject@@PEBD@Z"
"?open@QProgressDialog@@QEAAXPEAVQObject@@PEBD@Z"
"?openExternalLinks@QGraphicsTextItem@@QEBA_NXZ"
"?openExternalLinks@QLabel@@QEBA_NXZ"
"?openExternalLinks@QTextBrowser@@QEBA_NXZ"
"?openExternalLinks@QWidgetTextControl@@QEBA_NXZ"
"?openLinks@QTextBrowser@@QEBA_NXZ"
"?openPersistentEditor@QAbstractItemView@@QEAAXAEBVQModelIndex@@@Z"
"?openPersistentEditor@QListWidget@@QEAAXPEAVQListWidgetItem@@@Z"
"?openPersistentEditor@QTableWidget@@QEAAXPEAVQTableWidgetItem@@@Z"
"?openPersistentEditor@QTreeWidget@@QEAAXPEAVQTreeWidgetItem@@H@Z"
"?openPopup@QApplicationPrivate@@QEAAXPEAVQWidget@@@Z"
"?optimizationFlags@QGraphicsView@@QEBA?AV?$QFlags@W4OptimizationFlag@QGraphicsView@@@@XZ"
"?options@QColorDialog@@QEBA?AV?$QFlags@W4ColorDialogOption@QColorDialog@@@@XZ"
"?options@QFileDialog@@QEBA?AV?$QFlags@W4Option@QFileDialog@@@@XZ"
"?options@QFontDialog@@QEBA?AV?$QFlags@W4FontDialogOption@QFontDialog@@@@XZ"
"?options@QInputDialog@@QEBA?AV?$QFlags@W4InputDialogOption@QInputDialog@@@@XZ"
"?options@QMessageBox@@QEBA?AV?$QFlags@W4Option@QMessageBox@@@@XZ"
"?options@QWizard@@QEBA?AV?$QFlags@W4WizardOption@QWizard@@@@XZ"
"?orientation@QAbstractSlider@@QEBA?AW4Orientation@Qt@@XZ"
"?orientation@QDataWidgetMapper@@QEBA?AW4Orientation@Qt@@XZ"
"?orientation@QDialogButtonBox@@QEBA?AW4Orientation@Qt@@XZ"
"?orientation@QGraphicsLinearLayout@@QEBA?AW4Orientation@Qt@@XZ"
"?orientation@QGraphicsSceneWheelEvent@@QEBA?AW4Orientation@Qt@@XZ"
"?orientation@QHeaderView@@QEBA?AW4Orientation@Qt@@XZ"
"?orientation@QProgressBar@@QEBA?AW4Orientation@Qt@@XZ"
"?orientation@QSplitter@@QEBA?AW4Orientation@Qt@@XZ"
"?orientation@QSplitterHandle@@QEBA?AW4Orientation@Qt@@XZ"
"?orientation@QToolBar@@QEBA?AW4Orientation@Qt@@XZ"
"?orientationChanged@QToolBar@@QEAAXW4Orientation@Qt@@@Z"
"?origin@QGraphicsRotation@@QEBA?AVQVector3D@@XZ"
"?origin@QGraphicsScale@@QEBA?AVQVector3D@@XZ"
"?originChanged@QGraphicsRotation@@QEAAXXZ"
"?originChanged@QGraphicsScale@@QEAAXXZ"
"?originCorner@QGridLayout@@QEBA?AW4Corner@Qt@@XZ"
"?overflow@QLCDNumber@@QEAAXXZ"
"?overlappedRegion@QWidgetPrivate@@QEBA?AVQRegion@@AEBVQRect@@_N@Z"
"?overrideWindowFlags@QWidget@@QEAAXV?$QFlags@W4WindowType@Qt@@@@@Z"
"?overrideWindowState@QWidget@@QEAAXV?$QFlags@W4WindowState@Qt@@@@@Z"
"?overwriteMode@QPlainTextEdit@@QEBA_NXZ"
"?overwriteMode@QTextEdit@@QEBA_NXZ"
"?overwriteMode@QWidgetTextControl@@QEBA_NXZ"
"?ownedByLayout@QGraphicsLayoutItem@@QEBA_NXZ"
"?page@QWizard@@QEBAPEAVQWizardPage@@H@Z"
"?pageAdded@QWizard@@QEAAXH@Z"
"?pageCount@QPlainTextDocumentLayout@@UEBAHXZ"
"?pageDown@QTreeViewPrivate@@QEBAHH@Z"
"?pageIds@QWizard@@QEBA?AV?$QList@H@@XZ"
"?pageRemoved@QWizard@@QEAAXH@Z"
"?pageStep@QAbstractSlider@@QEBAHXZ"
"?pageUp@QTreeViewPrivate@@QEBAHH@Z"
"?paint@QGraphicsEllipseItem@@UEAAXPEAVQPainter@@PEBVQStyleOptionGraphicsItem@@PEAVQWidget@@@Z"
"?paint@QGraphicsItemGroup@@UEAAXPEAVQPainter@@PEBVQStyleOptionGraphicsItem@@PEAVQWidget@@@Z"
"?paint@QGraphicsLineItem@@UEAAXPEAVQPainter@@PEBVQStyleOptionGraphicsItem@@PEAVQWidget@@@Z"
"?paint@QGraphicsPathItem@@UEAAXPEAVQPainter@@PEBVQStyleOptionGraphicsItem@@PEAVQWidget@@@Z"
"?paint@QGraphicsPixmapItem@@UEAAXPEAVQPainter@@PEBVQStyleOptionGraphicsItem@@PEAVQWidget@@@Z"
"?paint@QGraphicsPolygonItem@@UEAAXPEAVQPainter@@PEBVQStyleOptionGraphicsItem@@PEAVQWidget@@@Z"
"?paint@QGraphicsProxyWidget@@UEAAXPEAVQPainter@@PEBVQStyleOptionGraphicsItem@@PEAVQWidget@@@Z"
"?paint@QGraphicsRectItem@@UEAAXPEAVQPainter@@PEBVQStyleOptionGraphicsItem@@PEAVQWidget@@@Z"
"?paint@QGraphicsSimpleTextItem@@UEAAXPEAVQPainter@@PEBVQStyleOptionGraphicsItem@@PEAVQWidget@@@Z"
"?paint@QGraphicsTextItem@@UEAAXPEAVQPainter@@PEBVQStyleOptionGraphicsItem@@PEAVQWidget@@@Z"
"?paint@QGraphicsWidget@@UEAAXPEAVQPainter@@PEBVQStyleOptionGraphicsItem@@PEAVQWidget@@@Z"
"?paint@QItemDelegate@@UEBAXPEAVQPainter@@AEBVQStyleOptionViewItem@@AEBVQModelIndex@@@Z"
"?paint@QStyledItemDelegate@@UEBAXPEAVQPainter@@AEBVQStyleOptionViewItem@@AEBVQModelIndex@@@Z"
"?paintAlternatingRowColors@QTreeViewPrivate@@QEBAXPEAVQPainter@@PEAVQStyleOptionViewItem@@HH@Z"
"?paintAndFlush@QWidgetRepaintManager@@AEAAXXZ"
"?paintBackground@QWidgetPrivate@@QEBAXPEAVQPainter@@AEBVQRegion@@V?$QFlags@W4DrawWidgetFlag@QWidgetPrivate@@@@@Z"
"?paintCell@QCalendarWidget@@MEBAXPEAVQPainter@@AEBVQRect@@VQDate@@@Z"
"?paintEngine@QWidget@@UEBAPEAVQPaintEngine@@XZ"
"?paintEvent@QAbstractScrollArea@@MEAAXPEAVQPaintEvent@@@Z"
"?paintEvent@QAbstractSpinBox@@MEAAXPEAVQPaintEvent@@@Z"
"?paintEvent@QCheckBox@@MEAAXPEAVQPaintEvent@@@Z"
"?paintEvent@QComboBox@@MEAAXPEAVQPaintEvent@@@Z"
"?paintEvent@QComboBoxPrivateContainer@@MEAAXPEAVQPaintEvent@@@Z"
"?paintEvent@QCommandLinkButton@@MEAAXPEAVQPaintEvent@@@Z"
"?paintEvent@QDateTimeEdit@@MEAAXPEAVQPaintEvent@@@Z"
"?paintEvent@QDial@@MEAAXPEAVQPaintEvent@@@Z"
"?paintEvent@QDockWidget@@MEAAXPEAVQPaintEvent@@@Z"
"?paintEvent@QFocusFrame@@MEAAXPEAVQPaintEvent@@@Z"
"?paintEvent@QFrame@@MEAAXPEAVQPaintEvent@@@Z"
"?paintEvent@QGraphicsView@@MEAAXPEAVQPaintEvent@@@Z"
"?paintEvent@QGroupBox@@MEAAXPEAVQPaintEvent@@@Z"
"?paintEvent@QHeaderView@@MEAAXPEAVQPaintEvent@@@Z"
"?paintEvent@QLCDNumber@@MEAAXPEAVQPaintEvent@@@Z"
"?paintEvent@QLabel@@MEAAXPEAVQPaintEvent@@@Z"
"?paintEvent@QLineEdit@@MEAAXPEAVQPaintEvent@@@Z"
"?paintEvent@QListView@@MEAAXPEAVQPaintEvent@@@Z"
"?paintEvent@QMdiArea@@MEAAXPEAVQPaintEvent@@@Z"
"?paintEvent@QMdiSubWindow@@MEAAXPEAVQPaintEvent@@@Z"
"?paintEvent@QMenu@@MEAAXPEAVQPaintEvent@@@Z"
"?paintEvent@QMenuBar@@MEAAXPEAVQPaintEvent@@@Z"
"?paintEvent@QPlainTextEdit@@MEAAXPEAVQPaintEvent@@@Z"
"?paintEvent@QProgressBar@@MEAAXPEAVQPaintEvent@@@Z"
"?paintEvent@QPushButton@@MEAAXPEAVQPaintEvent@@@Z"
"?paintEvent@QRadioButton@@MEAAXPEAVQPaintEvent@@@Z"
"?paintEvent@QRhiWidget@@MEAAXPEAVQPaintEvent@@@Z"
"?paintEvent@QRubberBand@@MEAAXPEAVQPaintEvent@@@Z"
"?paintEvent@QScrollBar@@MEAAXPEAVQPaintEvent@@@Z"
"?paintEvent@QSizeGrip@@MEAAXPEAVQPaintEvent@@@Z"
"?paintEvent@QSlider@@MEAAXPEAVQPaintEvent@@@Z"
"?paintEvent@QSplitterHandle@@MEAAXPEAVQPaintEvent@@@Z"
"?paintEvent@QStatusBar@@MEAAXPEAVQPaintEvent@@@Z"
"?paintEvent@QTabBar@@MEAAXPEAVQPaintEvent@@@Z"
"?paintEvent@QTabWidget@@MEAAXPEAVQPaintEvent@@@Z"
"?paintEvent@QTableView@@MEAAXPEAVQPaintEvent@@@Z"
"?paintEvent@QTextBrowser@@MEAAXPEAVQPaintEvent@@@Z"
"?paintEvent@QTextEdit@@MEAAXPEAVQPaintEvent@@@Z"
"?paintEvent@QToolBar@@MEAAXPEAVQPaintEvent@@@Z"
"?paintEvent@QToolButton@@MEAAXPEAVQPaintEvent@@@Z"
"?paintEvent@QTreeView@@MEAAXPEAVQPaintEvent@@@Z"
"?paintEvent@QWidget@@MEAAXPEAVQPaintEvent@@@Z"
"?paintEvent@QWizard@@MEAAXPEAVQPaintEvent@@@Z"
"?paintOnScreen@QWidgetPrivate@@QEAAXAEBVQRegion@@@Z"
"?paintSection@QHeaderView@@MEBAXPEAVQPainter@@AEBVQRect@@H@Z"
"?paintSiblingsRecursive@QWidgetPrivate@@QEAAXPEAVQPaintDevice@@AEBV?$QList@PEAVQObject@@@@HAEBVQRegion@@AEBVQPoint@@V?$QFlags@W4DrawWidgetFlag@QWidgetPrivate@@@@PEAVQPainter@@PEAVQWidgetRepaintManager@@@Z"
"?paintWindowFrame@QGraphicsWidget@@UEAAXPEAVQPainter@@PEBVQStyleOptionGraphicsItem@@PEAVQWidget@@@Z"
"?paintingRoles@QAbstractItemDelegate@@UEBA?AV?$QList@H@@XZ"
"?palette@QApplication@@SA?AVQPalette@@PEBD@Z"
"?palette@QApplication@@SA?AVQPalette@@PEBVQWidget@@@Z"
"?palette@QGraphicsScene@@QEBA?AVQPalette@@XZ"
"?palette@QGraphicsWidget@@QEBA?AVQPalette@@XZ"
"?palette@QToolTip@@SA?AVQPalette@@XZ"
"?palette@QWidget@@QEBAAEBVQPalette@@XZ"
"?palette@QWidgetLineControl@@QEBAAEBVQPalette@@XZ"
"?palette@QWidgetTextControl@@QEBA?AVQPalette@@XZ"
"?panel@QGraphicsItem@@QEBAPEAV1@XZ"
"?panelModality@QGraphicsItem@@QEBA?AW4PanelModality@1@XZ"
"?parent@QAccessibleWidget@@UEBAPEAVQAccessibleInterface@@XZ"
"?parent@QTreeWidgetItem@@QEBAPEAV1@XZ"
"?parentChanged@QGraphicsObject@@QEAAXXZ"
"?parentGraphicsView@QWidgetPrivate@@SAPEAVQWidget@@PEBV2@@Z"
"?parentItem@QGraphicsItem@@QEBAPEAV1@XZ"
"?parentLayoutItem@QGraphicsLayoutItem@@QEBAPEAV1@XZ"
"?parentObject@QAccessibleWidget@@IEBAPEAVQObject@@XZ"
"?parentObject@QGraphicsItem@@QEBAPEAVQGraphicsObject@@XZ"
"?parentWasChanged@QWindowContainer@@SAXPEAVQWidget@@@Z"
"?parentWasLowered@QWindowContainer@@SAXPEAVQWidget@@@Z"
"?parentWasMoved@QWindowContainer@@SAXPEAVQWidget@@@Z"
"?parentWasRaised@QWindowContainer@@SAXPEAVQWidget@@@Z"
"?parentWidget@QGraphicsItem@@QEBAPEAVQGraphicsWidget@@XZ"
"?parentWidget@QLayout@@QEBAPEAVQWidget@@XZ"
"?parentWidget@QWidget@@QEBAPEAV1@XZ"
"?parseInputMask@QWidgetLineControl@@AEAAXAEBVQString@@@Z"
"?passwordCharacter@QWidgetLineControl@@QEBA?AVQChar@@XZ"
"?passwordEchoEditing@QWidgetLineControl@@QEBA_NXZ"
"?passwordMaskDelay@QWidgetLineControl@@QEBAHXZ"
"?paste@QLineEdit@@QEAAXXZ"
"?paste@QPlainTextEdit@@QEAAXXZ"
"?paste@QTextEdit@@QEAAXXZ"
"?paste@QWidgetLineControl@@QEAAXW4Mode@QClipboard@@@Z"
"?paste@QWidgetTextControl@@QEAAXW4Mode@QClipboard@@@Z"
"?path@QGraphicsPathItem@@QEBA?AVQPainterPath@@XZ"
"?pathChanged@QFileDialogPrivate@@QEAAXAEBVQString@@@Z"
"?pathFromIndex@QCompleter@@UEBA?AVQString@@AEBVQModelIndex@@@Z"
"?pathFromIndex@QFSCompleter@@UEBA?AVQString@@AEBVQModelIndex@@@Z"
"?pen@QAbstractGraphicsShapeItem@@QEBA?AVQPen@@XZ"
"?pen@QGraphicsLineItem@@QEBA?AVQPen@@XZ"
"?phase@QGraphicsSceneWheelEvent@@QEBA?AW4ScrollPhase@Qt@@XZ"
"?pickMouseReceiver@QApplicationPrivate@@SAPEAVQWidget@@PEAV2@AEBVQPointF@@PEAV3@W4Type@QEvent@@V?$QFlags@W4MouseButton@Qt@@@@00@Z"
"?picture@QLabel@@QEBA?AVQPicture@@W4ReturnByValueConstant@Qt@@@Z"
"?picture@QLabel@@QEBA?AVQPicture@@XZ"
"?pixel@QColormap@@QEBAIAEBVQColor@@@Z"
"?pixelDelta@QGraphicsSceneWheelEvent@@QEBA?AVQPoint@@XZ"
"?pixelMetric@QCommonStyle@@UEBAHW4PixelMetric@QStyle@@PEBVQStyleOption@@PEBVQWidget@@@Z"
"?pixelMetric@QFusionStyle@@UEBAHW4PixelMetric@QStyle@@PEBVQStyleOption@@PEBVQWidget@@@Z"
"?pixelMetric@QPixmapStyle@@UEBAHW4PixelMetric@QStyle@@PEBVQStyleOption@@PEBVQWidget@@@Z"
"?pixelMetric@QProxyStyle@@UEBAHW4PixelMetric@QStyle@@PEBVQStyleOption@@PEBVQWidget@@@Z"
"?pixelMetric@QWindowsStyle@@UEBAHW4PixelMetric@QStyle@@PEBVQStyleOption@@PEBVQWidget@@@Z"
"?pixelMetricFromSystemDp@QWindowsStylePrivate@@SAHW4PixelMetric@QStyle@@PEBVQStyleOption@@PEBVQWidget@@@Z"
"?pixelPerMeter@QScroller@@QEBA?AVQPointF@@XZ"
"?pixmap@QGraphicsEffectSource@@QEBA?AVQPixmap@@W4CoordinateSystem@Qt@@PEAVQPoint@@W4PixmapPadMode@QGraphicsEffect@@@Z"
"?pixmap@QGraphicsPixmapItem@@QEBA?AVQPixmap@@XZ"
"?pixmap@QLabel@@QEBA?AVQPixmap@@W4ReturnByValueConstant@Qt@@@Z"
"?pixmap@QLabel@@QEBA?AVQPixmap@@XZ"
"?pixmap@QSplashScreen@@QEBA?BVQPixmap@@XZ"
"?pixmap@QWizard@@QEBA?AVQPixmap@@W4WizardPixmap@1@@Z"
"?pixmap@QWizardPage@@QEBA?AVQPixmap@@W4WizardPixmap@QWizard@@@Z"
"?placeholderText@QComboBox@@QEBA?AVQString@@XZ"
"?placeholderText@QLineEdit@@QEBA?AVQString@@XZ"
"?placeholderText@QPlainTextEdit@@QEBA?AVQString@@XZ"
"?placeholderText@QTextEdit@@QEBA?AVQString@@XZ"
"?platformFileDialogHelper@QFileDialogPrivate@@QEBAPEAVQPlatformFileDialogHelper@@XZ"
"?platformHelper@QDialogPrivate@@QEBAPEAVQPlatformDialogHelper@@XZ"
"?platformMenu@QMenu@@QEAAPEAVQPlatformMenu@@XZ"
"?platformMenuBar@QMenuBar@@QEAAPEAVQPlatformMenuBar@@XZ"
"?pointInsideRectAndMask@QWidgetPrivate@@QEBA_NAEBVQPointF@@@Z"
"?polish@QCommonStyle@@UEAAXAEAVQPalette@@@Z"
"?polish@QCommonStyle@@UEAAXPEAVQApplication@@@Z"
"?polish@QCommonStyle@@UEAAXPEAVQWidget@@@Z"
"?polish@QFusionStyle@@UEAAXAEAVQPalette@@@Z"
"?polish@QFusionStyle@@UEAAXPEAVQApplication@@@Z"
"?polish@QFusionStyle@@UEAAXPEAVQWidget@@@Z"
"?polish@QPixmapStyle@@UEAAXAEAVQPalette@@@Z"
"?polish@QPixmapStyle@@UEAAXPEAVQApplication@@@Z"
"?polish@QPixmapStyle@@UEAAXPEAVQWidget@@@Z"
"?polish@QProxyStyle@@UEAAXAEAVQPalette@@@Z"
"?polish@QProxyStyle@@UEAAXPEAVQApplication@@@Z"
"?polish@QProxyStyle@@UEAAXPEAVQWidget@@@Z"
"?polish@QStyle@@UEAAXAEAVQPalette@@@Z"
"?polish@QStyle@@UEAAXPEAVQApplication@@@Z"
"?polish@QStyle@@UEAAXPEAVQWidget@@@Z"
"?polish@QWindowsStyle@@UEAAXAEAVQPalette@@@Z"
"?polish@QWindowsStyle@@UEAAXPEAVQApplication@@@Z"
"?polish@QWindowsStyle@@UEAAXPEAVQWidget@@@Z"
"?polishEvent@QGraphicsWidget@@MEAAXXZ"
"?polygon@QGraphicsPolygonItem@@QEBA?AVQPolygonF@@XZ"
"?populateSceneDragDropEvent@QGraphicsViewPrivate@@QEAAXPEAVQGraphicsSceneDragDropEvent@@PEAVQDropEvent@@@Z"
"?popup@QCompleter@@QEBAPEAVQAbstractItemView@@XZ"
"?popup@QMenu@@QEAAXAEBVQPoint@@PEAVQAction@@@Z"
"?popupMode@QToolButton@@QEBA?AW4ToolButtonPopupMode@1@XZ"
"?pos@QGraphicsItem@@QEBA?AVQPointF@@XZ"
"?pos@QGraphicsSceneContextMenuEvent@@QEBA?AVQPointF@@XZ"
"?pos@QGraphicsSceneDragDropEvent@@QEBA?AVQPointF@@XZ"
"?pos@QGraphicsSceneHoverEvent@@QEBA?AVQPointF@@XZ"
"?pos@QGraphicsSceneMouseEvent@@QEBA?AVQPointF@@XZ"
"?pos@QGraphicsSceneWheelEvent@@QEBA?AVQPointF@@XZ"
"?pos@QWidget@@QEBA?AVQPoint@@XZ"
"?posAt@QGraphicsItemAnimation@@QEBA?AVQPointF@@N@Z"
"?posList@QGraphicsItemAnimation@@QEBA?AV?$QList@U?$pair@NVQPointF@@@std@@@@XZ"
"?position@QTapAndHoldGesture@@QEBA?AVQPointF@@XZ"
"?position@QTapGesture@@QEBA?AVQPointF@@XZ"
"?possibleActions@QGraphicsSceneDragDropEvent@@QEBA?AV?$QFlags@W4DropAction@Qt@@@@XZ"
"?preeditAreaText@QWidgetLineControl@@QEBA?AVQString@@XZ"
"?preeditCursor@QWidgetLineControl@@QEBAHXZ"
"?preferredHeight@QGraphicsLayoutItem@@QEBANXZ"
"?preferredSize@QGraphicsLayoutItem@@QEBA?AVQSizeF@@XZ"
"?preferredWidth@QGraphicsLayoutItem@@QEBANXZ"
"?prefix@QDoubleSpinBox@@QEBA?AVQString@@XZ"
"?prefix@QSpinBox@@QEBA?AVQString@@XZ"
"?prepareAnimatedOperation@QTreeViewPrivate@@QEAAXHW4Direction@QAbstractAnimation@@@Z"
"?prepareGeometryChange@QGraphicsItem@@IEAAXXZ"
"?prepareToRender@QWidgetPrivate@@QEAA?AVQRegion@@AEBV2@V?$QFlags@W4RenderFlag@QWidget@@@@@Z"
"?prependGraphicsTransform@QGraphicsItemPrivate@@QEAAXPEAVQGraphicsTransform@@@Z"
"?press@QTouchEventWidgetSequence@QTest@@QEAAAEAV12@HAEBVQPoint@@PEAVQWidget@@@Z"
"?pressed@QAbstractButton@@QEAAXXZ"
"?pressed@QAbstractItemView@@QEAAXAEBVQModelIndex@@@Z"
"?prevMaskBlank@QWidgetLineControl@@QEAAHH@Z"
"?previewWidget@QColumnView@@QEBAPEAVQWidget@@XZ"
"?previousInFocusChain@QWidget@@QEBAPEAV1@XZ"
"?print@QPlainTextEdit@@QEBAXPEAVQPagedPaintDevice@@@Z"
"?print@QTextEdit@@QEBAXPEAVQPagedPaintDevice@@@Z"
"?print@QWidgetTextControl@@QEBAXPEAVQPagedPaintDevice@@@Z"
"?priv@QPlainTextDocumentLayout@@AEBAPEAVQPlainTextDocumentLayoutPrivate@@XZ"
"?processEvent@QWidgetTextControl@@QEAAXPEAVQEvent@@AEBVQPointF@@PEAVQWidget@@@Z"
"?processEvent@QWidgetTextControl@@UEAAXPEAVQEvent@@AEBVQTransform@@PEAVQWidget@@@Z"
"?processInputMethodEvent@QWidgetLineControl@@QEAAXPEAVQInputMethodEvent@@@Z"
"?processKeyEvent@QWidgetLineControl@@QEAAXPEAVQKeyEvent@@@Z"
"?processPendingUpdates@QGraphicsViewPrivate@@QEAAXXZ"
"?processShortcutOverrideEvent@QWidgetLineControl@@QEAAXPEAVQKeyEvent@@@Z"
"?process_cmdline@QApplicationPrivate@@QEAAXXZ"
"?progressBarSizeFromContents@QPixmapStyle@@IEBA?AVQSize@@PEBVQStyleOption@@AEBV2@PEBVQWidget@@@Z"
"?progressStep@QProgressStyleAnimation@@QEBAHH@Z"
"?propagatePaletteChange@QWidgetPrivate@@QEAAXXZ"
"?propertyChange@QGraphicsWidget@@MEAA?AVQVariant@@AEBVQString@@AEBV2@@Z"
"?proposedAction@QGraphicsSceneDragDropEvent@@QEBA?AW4DropAction@Qt@@XZ"
"?proxy@QStyle@@QEBAPEBV1@XZ"
"?proxyModel@QFileDialog@@QEBAPEAVQAbstractProxyModel@@XZ"
"?pushButtonSizeFromContents@QPixmapStyle@@IEBA?AVQSize@@PEBVQStyleOption@@AEBV2@PEBVQWidget@@@Z"
"?qDrawBorderPixmap@@YAXPEAVQPainter@@AEBVQRect@@AEBVQMargins@@AEBVQPixmap@@12AEBUQTileRules@@V?$QFlags@W4DrawingHint@QDrawBorderPixmap@@@@@Z"
"?qDrawPlainRect@@YAXPEAVQPainter@@AEBVQRect@@AEBVQColor@@HPEBVQBrush@@@Z"
"?qDrawPlainRect@@YAXPEAVQPainter@@HHHHAEBVQColor@@HPEBVQBrush@@@Z"
"?qDrawPlainRoundedRect@@YAXPEAVQPainter@@HHHHNNAEBVQColor@@HPEBVQBrush@@@Z"
"?qDrawShadeLine@@YAXPEAVQPainter@@AEBVQPoint@@1AEBVQPalette@@_NHH@Z"
"?qDrawShadeLine@@YAXPEAVQPainter@@HHHHAEBVQPalette@@_NHH@Z"
"?qDrawShadePanel@@YAXPEAVQPainter@@AEBVQRect@@AEBVQPalette@@_NHPEBVQBrush@@@Z"
"?qDrawShadePanel@@YAXPEAVQPainter@@HHHHAEBVQPalette@@_NHPEBVQBrush@@@Z"
"?qDrawShadeRect@@YAXPEAVQPainter@@AEBVQRect@@AEBVQPalette@@_NHHPEBVQBrush@@@Z"
"?qDrawShadeRect@@YAXPEAVQPainter@@HHHHAEBVQPalette@@_NHHPEBVQBrush@@@Z"
"?qDrawWinButton@@YAXPEAVQPainter@@AEBVQRect@@AEBVQPalette@@_NPEBVQBrush@@@Z"
"?qDrawWinButton@@YAXPEAVQPainter@@HHHHAEBVQPalette@@_NPEBVQBrush@@@Z"
"?qDrawWinPanel@@YAXPEAVQPainter@@AEBVQRect@@AEBVQPalette@@_NPEBVQBrush@@@Z"
"?qDrawWinPanel@@YAXPEAVQPainter@@HHHHAEBVQPalette@@_NPEBVQBrush@@@Z"
"?qFadeEffect@@YAXPEAVQWidget@@H@Z"
"?qGeomCalc@@YAXAEAV?$QList@UQLayoutStruct@@@@HHHHH@Z"
"?qRegisterNormalizedMetaType_QGesture__GestureCancelPolicy@@YAHAEBVQByteArray@@@Z"
"?qRegisterNormalizedMetaType_QGraphicsItem_ptr@@YAHAEBVQByteArray@@@Z"
"?qRegisterNormalizedMetaType_QPinchGesture__ChangeFlags@@YAHAEBVQByteArray@@@Z"
"?qRegisterNormalizedMetaType_QScrollerProperties__FrameRates@@YAHAEBVQByteArray@@@Z"
"?qRegisterNormalizedMetaType_QScrollerProperties__OvershootPolicy@@YAHAEBVQByteArray@@@Z"
"?qRegisterNormalizedMetaType_Qt__GestureState@@YAHAEBVQByteArray@@@Z"
"?qRegisterNormalizedMetaType_Qt__GestureType@@YAHAEBVQByteArray@@@Z"
"?qRequireVersion@@YAXHQEAPEADVQAnyStringView@@@Z"
"?qScrollEffect@@YAXPEAVQWidget@@IH@Z"
"?qSmartMaxSize@@YA?AVQSize@@AEBV1@00AEBVQSizePolicy@@V?$QFlags@W4AlignmentFlag@Qt@@@@@Z"
"?qSmartMaxSize@@YA?AVQSize@@PEBVQWidget@@V?$QFlags@W4AlignmentFlag@Qt@@@@@Z"
"?qSmartMaxSize@@YA?AVQSize@@PEBVQWidgetItem@@V?$QFlags@W4AlignmentFlag@Qt@@@@@Z"
"?qSmartMinSize@@YA?AVQSize@@AEBV1@000AEBVQSizePolicy@@@Z"
"?qSmartMinSize@@YA?AVQSize@@PEBVQWidget@@@Z"
"?qSmartMinSize@@YA?AVQSize@@PEBVQWidgetItem@@@Z"
"?qSmartSpacing@@YAHPEBVQLayout@@W4PixelMetric@QStyle@@@Z"
"?qWaitForWindowActive@QTest@@YA_NPEAVQWidget@@H@Z"
"?qWaitForWindowExposed@QTest@@YA_NPEAVQWidget@@H@Z"
"?qWaitForWindowFocused@QTest@@YA_NPEAVQWidget@@VQDeadlineTimer@@@Z"
"?q_func@QApplicationPrivate@@AEAAPEAVQApplication@@XZ"
"?q_func@QApplicationPrivate@@AEBAPEBVQApplication@@XZ"
"?q_func@QCommonStylePrivate@@AEAAPEAVQCommonStyle@@XZ"
"?q_func@QCommonStylePrivate@@AEBAPEBVQCommonStyle@@XZ"
"?q_func@QDialogPrivate@@AEAAPEAVQDialog@@XZ"
"?q_func@QDialogPrivate@@AEBAPEBVQDialog@@XZ"
"?q_func@QFileDialogPrivate@@AEAAPEAVQFileDialog@@XZ"
"?q_func@QFileDialogPrivate@@AEBAPEBVQFileDialog@@XZ"
"?q_func@QGraphicsEffectPrivate@@AEAAPEAVQGraphicsEffect@@XZ"
"?q_func@QGraphicsEffectPrivate@@AEBAPEBVQGraphicsEffect@@XZ"
"?q_func@QGraphicsItemPrivate@@AEAAPEAVQGraphicsItem@@XZ"
"?q_func@QGraphicsItemPrivate@@AEBAPEBVQGraphicsItem@@XZ"
"?q_func@QGraphicsViewPrivate@@AEAAPEAVQGraphicsView@@XZ"
"?q_func@QGraphicsViewPrivate@@AEBAPEBVQGraphicsView@@XZ"
"?q_func@QLayoutPrivate@@AEAAPEAVQLayout@@XZ"
"?q_func@QLayoutPrivate@@AEBAPEBVQLayout@@XZ"
"?q_func@QTabBarPrivate@@AEAAPEAVQTabBar@@XZ"
"?q_func@QTabBarPrivate@@AEBAPEBVQTabBar@@XZ"
"?q_func@QTreeViewPrivate@@AEAAPEAVQTreeView@@XZ"
"?q_func@QTreeViewPrivate@@AEBAPEBVQTreeView@@XZ"
"?q_func@QWidgetPrivate@@AEAAPEAVQWidget@@XZ"
"?q_func@QWidgetPrivate@@AEBAPEBVQWidget@@XZ"
"?q_func@QWindowsStylePrivate@@AEAAPEAVQWindowsStyle@@XZ"
"?q_func@QWindowsStylePrivate@@AEBAPEBVQWindowsStyle@@XZ"
"?q_func@QtWidgetsActionPrivate@@AEAAPEAVQAction@@XZ"
"?q_func@QtWidgetsActionPrivate@@AEBAPEBVQAction@@XZ"
"?qtHandler@QErrorMessage@@SAPEAV1@XZ"
"?qt_app_fonts_hash@@YAPEAV?$QHash@VQByteArray@@VQFont@@@@XZ"
"?qt_button_down@@3PEAVQWidget@@EA"
"?qt_graphicsItem_highlightSelected@@YAXPEAVQGraphicsItem@@PEAVQPainter@@PEBVQStyleOptionGraphicsItem@@@Z"
"?qt_metacall@QAbstractButton@@UEAAHW4Call@QMetaObject@@HPEAPEAX@Z"
"?qt_metacall@QAbstractItemDelegate@@UEAAHW4Call@QMetaObject@@HPEAPEAX@Z"
"?qt_metacall@QAbstractItemView@@UEAAHW4Call@QMetaObject@@HPEAPEAX@Z"
"?qt_metacall@QAbstractScrollArea@@UEAAHW4Call@QMetaObject@@HPEAPEAX@Z"
"?qt_metacall@QAbstractSlider@@UEAAHW4Call@QMetaObject@@HPEAPEAX@Z"
"?qt_metacall@QAbstractSpinBox@@UEAAHW4Call@QMetaObject@@HPEAPEAX@Z"
"?qt_metacall@QApplication@@UEAAHW4Call@QMetaObject@@HPEAPEAX@Z"
"?qt_metacall@QBlendStyleAnimation@@UEAAHW4Call@QMetaObject@@HPEAPEAX@Z"
"?qt_metacall@QBoxLayout@@UEAAHW4Call@QMetaObject@@HPEAPEAX@Z"
"?qt_metacall@QButtonGroup@@UEAAHW4Call@QMetaObject@@HPEAPEAX@Z"
"?qt_metacall@QCalendarWidget@@UEAAHW4Call@QMetaObject@@HPEAPEAX@Z"
"?qt_metacall@QCheckBox@@UEAAHW4Call@QMetaObject@@HPEAPEAX@Z"
"?qt_metacall@QColorDialog@@UEAAHW4Call@QMetaObject@@HPEAPEAX@Z"
"?qt_metacall@QColumnView@@UEAAHW4Call@QMetaObject@@HPEAPEAX@Z"
"?qt_metacall@QComboBox@@UEAAHW4Call@QMetaObject@@HPEAPEAX@Z"
"?qt_metacall@QComboBoxPrivateContainer@@UEAAHW4Call@QMetaObject@@HPEAPEAX@Z"
"?qt_metacall@QCommandLinkButton@@UEAAHW4Call@QMetaObject@@HPEAPEAX@Z"
"?qt_metacall@QCommonStyle@@UEAAHW4Call@QMetaObject@@HPEAPEAX@Z"
"?qt_metacall@QCompleter@@UEAAHW4Call@QMetaObject@@HPEAPEAX@Z"
"?qt_metacall@QDataWidgetMapper@@UEAAHW4Call@QMetaObject@@HPEAPEAX@Z"
"?qt_metacall@QDateEdit@@UEAAHW4Call@QMetaObject@@HPEAPEAX@Z"
"?qt_metacall@QDateTimeEdit@@UEAAHW4Call@QMetaObject@@HPEAPEAX@Z"
"?qt_metacall@QDial@@UEAAHW4Call@QMetaObject@@HPEAPEAX@Z"
"?qt_metacall@QDialog@@UEAAHW4Call@QMetaObject@@HPEAPEAX@Z"
"?qt_metacall@QDialogButtonBox@@UEAAHW4Call@QMetaObject@@HPEAPEAX@Z"
"?qt_metacall@QDockWidget@@UEAAHW4Call@QMetaObject@@HPEAPEAX@Z"
"?qt_metacall@QDockWidgetLayout@@UEAAHW4Call@QMetaObject@@HPEAPEAX@Z"
"?qt_metacall@QDoubleSpinBox@@UEAAHW4Call@QMetaObject@@HPEAPEAX@Z"
"?qt_metacall@QErrorMessage@@UEAAHW4Call@QMetaObject@@HPEAPEAX@Z"
"?qt_metacall@QFileDialog@@UEAAHW4Call@QMetaObject@@HPEAPEAX@Z"
"?qt_metacall@QFlickGesture@@UEAAHW4Call@QMetaObject@@HPEAPEAX@Z"
"?qt_metacall@QFocusFrame@@UEAAHW4Call@QMetaObject@@HPEAPEAX@Z"
"?qt_metacall@QFontComboBox@@UEAAHW4Call@QMetaObject@@HPEAPEAX@Z"
"?qt_metacall@QFontDialog@@UEAAHW4Call@QMetaObject@@HPEAPEAX@Z"
"?qt_metacall@QFormLayout@@UEAAHW4Call@QMetaObject@@HPEAPEAX@Z"
"?qt_metacall@QFrame@@UEAAHW4Call@QMetaObject@@HPEAPEAX@Z"
"?qt_metacall@QFusionStyle@@UEAAHW4Call@QMetaObject@@HPEAPEAX@Z"
"?qt_metacall@QGesture@@UEAAHW4Call@QMetaObject@@HPEAPEAX@Z"
"?qt_metacall@QGraphicsAnchor@@UEAAHW4Call@QMetaObject@@HPEAPEAX@Z"
"?qt_metacall@QGraphicsBlurEffect@@UEAAHW4Call@QMetaObject@@HPEAPEAX@Z"
"?qt_metacall@QGraphicsColorizeEffect@@UEAAHW4Call@QMetaObject@@HPEAPEAX@Z"
"?qt_metacall@QGraphicsDropShadowEffect@@UEAAHW4Call@QMetaObject@@HPEAPEAX@Z"
"?qt_metacall@QGraphicsEffect@@UEAAHW4Call@QMetaObject@@HPEAPEAX@Z"
"?qt_metacall@QGraphicsEffectSource@@UEAAHW4Call@QMetaObject@@HPEAPEAX@Z"
"?qt_metacall@QGraphicsItemAnimation@@UEAAHW4Call@QMetaObject@@HPEAPEAX@Z"
"?qt_metacall@QGraphicsObject@@UEAAHW4Call@QMetaObject@@HPEAPEAX@Z"
"?qt_metacall@QGraphicsOpacityEffect@@UEAAHW4Call@QMetaObject@@HPEAPEAX@Z"
"?qt_metacall@QGraphicsProxyWidget@@UEAAHW4Call@QMetaObject@@HPEAPEAX@Z"
"?qt_metacall@QGraphicsRotation@@UEAAHW4Call@QMetaObject@@HPEAPEAX@Z"
"?qt_metacall@QGraphicsScale@@UEAAHW4Call@QMetaObject@@HPEAPEAX@Z"
"?qt_metacall@QGraphicsScene@@UEAAHW4Call@QMetaObject@@HPEAPEAX@Z"
"?qt_metacall@QGraphicsTextItem@@UEAAHW4Call@QMetaObject@@HPEAPEAX@Z"
"?qt_metacall@QGraphicsTransform@@UEAAHW4Call@QMetaObject@@HPEAPEAX@Z"
"?qt_metacall@QGraphicsView@@UEAAHW4Call@QMetaObject@@HPEAPEAX@Z"
"?qt_metacall@QGraphicsWidget@@UEAAHW4Call@QMetaObject@@HPEAPEAX@Z"
"?qt_metacall@QGridLayout@@UEAAHW4Call@QMetaObject@@HPEAPEAX@Z"
"?qt_metacall@QGroupBox@@UEAAHW4Call@QMetaObject@@HPEAPEAX@Z"
"?qt_metacall@QHBoxLayout@@UEAAHW4Call@QMetaObject@@HPEAPEAX@Z"
"?qt_metacall@QHeaderView@@UEAAHW4Call@QMetaObject@@HPEAPEAX@Z"
"?qt_metacall@QInputDialog@@UEAAHW4Call@QMetaObject@@HPEAPEAX@Z"
"?qt_metacall@QItemDelegate@@UEAAHW4Call@QMetaObject@@HPEAPEAX@Z"
"?qt_metacall@QKeySequenceEdit@@UEAAHW4Call@QMetaObject@@HPEAPEAX@Z"
"?qt_metacall@QLCDNumber@@UEAAHW4Call@QMetaObject@@HPEAPEAX@Z"
"?qt_metacall@QLabel@@UEAAHW4Call@QMetaObject@@HPEAPEAX@Z"
"?qt_metacall@QLayout@@UEAAHW4Call@QMetaObject@@HPEAPEAX@Z"
"?qt_metacall@QLineEdit@@UEAAHW4Call@QMetaObject@@HPEAPEAX@Z"
"?qt_metacall@QListView@@UEAAHW4Call@QMetaObject@@HPEAPEAX@Z"
"?qt_metacall@QListWidget@@UEAAHW4Call@QMetaObject@@HPEAPEAX@Z"
"?qt_metacall@QMainWindow@@UEAAHW4Call@QMetaObject@@HPEAPEAX@Z"
"?qt_metacall@QMdiArea@@UEAAHW4Call@QMetaObject@@HPEAPEAX@Z"
"?qt_metacall@QMdiSubWindow@@UEAAHW4Call@QMetaObject@@HPEAPEAX@Z"
"?qt_metacall@QMenu@@UEAAHW4Call@QMetaObject@@HPEAPEAX@Z"
"?qt_metacall@QMenuBar@@UEAAHW4Call@QMetaObject@@HPEAPEAX@Z"
"?qt_metacall@QMessageBox@@UEAAHW4Call@QMetaObject@@HPEAPEAX@Z"
"?qt_metacall@QNumberStyleAnimation@@UEAAHW4Call@QMetaObject@@HPEAPEAX@Z"
"?qt_metacall@QPanGesture@@UEAAHW4Call@QMetaObject@@HPEAPEAX@Z"
"?qt_metacall@QPinchGesture@@UEAAHW4Call@QMetaObject@@HPEAPEAX@Z"
"?qt_metacall@QPixmapBlurFilter@@UEAAHW4Call@QMetaObject@@HPEAPEAX@Z"
"?qt_metacall@QPixmapColorizeFilter@@UEAAHW4Call@QMetaObject@@HPEAPEAX@Z"
"?qt_metacall@QPixmapConvolutionFilter@@UEAAHW4Call@QMetaObject@@HPEAPEAX@Z"
"?qt_metacall@QPixmapDropShadowFilter@@UEAAHW4Call@QMetaObject@@HPEAPEAX@Z"
"?qt_metacall@QPixmapFilter@@UEAAHW4Call@QMetaObject@@HPEAPEAX@Z"
"?qt_metacall@QPixmapStyle@@UEAAHW4Call@QMetaObject@@HPEAPEAX@Z"
"?qt_metacall@QPlainTextDocumentLayout@@UEAAHW4Call@QMetaObject@@HPEAPEAX@Z"
"?qt_metacall@QPlainTextEdit@@UEAAHW4Call@QMetaObject@@HPEAPEAX@Z"
"?qt_metacall@QProgressBar@@UEAAHW4Call@QMetaObject@@HPEAPEAX@Z"
"?qt_metacall@QProgressDialog@@UEAAHW4Call@QMetaObject@@HPEAPEAX@Z"
"?qt_metacall@QProgressStyleAnimation@@UEAAHW4Call@QMetaObject@@HPEAPEAX@Z"
"?qt_metacall@QProxyStyle@@UEAAHW4Call@QMetaObject@@HPEAPEAX@Z"
"?qt_metacall@QPushButton@@UEAAHW4Call@QMetaObject@@HPEAPEAX@Z"
"?qt_metacall@QRadioButton@@UEAAHW4Call@QMetaObject@@HPEAPEAX@Z"
"?qt_metacall@QRhiWidget@@UEAAHW4Call@QMetaObject@@HPEAPEAX@Z"
"?qt_metacall@QRubberBand@@UEAAHW4Call@QMetaObject@@HPEAPEAX@Z"
"?qt_metacall@QScrollArea@@UEAAHW4Call@QMetaObject@@HPEAPEAX@Z"
"?qt_metacall@QScrollBar@@UEAAHW4Call@QMetaObject@@HPEAPEAX@Z"
"?qt_metacall@QScrollbarStyleAnimation@@UEAAHW4Call@QMetaObject@@HPEAPEAX@Z"
"?qt_metacall@QScroller@@UEAAHW4Call@QMetaObject@@HPEAPEAX@Z"
"?qt_metacall@QSizeGrip@@UEAAHW4Call@QMetaObject@@HPEAPEAX@Z"
"?qt_metacall@QSlider@@UEAAHW4Call@QMetaObject@@HPEAPEAX@Z"
"?qt_metacall@QSpinBox@@UEAAHW4Call@QMetaObject@@HPEAPEAX@Z"
"?qt_metacall@QSplashScreen@@UEAAHW4Call@QMetaObject@@HPEAPEAX@Z"
"?qt_metacall@QSplitter@@UEAAHW4Call@QMetaObject@@HPEAPEAX@Z"
"?qt_metacall@QSplitterHandle@@UEAAHW4Call@QMetaObject@@HPEAPEAX@Z"
"?qt_metacall@QStackedLayout@@UEAAHW4Call@QMetaObject@@HPEAPEAX@Z"
"?qt_metacall@QStackedWidget@@UEAAHW4Call@QMetaObject@@HPEAPEAX@Z"
"?qt_metacall@QStatusBar@@UEAAHW4Call@QMetaObject@@HPEAPEAX@Z"
"?qt_metacall@QStyle@@UEAAHW4Call@QMetaObject@@HPEAPEAX@Z"
"?qt_metacall@QStyleAnimation@@UEAAHW4Call@QMetaObject@@HPEAPEAX@Z"
"?qt_metacall@QStylePlugin@@UEAAHW4Call@QMetaObject@@HPEAPEAX@Z"
"?qt_metacall@QStyledItemDelegate@@UEAAHW4Call@QMetaObject@@HPEAPEAX@Z"
"?qt_metacall@QSwipeGesture@@UEAAHW4Call@QMetaObject@@HPEAPEAX@Z"
"?qt_metacall@QSystemTrayIcon@@UEAAHW4Call@QMetaObject@@HPEAPEAX@Z"
"?qt_metacall@QTabBar@@UEAAHW4Call@QMetaObject@@HPEAPEAX@Z"
"?qt_metacall@QTabWidget@@UEAAHW4Call@QMetaObject@@HPEAPEAX@Z"
"?qt_metacall@QTableView@@UEAAHW4Call@QMetaObject@@HPEAPEAX@Z"
"?qt_metacall@QTableWidget@@UEAAHW4Call@QMetaObject@@HPEAPEAX@Z"
"?qt_metacall@QTapAndHoldGesture@@UEAAHW4Call@QMetaObject@@HPEAPEAX@Z"
"?qt_metacall@QTapGesture@@UEAAHW4Call@QMetaObject@@HPEAPEAX@Z"
"?qt_metacall@QTextBrowser@@UEAAHW4Call@QMetaObject@@HPEAPEAX@Z"
"?qt_metacall@QTextEdit@@UEAAHW4Call@QMetaObject@@HPEAPEAX@Z"
"?qt_metacall@QTimeEdit@@UEAAHW4Call@QMetaObject@@HPEAPEAX@Z"
"?qt_metacall@QToolBar@@UEAAHW4Call@QMetaObject@@HPEAPEAX@Z"
"?qt_metacall@QToolBox@@UEAAHW4Call@QMetaObject@@HPEAPEAX@Z"
"?qt_metacall@QToolButton@@UEAAHW4Call@QMetaObject@@HPEAPEAX@Z"
"?qt_metacall@QTreeView@@UEAAHW4Call@QMetaObject@@HPEAPEAX@Z"
"?qt_metacall@QTreeWidget@@UEAAHW4Call@QMetaObject@@HPEAPEAX@Z"
"?qt_metacall@QUndoView@@UEAAHW4Call@QMetaObject@@HPEAPEAX@Z"
"?qt_metacall@QVBoxLayout@@UEAAHW4Call@QMetaObject@@HPEAPEAX@Z"
"?qt_metacall@QWidget@@UEAAHW4Call@QMetaObject@@HPEAPEAX@Z"
"?qt_metacall@QWidgetAction@@UEAAHW4Call@QMetaObject@@HPEAPEAX@Z"
"?qt_metacall@QWidgetLineControl@@UEAAHW4Call@QMetaObject@@HPEAPEAX@Z"
"?qt_metacall@QWidgetTextControl@@UEAAHW4Call@QMetaObject@@HPEAPEAX@Z"
"?qt_metacall@QWindowContainer@@UEAAHW4Call@QMetaObject@@HPEAPEAX@Z"
"?qt_metacall@QWindowsStyle@@UEAAHW4Call@QMetaObject@@HPEAPEAX@Z"
"?qt_metacall@QWizard@@UEAAHW4Call@QMetaObject@@HPEAPEAX@Z"
"?qt_metacall@QWizardPage@@UEAAHW4Call@QMetaObject@@HPEAPEAX@Z"
"?qt_metacast@QAbstractButton@@UEAAPEAXPEBD@Z"
"?qt_metacast@QAbstractItemDelegate@@UEAAPEAXPEBD@Z"
"?qt_metacast@QAbstractItemView@@UEAAPEAXPEBD@Z"
"?qt_metacast@QAbstractScrollArea@@UEAAPEAXPEBD@Z"
"?qt_metacast@QAbstractSlider@@UEAAPEAXPEBD@Z"
"?qt_metacast@QAbstractSpinBox@@UEAAPEAXPEBD@Z"
"?qt_metacast@QApplication@@UEAAPEAXPEBD@Z"
"?qt_metacast@QBlendStyleAnimation@@UEAAPEAXPEBD@Z"
"?qt_metacast@QBoxLayout@@UEAAPEAXPEBD@Z"
"?qt_metacast@QButtonGroup@@UEAAPEAXPEBD@Z"
"?qt_metacast@QCalendarWidget@@UEAAPEAXPEBD@Z"
"?qt_metacast@QCheckBox@@UEAAPEAXPEBD@Z"
"?qt_metacast@QColorDialog@@UEAAPEAXPEBD@Z"
"?qt_metacast@QColumnView@@UEAAPEAXPEBD@Z"
"?qt_metacast@QComboBox@@UEAAPEAXPEBD@Z"
"?qt_metacast@QComboBoxPrivateContainer@@UEAAPEAXPEBD@Z"
"?qt_metacast@QCommandLinkButton@@UEAAPEAXPEBD@Z"
"?qt_metacast@QCommonStyle@@UEAAPEAXPEBD@Z"
"?qt_metacast@QCompleter@@UEAAPEAXPEBD@Z"
"?qt_metacast@QDataWidgetMapper@@UEAAPEAXPEBD@Z"
"?qt_metacast@QDateEdit@@UEAAPEAXPEBD@Z"
"?qt_metacast@QDateTimeEdit@@UEAAPEAXPEBD@Z"
"?qt_metacast@QDial@@UEAAPEAXPEBD@Z"
"?qt_metacast@QDialog@@UEAAPEAXPEBD@Z"
"?qt_metacast@QDialogButtonBox@@UEAAPEAXPEBD@Z"
"?qt_metacast@QDockWidget@@UEAAPEAXPEBD@Z"
"?qt_metacast@QDockWidgetLayout@@UEAAPEAXPEBD@Z"
"?qt_metacast@QDoubleSpinBox@@UEAAPEAXPEBD@Z"
"?qt_metacast@QErrorMessage@@UEAAPEAXPEBD@Z"
"?qt_metacast@QFileDialog@@UEAAPEAXPEBD@Z"
"?qt_metacast@QFlickGesture@@UEAAPEAXPEBD@Z"
"?qt_metacast@QFocusFrame@@UEAAPEAXPEBD@Z"
"?qt_metacast@QFontComboBox@@UEAAPEAXPEBD@Z"
"?qt_metacast@QFontDialog@@UEAAPEAXPEBD@Z"
"?qt_metacast@QFormLayout@@UEAAPEAXPEBD@Z"
"?qt_metacast@QFrame@@UEAAPEAXPEBD@Z"
"?qt_metacast@QFusionStyle@@UEAAPEAXPEBD@Z"
"?qt_metacast@QGesture@@UEAAPEAXPEBD@Z"
"?qt_metacast@QGraphicsAnchor@@UEAAPEAXPEBD@Z"
"?qt_metacast@QGraphicsBlurEffect@@UEAAPEAXPEBD@Z"
"?qt_metacast@QGraphicsColorizeEffect@@UEAAPEAXPEBD@Z"
"?qt_metacast@QGraphicsDropShadowEffect@@UEAAPEAXPEBD@Z"
"?qt_metacast@QGraphicsEffect@@UEAAPEAXPEBD@Z"
"?qt_metacast@QGraphicsEffectSource@@UEAAPEAXPEBD@Z"
"?qt_metacast@QGraphicsItemAnimation@@UEAAPEAXPEBD@Z"
"?qt_metacast@QGraphicsObject@@UEAAPEAXPEBD@Z"
"?qt_metacast@QGraphicsOpacityEffect@@UEAAPEAXPEBD@Z"
"?qt_metacast@QGraphicsProxyWidget@@UEAAPEAXPEBD@Z"
"?qt_metacast@QGraphicsRotation@@UEAAPEAXPEBD@Z"
"?qt_metacast@QGraphicsScale@@UEAAPEAXPEBD@Z"
"?qt_metacast@QGraphicsScene@@UEAAPEAXPEBD@Z"
"?qt_metacast@QGraphicsTextItem@@UEAAPEAXPEBD@Z"
"?qt_metacast@QGraphicsTransform@@UEAAPEAXPEBD@Z"
"?qt_metacast@QGraphicsView@@UEAAPEAXPEBD@Z"
"?qt_metacast@QGraphicsWidget@@UEAAPEAXPEBD@Z"
"?qt_metacast@QGridLayout@@UEAAPEAXPEBD@Z"
"?qt_metacast@QGroupBox@@UEAAPEAXPEBD@Z"
"?qt_metacast@QHBoxLayout@@UEAAPEAXPEBD@Z"
"?qt_metacast@QHeaderView@@UEAAPEAXPEBD@Z"
"?qt_metacast@QInputDialog@@UEAAPEAXPEBD@Z"
"?qt_metacast@QItemDelegate@@UEAAPEAXPEBD@Z"
"?qt_metacast@QKeySequenceEdit@@UEAAPEAXPEBD@Z"
"?qt_metacast@QLCDNumber@@UEAAPEAXPEBD@Z"
"?qt_metacast@QLabel@@UEAAPEAXPEBD@Z"
"?qt_metacast@QLayout@@UEAAPEAXPEBD@Z"
"?qt_metacast@QMenu@@UEAAPEAXPEBD@Z"
"?qt_metacast@QMenuBar@@UEAAPEAXPEBD@Z"
"?qt_metacast@QMessageBox@@UEAAPEAXPEBD@Z"
"?qt_metacast@QNumberStyleAnimation@@UEAAPEAXPEBD@Z"
"?qt_metacast@QPanGesture@@UEAAPEAXPEBD@Z"
"?qt_metacast@QPinchGesture@@UEAAPEAXPEBD@Z"
"?qt_metacast@QPixmapBlurFilter@@UEAAPEAXPEBD@Z"
"?qt_metacast@QPixmapColorizeFilter@@UEAAPEAXPEBD@Z"
"?qt_metacast@QPixmapConvolutionFilter@@UEAAPEAXPEBD@Z"
"?qt_metacast@QPixmapDropShadowFilter@@UEAAPEAXPEBD@Z"
"?qt_metacast@QPixmapFilter@@UEAAPEAXPEBD@Z"
"?qt_metacast@QPixmapStyle@@UEAAPEAXPEBD@Z"
"?qt_metacast@QPlainTextDocumentLayout@@UEAAPEAXPEBD@Z"
"?qt_metacast@QPlainTextEdit@@UEAAPEAXPEBD@Z"
"?qt_metacast@QProgressBar@@UEAAPEAXPEBD@Z"
"?qt_metacast@QProgressDialog@@UEAAPEAXPEBD@Z"
"?qt_metacast@QProgressStyleAnimation@@UEAAPEAXPEBD@Z"
"?qt_metacast@QProxyStyle@@UEAAPEAXPEBD@Z"
"?qt_metacast@QPushButton@@UEAAPEAXPEBD@Z"
"?qt_metacast@QRadioButton@@UEAAPEAXPEBD@Z"
"?qt_metacast@QRhiWidget@@UEAAPEAXPEBD@Z"
"?qt_metacast@QRubberBand@@UEAAPEAXPEBD@Z"
"?qt_metacast@QScrollArea@@UEAAPEAXPEBD@Z"
"?qt_metacast@QScrollBar@@UEAAPEAXPEBD@Z"
"?qt_metacast@QScrollbarStyleAnimation@@UEAAPEAXPEBD@Z"
"?qt_metacast@QScroller@@UEAAPEAXPEBD@Z"
"?qt_metacast@QSizeGrip@@UEAAPEAXPEBD@Z"
"?qt_metacast@QSlider@@UEAAPEAXPEBD@Z"
"?qt_metacast@QSpinBox@@UEAAPEAXPEBD@Z"
"?qt_metacast@QSplashScreen@@UEAAPEAXPEBD@Z"
"?qt_metacast@QSplitter@@UEAAPEAXPEBD@Z"
"?qt_metacast@QSplitterHandle@@UEAAPEAXPEBD@Z"
"?qt_metacast@QStackedLayout@@UEAAPEAXPEBD@Z"
"?qt_metacast@QStackedWidget@@UEAAPEAXPEBD@Z"
"?qt_metacast@QStatusBar@@UEAAPEAXPEBD@Z"
"?qt_metacast@QStyle@@UEAAPEAXPEBD@Z"
"?qt_metacast@QStyleAnimation@@UEAAPEAXPEBD@Z"
"?qt_metacast@QStylePlugin@@UEAAPEAXPEBD@Z"
"?qt_metacast@QStyledItemDelegate@@UEAAPEAXPEBD@Z"
"?qt_metacast@QSwipeGesture@@UEAAPEAXPEBD@Z"
"?qt_metacast@QSystemTrayIcon@@UEAAPEAXPEBD@Z"
"?qt_metacast@QTabBar@@UEAAPEAXPEBD@Z"
"?qt_metacast@QTabWidget@@UEAAPEAXPEBD@Z"
"?qt_metacast@QTableView@@UEAAPEAXPEBD@Z"
"?qt_metacast@QTableWidget@@UEAAPEAXPEBD@Z"
"?qt_metacast@QTapAndHoldGesture@@UEAAPEAXPEBD@Z"
"?qt_metacast@QTapGesture@@UEAAPEAXPEBD@Z"
"?qt_metacast@QTextBrowser@@UEAAPEAXPEBD@Z"
"?qt_metacast@QTextEdit@@UEAAPEAXPEBD@Z"
"?qt_metacast@QTimeEdit@@UEAAPEAXPEBD@Z"
"?qt_metacast@QToolBar@@UEAAPEAXPEBD@Z"
"?qt_metacast@QToolBox@@UEAAPEAXPEBD@Z"
"?qt_metacast@QToolButton@@UEAAPEAXPEBD@Z"
"?qt_metacast@QTreeView@@UEAAPEAXPEBD@Z"
"?qt_metacast@QTreeWidget@@UEAAPEAXPEBD@Z"
"?qt_metacast@QUndoView@@UEAAPEAXPEBD@Z"
"?qt_metacast@QVBoxLayout@@UEAAPEAXPEBD@Z"
"?qt_metacast@QWidget@@UEAAPEAXPEBD@Z"
"?qt_metacast@QWidgetAction@@UEAAPEAXPEBD@Z"
"?qt_metacast@QWidgetLineControl@@UEAAPEAXPEBD@Z"
"?qt_metacast@QWidgetTextControl@@UEAAPEAXPEBD@Z"
"?qt_metacast@QWindowContainer@@UEAAPEAXPEBD@Z"
"?qt_metacast@QWindowsStyle@@UEAAPEAXPEBD@Z"
"?qt_metacast@QWizard@@UEAAPEAXPEBD@Z"
"?qt_metacast@QWizardPage@@UEAAPEAXPEBD@Z"
"?qt_qscrollbarStyleOption@@YA?AVQStyleOptionSlider@@PEAVQScrollBar@@@Z"
"?qt_qsliderStyleOption@@YA?AVQStyleOptionSlider@@PEAVQSlider@@@Z"
"?qt_qwidget_data@@YAPEAVQWidgetData@@PEAVQWidget@@@Z"
"?qt_static_metacall@QAbstractButton@@CAXPEAVQObject@@W4Call@QMetaObject@@HPEAPEAX@Z"
"?qt_static_metacall@QAbstractItemDelegate@@CAXPEAVQObject@@W4Call@QMetaObject@@HPEAPEAX@Z"
"?qt_static_metacall@QAbstractItemView@@CAXPEAVQObject@@W4Call@QMetaObject@@HPEAPEAX@Z"
"?qt_static_metacall@QAbstractScrollArea@@CAXPEAVQObject@@W4Call@QMetaObject@@HPEAPEAX@Z"
"?qt_static_metacall@QAbstractSlider@@CAXPEAVQObject@@W4Call@QMetaObject@@HPEAPEAX@Z"
"?qt_static_metacall@QAbstractSpinBox@@CAXPEAVQObject@@W4Call@QMetaObject@@HPEAPEAX@Z"
"?qt_static_metacall@QApplication@@CAXPEAVQObject@@W4Call@QMetaObject@@HPEAPEAX@Z"
"?qt_static_metacall@QBlendStyleAnimation@@CAXPEAVQObject@@W4Call@QMetaObject@@HPEAPEAX@Z"
"?qt_static_metacall@QBoxLayout@@CAXPEAVQObject@@W4Call@QMetaObject@@HPEAPEAX@Z"
"?qt_static_metacall@QButtonGroup@@CAXPEAVQObject@@W4Call@QMetaObject@@HPEAPEAX@Z"
"?qt_static_metacall@QCalendarWidget@@CAXPEAVQObject@@W4Call@QMetaObject@@HPEAPEAX@Z"
"?qt_static_metacall@QCheckBox@@CAXPEAVQObject@@W4Call@QMetaObject@@HPEAPEAX@Z"
"?qt_static_metacall@QColorDialog@@CAXPEAVQObject@@W4Call@QMetaObject@@HPEAPEAX@Z"
"?qt_static_metacall@QColumnView@@CAXPEAVQObject@@W4Call@QMetaObject@@HPEAPEAX@Z"
"?qt_static_metacall@QComboBox@@CAXPEAVQObject@@W4Call@QMetaObject@@HPEAPEAX@Z"
"?qt_static_metacall@QComboBoxPrivateContainer@@CAXPEAVQObject@@W4Call@QMetaObject@@HPEAPEAX@Z"
"?qt_static_metacall@QCommandLinkButton@@CAXPEAVQObject@@W4Call@QMetaObject@@HPEAPEAX@Z"
"?qt_static_metacall@QCommonStyle@@CAXPEAVQObject@@W4Call@QMetaObject@@HPEAPEAX@Z"
"?qt_static_metacall@QCompleter@@CAXPEAVQObject@@W4Call@QMetaObject@@HPEAPEAX@Z"
"?qt_static_metacall@QDataWidgetMapper@@CAXPEAVQObject@@W4Call@QMetaObject@@HPEAPEAX@Z"
"?qt_static_metacall@QDateEdit@@CAXPEAVQObject@@W4Call@QMetaObject@@HPEAPEAX@Z"
"?qt_static_metacall@QDateTimeEdit@@CAXPEAVQObject@@W4Call@QMetaObject@@HPEAPEAX@Z"
"?qt_static_metacall@QDial@@CAXPEAVQObject@@W4Call@QMetaObject@@HPEAPEAX@Z"
"?qt_static_metacall@QDialog@@CAXPEAVQObject@@W4Call@QMetaObject@@HPEAPEAX@Z"
"?qt_static_metacall@QDialogButtonBox@@CAXPEAVQObject@@W4Call@QMetaObject@@HPEAPEAX@Z"
"?qt_static_metacall@QDockWidget@@CAXPEAVQObject@@W4Call@QMetaObject@@HPEAPEAX@Z"
"?qt_static_metacall@QDockWidgetLayout@@CAXPEAVQObject@@W4Call@QMetaObject@@HPEAPEAX@Z"
"?qt_static_metacall@QDoubleSpinBox@@CAXPEAVQObject@@W4Call@QMetaObject@@HPEAPEAX@Z"
"?qt_static_metacall@QErrorMessage@@CAXPEAVQObject@@W4Call@QMetaObject@@HPEAPEAX@Z"
"?qt_static_metacall@QFileDialog@@CAXPEAVQObject@@W4Call@QMetaObject@@HPEAPEAX@Z"
"?qt_static_metacall@QFlickGesture@@CAXPEAVQObject@@W4Call@QMetaObject@@HPEAPEAX@Z"
"?qt_static_metacall@QFocusFrame@@CAXPEAVQObject@@W4Call@QMetaObject@@HPEAPEAX@Z"
"?qt_static_metacall@QFontComboBox@@CAXPEAVQObject@@W4Call@QMetaObject@@HPEAPEAX@Z"
"?qt_static_metacall@QFontDialog@@CAXPEAVQObject@@W4Call@QMetaObject@@HPEAPEAX@Z"
"?qt_static_metacall@QFormLayout@@CAXPEAVQObject@@W4Call@QMetaObject@@HPEAPEAX@Z"
"?qt_static_metacall@QFrame@@CAXPEAVQObject@@W4Call@QMetaObject@@HPEAPEAX@Z"
"?qt_static_metacall@QFusionStyle@@CAXPEAVQObject@@W4Call@QMetaObject@@HPEAPEAX@Z"
"?qt_static_metacall@QGesture@@CAXPEAVQObject@@W4Call@QMetaObject@@HPEAPEAX@Z"
"?qt_static_metacall@QGraphicsAnchor@@CAXPEAVQObject@@W4Call@QMetaObject@@HPEAPEAX@Z"
"?qt_static_metacall@QGraphicsBlurEffect@@CAXPEAVQObject@@W4Call@QMetaObject@@HPEAPEAX@Z"
"?qt_static_metacall@QGraphicsColorizeEffect@@CAXPEAVQObject@@W4Call@QMetaObject@@HPEAPEAX@Z"
"?qt_static_metacall@QGraphicsDropShadowEffect@@CAXPEAVQObject@@W4Call@QMetaObject@@HPEAPEAX@Z"
"?qt_static_metacall@QGraphicsEffect@@CAXPEAVQObject@@W4Call@QMetaObject@@HPEAPEAX@Z"
"?qt_static_metacall@QGraphicsEffectSource@@CAXPEAVQObject@@W4Call@QMetaObject@@HPEAPEAX@Z"
"?qt_static_metacall@QGraphicsItemAnimation@@CAXPEAVQObject@@W4Call@QMetaObject@@HPEAPEAX@Z"
"?qt_static_metacall@QGraphicsObject@@CAXPEAVQObject@@W4Call@QMetaObject@@HPEAPEAX@Z"
"?qt_static_metacall@QGraphicsOpacityEffect@@CAXPEAVQObject@@W4Call@QMetaObject@@HPEAPEAX@Z"
"?qt_static_metacall@QGraphicsProxyWidget@@CAXPEAVQObject@@W4Call@QMetaObject@@HPEAPEAX@Z"
"?qt_static_metacall@QGraphicsRotation@@CAXPEAVQObject@@W4Call@QMetaObject@@HPEAPEAX@Z"
"?qt_static_metacall@QGraphicsScale@@CAXPEAVQObject@@W4Call@QMetaObject@@HPEAPEAX@Z"
"?qt_static_metacall@QGraphicsScene@@CAXPEAVQObject@@W4Call@QMetaObject@@HPEAPEAX@Z"
"?qt_static_metacall@QGraphicsTextItem@@CAXPEAVQObject@@W4Call@QMetaObject@@HPEAPEAX@Z"
"?qt_static_metacall@QGraphicsTransform@@CAXPEAVQObject@@W4Call@QMetaObject@@HPEAPEAX@Z"
"?qt_static_metacall@QGraphicsView@@CAXPEAVQObject@@W4Call@QMetaObject@@HPEAPEAX@Z"
"?qt_static_metacall@QGraphicsWidget@@CAXPEAVQObject@@W4Call@QMetaObject@@HPEAPEAX@Z"
"?qt_static_metacall@QGridLayout@@CAXPEAVQObject@@W4Call@QMetaObject@@HPEAPEAX@Z"
"?qt_static_metacall@QGroupBox@@CAXPEAVQObject@@W4Call@QMetaObject@@HPEAPEAX@Z"
"?qt_static_metacall@QHBoxLayout@@CAXPEAVQObject@@W4Call@QMetaObject@@HPEAPEAX@Z"
"?qt_static_metacall@QHeaderView@@CAXPEAVQObject@@W4Call@QMetaObject@@HPEAPEAX@Z"
"?qt_static_metacall@QInputDialog@@CAXPEAVQObject@@W4Call@QMetaObject@@HPEAPEAX@Z"
"?qt_static_metacall@QItemDelegate@@CAXPEAVQObject@@W4Call@QMetaObject@@HPEAPEAX@Z"
"?qt_static_metacall@QKeySequenceEdit@@CAXPEAVQObject@@W4Call@QMetaObject@@HPEAPEAX@Z"
"?qt_static_metacall@QLCDNumber@@CAXPEAVQObject@@W4Call@QMetaObject@@HPEAPEAX@Z"
"?qt_static_metacall@QLabel@@CAXPEAVQObject@@W4Call@QMetaObject@@HPEAPEAX@Z"
"?qt_static_metacall@QLayout@@CAXPEAVQObject@@W4Call@QMetaObject@@HPEAPEAX@Z"
"?qt_static_metacall@QLineEdit@@CAXPEAVQObject@@W4Call@QMetaObject@@HPEAPEAX@Z"
"?qt_static_metacall@QListView@@CAXPEAVQObject@@W4Call@QMetaObject@@HPEAPEAX@Z"
"?qt_static_metacall@QListWidget@@CAXPEAVQObject@@W4Call@QMetaObject@@HPEAPEAX@Z"
"?qt_static_metacall@QMainWindow@@CAXPEAVQObject@@W4Call@QMetaObject@@HPEAPEAX@Z"
"?qt_static_metacall@QMdiArea@@CAXPEAVQObject@@W4Call@QMetaObject@@HPEAPEAX@Z"
"?qt_static_metacall@QMdiSubWindow@@CAXPEAVQObject@@W4Call@QMetaObject@@HPEAPEAX@Z"
"?qt_static_metacall@QMenu@@CAXPEAVQObject@@W4Call@QMetaObject@@HPEAPEAX@Z"
"?qt_static_metacall@QMenuBar@@CAXPEAVQObject@@W4Call@QMetaObject@@HPEAPEAX@Z"
"?qt_static_metacall@QMessageBox@@CAXPEAVQObject@@W4Call@QMetaObject@@HPEAPEAX@Z"
"?qt_static_metacall@QNumberStyleAnimation@@CAXPEAVQObject@@W4Call@QMetaObject@@HPEAPEAX@Z"
"?qt_static_metacall@QPanGesture@@CAXPEAVQObject@@W4Call@QMetaObject@@HPEAPEAX@Z"
"?qt_static_metacall@QPinchGesture@@CAXPEAVQObject@@W4Call@QMetaObject@@HPEAPEAX@Z"
"?qt_static_metacall@QPixmapBlurFilter@@CAXPEAVQObject@@W4Call@QMetaObject@@HPEAPEAX@Z"
"?qt_static_metacall@QPixmapColorizeFilter@@CAXPEAVQObject@@W4Call@QMetaObject@@HPEAPEAX@Z"
"?qt_static_metacall@QPixmapConvolutionFilter@@CAXPEAVQObject@@W4Call@QMetaObject@@HPEAPEAX@Z"
"?qt_static_metacall@QPixmapDropShadowFilter@@CAXPEAVQObject@@W4Call@QMetaObject@@HPEAPEAX@Z"
"?qt_static_metacall@QPixmapFilter@@CAXPEAVQObject@@W4Call@QMetaObject@@HPEAPEAX@Z"
"?qt_static_metacall@QPixmapStyle@@CAXPEAVQObject@@W4Call@QMetaObject@@HPEAPEAX@Z"
"?qt_static_metacall@QPlainTextDocumentLayout@@CAXPEAVQObject@@W4Call@QMetaObject@@HPEAPEAX@Z"
"?qt_static_metacall@QPlainTextEdit@@CAXPEAVQObject@@W4Call@QMetaObject@@HPEAPEAX@Z"
"?qt_static_metacall@QProgressBar@@CAXPEAVQObject@@W4Call@QMetaObject@@HPEAPEAX@Z"
"?qt_static_metacall@QProgressDialog@@CAXPEAVQObject@@W4Call@QMetaObject@@HPEAPEAX@Z"
"?qt_static_metacall@QProgressStyleAnimation@@CAXPEAVQObject@@W4Call@QMetaObject@@HPEAPEAX@Z"
"?qt_static_metacall@QProxyStyle@@CAXPEAVQObject@@W4Call@QMetaObject@@HPEAPEAX@Z"
"?qt_static_metacall@QPushButton@@CAXPEAVQObject@@W4Call@QMetaObject@@HPEAPEAX@Z"
"?qt_static_metacall@QRadioButton@@CAXPEAVQObject@@W4Call@QMetaObject@@HPEAPEAX@Z"
"?qt_static_metacall@QRhiWidget@@CAXPEAVQObject@@W4Call@QMetaObject@@HPEAPEAX@Z"
"?qt_static_metacall@QRubberBand@@CAXPEAVQObject@@W4Call@QMetaObject@@HPEAPEAX@Z"
"?qt_static_metacall@QScrollArea@@CAXPEAVQObject@@W4Call@QMetaObject@@HPEAPEAX@Z"
"?qt_static_metacall@QScrollBar@@CAXPEAVQObject@@W4Call@QMetaObject@@HPEAPEAX@Z"
"?qt_static_metacall@QScrollbarStyleAnimation@@CAXPEAVQObject@@W4Call@QMetaObject@@HPEAPEAX@Z"
"?qt_static_metacall@QScroller@@CAXPEAVQObject@@W4Call@QMetaObject@@HPEAPEAX@Z"
"?qt_static_metacall@QSizeGrip@@CAXPEAVQObject@@W4Call@QMetaObject@@HPEAPEAX@Z"
"?qt_static_metacall@QSlider@@CAXPEAVQObject@@W4Call@QMetaObject@@HPEAPEAX@Z"
"?qt_static_metacall@QSpinBox@@CAXPEAVQObject@@W4Call@QMetaObject@@HPEAPEAX@Z"
"?qt_static_metacall@QSplashScreen@@CAXPEAVQObject@@W4Call@QMetaObject@@HPEAPEAX@Z"
"?qt_static_metacall@QSplitter@@CAXPEAVQObject@@W4Call@QMetaObject@@HPEAPEAX@Z"
"?qt_static_metacall@QSplitterHandle@@CAXPEAVQObject@@W4Call@QMetaObject@@HPEAPEAX@Z"
"?qt_static_metacall@QStackedLayout@@CAXPEAVQObject@@W4Call@QMetaObject@@HPEAPEAX@Z"
"?qt_static_metacall@QStackedWidget@@CAXPEAVQObject@@W4Call@QMetaObject@@HPEAPEAX@Z"
"?qt_static_metacall@QStatusBar@@CAXPEAVQObject@@W4Call@QMetaObject@@HPEAPEAX@Z"
"?qt_static_metacall@QStyle@@CAXPEAVQObject@@W4Call@QMetaObject@@HPEAPEAX@Z"
"?qt_static_metacall@QStyleAnimation@@CAXPEAVQObject@@W4Call@QMetaObject@@HPEAPEAX@Z"
"?qt_static_metacall@QStylePlugin@@CAXPEAVQObject@@W4Call@QMetaObject@@HPEAPEAX@Z"
"?qt_static_metacall@QStyledItemDelegate@@CAXPEAVQObject@@W4Call@QMetaObject@@HPEAPEAX@Z"
"?qt_static_metacall@QSwipeGesture@@CAXPEAVQObject@@W4Call@QMetaObject@@HPEAPEAX@Z"
"?qt_static_metacall@QSystemTrayIcon@@CAXPEAVQObject@@W4Call@QMetaObject@@HPEAPEAX@Z"
"?qt_static_metacall@QTabBar@@CAXPEAVQObject@@W4Call@QMetaObject@@HPEAPEAX@Z"
"?qt_static_metacall@QTabWidget@@CAXPEAVQObject@@W4Call@QMetaObject@@HPEAPEAX@Z"
"?qt_static_metacall@QTableView@@CAXPEAVQObject@@W4Call@QMetaObject@@HPEAPEAX@Z"
"?qt_static_metacall@QTableWidget@@CAXPEAVQObject@@W4Call@QMetaObject@@HPEAPEAX@Z"
"?qt_static_metacall@QTapAndHoldGesture@@CAXPEAVQObject@@W4Call@QMetaObject@@HPEAPEAX@Z"
"?qt_static_metacall@QTapGesture@@CAXPEAVQObject@@W4Call@QMetaObject@@HPEAPEAX@Z"
"?qt_static_metacall@QTextBrowser@@CAXPEAVQObject@@W4Call@QMetaObject@@HPEAPEAX@Z"
"?qt_static_metacall@QTextEdit@@CAXPEAVQObject@@W4Call@QMetaObject@@HPEAPEAX@Z"
"?qt_static_metacall@QTimeEdit@@CAXPEAVQObject@@W4Call@QMetaObject@@HPEAPEAX@Z"
"?qt_static_metacall@QToolBar@@CAXPEAVQObject@@W4Call@QMetaObject@@HPEAPEAX@Z"
"?qt_static_metacall@QToolBox@@CAXPEAVQObject@@W4Call@QMetaObject@@HPEAPEAX@Z"
"?qt_static_metacall@QToolButton@@CAXPEAVQObject@@W4Call@QMetaObject@@HPEAPEAX@Z"
"?qt_static_metacall@QTreeView@@CAXPEAVQObject@@W4Call@QMetaObject@@HPEAPEAX@Z"
"?qt_static_metacall@QTreeWidget@@CAXPEAVQObject@@W4Call@QMetaObject@@HPEAPEAX@Z"
"?qt_static_metacall@QUndoView@@CAXPEAVQObject@@W4Call@QMetaObject@@HPEAPEAX@Z"
"?qt_static_metacall@QVBoxLayout@@CAXPEAVQObject@@W4Call@QMetaObject@@HPEAPEAX@Z"
"?qt_static_metacall@QWidget@@CAXPEAVQObject@@W4Call@QMetaObject@@HPEAPEAX@Z"
"?qt_static_metacall@QWidgetAction@@CAXPEAVQObject@@W4Call@QMetaObject@@HPEAPEAX@Z"
"?qt_static_metacall@QWidgetLineControl@@CAXPEAVQObject@@W4Call@QMetaObject@@HPEAPEAX@Z"
"?qt_static_metacall@QWidgetTextControl@@CAXPEAVQObject@@W4Call@QMetaObject@@HPEAPEAX@Z"
"?qt_static_metacall@QWindowContainer@@CAXPEAVQObject@@W4Call@QMetaObject@@HPEAPEAX@Z"
"?qt_static_metacall@QWindowsStyle@@CAXPEAVQObject@@W4Call@QMetaObject@@HPEAPEAX@Z"
"?qt_static_metacall@QWizard@@CAXPEAVQObject@@W4Call@QMetaObject@@HPEAPEAX@Z"
"?qt_static_metacall@QWizardPage@@CAXPEAVQObject@@W4Call@QMetaObject@@HPEAPEAX@Z"
"?qt_tab_all_widgets@@YA_NXZ"
"?qt_tryModalHelper@@YA_NPEAVQWidget@@PEAPEAV1@@Z"
"?qt_widget_private@@YAPEAVQWidgetPrivate@@PEAVQWidget@@@Z"
"?question@QMessageBox@@SA?AW4StandardButton@1@PEAVQWidget@@AEBVQString@@1V?$QFlags@W4StandardButton@QMessageBox@@@@W421@@Z"
"?question@QMessageBox@@SAHPEAVQWidget@@AEBVQString@@1111HH@Z"
"?question@QMessageBox@@SAHPEAVQWidget@@AEBVQString@@1HHH@Z"
"?question@QMessageBox@@SAHPEAVQWidget@@AEBVQString@@1W4StandardButton@1@2@Z"
"?radius@QPixmapBlurFilter@@QEBANXZ"
"?raise@QWidget@@QEAAXXZ"
"?raise_sys@QWidgetPrivate@@QEAAXXZ"
"?rangeChanged@QAbstractSlider@@QEAAXHH@Z"
"?read@QListWidgetItem@@UEAAXAEAVQDataStream@@@Z"
"?read@QTableWidgetItem@@UEAAXAEAVQDataStream@@@Z"
"?read@QTreeWidgetItem@@UEAAXAEAVQDataStream@@@Z"
"?reason@QGraphicsSceneContextMenuEvent@@QEBA?AW4Reason@1@XZ"
"?recalculateContentSize@QGraphicsViewPrivate@@QEAAXXZ"
"?rect@QAccessibleWidget@@UEBA?AVQRect@@XZ"
"?rect@QGraphicsEllipseItem@@QEBA?AVQRectF@@XZ"
"?rect@QGraphicsRectItem@@QEBA?AVQRectF@@XZ"
"?rect@QGraphicsWidget@@QEBA?AVQRectF@@XZ"
"?rect@QItemDelegate@@IEBA?AVQRect@@AEBVQStyleOptionViewItem@@AEBVQModelIndex@@H@Z"
"?rect@QWidget@@QEBA?AVQRect@@XZ"
"?rectForIndex@QListView@@IEBA?AVQRect@@AEBVQModelIndex@@@Z"
"?rectForPos@QWidgetLineControl@@QEBA?AVQRect@@H@Z"
"?redirected@QWidget@@MEBAPEAVQPaintDevice@@PEAVQPoint@@@Z"
"?redirected@QWidgetPrivate@@QEBAPEAVQPaintDevice@@PEAVQPoint@@@Z"
"?redo@QLineEdit@@QEAAXXZ"
"?redo@QPlainTextEdit@@QEAAXXZ"
"?redo@QTextEdit@@QEAAXXZ"
"?redo@QWidgetLineControl@@QEAAXXZ"
"?redo@QWidgetTextControl@@QEAAXXZ"
"?redoAvailable@QPlainTextEdit@@QEAAX_N@Z"
"?redoAvailable@QTextEdit@@QEAAX_N@Z"
"?redoAvailable@QWidgetTextControl@@QEAAX_N@Z"
"?redoTextLayout@QWidgetLineControl@@AEBAHXZ"
"?reexpand@QTreeView@@IEAAXXZ"
"?reformat@QStatusBar@@IEAAXXZ"
"?refresh@QSplitter@@QEAAXXZ"
"?refresh@QTabBarPrivate@@QEAAXXZ"
"?registerEditor@QItemEditorFactory@@QEAAXHPEAVQItemEditorCreatorBase@@@Z"
"?registerField@QWizardPage@@IEAAXAEBVQString@@PEAVQWidget@@PEBD2@Z"
"?registerRecognizer@QGestureRecognizer@@SA?AW4GestureType@Qt@@PEAV1@@Z"
"?reject@QDialog@@UEAAXXZ"
"?rejected@QDialog@@QEAAXXZ"
"?rejected@QDialogButtonBox@@QEAAXXZ"
"?relations@QAccessibleWidget@@UEBA?AV?$QList@U?$pair@PEAVQAccessibleInterface@@V?$QFlags@W4RelationFlag@QAccessible@@@@@std@@@@V?$QFlags@W4RelationFlag@QAccessible@@@@@Z"
"?release@QTouchEventWidgetSequence@QTest@@QEAAAEAV12@HAEBVQPoint@@PEAVQWidget@@@Z"
"?releaseKeyboard@QWidget@@QEAAXXZ"
"?releaseMouse@QWidget@@QEAAXXZ"
"?releaseResources@QRhiWidget@@MEAAXXZ"
"?releaseShortcut@QGraphicsWidget@@QEAAXH@Z"
"?releaseShortcut@QWidget@@QEAAXH@Z"
"?releaseWidget@QWidgetAction@@QEAAXPEAVQWidget@@@Z"
"?released@QAbstractButton@@QEAAXXZ"
"?reload@QTextBrowser@@UEAAXXZ"
"?remapItemPos@QGraphicsItemPrivate@@QEAAXPEAVQEvent@@PEAVQGraphicsItem@@@Z"
"?removeAction@QGraphicsWidget@@QEAAXPEAVQAction@@@Z"
"?removeAction@QWidget@@QEAAXPEAVQAction@@@Z"
"?removeAnimation@QCommonStylePrivate@@QEBAXPEBVQObject@@@Z"
"?removeAt@QGraphicsAnchorLayout@@UEAAXH@Z"
"?removeAt@QGraphicsGridLayout@@UEAAXH@Z"
"?removeAt@QGraphicsLinearLayout@@UEAAXH@Z"
"?removeButton@QButtonGroup@@QEAAXPEAVQAbstractButton@@@Z"
"?removeButton@QDialogButtonBox@@QEAAXPEAVQAbstractButton@@@Z"
"?removeButton@QMessageBox@@QEAAXPEAVQAbstractButton@@@Z"
"?removeCellWidget@QTableWidget@@QEAAXHH@Z"
"?removeChild@QGraphicsItemPrivate@@QEAAXPEAVQGraphicsItem@@@Z"
"?removeChild@QTreeWidgetItem@@QEAAXPEAV1@@Z"
"?removeColumn@QTableWidget@@QEAAXH@Z"
"?removeDirectory@QFileDialogPrivate@@QEAA_NAEBVQString@@@Z"
"?removeDirtyWidget@QWidgetRepaintManager@@QEAAXPEAVQWidget@@@Z"
"?removeDockWidget@QMainWindow@@QEAAXPEAVQDockWidget@@@Z"
"?removeExtraItemCache@QGraphicsItemPrivate@@QEAAXXZ"
"?removeFromFocusChain@QWidgetPrivate@@QEAA_NV?$QFlags@W4FocusChainRemovalRule@QWidgetPrivate@@@@W4FocusDirection@1@@Z"
"?removeFromGroup@QGraphicsItemGroup@@QEAAXPEAVQGraphicsItem@@@Z"
"?removeFromIndex@QGraphicsItem@@IEAAXXZ"
"?removeItem@QComboBox@@QEAAXH@Z"
"?removeItem@QGraphicsGridLayout@@QEAAXPEAVQGraphicsLayoutItem@@@Z"
"?removeItem@QGraphicsLinearLayout@@QEAAXPEAVQGraphicsLayoutItem@@@Z"
"?removeItem@QGraphicsScene@@QEAAXPEAVQGraphicsItem@@@Z"
"?removeItem@QLayout@@QEAAXPEAVQLayoutItem@@@Z"
"?removeItem@QToolBox@@QEAAXH@Z"
"?removeItemWidget@QListWidget@@QEAAXPEAVQListWidgetItem@@@Z"
"?removeItemWidget@QTreeWidget@@QEAAXPEAVQTreeWidgetItem@@H@Z"
"?removeMapping@QDataWidgetMapper@@QEAAXPEAVQWidget@@@Z"
"?removePage@QWizard@@QEAAXH@Z"
"?removeRow@QFormLayout@@QEAAXH@Z"
"?removeRow@QFormLayout@@QEAAXPEAVQLayout@@@Z"
"?removeRow@QFormLayout@@QEAAXPEAVQWidget@@@Z"
"?removeRow@QTableWidget@@QEAAXH@Z"
"?removeSceneEventFilter@QGraphicsItem@@QEAAXPEAV1@@Z"
"?removeSelectedText@QWidgetLineControl@@AEAAXXZ"
"?removeSelection@QWidgetLineControl@@QEAAXXZ"
"?removeStaticWidget@QWidgetRepaintManager@@QEAAXPEAVQWidget@@@Z"
"?removeSubWindow@QMdiArea@@QEAAXPEAVQWidget@@@Z"
"?removeTab@QTabBar@@QEAAXH@Z"
"?removeTab@QTabWidget@@QEAAXH@Z"
"?removeToolBar@QMainWindow@@QEAAXPEAVQToolBar@@@Z"
"?removeToolBarBreak@QMainWindow@@QEAAXPEAVQToolBar@@@Z"
"?removeViewItems@QTreeViewPrivate@@QEAAXHH@Z"
"?removeWidget@QLayout@@QEAAXPEAVQWidget@@@Z"
"?removeWidget@QStackedWidget@@QEAAXPEAVQWidget@@@Z"
"?removeWidget@QStatusBar@@QEAAXPEAVQWidget@@@Z"
"?renameCurrent@QFileDialogPrivate@@QEAAXXZ"
"?render@QGraphicsScene@@QEAAXPEAVQPainter@@AEBVQRectF@@1W4AspectRatioMode@Qt@@@Z"
"?render@QGraphicsView@@QEAAXPEAVQPainter@@AEBVQRectF@@AEBVQRect@@W4AspectRatioMode@Qt@@@Z"
"?render@QRhiWidget@@MEAAXPEAVQRhiCommandBuffer@@@Z"
"?render@QWidget@@QEAAXPEAVQPaintDevice@@AEBVQPoint@@AEBVQRegion@@V?$QFlags@W4RenderFlag@QWidget@@@@@Z"
"?render@QWidget@@QEAAXPEAVQPainter@@AEBVQPoint@@AEBVQRegion@@V?$QFlags@W4RenderFlag@QWidget@@@@@Z"
"?render@QWidgetPrivate@@QEAAXPEAVQPaintDevice@@AEBVQPoint@@AEBVQRegion@@V?$QFlags@W4RenderFlag@QWidget@@@@@Z"
"?renderFailed@QRhiWidget@@QEAAXXZ"
"?renderHints@QGraphicsView@@QEBA?AV?$QFlags@W4RenderHint@QPainter@@@@XZ"
"?renderTarget@QRhiWidget@@IEBAPEAVQRhiRenderTarget@@XZ"
"?renderTreeToPixmapForAnimation@QTreeViewPrivate@@QEBA?AVQPixmap@@AEBVQRect@@@Z"
"?render_helper@QWidgetPrivate@@QEAAXPEAVQPainter@@AEBVQPoint@@AEBVQRegion@@V?$QFlags@W4RenderFlag@QWidget@@@@@Z"
"?repaint@QSplashScreen@@QEAAXXZ"
"?repaint@QWidget@@QEAAXAEBVQRect@@@Z"
"?repaint@QWidget@@QEAAXAEBVQRegion@@@Z"
"?repaint@QWidget@@QEAAXHHHH@Z"
"?repaint@QWidget@@QEAAXXZ"
"?reparentChildWidgets@QLayoutPrivate@@QEAAXPEAVQWidget@@@Z"
"?reparentFocusChildren@QWidgetPrivate@@QEAAXW4FocusDirection@1@@Z"
"?reparentFocusWidgets@QWidgetPrivate@@QEAAXPEAVQWidget@@@Z"
"?reparentWidgetWindowChildren@QWidgetPrivate@@QEAAXPEAVQWidget@@@Z"
"?reparentWidgetWindows@QWidgetPrivate@@QEAAXPEAVQWidget@@V?$QFlags@W4WindowType@Qt@@@@@Z"
"?repeatAction@QAbstractSlider@@IEBA?AW4SliderAction@1@XZ"
"?replaceAt@QLayoutPrivate@@UEAAPEAVQLayoutItem@@HPEAV2@@Z"
"?replaceWidget@QLayout@@UEAAPEAVQLayoutItem@@PEAVQWidget@@0V?$QFlags@W4FindChildOption@Qt@@@@@Z"
"?replaceWidget@QSplitter@@QEAAPEAVQWidget@@HPEAV2@@Z"
"?replayLastMouseEvent@QGraphicsViewPrivate@@QEAAXXZ"
"?replayMousePress@QApplicationPrivate@@2_NA"
"?requestUpdate@QPlainTextDocumentLayout@@QEAAXXZ"
"?requestWidget@QWidgetAction@@QEAAPEAVQWidget@@PEAV2@@Z"
"?resendPrepareEvent@QScroller@@QEAAXXZ"
"?reset@QAbstractItemView@@UEAAXXZ"
"?reset@QGestureRecognizer@@UEAAXPEAVQGesture@@@Z"
"?reset@QHeaderView@@UEAAXXZ"
"?reset@QListView@@UEAAXXZ"
"?reset@QProgressBar@@QEAAXXZ"
"?reset@QProgressDialog@@QEAAXXZ"
"?reset@QTreeView@@UEAAXXZ"
"?resetButton@QComboBoxPrivateContainer@@QEAAXXZ"
"?resetCachedContent@QGraphicsView@@QEAAXXZ"
"?resetCursorBlinkTimer@QWidgetLineControl@@QEAAXXZ"
"?resetDefaultSectionSize@QHeaderView@@QEAAXXZ"
"?resetFieldGrowthPolicy@QFormLayout@@AEAAXXZ"
"?resetFocusProxy@QGraphicsItemPrivate@@QEAAXXZ"
"?resetFormAlignment@QFormLayout@@AEAAXXZ"
"?resetFormat@QProgressBar@@QEAAXXZ"
"?resetHeight@QGraphicsItemPrivate@@UEAAXXZ"
"?resetHorizontalScrollMode@QAbstractItemView@@QEAAXXZ"
"?resetIndentation@QTreeView@@QEAAXXZ"
"?resetInputContext@QWidgetLineControl@@QEAAXXZ"
"?resetLabelAlignment@QFormLayout@@AEAAXXZ"
"?resetModalitySetByOpen@QDialogPrivate@@QEAAXXZ"
"?resetRowWrapPolicy@QFormLayout@@AEAAXXZ"
"?resetTransform@QGraphicsItem@@QEAAXXZ"
"?resetTransform@QGraphicsView@@QEAAXXZ"
"?resetVerticalScrollMode@QAbstractItemView@@QEAAXXZ"
"?resetWidget@QWidgetRepaintManager@@AEAAXPEAVQWidget@@@Z"
"?resetWidth@QGraphicsItemPrivate@@UEAAXXZ"
"?resize@QGraphicsWidget@@QEAAXAEBVQSizeF@@@Z"
"?resize@QGraphicsWidget@@QEAAXNN@Z"
"?resize@QRubberBand@@QEAAXAEBVQSize@@@Z"
"?resize@QRubberBand@@QEAAXHH@Z"
"?resize@QWidget@@QEAAXAEBVQSize@@@Z"
"?resize@QWidget@@QEAAXHH@Z"
"?resizeAnchor@QGraphicsView@@QEBA?AW4ViewportAnchor@1@XZ"
"?resizeColumnToContents@QTableView@@QEAAXH@Z"
"?resizeColumnToContents@QTreeView@@QEAAXH@Z"
"?resizeColumnsToContents@QTableView@@QEAAXXZ"
"?resizeContents@QListView@@IEAAXHH@Z"
"?resizeContentsPrecision@QHeaderView@@QEBAHXZ"
"?resizeDocks@QMainWindow@@QEAAXAEBV?$QList@PEAVQDockWidget@@@@AEBV?$QList@H@@W4Orientation@Qt@@@Z"
"?resizeEvent@QAbstractItemView@@MEAAXPEAVQResizeEvent@@@Z"
"?resizeEvent@QAbstractScrollArea@@MEAAXPEAVQResizeEvent@@@Z"
"?resizeEvent@QAbstractSpinBox@@MEAAXPEAVQResizeEvent@@@Z"
"?resizeEvent@QCalendarWidget@@MEAAXPEAVQResizeEvent@@@Z"
"?resizeEvent@QColumnView@@MEAAXPEAVQResizeEvent@@@Z"
"?resizeEvent@QComboBox@@MEAAXPEAVQResizeEvent@@@Z"
"?resizeEvent@QComboBoxPrivateContainer@@MEAAXPEAVQResizeEvent@@@Z"
"?resizeEvent@QDial@@MEAAXPEAVQResizeEvent@@@Z"
"?resizeEvent@QDialog@@MEAAXPEAVQResizeEvent@@@Z"
"?resizeEvent@QGraphicsProxyWidget@@MEAAXPEAVQGraphicsSceneResizeEvent@@@Z"
"?resizeEvent@QGraphicsView@@MEAAXPEAVQResizeEvent@@@Z"
"?resizeEvent@QGraphicsWidget@@MEAAXPEAVQGraphicsSceneResizeEvent@@@Z"
"?resizeEvent@QGroupBox@@MEAAXPEAVQResizeEvent@@@Z"
"?resizeEvent@QListView@@MEAAXPEAVQResizeEvent@@@Z"
"?resizeEvent@QMdiArea@@MEAAXPEAVQResizeEvent@@@Z"
"?resizeEvent@QMdiSubWindow@@MEAAXPEAVQResizeEvent@@@Z"
"?resizeEvent@QMenuBar@@MEAAXPEAVQResizeEvent@@@Z"
"?resizeEvent@QMessageBox@@MEAAXPEAVQResizeEvent@@@Z"
"?resizeEvent@QPlainTextEdit@@MEAAXPEAVQResizeEvent@@@Z"
"?resizeEvent@QProgressDialog@@MEAAXPEAVQResizeEvent@@@Z"
"?resizeEvent@QRhiWidget@@MEAAXPEAVQResizeEvent@@@Z"
"?resizeEvent@QRubberBand@@MEAAXPEAVQResizeEvent@@@Z"
"?resizeEvent@QScrollArea@@MEAAXPEAVQResizeEvent@@@Z"
"?resizeEvent@QSplitter@@MEAAXPEAVQResizeEvent@@@Z"
"?resizeEvent@QSplitterHandle@@MEAAXPEAVQResizeEvent@@@Z"
"?resizeEvent@QStatusBar@@MEAAXPEAVQResizeEvent@@@Z"
"?resizeEvent@QTabBar@@MEAAXPEAVQResizeEvent@@@Z"
"?resizeEvent@QTabWidget@@MEAAXPEAVQResizeEvent@@@Z"
"?resizeEvent@QTextEdit@@MEAAXPEAVQResizeEvent@@@Z"
"?resizeEvent@QWidget@@MEAAXPEAVQResizeEvent@@@Z"
"?resizeEvent@QWizard@@MEAAXPEAVQResizeEvent@@@Z"
"?resizeGripsVisible@QColumnView@@QEBA_NXZ"
"?resizeMode@QListView@@QEBA?AW4ResizeMode@1@XZ"
"?resizeRowToContents@QTableView@@QEAAXH@Z"
"?resizeRowsToContents@QTableView@@QEAAXXZ"
"?resizeSection@QHeaderView@@QEAAXHH@Z"
"?resizeSections@QHeaderView@@IEAAXXZ"
"?resizeSections@QHeaderView@@QEAAXW4ResizeMode@1@@Z"
"?resizeViewportFramebuffer@QWidgetPrivate@@UEAAXXZ"
"?resolveDepth@QGraphicsItemPrivate@@QEAAXXZ"
"?resolveFont@QGraphicsItemPrivate@@UEAAXI@Z"
"?resolveFont@QWidgetPrivate@@QEAAXXZ"
"?resolveInterface@QApplication@@IEBAPEAXPEBDH@Z"
"?resolveLayoutDirection@QWidgetPrivate@@QEAAXXZ"
"?resolveLocale@QWidgetPrivate@@QEAAXXZ"
"?resolvePalette@QGraphicsItemPrivate@@UEAAXI@Z"
"?resolvePalette@QWidgetPrivate@@QEAAXXZ"
"?resolveSamples@QWidgetPrivate@@UEAAXXZ"
"?resolveTexture@QRhiWidget@@IEBAPEAVQRhiTexture@@XZ"
"?resourceProvider@QLabel@@QEBA?AV?$function@$$A6A?AVQVariant@@AEBVQUrl@@@Z@std@@XZ"
"?restart@QWizard@@QEAAXXZ"
"?restoreDockWidget@QMainWindow@@QEAA_NPEAVQDockWidget@@@Z"
"?restoreFromSettings@QFileDialogPrivate@@QEAA_NXZ"
"?restoreGeometry@QWidget@@QEAA_NAEBVQByteArray@@@Z"
"?restoreRedirected@QWidgetPrivate@@QEAAXXZ"
"?restoreState@QFileDialog@@QEAA_NAEBVQByteArray@@@Z"
"?restoreState@QHeaderView@@QEAA_NAEBVQByteArray@@@Z"
"?restoreState@QMainWindow@@QEAA_NAEBVQByteArray@@H@Z"
"?restoreState@QSplitter@@QEAA_NAEBVQByteArray@@@Z"
"?restoreWidgetState@QFileDialogPrivate@@QEAA_NAEAV?$QList@VQString@@@@H@Z"
"?result@QDialog@@QEBAHXZ"
"?retainSizeWhenHidden@QSizePolicy@@QEBA_NXZ"
"?retranslateStrings@QFileDialogPrivate@@QEAAXXZ"
"?retranslateWindowTitle@QFileDialogPrivate@@QEAAXXZ"
"?returnPressed@QLineEdit@@QEAAXXZ"
"?revert@QDataWidgetMapper@@QEAAXXZ"
"?rhi@QRhiWidget@@IEBAPEAVQRhi@@XZ"
"?rhi@QWidgetPrivate@@QEBAPEAVQRhi@@XZ"
"?rhiConfig@QWidgetPrivate@@UEBA?AUQPlatformBackingStoreRhiConfig@@XZ"
"?role@QAccessibleWidget@@UEBA?AW4Role@QAccessible@@XZ"
"?rootIndex@QAbstractItemView@@QEBA?AVQModelIndex@@XZ"
"?rootIndex@QDataWidgetMapper@@QEBA?AVQModelIndex@@XZ"
"?rootIndex@QFileDialogPrivate@@QEBA?AVQModelIndex@@XZ"
"?rootIsDecorated@QTreeView@@QEBA_NXZ"
"?rootModelIndex@QComboBox@@QEBA?AVQModelIndex@@XZ"
"?rootPath@QFileDialogPrivate@@QEBA?AVQString@@XZ"
"?rotate@QGraphicsView@@QEAAXN@Z"
"?rotation@QGraphicsItem@@QEBANXZ"
"?rotationAngle@QPinchGesture@@QEBANXZ"
"?rotationAt@QGraphicsItemAnimation@@QEBANN@Z"
"?rotationChanged@QGraphicsObject@@QEAAXXZ"
"?rotationList@QGraphicsItemAnimation@@QEBA?AV?$QList@U?$pair@NN@std@@@@XZ"
"?row@QListWidget@@QEBAHPEBVQListWidgetItem@@@Z"
"?row@QTableWidget@@QEBAHPEBVQTableWidgetItem@@@Z"
"?row@QTableWidgetItem@@QEBAHXZ"
"?rowAlignment@QGraphicsGridLayout@@QEBA?AV?$QFlags@W4AlignmentFlag@Qt@@@@H@Z"
"?rowAt@QTableView@@QEBAHH@Z"
"?rowCount@QFormLayout@@QEBAHXZ"
"?rowCount@QGraphicsGridLayout@@QEBAHXZ"
"?rowCount@QGridLayout@@QEBAHXZ"
"?rowCount@QTableWidget@@QEBAHXZ"
"?rowCountChanged@QTableView@@IEAAXHH@Z"
"?rowHeight@QTableView@@QEBAHH@Z"
"?rowHeight@QTreeView@@IEBAHAEBVQModelIndex@@@Z"
"?rowMaximumHeight@QGraphicsGridLayout@@QEBANH@Z"
"?rowMinimumHeight@QGraphicsGridLayout@@QEBANH@Z"
"?rowMinimumHeight@QGridLayout@@QEBAHH@Z"
"?rowMoved@QTableView@@IEAAXHHH@Z"
"?rowPreferredHeight@QGraphicsGridLayout@@QEBANH@Z"
"?rowResized@QTableView@@IEAAXHHH@Z"
"?rowSpacing@QGraphicsGridLayout@@QEBANH@Z"
"?rowSpan@QTableView@@QEBAHHH@Z"
"?rowStretch@QGridLayout@@QEBAHH@Z"
"?rowStretchFactor@QGraphicsGridLayout@@QEBAHH@Z"
"?rowViewportPosition@QTableView@@QEBAHH@Z"
"?rowWrapPolicy@QFormLayout@@QEBA?AW4RowWrapPolicy@1@XZ"
"?rows@QPixmapConvolutionFilter@@AEBAHXZ"
"?rowsAboutToBeRemoved@QAbstractItemView@@MEAAXAEBVQModelIndex@@HH@Z"
"?rowsAboutToBeRemoved@QListView@@MEAAXAEBVQModelIndex@@HH@Z"
"?rowsAboutToBeRemoved@QTreeView@@MEAAXAEBVQModelIndex@@HH@Z"
"?rowsInserted@QAbstractItemView@@MEAAXAEBVQModelIndex@@HH@Z"
"?rowsInserted@QColumnView@@MEAAXAEBVQModelIndex@@HH@Z"
"?rowsInserted@QFileDialogPrivate@@QEAAXAEBVQModelIndex@@@Z"
"?rowsInserted@QHeaderView@@MEAAXAEBVQModelIndex@@HH@Z"
"?rowsInserted@QListView@@MEAAXAEBVQModelIndex@@HH@Z"
"?rowsInserted@QTreeView@@MEAAXAEBVQModelIndex@@HH@Z"
"?rowsRemoved@QTreeView@@IEAAXAEBVQModelIndex@@HH@Z"
"?rtl@QCommonStylePrivate@@SA_NPEBVQStyleOption@@@Z"
"?rubberBandChanged@QGraphicsView@@QEAAXVQRect@@VQPointF@@1@Z"
"?rubberBandRect@QGraphicsView@@QEBA?AVQRect@@XZ"
"?rubberBandRegion@QGraphicsViewPrivate@@QEBA?AVQRegion@@PEBVQWidget@@AEBVQRect@@@Z"
"?rubberBandSelectionMode@QGraphicsView@@QEBA?AW4ItemSelectionMode@Qt@@XZ"
"?safeAreaMargins@QWidgetPrivate@@QEBA?AVQMargins@@XZ"
"?sampleCount@QRhiWidget@@QEBAHXZ"
"?sampleCountChanged@QRhiWidget@@QEAAXH@Z"
"?sampleTextForFont@QFontComboBox@@QEBA?AVQString@@AEBV2@@Z"
"?sampleTextForSystem@QFontComboBox@@QEBA?AVQString@@W4WritingSystem@QFontDatabase@@@Z"
"?saveFileContent@QFileDialog@@SAXAEBVQByteArray@@AEBVQString@@@Z"
"?saveFileContent@QFileDialog@@SAXAEBVQByteArray@@AEBVQString@@PEAVQWidget@@@Z"
"?saveGeometry@QWidget@@QEBA?AVQByteArray@@XZ"
"?saveHistorySelection@QFileDialogPrivate@@QEAAXXZ"
"?saveSettings@QFileDialogPrivate@@QEAAXXZ"
"?saveState@QFileDialog@@QEBA?AVQByteArray@@XZ"
"?saveState@QHeaderView@@QEBA?AVQByteArray@@XZ"
"?saveState@QMainWindow@@QEBA?AVQByteArray@@H@Z"
"?saveState@QSplitter@@QEBA?AVQByteArray@@XZ"
"?scale@QGraphicsItem@@QEBANXZ"
"?scale@QGraphicsView@@QEAAXNN@Z"
"?scaleChanged@QGraphicsObject@@QEAAXXZ"
"?scaleChanged@QGraphicsScale@@QEAAXXZ"
"?scaleFactor@QPinchGesture@@QEBANXZ"
"?scaleList@QGraphicsItemAnimation@@QEBA?AV?$QList@U?$pair@NVQPointF@@@std@@@@XZ"
"?scene@QGraphicsItem@@QEBAPEAVQGraphicsScene@@XZ"
"?scene@QGraphicsView@@QEBAPEAVQGraphicsScene@@XZ"
"?sceneBoundingRect@QGraphicsItem@@QEBA?AVQRectF@@XZ"
"?sceneEffectiveBoundingRect@QGraphicsItemPrivate@@QEBA?AVQRectF@@XZ"
"?sceneEvent@QGraphicsItem@@MEAA_NPEAVQEvent@@@Z"
"?sceneEvent@QGraphicsTextItem@@MEAA_NPEAVQEvent@@@Z"
"?sceneEvent@QGraphicsWidget@@MEAA_NPEAVQEvent@@@Z"
"?sceneEventFilter@QGraphicsItem@@MEAA_NPEAV1@PEAVQEvent@@@Z"
"?scenePos@QGraphicsItem@@QEBA?AVQPointF@@XZ"
"?scenePos@QGraphicsSceneContextMenuEvent@@QEBA?AVQPointF@@XZ"
"?scenePos@QGraphicsSceneDragDropEvent@@QEBA?AVQPointF@@XZ"
"?scenePos@QGraphicsSceneHelpEvent@@QEBA?AVQPointF@@XZ"
"?scenePos@QGraphicsSceneHoverEvent@@QEBA?AVQPointF@@XZ"
"?scenePos@QGraphicsSceneMouseEvent@@QEBA?AVQPointF@@XZ"
"?scenePos@QGraphicsSceneWheelEvent@@QEBA?AVQPointF@@XZ"
"?sceneRect@QGraphicsScene@@QEBA?AVQRectF@@XZ"
"?sceneRect@QGraphicsView@@QEBA?AVQRectF@@XZ"
"?sceneRectChanged@QGraphicsScene@@QEAAXAEBVQRectF@@@Z"
"?sceneTransform@QGraphicsItem@@QEBA?AVQTransform@@XZ"
"?scheduleDelayedItemsLayout@QAbstractItemView@@IEAAXXZ"
"?screen@QWidget@@QEBAPEAVQScreen@@XZ"
"?screen@QWidgetPrivate@@SAPEAVQScreen@@PEBVQWidget@@AEBVQPoint@@_N@Z"
"?screenGeometry@QWidgetPrivate@@SA?AVQRect@@PEBVQWidget@@@Z"
"?screenGeometry@QWidgetPrivate@@SA?AVQRect@@PEBVQWidget@@AEBVQPoint@@_N@Z"
"?screenPos@QGraphicsSceneContextMenuEvent@@QEBA?AVQPoint@@XZ"
"?screenPos@QGraphicsSceneDragDropEvent@@QEBA?AVQPoint@@XZ"
"?screenPos@QGraphicsSceneHelpEvent@@QEBA?AVQPoint@@XZ"
"?screenPos@QGraphicsSceneHoverEvent@@QEBA?AVQPoint@@XZ"
"?screenPos@QGraphicsSceneMouseEvent@@QEBA?AVQPoint@@XZ"
"?screenPos@QGraphicsSceneWheelEvent@@QEBA?AVQPoint@@XZ"
"?scroll@QGraphicsItem@@QEAAXNNAEBVQRectF@@@Z"
"?scroll@QWidget@@QEAAXHH@Z"
"?scroll@QWidget@@QEAAXHHAEBVQRect@@@Z"
"?scrollBarSubControlRect@QPixmapStyle@@IEBA?AVQRect@@PEBVQStyleOptionComplex@@W4SubControl@QStyle@@PEBVQWidget@@@Z"
"?scrollBarWidgets@QAbstractScrollArea@@QEAA?AV?$QList@PEAVQWidget@@@@V?$QFlags@W4AlignmentFlag@Qt@@@@@Z"
"?scrollChildren@QWidgetPrivate@@QEAAXHH@Z"
"?scrollContentsBy@QAbstractScrollArea@@MEAAXHH@Z"
"?scrollContentsBy@QColumnView@@MEAAXHH@Z"
"?scrollContentsBy@QGraphicsView@@MEAAXHH@Z"
"?scrollContentsBy@QHeaderView@@MEAAXHH@Z"
"?scrollContentsBy@QListView@@MEAAXHH@Z"
"?scrollContentsBy@QMdiArea@@MEAAXHH@Z"
"?scrollContentsBy@QPlainTextEdit@@MEAAXHH@Z"
"?scrollContentsBy@QScrollArea@@MEAAXHH@Z"
"?scrollContentsBy@QTableView@@MEAAXHH@Z"
"?scrollContentsBy@QTextEdit@@MEAAXHH@Z"
"?scrollContentsBy@QTreeView@@MEAAXHH@Z"
"?scrollDirtyRegion@QAbstractItemView@@IEAAXHH@Z"
"?scrollItemView@QComboBoxPrivateContainer@@QEAAXH@Z"
"?scrollMetric@QScrollerProperties@@QEBA?AVQVariant@@W4ScrollMetric@1@@Z"
"?scrollRect@QWidgetPrivate@@QEAAXAEBVQRect@@HH@Z"
"?scrollTabs@QTabBarPrivate@@QEAAXXZ"
"?scrollTo@QColumnView@@UEAAXAEBVQModelIndex@@W4ScrollHint@QAbstractItemView@@@Z"
"?scrollTo@QHeaderView@@MEAAXAEBVQModelIndex@@W4ScrollHint@QAbstractItemView@@@Z"
"?scrollTo@QListView@@UEAAXAEBVQModelIndex@@W4ScrollHint@QAbstractItemView@@@Z"
"?scrollTo@QScroller@@QEAAXAEBVQPointF@@@Z"
"?scrollTo@QScroller@@QEAAXAEBVQPointF@@H@Z"
"?scrollTo@QTableView@@UEAAXAEBVQModelIndex@@W4ScrollHint@QAbstractItemView@@@Z"
"?scrollTo@QTreeView@@UEAAXAEBVQModelIndex@@W4ScrollHint@QAbstractItemView@@@Z"
"?scrollToAnchor@QTextEdit@@QEAAXAEBVQString@@@Z"
"?scrollToBottom@QAbstractItemView@@QEAAXXZ"
"?scrollToItem@QListWidget@@QEAAXPEBVQListWidgetItem@@W4ScrollHint@QAbstractItemView@@@Z"
"?scrollToItem@QTableWidget@@QEAAXPEBVQTableWidgetItem@@W4ScrollHint@QAbstractItemView@@@Z"
"?scrollToItem@QTreeWidget@@QEAAXPEBVQTreeWidgetItem@@W4ScrollHint@QAbstractItemView@@@Z"
"?scrollToTop@QAbstractItemView@@QEAAXXZ"
"?scroll_sys@QWidgetPrivate@@QEAAXHH@Z"
"?scroll_sys@QWidgetPrivate@@QEAAXHHAEBVQRect@@@Z"
"?scroller@QScroller@@SAPEAV1@PEAVQObject@@@Z"
"?scroller@QScroller@@SAPEBV1@PEBVQObject@@@Z"
"?scrollerProperties@QScroller@@QEBA?AVQScrollerProperties@@XZ"
"?scrollerPropertiesChanged@QScroller@@QEAAXAEBVQScrollerProperties@@@Z"
"?searchPaths@QTextBrowser@@QEBA?AV?$QList@VQString@@@@XZ"
"?sectionAt@QDateTimeEdit@@QEBA?AW4Section@1@H@Z"
"?sectionClicked@QHeaderView@@QEAAXH@Z"
"?sectionCount@QDateTimeEdit@@QEBAHXZ"
"?sectionCountChanged@QHeaderView@@QEAAXHH@Z"
"?sectionDoubleClicked@QHeaderView@@QEAAXH@Z"
"?sectionEntered@QHeaderView@@QEAAXH@Z"
"?sectionHandleDoubleClicked@QHeaderView@@QEAAXH@Z"
"?sectionMoved@QHeaderView@@QEAAXHHH@Z"
"?sectionPosition@QHeaderView@@QEBAHH@Z"
"?sectionPressed@QHeaderView@@QEAAXH@Z"
"?sectionResizeMode@QHeaderView@@QEBA?AW4ResizeMode@1@H@Z"
"?sectionResized@QHeaderView@@QEAAXHHH@Z"
"?sectionSize@QHeaderView@@QEBAHH@Z"
"?sectionSizeFromContents@QHeaderView@@MEBA?AVQSize@@H@Z"
"?sectionSizeHint@QHeaderView@@QEBAHH@Z"
"?sectionText@QDateTimeEdit@@QEBA?AVQString@@W4Section@1@@Z"
"?sectionViewportPosition@QHeaderView@@QEBAHH@Z"
"?sectionsAboutToBeRemoved@QHeaderView@@IEAAXAEBVQModelIndex@@HH@Z"
"?sectionsClickable@QHeaderView@@QEBA_NXZ"
"?sectionsHidden@QHeaderView@@QEBA_NXZ"
"?sectionsInserted@QHeaderView@@IEAAXAEBVQModelIndex@@HH@Z"
"?sectionsMovable@QHeaderView@@QEBA_NXZ"
"?sectionsMoved@QHeaderView@@QEBA_NXZ"
"?segmentStyle@QLCDNumber@@QEBA?AW4SegmentStyle@1@XZ"
"?select@QFileDialogPrivate@@QEBA?AVQModelIndex@@AEBV2@@Z"
"?select@QTreeViewPrivate@@QEAAXAEBVQModelIndex@@0V?$QFlags@W4SelectionFlag@QItemSelectionModel@@@@@Z"
"?selectAll@QAbstractItemView@@UEAAXXZ"
"?selectAll@QAbstractSpinBox@@QEAAXXZ"
"?selectAll@QColumnView@@UEAAXXZ"
"?selectAll@QLineEdit@@QEAAXXZ"
"?selectAll@QPlainTextEdit@@QEAAXXZ"
"?selectAll@QTextEdit@@QEAAXXZ"
"?selectAll@QTreeView@@UEAAXXZ"
"?selectAll@QWidgetLineControl@@QEAAXXZ"
"?selectAll@QWidgetTextControl@@QEAAXXZ"
"?selectColumn@QTableView@@QEAAXH@Z"
"?selectFile@QFileDialog@@QEAAXAEBVQString@@@Z"
"?selectFile_sys@QFileDialogPrivate@@QEAAXAEBVQUrl@@@Z"
"?selectMimeTypeFilter@QFileDialog@@QEAAXAEBVQString@@@Z"
"?selectMimeTypeFilter_sys@QFileDialogPrivate@@QEAAXAEBVQString@@@Z"
"?selectNameFilter@QFileDialog@@QEAAXAEBVQString@@@Z"
"?selectNameFilter_sys@QFileDialogPrivate@@QEAAXAEBVQString@@@Z"
"?selectNewCurrentIndexFrom@QTabBarPrivate@@QEAAHH@Z"
"?selectRow@QTableView@@QEAAXH@Z"
"?selectUrl@QFileDialog@@QEAAXAEBVQUrl@@@Z"
"?selectWordAtPos@QWidgetLineControl@@QEAAXH@Z"
"?selectedColor@QColorDialog@@QEBA?AVQColor@@XZ"
"?selectedDate@QCalendarWidget@@QEBA?AVQDate@@XZ"
"?selectedFiles@QFileDialog@@QEBA?AV?$QList@VQString@@@@XZ"
"?selectedFiles_sys@QFileDialogPrivate@@QEBA?AV?$QList@VQUrl@@@@XZ"
"?selectedFont@QFontDialog@@QEBA?AVQFont@@XZ"
"?selectedIndexes@QAbstractItemView@@MEBA?AV?$QList@VQModelIndex@@@@XZ"
"?selectedIndexes@QListView@@MEBA?AV?$QList@VQModelIndex@@@@XZ"
"?selectedIndexes@QTableView@@MEBA?AV?$QList@VQModelIndex@@@@XZ"
"?selectedIndexes@QTreeView@@MEBA?AV?$QList@VQModelIndex@@@@XZ"
"?selectedItems@QGraphicsScene@@QEBA?AV?$QList@PEAVQGraphicsItem@@@@XZ"
"?selectedItems@QListWidget@@QEBA?AV?$QList@PEAVQListWidgetItem@@@@XZ"
"?selectedItems@QTableWidget@@QEBA?AV?$QList@PEAVQTableWidgetItem@@@@XZ"
"?selectedItems@QTreeWidget@@QEBA?AV?$QList@PEAVQTreeWidgetItem@@@@XZ"
"?selectedMimeTypeFilter@QFileDialog@@QEBA?AVQString@@XZ"
"?selectedMimeTypeFilter_sys@QFileDialogPrivate@@QEBA?AVQString@@XZ"
"?selectedNameFilter@QFileDialog@@QEBA?AVQString@@XZ"
"?selectedNameFilter_sys@QFileDialogPrivate@@QEBA?AVQString@@XZ"
"?selectedPixmap@QItemDelegate@@KA?AVQPixmap@@AEBV2@AEBVQPalette@@_N@Z"
"?selectedRanges@QTableWidget@@QEBA?AV?$QList@VQTableWidgetSelectionRange@@@@XZ"
"?selectedText@QLabel@@QEBA?AVQString@@XZ"
"?selectedText@QLineEdit@@QEBA?AVQString@@XZ"
"?selectedText@QWidgetLineControl@@QEBA?AVQString@@XZ"
"?selectedUrls@QFileDialog@@QEBA?AV?$QList@VQUrl@@@@XZ"
"?selectionArea@QGraphicsScene@@QEBA?AVQPainterPath@@XZ"
"?selectionBehavior@QAbstractItemView@@QEBA?AW4SelectionBehavior@1@XZ"
"?selectionBehaviorOnRemove@QTabBar@@QEBA?AW4SelectionBehavior@1@XZ"
"?selectionChanged@QAbstractItemView@@MEAAXAEBVQItemSelection@@0@Z"
"?selectionChanged@QCalendarWidget@@QEAAXXZ"
"?selectionChanged@QFileDialogPrivate@@QEAAXXZ"
"?selectionChanged@QGraphicsScene@@QEAAXXZ"
"?selectionChanged@QLineEdit@@QEAAXXZ"
"?selectionChanged@QListView@@MEAAXAEBVQItemSelection@@0@Z"
"?selectionChanged@QPlainTextEdit@@QEAAXXZ"
"?selectionChanged@QTableView@@MEAAXAEBVQItemSelection@@0@Z"
"?selectionChanged@QTextEdit@@QEAAXXZ"
"?selectionChanged@QTreeView@@MEAAXAEBVQItemSelection@@0@Z"
"?selectionChanged@QWidgetLineControl@@QEAAXXZ"
"?selectionChanged@QWidgetTextControl@@QEAAXXZ"
"?selectionCommand@QAbstractItemView@@MEBA?AV?$QFlags@W4SelectionFlag@QItemSelectionModel@@@@AEBVQModelIndex@@PEBVQEvent@@@Z"
"?selectionEnd@QLineEdit@@QEBAHXZ"
"?selectionEnd@QWidgetLineControl@@QEBAHXZ"
"?selectionLength@QLineEdit@@QEBAHXZ"
"?selectionMode@QAbstractItemView@@QEBA?AW4SelectionMode@1@XZ"
"?selectionMode@QCalendarWidget@@QEBA?AW4SelectionMode@1@XZ"
"?selectionModel@QAbstractItemView@@QEBAPEAVQItemSelectionModel@@XZ"
"?selectionRect@QWidgetTextControl@@QEBA?AVQRectF@@AEBVQTextCursor@@@Z"
"?selectionRect@QWidgetTextControl@@QEBA?AVQRectF@@XZ"
"?selectionStart@QLabel@@QEBAHXZ"
"?selectionStart@QLineEdit@@QEBAHXZ"
"?selectionStart@QWidgetLineControl@@QEBAHXZ"
"?self@QApplicationPrivate@@0PEAV1@EA"
"?sendComposeStatus@QWidgetPrivate@@SAXPEAVQWidget@@_N@Z"
"?sendEvent@QGraphicsScene@@QEAA_NPEAVQGraphicsItem@@PEAVQEvent@@@Z"
"?sendMouseEvent@QApplicationPrivate@@SA_NPEAVQWidget@@PEAVQMouseEvent@@00PEAPEAV2@AEAV?$QPointer@VQWidget@@@@_N4@Z"
"?sendPaintEvent@QWidgetPrivate@@QEAAXAEBVQRegion@@@Z"
"?sendPendingMoveAndResizeEvents@QWidgetPrivate@@QEAAX_N0@Z"
"?sendScenePosChange@QGraphicsItemPrivate@@QEAAXXZ"
"?sendSyntheticEnterLeave@QApplicationPrivate@@QEAAXPEAVQWidget@@@Z"
"?sendUpdateRequest@QWidgetRepaintManager@@AEAAXPEAVQWidget@@W4UpdateTime@1@@Z"
"?separate@QWidgetLineControl@@AEAAXXZ"
"?separatorsCollapsible@QMenu@@QEBA_NXZ"
"?setAccelerated@QAbstractSpinBox@@QEAAX_N@Z"
"?setAcceleration@QPanGesture@@QEAAXN@Z"
"?setAcceptDrops@QGraphicsItem@@QEAAX_N@Z"
"?setAcceptDrops@QWidget@@QEAAX_N@Z"
"?setAcceptHoverEvents@QGraphicsItem@@QEAAX_N@Z"
"?setAcceptMode@QFileDialog@@QEAAXW4AcceptMode@1@@Z"
"?setAcceptRichText@QTextEdit@@QEAAX_N@Z"
"?setAcceptRichText@QWidgetTextControl@@QEAAX_N@Z"
"?setAcceptTouchEvents@QGraphicsItem@@QEAAX_N@Z"
"?setAccepted@QGestureEvent@@QEAAXPEAVQGesture@@_N@Z"
"?setAccepted@QGestureEvent@@QEAAXW4GestureType@Qt@@_N@Z"
"?setAcceptedMouseButtons@QGraphicsItem@@QEAAXV?$QFlags@W4MouseButton@Qt@@@@@Z"
"?setAccessibleDescription@QWidget@@QEAAXAEBVQString@@@Z"
"?setAccessibleName@QWidget@@QEAAXAEBVQString@@@Z"
"?setAccessibleObject@QWidgetLineControl@@QEAAXPEAVQObject@@@Z"
"?setAccessibleTabName@QTabBar@@QEAAXHAEBVQString@@@Z"
"?setActivationOrder@QMdiArea@@QEAAXW4WindowOrder@1@@Z"
"?setActive@QGraphicsItem@@QEAAX_N@Z"
"?setActive@QScrollbarStyleAnimation@@QEAAX_N@Z"
"?setActiveAction@QMenu@@QEAAXPEAVQAction@@@Z"
"?setActiveAction@QMenuBar@@QEAAXPEAVQAction@@@Z"
"?setActivePanel@QGraphicsScene@@QEAAXPEAVQGraphicsItem@@@Z"
"?setActiveSubWindow@QMdiArea@@QEAAXPEAVQMdiSubWindow@@@Z"
"?setActiveWindow@QApplication@@SAXPEAVQWidget@@@Z"
"?setActiveWindow@QApplicationPrivate@@SAXPEAVQWidget@@@Z"
"?setActiveWindow@QGraphicsScene@@QEAAXPEAVQGraphicsWidget@@@Z"
"?setAlignment@QAbstractSpinBox@@QEAAXV?$QFlags@W4AlignmentFlag@Qt@@@@@Z"
"?setAlignment@QGraphicsGridLayout@@QEAAXPEAVQGraphicsLayoutItem@@V?$QFlags@W4AlignmentFlag@Qt@@@@@Z"
"?setAlignment@QGraphicsLinearLayout@@QEAAXPEAVQGraphicsLayoutItem@@V?$QFlags@W4AlignmentFlag@Qt@@@@@Z"
"?setAlignment@QGraphicsView@@QEAAXV?$QFlags@W4AlignmentFlag@Qt@@@@@Z"
"?setAlignment@QGroupBox@@QEAAXH@Z"
"?setAlignment@QLabel@@QEAAXV?$QFlags@W4AlignmentFlag@Qt@@@@@Z"
"?setAlignment@QLayout@@QEAA_NPEAV1@V?$QFlags@W4AlignmentFlag@Qt@@@@@Z"
"?setAlignment@QLayout@@QEAA_NPEAVQWidget@@V?$QFlags@W4AlignmentFlag@Qt@@@@@Z"
"?setAlignment@QLayoutItem@@QEAAXV?$QFlags@W4AlignmentFlag@Qt@@@@@Z"
"?setAlignment@QLineEdit@@QEAAXV?$QFlags@W4AlignmentFlag@Qt@@@@@Z"
"?setAlignment@QProgressBar@@QEAAXV?$QFlags@W4AlignmentFlag@Qt@@@@@Z"
"?setAlignment@QScrollArea@@QEAAXV?$QFlags@W4AlignmentFlag@Qt@@@@@Z"
"?setAlignment@QTextEdit@@QEAAXV?$QFlags@W4AlignmentFlag@Qt@@@@@Z"
"?setAllColumnsShowFocus@QTreeView@@QEAAX_N@Z"
"?setAllowedAreas@QDockWidget@@QEAAXV?$QFlags@W4DockWidgetArea@Qt@@@@@Z"
"?setAllowedAreas@QToolBar@@QEAAXV?$QFlags@W4ToolBarArea@Qt@@@@@Z"
"?setAlternatingRowColors@QAbstractItemView@@QEAAX_N@Z"
"?setAngle@QGraphicsRotation@@QEAAXN@Z"
"?setAnimated@QMainWindow@@QEAAX_N@Z"
"?setAnimated@QTreeView@@QEAAX_N@Z"
"?setApi@QRhiWidget@@QEAAXW4Api@1@@Z"
"?setArrowType@QToolButton@@QEAAXW4ArrowType@Qt@@@Z"
"?setAttribute@QGraphicsWidget@@QEAAXW4WidgetAttribute@Qt@@_N@Z"
"?setAttribute@QWidget@@QEAAXW4WidgetAttribute@Qt@@_N@Z"
"?setAutoClose@QProgressDialog@@QEAAX_N@Z"
"?setAutoDefault@QPushButton@@QEAAX_N@Z"
"?setAutoExclusive@QAbstractButton@@QEAAX_N@Z"
"?setAutoExpandDelay@QTreeView@@QEAAXH@Z"
"?setAutoFillBackground@QGraphicsWidget@@QEAAX_N@Z"
"?setAutoFillBackground@QWidget@@QEAAX_N@Z"
"?setAutoFormatting@QTextEdit@@QEAAXV?$QFlags@W4AutoFormattingFlag@QTextEdit@@@@@Z"
"?setAutoHide@QTabBar@@QEAAX_N@Z"
"?setAutoRaise@QToolButton@@QEAAX_N@Z"
"?setAutoRenderTarget@QRhiWidget@@IEAAX_N@Z"
"?setAutoRepeat@QAbstractButton@@QEAAX_N@Z"
"?setAutoRepeatDelay@QAbstractButton@@QEAAXH@Z"
"?setAutoRepeatInterval@QAbstractButton@@QEAAXH@Z"
"?setAutoReset@QProgressDialog@@QEAAX_N@Z"
"?setAutoScroll@QAbstractItemView@@QEAAX_N@Z"
"?setAutoScrollMargin@QAbstractItemView@@QEAAXH@Z"
"?setAutoSipEnabled@QApplication@@QEAAX_N@Z"
"?setAxis@QGraphicsRotation@@QEAAXAEBVQVector3D@@@Z"
"?setAxis@QGraphicsRotation@@QEAAXW4Axis@Qt@@@Z"
"?setBackground@QListWidgetItem@@QEAAXAEBVQBrush@@@Z"
"?setBackground@QMdiArea@@QEAAXAEBVQBrush@@@Z"
"?setBackground@QTableWidgetItem@@QEAAXAEBVQBrush@@@Z"
"?setBackground@QTreeWidgetItem@@QEAAXHAEBVQBrush@@@Z"
"?setBackgroundBrush@QGraphicsScene@@QEAAXAEBVQBrush@@@Z"
"?setBackgroundBrush@QGraphicsView@@QEAAXAEBVQBrush@@@Z"
"?setBackgroundRole@QWidget@@QEAAXW4ColorRole@QPalette@@@Z"
"?setBackgroundVisible@QPlainTextEdit@@QEAAX_N@Z"
"?setBackingStore@QWidget@@AEAAXPEAVQBackingStore@@@Z"
"?setBackingStore@QWidgetRepaintManager@@QEAAXPEAVQBackingStore@@@Z"
"?setBar@QProgressDialog@@QEAAXPEAVQProgressBar@@@Z"
"?setBaseSize@QWidget@@QEAAXAEBVQSize@@@Z"
"?setBaseSize@QWidget@@QEAAXHH@Z"
"?setBaseStyle@QProxyStyle@@QEAAXPEAVQStyle@@@Z"
"?setBatchSize@QListView@@QEAAXH@Z"
"?setBinMode@QLCDNumber@@QEAAXXZ"
"?setBlinkingCursorEnabled@QWidgetLineControl@@QEAAX_N@Z"
"?setBlurHints@QGraphicsBlurEffect@@QEAAXV?$QFlags@W4BlurHint@QGraphicsBlurEffect@@@@@Z"
"?setBlurHints@QPixmapBlurFilter@@QEAAXV?$QFlags@W4BlurHint@QGraphicsBlurEffect@@@@@Z"
"?setBlurRadius@QGraphicsBlurEffect@@QEAAXN@Z"
"?setBlurRadius@QGraphicsDropShadowEffect@@QEAAXN@Z"
"?setBlurRadius@QPixmapDropShadowFilter@@QEAAXN@Z"
"?setBoundingRegionGranularity@QGraphicsItem@@QEAAXN@Z"
"?setBrush@QAbstractGraphicsShapeItem@@QEAAXAEBVQBrush@@@Z"
"?setBspTreeDepth@QGraphicsScene@@QEAAXH@Z"
"?setBuddy@QLabel@@QEAAXPEAVQWidget@@@Z"
"?setButton@QGraphicsSceneMouseEvent@@QEAAXW4MouseButton@Qt@@@Z"
"?setButton@QWizard@@QEAAXW4WizardButton@1@PEAVQAbstractButton@@@Z"
"?setButtonDownPos@QGraphicsSceneMouseEvent@@QEAAXW4MouseButton@Qt@@AEBVQPointF@@@Z"
"?setButtonDownScenePos@QGraphicsSceneMouseEvent@@QEAAXW4MouseButton@Qt@@AEBVQPointF@@@Z"
"?setButtonDownScreenPos@QGraphicsSceneMouseEvent@@QEAAXW4MouseButton@Qt@@AEBVQPoint@@@Z"
"?setButtonLayout@QWizard@@QEAAXAEBV?$QList@W4WizardButton@QWizard@@@@@Z"
"?setButtonSymbols@QAbstractSpinBox@@QEAAXW4ButtonSymbols@1@@Z"
"?setButtonText@QMessageBox@@QEAAXHAEBVQString@@@Z"
"?setButtonText@QWizard@@QEAAXW4WizardButton@1@AEBVQString@@@Z"
"?setButtonText@QWizardPage@@QEAAXW4WizardButton@QWizard@@AEBVQString@@@Z"
"?setButtons@QGraphicsSceneDragDropEvent@@QEAAXV?$QFlags@W4MouseButton@Qt@@@@@Z"
"?setButtons@QGraphicsSceneMouseEvent@@QEAAXV?$QFlags@W4MouseButton@Qt@@@@@Z"
"?setButtons@QGraphicsSceneWheelEvent@@QEAAXV?$QFlags@W4MouseButton@Qt@@@@@Z"
"?setCacheMode@QGraphicsItem@@QEAAXW4CacheMode@1@AEBVQSize@@@Z"
"?setCacheMode@QGraphicsView@@QEAAXV?$QFlags@W4CacheModeFlag@QGraphicsView@@@@@Z"
"?setCalendar@QCalendarWidget@@QEAAXVQCalendar@@@Z"
"?setCalendar@QDateTimeEdit@@QEAAXVQCalendar@@@Z"
"?setCalendarPopup@QDateTimeEdit@@QEAAX_N@Z"
"?setCalendarWidget@QDateTimeEdit@@QEAAXPEAVQCalendarWidget@@@Z"
"?setCancelButton@QProgressDialog@@QEAAXPEAVQPushButton@@@Z"
"?setCancelButtonText@QInputDialog@@QEAAXAEBVQString@@@Z"
"?setCancelButtonText@QProgressDialog@@QEAAXAEBVQString@@@Z"
"?setCancelText@QWidgetLineControl@@QEAAXAEBVQString@@@Z"
"?setCascadingSectionResizes@QHeaderView@@QEAAX_N@Z"
"?setCaseSensitivity@QCompleter@@QEAAXW4CaseSensitivity@Qt@@@Z"
"?setCellWidget@QTableWidget@@QEAAXHHPEAVQWidget@@@Z"
"?setCenterButtons@QDialogButtonBox@@QEAAX_N@Z"
"?setCenterOnScroll@QPlainTextEdit@@QEAAX_N@Z"
"?setCenterPoint@QPinchGesture@@QEAAXAEBVQPointF@@@Z"
"?setCentralWidget@QMainWindow@@QEAAXPEAVQWidget@@@Z"
"?setChangeCurrentOnDrag@QTabBar@@QEAAX_N@Z"
"?setChangeFlags@QPinchGesture@@QEAAXV?$QFlags@W4ChangeFlag@QPinchGesture@@@@@Z"
"?setCheckBox@QMessageBox@@QEAAXPEAVQCheckBox@@@Z"
"?setCheckState@QCheckBox@@QEAAXW4CheckState@Qt@@@Z"
"?setCheckState@QListWidgetItem@@QEAAXW4CheckState@Qt@@@Z"
"?setCheckState@QTableWidgetItem@@QEAAXW4CheckState@Qt@@@Z"
"?setCheckState@QTreeWidgetItem@@QEAAXHW4CheckState@Qt@@@Z"
"?setCheckable@QAbstractButton@@QEAAX_N@Z"
"?setCheckable@QGroupBox@@QEAAX_N@Z"
"?setChecked@QAbstractButton@@QEAAX_N@Z"
"?setChecked@QGroupBox@@QEAAX_N@Z"
"?setChildIndicatorPolicy@QTreeWidgetItem@@QEAAXW4ChildIndicatorPolicy@1@@Z"
"?setChildrenCollapsible@QSplitter@@QEAAX_N@Z"
"?setCleanIcon@QUndoView@@QEAAXAEBVQIcon@@@Z"
"?setClearButtonEnabled@QKeySequenceEdit@@QEAAX_N@Z"
"?setClearButtonEnabled@QLineEdit@@QEAAX_N@Z"
"?setClipping@QItemDelegate@@QEAAX_N@Z"
"?setCollapsible@QSplitter@@QEAAXH_N@Z"
"?setColor@QGraphicsColorizeEffect@@QEAAXAEBVQColor@@@Z"
"?setColor@QGraphicsDropShadowEffect@@QEAAXAEBVQColor@@@Z"
"?setColor@QPixmapColorizeFilter@@QEAAXAEBVQColor@@@Z"
"?setColor@QPixmapDropShadowFilter@@QEAAXAEBVQColor@@@Z"
"?setColorBufferFormat@QRhiWidget@@QEAAXW4TextureFormat@1@@Z"
"?setColumnAlignment@QGraphicsGridLayout@@QEAAXHV?$QFlags@W4AlignmentFlag@Qt@@@@@Z"
"?setColumnCount@QTableWidget@@QEAAXH@Z"
"?setColumnCount@QTreeWidget@@QEAAXH@Z"
"?setColumnFixedWidth@QGraphicsGridLayout@@QEAAXHN@Z"
"?setColumnHidden@QTableView@@QEAAXH_N@Z"
"?setColumnHidden@QTreeView@@QEAAXH_N@Z"
"?setColumnMaximumWidth@QGraphicsGridLayout@@QEAAXHN@Z"
"?setColumnMinimumWidth@QGraphicsGridLayout@@QEAAXHN@Z"
"?setColumnMinimumWidth@QGridLayout@@QEAAXHH@Z"
"?setColumnPreferredWidth@QGraphicsGridLayout@@QEAAXHN@Z"
"?setColumnSpacing@QGraphicsGridLayout@@QEAAXHN@Z"
"?setColumnStretch@QGridLayout@@QEAAXHH@Z"
"?setColumnStretchFactor@QGraphicsGridLayout@@QEAAXHH@Z"
"?setColumnWidth@QTableView@@QEAAXHH@Z"
"?setColumnWidth@QTreeView@@QEAAXHH@Z"
"?setColumnWidths@QColumnView@@QEAAXAEBV?$QList@H@@@Z"
"?setComboBoxEditable@QInputDialog@@QEAAX_N@Z"
"?setComboBoxItems@QInputDialog@@QEAAXAEBV?$QList@VQString@@@@@Z"
"?setCommitPage@QWizardPage@@QEAAX_N@Z"
"?setCompleter@QComboBox@@QEAAXPEAVQCompleter@@@Z"
"?setCompleter@QLineEdit@@QEAAXPEAVQCompleter@@@Z"
"?setCompleter@QWidgetLineControl@@QEAAXPEBVQCompleter@@@Z"
"?setCompletionColumn@QCompleter@@QEAAXH@Z"
"?setCompletionMode@QCompleter@@QEAAXW4CompletionMode@1@@Z"
"?setCompletionPrefix@QCompleter@@QEAAXAEBVQString@@@Z"
"?setCompletionRole@QCompleter@@QEAAXH@Z"
"?setConstraints_sys@QWidgetPrivate@@QEAAXXZ"
"?setContentsMargins@QGraphicsLayout@@QEAAXNNNN@Z"
"?setContentsMargins@QGraphicsWidget@@QEAAXNNNN@Z"
"?setContentsMargins@QGraphicsWidget@@QEAAXVQMarginsF@@@Z"
"?setContentsMargins@QLayout@@QEAAXAEBVQMargins@@@Z"
"?setContentsMargins@QLayout@@QEAAXHHHH@Z"
"?setContentsMargins@QWidget@@QEAAXAEBVQMargins@@@Z"
"?setContentsMargins@QWidget@@QEAAXHHHH@Z"
"?setContextMenu@QSystemTrayIcon@@QEAAXPEAVQMenu@@@Z"
"?setContextMenuPolicy@QWidget@@QEAAXW4ContextMenuPolicy@Qt@@@Z"
"?setControlType@QSizePolicy@@QEAAXW4ControlType@1@@Z"
"?setConvolutionKernel@QPixmapConvolutionFilter@@QEAAXPEBNHH@Z"
"?setCorner@QMainWindow@@QEAAXW4Corner@Qt@@W4DockWidgetArea@3@@Z"
"?setCornerButtonEnabled@QTableView@@QEAAX_N@Z"
"?setCornerWidget@QAbstractScrollArea@@QEAAXPEAVQWidget@@@Z"
"?setCornerWidget@QMenuBar@@QEAAXPEAVQWidget@@W4Corner@Qt@@@Z"
"?setCornerWidget@QTabWidget@@QEAAXPEAVQWidget@@W4Corner@Qt@@@Z"
"?setCorrectionMode@QAbstractSpinBox@@QEAAXW4CorrectionMode@1@@Z"
"?setCurrentCell@QTableWidget@@QEAAXHH@Z"
"?setCurrentCell@QTableWidget@@QEAAXHHV?$QFlags@W4SelectionFlag@QItemSelectionModel@@@@@Z"
"?setCurrentCharFormat@QPlainTextEdit@@QEAAXAEBVQTextCharFormat@@@Z"
"?setCurrentCharFormat@QTextEdit@@QEAAXAEBVQTextCharFormat@@@Z"
"?setCurrentCharFormat@QWidgetTextControl@@QEAAXAEBVQTextCharFormat@@@Z"
"?setCurrentColor@QColorDialog@@QEAAXAEBVQColor@@@Z"
"?setCurrentFont@QFontComboBox@@QEAAXAEBVQFont@@@Z"
"?setCurrentFont@QFontDialog@@QEAAXAEBVQFont@@@Z"
"?setCurrentFont@QTextEdit@@QEAAXAEBVQFont@@@Z"
"?setCurrentId@QWizard@@QEAAXH@Z"
"?setCurrentIndex@QAbstractItemView@@QEAAXAEBVQModelIndex@@@Z"
"?setCurrentIndex@QComboBox@@QEAAXH@Z"
"?setCurrentIndex@QDataWidgetMapper@@UEAAXH@Z"
"?setCurrentIndex@QStackedLayout@@QEAAXH@Z"
"?setCurrentIndex@QStackedWidget@@QEAAXH@Z"
"?setCurrentIndex@QTabBar@@QEAAXH@Z"
"?setCurrentIndex@QTabWidget@@QEAAXH@Z"
"?setCurrentIndex@QToolBox@@QEAAXH@Z"
"?setCurrentItem@QListWidget@@QEAAXPEAVQListWidgetItem@@@Z"
"?setCurrentItem@QListWidget@@QEAAXPEAVQListWidgetItem@@V?$QFlags@W4SelectionFlag@QItemSelectionModel@@@@@Z"
"?setCurrentItem@QTableWidget@@QEAAXPEAVQTableWidgetItem@@@Z"
"?setCurrentItem@QTableWidget@@QEAAXPEAVQTableWidgetItem@@V?$QFlags@W4SelectionFlag@QItemSelectionModel@@@@@Z"
"?setCurrentItem@QTreeWidget@@QEAAXPEAVQTreeWidgetItem@@@Z"
"?setCurrentItem@QTreeWidget@@QEAAXPEAVQTreeWidgetItem@@H@Z"
"?setCurrentItem@QTreeWidget@@QEAAXPEAVQTreeWidgetItem@@HV?$QFlags@W4SelectionFlag@QItemSelectionModel@@@@@Z"
"?setCurrentModelIndex@QDataWidgetMapper@@QEAAXAEBVQModelIndex@@@Z"
"?setCurrentNextEnabledIndex@QTabBarPrivate@@QEAAXH@Z"
"?setCurrentPage@QCalendarWidget@@QEAAXHH@Z"
"?setCurrentRow@QCompleter@@QEAA_NH@Z"
"?setCurrentRow@QListWidget@@QEAAXH@Z"
"?setCurrentRow@QListWidget@@QEAAXHV?$QFlags@W4SelectionFlag@QItemSelectionModel@@@@@Z"
"?setCurrentSection@QDateTimeEdit@@QEAAXW4Section@1@@Z"
"?setCurrentSectionIndex@QDateTimeEdit@@QEAAXH@Z"
"?setCurrentText@QComboBox@@QEAAXAEBVQString@@@Z"
"?setCurrentWidget@QStackedLayout@@QEAAXPEAVQWidget@@@Z"
"?setCurrentWidget@QStackedWidget@@QEAAXPEAVQWidget@@@Z"
"?setCurrentWidget@QTabWidget@@QEAAXPEAVQWidget@@@Z"
"?setCurrentWidget@QToolBox@@QEAAXPEAVQWidget@@@Z"
"?setCursor@QGraphicsItem@@QEAAXAEBVQCursor@@@Z"
"?setCursor@QWidget@@QEAAXAEBVQCursor@@@Z"
"?setCursorFlashTime@QApplication@@SAXH@Z"
"?setCursorIsFocusIndicator@QWidgetTextControl@@QEAAX_N@Z"
"?setCursorMoveStyle@QLineEdit@@QEAAXW4CursorMoveStyle@Qt@@@Z"
"?setCursorMoveStyle@QWidgetLineControl@@QEAAXW4CursorMoveStyle@Qt@@@Z"
"?setCursorPosition@QLineEdit@@QEAAXH@Z"
"?setCursorPosition@QWidgetLineControl@@QEAAXH@Z"
"?setCursorWidth@QPlainTextDocumentLayout@@QEAAXH@Z"
"?setCursorWidth@QPlainTextEdit@@QEAAXH@Z"
"?setCursorWidth@QTextEdit@@QEAAXH@Z"
"?setCursorWidth@QWidgetLineControl@@QEAAXH@Z"
"?setCursorWidth@QWidgetTextControl@@QEAAXH@Z"
"?setCursor_sys@QWidgetPrivate@@QEAAXAEBVQCursor@@@Z"
"?setCustomColor@QColorDialog@@SAXHVQColor@@@Z"
"?setData@QGraphicsItem@@QEAAXHAEBVQVariant@@@Z"
"?setData@QListWidgetItem@@UEAAXHAEBVQVariant@@@Z"
"?setData@QTableWidgetItem@@UEAAXHAEBVQVariant@@@Z"
"?setData@QTreeWidgetItem@@UEAAXHHAEBVQVariant@@@Z"
"?setDate@QDateTimeEdit@@QEAAXVQDate@@@Z"
"?setDateEditAcceptDelay@QCalendarWidget@@QEAAXH@Z"
"?setDateEditEnabled@QCalendarWidget@@QEAAX_N@Z"
"?setDateRange@QCalendarWidget@@QEAAXVQDate@@0@Z"
"?setDateRange@QDateTimeEdit@@QEAAXVQDate@@0@Z"
"?setDateTextFormat@QCalendarWidget@@QEAAXVQDate@@AEBVQTextCharFormat@@@Z"
"?setDateTime@QDateTimeEdit@@QEAAXAEBVQDateTime@@@Z"
"?setDateTimeRange@QDateTimeEdit@@QEAAXAEBVQDateTime@@0@Z"
"?setDebugLayerEnabled@QRhiWidget@@QEAAX_N@Z"
"?setDecMode@QLCDNumber@@QEAAXXZ"
"?setDecimals@QDoubleSpinBox@@QEAAXH@Z"
"?setDefault@QDialogPrivate@@QEAAXPEAVQPushButton@@@Z"
"?setDefault@QPushButton@@QEAAX_N@Z"
"?setDefaultAction@QMenu@@QEAAXPEAVQAction@@@Z"
"?setDefaultAction@QToolButton@@QEAAXPEAVQAction@@@Z"
"?setDefaultAlignment@QHeaderView@@QEAAXV?$QFlags@W4AlignmentFlag@Qt@@@@@Z"
"?setDefaultButton@QMessageBox@@QEAAXPEAVQPushButton@@@Z"
"?setDefaultButton@QMessageBox@@QEAAXW4StandardButton@1@@Z"
"?setDefaultDropAction@QAbstractItemView@@QEAAXW4DropAction@Qt@@@Z"
"?setDefaultFactory@QItemEditorFactory@@SAXPEAV1@@Z"
"?setDefaultPositioning@QGridLayout@@QEAAXHW4Orientation@Qt@@@Z"
"?setDefaultProperty@QWizard@@QEAAXPEBD00@Z"
"?setDefaultScrollerProperties@QScrollerProperties@@SAXAEBV1@@Z"
"?setDefaultSectionSize@QHeaderView@@QEAAXH@Z"
"?setDefaultSuffix@QFileDialog@@QEAAXAEBVQString@@@Z"
"?setDefaultTextColor@QGraphicsTextItem@@QEAAXAEBVQColor@@@Z"
"?setDefaultUp@QMenuBar@@QEAAX_N@Z"
"?setDefaultWidget@QWidgetAction@@QEAAXPEAVQWidget@@@Z"
"?setDelay@QStyleAnimation@@QEAAXH@Z"
"?setDelta@QGraphicsSceneWheelEvent@@QEAAXH@Z"
"?setDescription@QCommandLinkButton@@QEAAXAEBVQString@@@Z"
"?setDetailedText@QMessageBox@@QEAAXAEBVQString@@@Z"
"?setDigitCount@QLCDNumber@@QEAAXH@Z"
"?setDirection@QBoxLayout@@QEAAXW4Direction@1@@Z"
"?setDirectory@QFileDialog@@QEAAXAEBVQDir@@@Z"
"?setDirectory@QFileDialog@@QEAAXAEBVQString@@@Z"
"?setDirectoryUrl@QFileDialog@@QEAAXAEBVQUrl@@@Z"
"?setDirectory_sys@QFileDialogPrivate@@QEAAXAEBVQUrl@@@Z"
"?setDirtyOpaqueRegion@QWidgetPrivate@@QEAAXXZ"
"?setDirtyRegion@QAbstractItemView@@IEAAXAEBVQRegion@@@Z"
"?setDisabled@QTreeWidgetItem@@QEAAX_N@Z"
"?setDisabled@QWidget@@QEAAX_N@Z"
"?setDisplayFont@QFontComboBox@@QEAAXAEBVQString@@AEBVQFont@@@Z"
"?setDisplayFormat@QDateTimeEdit@@QEAAXAEBVQString@@@Z"
"?setDisplayIntegerBase@QSpinBox@@QEAAXH@Z"
"?setDockNestingEnabled@QMainWindow@@QEAAX_N@Z"
"?setDockOptions@QMainWindow@@QEAAXV?$QFlags@W4DockOption@QMainWindow@@@@@Z"
"?setDocument@QGraphicsTextItem@@QEAAXPEAVQTextDocument@@@Z"
"?setDocument@QPlainTextEdit@@QEAAXPEAVQTextDocument@@@Z"
"?setDocument@QTextEdit@@QEAAXPEAVQTextDocument@@@Z"
"?setDocument@QWidgetTextControl@@QEAAXPEAVQTextDocument@@@Z"
"?setDocumentMode@QMainWindow@@QEAAX_N@Z"
"?setDocumentMode@QMdiArea@@QEAAX_N@Z"
"?setDocumentMode@QTabBar@@QEAAX_N@Z"
"?setDocumentMode@QTabWidget@@QEAAX_N@Z"
"?setDocumentTitle@QPlainTextEdit@@QEAAXAEBVQString@@@Z"
"?setDocumentTitle@QTextEdit@@QEAAXAEBVQString@@@Z"
"?setDoubleClickInterval@QApplication@@SAXH@Z"
"?setDoubleDecimals@QInputDialog@@QEAAXH@Z"
"?setDoubleMaximum@QInputDialog@@QEAAXN@Z"
"?setDoubleMinimum@QInputDialog@@QEAAXN@Z"
"?setDoubleRange@QInputDialog@@QEAAXNN@Z"
"?setDoubleStep@QInputDialog@@QEAAXN@Z"
"?setDoubleValue@QInputDialog@@QEAAXN@Z"
"?setDown@QAbstractButton@@QEAAX_N@Z"
"?setDragDropMode@QAbstractItemView@@QEAAXW4DragDropMode@1@@Z"
"?setDragDropOverwriteMode@QAbstractItemView@@QEAAX_N@Z"
"?setDragEnabled@QAbstractItemView@@QEAAX_N@Z"
"?setDragEnabled@QLineEdit@@QEAAX_N@Z"
"?setDragEnabled@QWidgetTextControl@@QEAAX_N@Z"
"?setDragMode@QGraphicsView@@QEAAXW4DragMode@1@@Z"
"?setDrawBase@QTabBar@@QEAAX_N@Z"
"?setDropAction@QGraphicsSceneDragDropEvent@@QEAAXW4DropAction@Qt@@@Z"
"?setDropIndicatorShown@QAbstractItemView@@QEAAX_N@Z"
"?setDuplicatesEnabled@QComboBox@@QEAAX_N@Z"
"?setDuration@QStyleAnimation@@QEAAXH@Z"
"?setEchoMode@QLineEdit@@QEAAXW4EchoMode@1@@Z"
"?setEchoMode@QWidgetLineControl@@QEAAXI@Z"
"?setEditText@QComboBox@@QEAAXAEBVQString@@@Z"
"?setEditTriggers@QAbstractItemView@@QEAAXV?$QFlags@W4EditTrigger@QAbstractItemView@@@@@Z"
"?setEditable@QComboBox@@QEAAX_N@Z"
"?setEditorData@QAbstractItemDelegate@@UEBAXPEAVQWidget@@AEBVQModelIndex@@@Z"
"?setEditorData@QItemDelegate@@UEBAXPEAVQWidget@@AEBVQModelIndex@@@Z"
"?setEditorData@QStyledItemDelegate@@UEBAXPEAVQWidget@@AEBVQModelIndex@@@Z"
"?setEffectEnabled@QApplication@@SAXW4UIEffect@Qt@@_N@Z"
"?setElideMode@QTabBar@@QEAAXW4TextElideMode@Qt@@@Z"
"?setElideMode@QTabWidget@@QEAAXW4TextElideMode@Qt@@@Z"
"?setEmptyLabel@QUndoView@@QEAAXAEBVQString@@@Z"
"?setEnabled@QGraphicsEffect@@QEAAX_N@Z"
"?setEnabled@QGraphicsItem@@QEAAX_N@Z"
"?setEnabled@QLayout@@QEAAX_N@Z"
"?setEnabled@QWidget@@QEAAX_N@Z"
"?setEnabledHelper@QGraphicsItemPrivate@@QEAAX_N00@Z"
"?setEnabled_helper@QWidgetPrivate@@QEAAX_N@Z"
"?setEndImage@QBlendStyleAnimation@@QEAAXAEBVQImage@@@Z"
"?setEndValue@QNumberStyleAnimation@@QEAAXN@Z"
"?setEscapeButton@QMessageBox@@QEAAXPEAVQAbstractButton@@@Z"
"?setEscapeButton@QMessageBox@@QEAAXW4StandardButton@1@@Z"
"?setExclusive@QButtonGroup@@QEAAX_N@Z"
"?setExpanded@QTreeView@@QEAAXAEBVQModelIndex@@_N@Z"
"?setExpanded@QTreeWidgetItem@@QEAAX_N@Z"
"?setExpanding@QTabBar@@QEAAX_N@Z"
"?setExpandsOnDoubleClick@QTreeView@@QEAAX_N@Z"
"?setExtension@QGraphicsEllipseItem@@MEAAXW4Extension@QGraphicsItem@@AEBVQVariant@@@Z"
"?setExtension@QGraphicsItem@@MEAAXW4Extension@1@AEBVQVariant@@@Z"
"?setExtension@QGraphicsLineItem@@MEAAXW4Extension@QGraphicsItem@@AEBVQVariant@@@Z"
"?setExtension@QGraphicsPathItem@@MEAAXW4Extension@QGraphicsItem@@AEBVQVariant@@@Z"
"?setExtension@QGraphicsPixmapItem@@MEAAXW4Extension@QGraphicsItem@@AEBVQVariant@@@Z"
"?setExtension@QGraphicsPolygonItem@@MEAAXW4Extension@QGraphicsItem@@AEBVQVariant@@@Z"
"?setExtension@QGraphicsRectItem@@MEAAXW4Extension@QGraphicsItem@@AEBVQVariant@@@Z"
"?setExtension@QGraphicsSimpleTextItem@@MEAAXW4Extension@QGraphicsItem@@AEBVQVariant@@@Z"
"?setExtension@QGraphicsTextItem@@MEAAXW4Extension@QGraphicsItem@@AEBVQVariant@@@Z"
"?setExtra@QGraphicsItemPrivate@@QEAAXW4Extra@1@AEBVQVariant@@@Z"
"?setExtraSelections@QPlainTextEdit@@QEAAXAEBV?$QList@UExtraSelection@QTextEdit@@@@@Z"
"?setExtraSelections@QTextEdit@@QEAAXAEBV?$QList@UExtraSelection@QTextEdit@@@@@Z"
"?setExtraSelections@QWidgetTextControl@@QEAAXAEBV?$QList@UExtraSelection@QTextEdit@@@@@Z"
"?setFeatures@QDockWidget@@QEAAXV?$QFlags@W4DockWidgetFeature@QDockWidget@@@@@Z"
"?setField@QWizard@@QEAAXAEBVQString@@AEBVQVariant@@@Z"
"?setField@QWizardPage@@IEAAXAEBVQString@@AEBVQVariant@@@Z"
"?setFieldGrowthPolicy@QFormLayout@@QEAAXW4FieldGrowthPolicy@1@@Z"
"?setFileMode@QFileDialog@@QEAAXW4FileMode@1@@Z"
"?setFillRule@QGraphicsPolygonItem@@QEAAXW4FillRule@Qt@@@Z"
"?setFilter@QFileDialog@@QEAAXV?$QFlags@W4Filter@QDir@@@@@Z"
"?setFilterMode@QCompleter@@QEAAXV?$QFlags@W4MatchFlag@Qt@@@@@Z"
"?setFilter_sys@QFileDialogPrivate@@QEAAXXZ"
"?setFiltersChildEvents@QGraphicsItem@@QEAAX_N@Z"
"?setFinalPage@QWizardPage@@QEAAX_N@Z"
"?setFinishingKeyCombinations@QKeySequenceEdit@@QEAAXAEBV?$QList@VQKeyCombination@@@@@Z"
"?setFirstColumnSpanned@QTreeView@@QEAAXHAEBVQModelIndex@@_N@Z"
"?setFirstColumnSpanned@QTreeWidgetItem@@QEAAX_N@Z"
"?setFirstDayOfWeek@QCalendarWidget@@QEAAXW4DayOfWeek@Qt@@@Z"
"?setFirstSectionMovable@QHeaderView@@QEAAX_N@Z"
"?setFixedColorBufferSize@QRhiWidget@@QEAAXHH@Z"
"?setFixedColorBufferSize@QRhiWidget@@QEAAXVQSize@@@Z"
"?setFixedHeight@QWidget@@QEAAXH@Z"
"?setFixedSize@QWidget@@QEAAXAEBVQSize@@@Z"
"?setFixedSize@QWidget@@QEAAXHH@Z"
"?setFixedWidth@QWidget@@QEAAXH@Z"
"?setFlag@QGraphicsItem@@QEAAXW4GraphicsItemFlag@1@_N@Z"
"?setFlags@QGraphicsItem@@QEAAXV?$QFlags@W4GraphicsItemFlag@QGraphicsItem@@@@@Z"
"?setFlags@QGraphicsSceneMouseEvent@@QEAAXV?$QFlags@W4MouseEventFlag@Qt@@@@@Z"
"?setFlags@QListWidgetItem@@QEAAXV?$QFlags@W4ItemFlag@Qt@@@@@Z"
"?setFlags@QTableWidgetItem@@QEAAXV?$QFlags@W4ItemFlag@Qt@@@@@Z"
"?setFlags@QTreeWidgetItem@@QEAAXV?$QFlags@W4ItemFlag@Qt@@@@@Z"
"?setFlat@QGroupBox@@QEAAX_N@Z"
"?setFlat@QPushButton@@QEAAX_N@Z"
"?setFloatable@QToolBar@@QEAAX_N@Z"
"?setFloating@QDockWidget@@QEAAX_N@Z"
"?setFlow@QListView@@QEAAXW4Flow@1@@Z"
"?setFocus@QGraphicsItem@@QEAAXW4FocusReason@Qt@@@Z"
"?setFocus@QGraphicsScene@@QEAAXW4FocusReason@Qt@@@Z"
"?setFocus@QWidget@@QEAAXW4FocusReason@Qt@@@Z"
"?setFocus@QWidget@@QEAAXXZ"
"?setFocus@QWidgetTextControl@@QEAAX_NW4FocusReason@Qt@@@Z"
"?setFocusHelper@QGraphicsItemPrivate@@QEAAXW4FocusReason@Qt@@_N1@Z"
"?setFocusItem@QGraphicsScene@@QEAAXPEAVQGraphicsItem@@W4FocusReason@Qt@@@Z"
"?setFocusOnTouch@QGraphicsScene@@QEAAX_N@Z"
"?setFocusPolicy@QGraphicsWidget@@QEAAXW4FocusPolicy@Qt@@@Z"
"?setFocusPolicy@QWidget@@QEAAXW4FocusPolicy@Qt@@@Z"
"?setFocusProxy@QGraphicsItem@@QEAAXPEAV1@@Z"
"?setFocusProxy@QWidget@@QEAAXPEAV1@@Z"
"?setFocusToAnchor@QWidgetTextControl@@QEAA_NAEBVQTextCursor@@@Z"
"?setFocusToNextOrPreviousAnchor@QWidgetTextControl@@QEAA_N_N@Z"
"?setFocusWidget@QApplicationPrivate@@SAXPEAVQWidget@@W4FocusReason@Qt@@@Z"
"?setFocus_sys@QWidgetPrivate@@QEAAXXZ"
"?setFont@QApplication@@SAXAEBVQFont@@PEBD@Z"
"?setFont@QGraphicsScene@@QEAAXAEBVQFont@@@Z"
"?setFont@QGraphicsSimpleTextItem@@QEAAXAEBVQFont@@@Z"
"?setFont@QGraphicsTextItem@@QEAAXAEBVQFont@@@Z"
"?setFont@QGraphicsWidget@@QEAAXAEBVQFont@@@Z"
"?setFont@QListWidgetItem@@QEAAXAEBVQFont@@@Z"
"?setFont@QTableWidgetItem@@QEAAXAEBVQFont@@@Z"
"?setFont@QToolTip@@SAXAEBVQFont@@@Z"
"?setFont@QTreeWidgetItem@@QEAAXHAEBVQFont@@@Z"
"?setFont@QWidget@@QEAAXAEBVQFont@@@Z"
"?setFont@QWidgetLineControl@@QEAAXAEBVQFont@@@Z"
"?setFontFamily@QTextEdit@@QEAAXAEBVQString@@@Z"
"?setFontFilters@QFontComboBox@@QEAAXV?$QFlags@W4FontFilter@QFontComboBox@@@@@Z"
"?setFontItalic@QTextEdit@@QEAAX_N@Z"
"?setFontPointSize@QTextEdit@@QEAAXN@Z"
"?setFontUnderline@QTextEdit@@QEAAX_N@Z"
"?setFontWeight@QTextEdit@@QEAAXH@Z"
"?setFont_helper@QWidgetPrivate@@QEAAXAEBVQFont@@@Z"
"?setForeground@QListWidgetItem@@QEAAXAEBVQBrush@@@Z"
"?setForeground@QTableWidgetItem@@QEAAXAEBVQBrush@@@Z"
"?setForeground@QTreeWidgetItem@@QEAAXHAEBVQBrush@@@Z"
"?setForegroundBrush@QGraphicsScene@@QEAAXAEBVQBrush@@@Z"
"?setForegroundBrush@QGraphicsView@@QEAAXAEBVQBrush@@@Z"
"?setForegroundRole@QWidget@@QEAAXW4ColorRole@QPalette@@@Z"
"?setFormAlignment@QFormLayout@@QEAAXV?$QFlags@W4AlignmentFlag@Qt@@@@@Z"
"?setFormat@QProgressBar@@QEAAXAEBVQString@@@Z"
"?setFrame@QAbstractSpinBox@@QEAAX_N@Z"
"?setFrame@QComboBox@@QEAAX_N@Z"
"?setFrame@QLineEdit@@QEAAX_N@Z"
"?setFrameRate@QStyleAnimation@@QEAAXW4FrameRate@1@@Z"
"?setFrameRect@QFrame@@QEAAXAEBVQRect@@@Z"
"?setFrameShadow@QFrame@@QEAAXW4Shadow@1@@Z"
"?setFrameShape@QFrame@@QEAAXW4Shape@1@@Z"
"?setFrameStyle@QFrame@@QEAAXH@Z"
"?setGeometry@QBoxLayout@@UEAAXAEBVQRect@@@Z"
"?setGeometry@QDockWidgetLayout@@UEAAXAEBVQRect@@@Z"
"?setGeometry@QFormLayout@@UEAAXAEBVQRect@@@Z"
"?setGeometry@QGraphicsAnchorLayout@@UEAAXAEBVQRectF@@@Z"
"?setGeometry@QGraphicsGridLayout@@UEAAXAEBVQRectF@@@Z"
"?setGeometry@QGraphicsLayoutItem@@UEAAXAEBVQRectF@@@Z"
"?setGeometry@QGraphicsLinearLayout@@UEAAXAEBVQRectF@@@Z"
"?setGeometry@QGraphicsProxyWidget@@UEAAXAEBVQRectF@@@Z"
"?setGeometry@QGraphicsWidget@@QEAAXNNNN@Z"
"?setGeometry@QGraphicsWidget@@UEAAXAEBVQRectF@@@Z"
"?setGeometry@QGridLayout@@UEAAXAEBVQRect@@@Z"
"?setGeometry@QLayout@@UEAAXAEBVQRect@@@Z"
"?setGeometry@QRubberBand@@QEAAXAEBVQRect@@@Z"
"?setGeometry@QRubberBand@@QEAAXHHHH@Z"
"?setGeometry@QSpacerItem@@UEAAXAEBVQRect@@@Z"
"?setGeometry@QStackedLayout@@UEAAXAEBVQRect@@@Z"
"?setGeometry@QWidget@@QEAAXAEBVQRect@@@Z"
"?setGeometry@QWidget@@QEAAXHHHH@Z"
"?setGeometry@QWidgetItem@@UEAAXAEBVQRect@@@Z"
"?setGeometry_sys@QWidgetPrivate@@QEAAXHHHH_N@Z"
"?setGestureCancelPolicy@QGesture@@QEAAXW4GestureCancelPolicy@1@@Z"
"?setGraphicsEffect@QGraphicsItem@@QEAAXPEAVQGraphicsEffect@@@Z"
"?setGraphicsEffect@QWidget@@QEAAXPEAVQGraphicsEffect@@@Z"
"?setGraphicsEffectSource@QGraphicsEffectPrivate@@QEAAXPEAVQGraphicsEffectSource@@@Z"
"?setGraphicsItem@QGraphicsLayoutItem@@IEAAXPEAVQGraphicsItem@@@Z"
"?setGridSize@QListView@@QEAAXAEBVQSize@@@Z"
"?setGridStyle@QTableView@@QEAAXW4PenStyle@Qt@@@Z"
"?setGridVisible@QCalendarWidget@@QEAAX_N@Z"
"?setGroup@QGraphicsItem@@QEAAXPEAVQGraphicsItemGroup@@@Z"
"?setGroup@QUndoView@@QEAAXPEAVQUndoGroup@@@Z"
"?setGroupSeparatorShown@QAbstractSpinBox@@QEAAX_N@Z"
"?setHandleWidth@QSplitter@@QEAAXH@Z"
"?setHandlesChildEvents@QGraphicsItem@@QEAAX_N@Z"
"?setHeader@QTreeView@@QEAAXPEAVQHeaderView@@@Z"
"?setHeaderHidden@QTreeView@@QEAAX_N@Z"
"?setHeaderItem@QTreeWidget@@QEAAXPEAVQTreeWidgetItem@@@Z"
"?setHeaderLabel@QTreeWidget@@QEAAXAEBVQString@@@Z"
"?setHeaderLabels@QTreeWidget@@QEAAXAEBV?$QList@VQString@@@@@Z"
"?setHeaderTextFormat@QCalendarWidget@@QEAAXAEBVQTextCharFormat@@@Z"
"?setHeight@QGraphicsItemPrivate@@UEAAXN@Z"
"?setHeightForWidth@QSizePolicy@@QEAAX_N@Z"
"?setHexMode@QLCDNumber@@QEAAXXZ"
"?setHidden@QListWidgetItem@@QEAAX_N@Z"
"?setHidden@QTreeWidgetItem@@QEAAX_N@Z"
"?setHidden@QWidget@@QEAAX_N@Z"
"?setHighlightSections@QHeaderView@@QEAAX_N@Z"
"?setHistory@QFileDialog@@QEAAXAEBV?$QList@VQString@@@@@Z"
"?setHorizontalHeader@QTableView@@QEAAXPEAVQHeaderView@@@Z"
"?setHorizontalHeaderFormat@QCalendarWidget@@QEAAXW4HorizontalHeaderFormat@1@@Z"
"?setHorizontalHeaderItem@QTableWidget@@QEAAXHPEAVQTableWidgetItem@@@Z"
"?setHorizontalHeaderLabels@QTableWidget@@QEAAXAEBV?$QList@VQString@@@@@Z"
"?setHorizontalPolicy@QSizePolicy@@QEAAXW4Policy@1@@Z"
"?setHorizontalScrollBar@QAbstractScrollArea@@QEAAXPEAVQScrollBar@@@Z"
"?setHorizontalScrollBarPolicy@QAbstractScrollArea@@QEAAXW4ScrollBarPolicy@Qt@@@Z"
"?setHorizontalScrollMode@QAbstractItemView@@QEAAXW4ScrollMode@1@@Z"
"?setHorizontalSpacing@QFormLayout@@QEAAXH@Z"
"?setHorizontalSpacing@QGraphicsAnchorLayout@@QEAAXN@Z"
"?setHorizontalSpacing@QGraphicsGridLayout@@QEAAXN@Z"
"?setHorizontalSpacing@QGridLayout@@QEAAXH@Z"
"?setHorizontalStretch@QSizePolicy@@QEAAXH@Z"
"?setHotSpot@QGesture@@QEAAXAEBVQPointF@@@Z"
"?setHtml@QGraphicsTextItem@@QEAAXAEBVQString@@@Z"
"?setHtml@QTextEdit@@QEAAXAEBVQString@@@Z"
"?setHtml@QWidgetTextControl@@QEAAXAEBVQString@@@Z"
"?setIcon@QAbstractButton@@QEAAXAEBVQIcon@@@Z"
"?setIcon@QListWidgetItem@@QEAAXAEBVQIcon@@@Z"
"?setIcon@QMenu@@QEAAXAEBVQIcon@@@Z"
"?setIcon@QMessageBox@@QEAAXW4Icon@1@@Z"
"?setIcon@QSystemTrayIcon@@QEAAXAEBVQIcon@@@Z"
"?setIcon@QTableWidgetItem@@QEAAXAEBVQIcon@@@Z"
"?setIcon@QTreeWidgetItem@@QEAAXHAEBVQIcon@@@Z"
"?setIconPixmap@QMessageBox@@QEAAXAEBVQPixmap@@@Z"
"?setIconProvider@QFileDialog@@QEAAXPEAVQAbstractFileIconProvider@@@Z"
"?setIconSize@QAbstractButton@@QEAAXAEBVQSize@@@Z"
"?setIconSize@QAbstractItemView@@QEAAXAEBVQSize@@@Z"
"?setIconSize@QComboBox@@QEAAXAEBVQSize@@@Z"
"?setIconSize@QMainWindow@@QEAAXAEBVQSize@@@Z"
"?setIconSize@QTabBar@@QEAAXAEBVQSize@@@Z"
"?setIconSize@QTabWidget@@QEAAXAEBVQSize@@@Z"
"?setIconSize@QToolBar@@QEAAXAEBVQSize@@@Z"
"?setId@QButtonGroup@@QEAAXPEAVQAbstractButton@@H@Z"
"?setIgnoreUnusedNavigationEvents@QWidgetTextControl@@QEAAX_N@Z"
"?setIndent@QLabel@@QEAAXH@Z"
"?setIndentation@QTreeView@@QEAAXH@Z"
"?setIndexWidget@QAbstractItemView@@QEAAXAEBVQModelIndex@@PEAVQWidget@@@Z"
"?setInformativeText@QMessageBox@@QEAAXAEBVQString@@@Z"
"?setInputMask@QLineEdit@@QEAAXAEBVQString@@@Z"
"?setInputMask@QWidgetLineControl@@QEAAXAEBVQString@@@Z"
"?setInputMethodHints@QGraphicsItem@@QEAAXV?$QFlags@W4InputMethodHint@Qt@@@@@Z"
"?setInputMethodHints@QWidget@@QEAAXV?$QFlags@W4InputMethodHint@Qt@@@@@Z"
"?setInputMode@QInputDialog@@QEAAXW4InputMode@1@@Z"
"?setInsertPolicy@QComboBox@@QEAAXW4InsertPolicy@1@@Z"
"?setInstantInvalidatePropagation@QGraphicsLayout@@SAX_N@Z"
"?setIntMaximum@QInputDialog@@QEAAXH@Z"
"?setIntMinimum@QInputDialog@@QEAAXH@Z"
"?setIntRange@QInputDialog@@QEAAXHH@Z"
"?setIntStep@QInputDialog@@QEAAXH@Z"
"?setIntValue@QInputDialog@@QEAAXH@Z"
"?setInteractive@QGraphicsView@@QEAAX_N@Z"
"?setInverted@QGraphicsSceneWheelEvent@@QEAAX_N@Z"
"?setInvertedAppearance@QAbstractSlider@@QEAAX_N@Z"
"?setInvertedAppearance@QProgressBar@@QEAAX_N@Z"
"?setInvertedControls@QAbstractSlider@@QEAAX_N@Z"
"?setIsMemberOfGroup@QGraphicsItemPrivate@@QEAAX_N@Z"
"?setItem@QFormLayout@@QEAAXHW4ItemRole@1@PEAVQLayoutItem@@@Z"
"?setItem@QGraphicsItemAnimation@@QEAAXPEAVQGraphicsItem@@@Z"
"?setItem@QTableWidget@@QEAAXHHPEAVQTableWidgetItem@@@Z"
"?setItemAlignment@QListView@@QEAAXV?$QFlags@W4AlignmentFlag@Qt@@@@@Z"
"?setItemData@QComboBox@@QEAAXHAEBVQVariant@@H@Z"
"?setItemDelegate@QAbstractItemView@@QEAAXPEAVQAbstractItemDelegate@@@Z"
"?setItemDelegate@QComboBox@@QEAAXPEAVQAbstractItemDelegate@@@Z"
"?setItemDelegate@QDataWidgetMapper@@QEAAXPEAVQAbstractItemDelegate@@@Z"
"?setItemDelegate@QFileDialog@@QEAAXPEAVQAbstractItemDelegate@@@Z"
"?setItemDelegateForColumn@QAbstractItemView@@QEAAXHPEAVQAbstractItemDelegate@@@Z"
"?setItemDelegateForRow@QAbstractItemView@@QEAAXHPEAVQAbstractItemDelegate@@@Z"
"?setItemEditorFactory@QItemDelegate@@QEAAXPEAVQItemEditorFactory@@@Z"
"?setItemEditorFactory@QStyledItemDelegate@@QEAAXPEAVQItemEditorFactory@@@Z"
"?setItemEnabled@QToolBox@@QEAAXH_N@Z"
"?setItemIcon@QComboBox@@QEAAXHAEBVQIcon@@@Z"
"?setItemIcon@QToolBox@@QEAAXHAEBVQIcon@@@Z"
"?setItemIndexMethod@QGraphicsScene@@QEAAXW4ItemIndexMethod@1@@Z"
"?setItemPrototype@QTableWidget@@QEAAXPEBVQTableWidgetItem@@@Z"
"?setItemSpacing@QGraphicsLinearLayout@@QEAAXHN@Z"
"?setItemText@QComboBox@@QEAAXHAEBVQString@@@Z"
"?setItemText@QToolBox@@QEAAXHAEBVQString@@@Z"
"?setItemToolTip@QToolBox@@QEAAXHAEBVQString@@@Z"
"?setItemView@QComboBoxPrivateContainer@@QEAAXPEAVQAbstractItemView@@@Z"
"?setItemWidget@QListWidget@@QEAAXPEAVQListWidgetItem@@PEAVQWidget@@@Z"
"?setItemWidget@QTreeWidget@@QEAAXPEAVQTreeWidgetItem@@HPEAVQWidget@@@Z"
"?setItemsExpandable@QTreeView@@QEAAX_N@Z"
"?setKeySequence@QKeySequenceEdit@@QEAAXAEBVQKeySequence@@@Z"
"?setKeyboardInputInterval@QApplication@@SAXH@Z"
"?setKeyboardPageStep@QMdiSubWindow@@QEAAXH@Z"
"?setKeyboardSingleStep@QMdiSubWindow@@QEAAXH@Z"
"?setKeyboardTracking@QAbstractSpinBox@@QEAAX_N@Z"
"?setLabel@QProgressDialog@@QEAAXPEAVQLabel@@@Z"
"?setLabelAlignment@QFormLayout@@QEAAXV?$QFlags@W4AlignmentFlag@Qt@@@@@Z"
"?setLabelText@QFileDialog@@QEAAXW4DialogLabel@1@AEBVQString@@@Z"
"?setLabelText@QInputDialog@@QEAAXAEBVQString@@@Z"
"?setLabelText@QProgressDialog@@QEAAXAEBVQString@@@Z"
"?setLabelTextControl@QFileDialogPrivate@@QEAAXW4DialogLabel@QFileDialog@@AEBVQString@@@Z"
"?setLastCenterPoint@QPinchGesture@@QEAAXAEBVQPointF@@@Z"
"?setLastOffset@QPanGesture@@QEAAXAEBVQPointF@@@Z"
"?setLastPos@QGraphicsSceneHoverEvent@@QEAAXAEBVQPointF@@@Z"
"?setLastPos@QGraphicsSceneMouseEvent@@QEAAXAEBVQPointF@@@Z"
"?setLastRotationAngle@QPinchGesture@@QEAAXN@Z"
"?setLastScaleFactor@QPinchGesture@@QEAAXN@Z"
"?setLastScenePos@QGraphicsSceneHoverEvent@@QEAAXAEBVQPointF@@@Z"
"?setLastScenePos@QGraphicsSceneMouseEvent@@QEAAXAEBVQPointF@@@Z"
"?setLastScreenPos@QGraphicsSceneHoverEvent@@QEAAXAEBVQPoint@@@Z"
"?setLastScreenPos@QGraphicsSceneMouseEvent@@QEAAXAEBVQPoint@@@Z"
"?setLastVisitedDirectory@QFileDialogPrivate@@SAXAEBVQUrl@@@Z"
"?setLayout@QFormLayout@@QEAAXHW4ItemRole@1@PEAVQLayout@@@Z"
"?setLayout@QGraphicsWidget@@QEAAXPEAVQGraphicsLayout@@@Z"
"?setLayout@QWidget@@QEAAXPEAVQLayout@@@Z"
"?setLayoutDirection@QGraphicsWidget@@QEAAXW4LayoutDirection@Qt@@@Z"
"?setLayoutDirection@QWidget@@QEAAXW4LayoutDirection@Qt@@@Z"
"?setLayoutDirection@QWidgetLineControl@@QEAAXW4LayoutDirection@Qt@@@Z"
"?setLayoutDirection_helper@QWidgetPrivate@@QEAAXW4LayoutDirection@Qt@@@Z"
"?setLayoutItemMargins@QWidgetPrivate@@QEAAXHHHH@Z"
"?setLayoutItemMargins@QWidgetPrivate@@QEAAXW4SubElement@QStyle@@PEBVQStyleOption@@@Z"
"?setLayoutMode@QListView@@QEAAXW4LayoutMode@1@@Z"
"?setLine@QGraphicsLineItem@@QEAAXAEBVQLineF@@@Z"
"?setLine@QGraphicsLineItem@@QEAAXNNNN@Z"
"?setLineEdit@QAbstractSpinBox@@IEAAXPEAVQLineEdit@@@Z"
"?setLineEdit@QComboBox@@QEAAXPEAVQLineEdit@@@Z"
"?setLineWidth@QFrame@@QEAAXH@Z"
"?setLineWrapColumnOrWidth@QTextEdit@@QEAAXH@Z"
"?setLineWrapMode@QPlainTextEdit@@QEAAXW4LineWrapMode@1@@Z"
"?setLineWrapMode@QTextEdit@@QEAAXW4LineWrapMode@1@@Z"
"?setLocale@QWidget@@QEAAXAEBVQLocale@@@Z"
"?setLocale_helper@QWidgetPrivate@@QEAAXAEBVQLocale@@_N@Z"
"?setMainDefault@QDialogPrivate@@QEAAXPEAVQPushButton@@@Z"
"?setMargin@QLabel@@QEAAXH@Z"
"?setMarkdown@QTextEdit@@QEAAXAEBVQString@@@Z"
"?setMarkdown@QWidgetTextControl@@QEAAXAEBVQString@@@Z"
"?setMask@QWidget@@QEAAXAEBVQBitmap@@@Z"
"?setMask@QWidget@@QEAAXAEBVQRegion@@@Z"
"?setMask_sys@QWidgetPrivate@@QEAAXAEBVQRegion@@@Z"
"?setMaxCount@QComboBox@@QEAAXH@Z"
"?setMaxLength@QLineEdit@@QEAAXH@Z"
"?setMaxLength@QWidgetLineControl@@QEAAXH@Z"
"?setMaxVisibleItems@QComboBox@@QEAAXH@Z"
"?setMaxVisibleItems@QCompleter@@QEAAXH@Z"
"?setMaximum@QAbstractSlider@@QEAAXH@Z"
"?setMaximum@QDoubleSpinBox@@QEAAXN@Z"
"?setMaximum@QProgressBar@@QEAAXH@Z"
"?setMaximum@QProgressDialog@@QEAAXH@Z"
"?setMaximum@QSpinBox@@QEAAXH@Z"
"?setMaximumBlockCount@QPlainTextEdit@@QEAAXH@Z"
"?setMaximumDate@QCalendarWidget@@QEAAXVQDate@@@Z"
"?setMaximumDate@QDateTimeEdit@@QEAAXVQDate@@@Z"
"?setMaximumDateTime@QDateTimeEdit@@QEAAXAEBVQDateTime@@@Z"
"?setMaximumHeight@QGraphicsLayoutItem@@QEAAXN@Z"
"?setMaximumHeight@QWidget@@QEAAXH@Z"
"?setMaximumSectionSize@QHeaderView@@QEAAXH@Z"
"?setMaximumSequenceLength@QKeySequenceEdit@@QEAAX_J@Z"
"?setMaximumSize@QGraphicsLayoutItem@@QEAAXAEBVQSizeF@@@Z"
"?setMaximumSize@QGraphicsLayoutItem@@QEAAXNN@Z"
"?setMaximumSize@QWidget@@QEAAXAEBVQSize@@@Z"
"?setMaximumSize@QWidget@@QEAAXHH@Z"
"?setMaximumSize_helper@QWidgetPrivate@@QEAA_NAEAH0@Z"
"?setMaximumTime@QDateTimeEdit@@QEAAXVQTime@@@Z"
"?setMaximumWidth@QGraphicsLayoutItem@@QEAAXN@Z"
"?setMaximumWidth@QWidget@@QEAAXH@Z"
"?setMenu@QPushButton@@QEAAXPEAVQMenu@@@Z"
"?setMenu@QToolButton@@QEAAXPEAVQMenu@@@Z"
"?setMenu@QtWidgetsActionPrivate@@UEAAXPEAVQObject@@@Z"
"?setMenuBar@QLayout@@QEAAXPEAVQWidget@@@Z"
"?setMenuBar@QMainWindow@@QEAAXPEAVQMenuBar@@@Z"
"?setMenuWidget@QMainWindow@@QEAAXPEAVQWidget@@@Z"
"?setMidLineWidth@QFrame@@QEAAXH@Z"
"?setMimeData@QGraphicsSceneDragDropEvent@@QEAAXPEBVQMimeData@@@Z"
"?setMimeTypeFilters@QFileDialog@@QEAAXAEBV?$QList@VQString@@@@@Z"
"?setMinimum@QAbstractSlider@@QEAAXH@Z"
"?setMinimum@QDoubleSpinBox@@QEAAXN@Z"
"?setMinimum@QProgressBar@@QEAAXH@Z"
"?setMinimum@QProgressDialog@@QEAAXH@Z"
"?setMinimum@QSpinBox@@QEAAXH@Z"
"?setMinimumContentsLength@QComboBox@@QEAAXH@Z"
"?setMinimumDate@QCalendarWidget@@QEAAXVQDate@@@Z"
"?setMinimumDate@QDateTimeEdit@@QEAAXVQDate@@@Z"
"?setMinimumDateTime@QDateTimeEdit@@QEAAXAEBVQDateTime@@@Z"
"?setMinimumDuration@QProgressDialog@@QEAAXH@Z"
"?setMinimumHeight@QGraphicsLayoutItem@@QEAAXN@Z"
"?setMinimumHeight@QWidget@@QEAAXH@Z"
"?setMinimumRenderSize@QGraphicsScene@@QEAAXN@Z"
"?setMinimumSectionSize@QHeaderView@@QEAAXH@Z"
"?setMinimumSize@QGraphicsLayoutItem@@QEAAXAEBVQSizeF@@@Z"
"?setMinimumSize@QGraphicsLayoutItem@@QEAAXNN@Z"
"?setMinimumSize@QWidget@@QEAAXAEBVQSize@@@Z"
"?setMinimumSize@QWidget@@QEAAXHH@Z"
"?setMinimumSize_helper@QWidgetPrivate@@QEAA_NAEAH0@Z"
"?setMinimumTime@QDateTimeEdit@@QEAAXVQTime@@@Z"
"?setMinimumWidth@QGraphicsLayoutItem@@QEAAXN@Z"
"?setMinimumWidth@QWidget@@QEAAXH@Z"
"?setMirrorVertically@QRhiWidget@@QEAAX_N@Z"
"?setModal@QDialog@@QEAAX_N@Z"
"?setModal_sys@QWidgetPrivate@@QEAAXXZ"
"?setMode@QLCDNumber@@QEAAXW4Mode@1@@Z"
"?setModel@QAbstractItemView@@UEAAXPEAVQAbstractItemModel@@@Z"
"?setModel@QColumnView@@UEAAXPEAVQAbstractItemModel@@@Z"
"?setModel@QComboBox@@UEAAXPEAVQAbstractItemModel@@@Z"
"?setModel@QCompleter@@QEAAXPEAVQAbstractItemModel@@@Z"
"?setModel@QDataWidgetMapper@@QEAAXPEAVQAbstractItemModel@@@Z"
"?setModel@QHeaderView@@UEAAXPEAVQAbstractItemModel@@@Z"
"?setModel@QListWidget@@EEAAXPEAVQAbstractItemModel@@@Z"
"?setModel@QTableView@@UEAAXPEAVQAbstractItemModel@@@Z"
"?setModel@QTableWidget@@EEAAXPEAVQAbstractItemModel@@@Z"
"?setModel@QTreeView@@UEAAXPEAVQAbstractItemModel@@@Z"
"?setModel@QTreeWidget@@EEAAXPEAVQAbstractItemModel@@@Z"
"?setModelColumn@QComboBox@@QEAAXH@Z"
"?setModelColumn@QListView@@QEAAXH@Z"
"?setModelData@QAbstractItemDelegate@@UEBAXPEAVQWidget@@PEAVQAbstractItemModel@@AEBVQModelIndex@@@Z"
"?setModelData@QItemDelegate@@UEBAXPEAVQWidget@@PEAVQAbstractItemModel@@AEBVQModelIndex@@@Z"
"?setModelData@QStyledItemDelegate@@UEBAXPEAVQWidget@@PEAVQAbstractItemModel@@AEBVQModelIndex@@@Z"
"?setModelSorting@QCompleter@@QEAAXW4ModelSorting@1@@Z"
"?setModified@QLineEdit@@QEAAX_N@Z"
"?setModified@QWidgetLineControl@@QEAAX_N@Z"
"?setModifiers@QGraphicsSceneContextMenuEvent@@QEAAXV?$QFlags@W4KeyboardModifier@Qt@@@@@Z"
"?setModifiers@QGraphicsSceneDragDropEvent@@QEAAXV?$QFlags@W4KeyboardModifier@Qt@@@@@Z"
"?setModifiers@QGraphicsSceneHoverEvent@@QEAAXV?$QFlags@W4KeyboardModifier@Qt@@@@@Z"
"?setModifiers@QGraphicsSceneMouseEvent@@QEAAXV?$QFlags@W4KeyboardModifier@Qt@@@@@Z"
"?setModifiers@QGraphicsSceneWheelEvent@@QEAAXV?$QFlags@W4KeyboardModifier@Qt@@@@@Z"
"?setMouseTracking@QWidget@@QEAAX_N@Z"
"?setMovable@QTabBar@@QEAAX_N@Z"
"?setMovable@QTabWidget@@QEAAX_N@Z"
"?setMovable@QToolBar@@QEAAX_N@Z"
"?setMovement@QListView@@QEAAXW4Movement@1@@Z"
"?setMovie@QLabel@@QEAAXPEAVQMovie@@@Z"
"?setName@QStyle@@AEAAXAEBVQString@@@Z"
"?setNameFilter@QFileDialog@@QEAAXAEBVQString@@@Z"
"?setNameFilters@QFileDialog@@QEAAXAEBV?$QList@VQString@@@@@Z"
"?setNativeDialogVisible@QDialogPrivate@@QEAA_N_N@Z"
"?setNativeMenuBar@QMenuBar@@QEAAX_N@Z"
"?setNavigationBarVisible@QCalendarWidget@@QEAAX_N@Z"
"?setNetWmWindowTypes@QWidgetPrivate@@QEAAX_N@Z"
"?setNewPos@QGraphicsSceneMoveEvent@@QEAAXAEBVQPointF@@@Z"
"?setNewSize@QGraphicsSceneResizeEvent@@QEAAXAEBVQSizeF@@@Z"
"?setNoReplayFor@QMenu@@QEAAXPEAVQWidget@@@Z"
"?setNotchTarget@QDial@@QEAAXN@Z"
"?setNotchesVisible@QDial@@QEAAX_N@Z"
"?setNum@QLabel@@QEAAXH@Z"
"?setNum@QLabel@@QEAAXN@Z"
"?setOctMode@QLCDNumber@@QEAAXXZ"
"?setOffset@QGraphicsDropShadowEffect@@QEAAXAEBVQPointF@@@Z"
"?setOffset@QGraphicsDropShadowEffect@@QEAAXN@Z"
"?setOffset@QGraphicsDropShadowEffect@@QEAAXNN@Z"
"?setOffset@QGraphicsPixmapItem@@QEAAXAEBVQPointF@@@Z"
"?setOffset@QGraphicsPixmapItem@@QEAAXNN@Z"
"?setOffset@QHeaderView@@QEAAXH@Z"
"?setOffset@QPanGesture@@QEAAXAEBVQPointF@@@Z"
"?setOffset@QPixmapDropShadowFilter@@QEAAXAEBVQPointF@@@Z"
"?setOffset@QPixmapDropShadowFilter@@QEAAXNN@Z"
"?setOffsetToLastSection@QHeaderView@@QEAAXXZ"
"?setOffsetToSectionPosition@QHeaderView@@QEAAXH@Z"
"?setOkButtonText@QInputDialog@@QEAAXAEBVQString@@@Z"
"?setOldPos@QGraphicsSceneMoveEvent@@QEAAXAEBVQPointF@@@Z"
"?setOldSize@QGraphicsSceneResizeEvent@@QEAAXAEBVQSizeF@@@Z"
"?setOpacity@QGraphicsItem@@QEAAXN@Z"
"?setOpacity@QGraphicsOpacityEffect@@QEAAXN@Z"
"?setOpacityMask@QGraphicsOpacityEffect@@QEAAXAEBVQBrush@@@Z"
"?setOpaque@QWidgetPrivate@@QEAAX_N@Z"
"?setOpaqueResize@QSplitter@@QEAAX_N@Z"
"?setOpenExternalLinks@QGraphicsTextItem@@QEAAX_N@Z"
"?setOpenExternalLinks@QLabel@@QEAAX_N@Z"
"?setOpenExternalLinks@QTextBrowser@@QEAAX_N@Z"
"?setOpenExternalLinks@QWidgetTextControl@@QEAAX_N@Z"
"?setOpenLinks@QTextBrowser@@QEAAX_N@Z"
"?setOptimizationFlag@QGraphicsView@@QEAAXW4OptimizationFlag@1@_N@Z"
"?setOptimizationFlags@QGraphicsView@@QEAAXV?$QFlags@W4OptimizationFlag@QGraphicsView@@@@@Z"
"?setOption@QColorDialog@@QEAAXW4ColorDialogOption@1@_N@Z"
"?setOption@QFileDialog@@QEAAXW4Option@1@_N@Z"
"?setOption@QFontDialog@@QEAAXW4FontDialogOption@1@_N@Z"
"?setOption@QInputDialog@@QEAAXW4InputDialogOption@1@_N@Z"
"?setOption@QMdiArea@@QEAAXW4AreaOption@1@_N@Z"
"?setOption@QMdiSubWindow@@QEAAXW4SubWindowOption@1@_N@Z"
"?setOption@QMessageBox@@QEAAXW4Option@1@_N@Z"
"?setOption@QWizard@@QEAAXW4WizardOption@1@_N@Z"
"?setOptions@QColorDialog@@QEAAXV?$QFlags@W4ColorDialogOption@QColorDialog@@@@@Z"
"?setOptions@QFileDialog@@QEAAXV?$QFlags@W4Option@QFileDialog@@@@@Z"
"?setOptions@QFontDialog@@QEAAXV?$QFlags@W4FontDialogOption@QFontDialog@@@@@Z"
"?setOptions@QInputDialog@@QEAAXV?$QFlags@W4InputDialogOption@QInputDialog@@@@@Z"
"?setOptions@QItemDelegate@@IEBA?AVQStyleOptionViewItem@@AEBVQModelIndex@@AEBV2@@Z"
"?setOptions@QMessageBox@@QEAAXV?$QFlags@W4Option@QMessageBox@@@@@Z"
"?setOptions@QWizard@@QEAAXV?$QFlags@W4WizardOption@QWizard@@@@@Z"
"?setOrientation@QAbstractSlider@@QEAAXW4Orientation@Qt@@@Z"
"?setOrientation@QDataWidgetMapper@@QEAAXW4Orientation@Qt@@@Z"
"?setOrientation@QDialogButtonBox@@QEAAXW4Orientation@Qt@@@Z"
"?setOrientation@QGraphicsLinearLayout@@QEAAXW4Orientation@Qt@@@Z"
"?setOrientation@QGraphicsSceneWheelEvent@@QEAAXW4Orientation@Qt@@@Z"
"?setOrientation@QProgressBar@@QEAAXW4Orientation@Qt@@@Z"
"?setOrientation@QSplitter@@QEAAXW4Orientation@Qt@@@Z"
"?setOrientation@QSplitterHandle@@QEAAXW4Orientation@Qt@@@Z"
"?setOrientation@QToolBar@@QEAAXW4Orientation@Qt@@@Z"
"?setOrigin@QGraphicsRotation@@QEAAXAEBVQVector3D@@@Z"
"?setOrigin@QGraphicsScale@@QEAAXAEBVQVector3D@@@Z"
"?setOriginCorner@QGridLayout@@QEAAXW4Corner@Qt@@@Z"
"?setOverwriteMode@QPlainTextEdit@@QEAAX_N@Z"
"?setOverwriteMode@QTextEdit@@QEAAX_N@Z"
"?setOverwriteMode@QWidgetTextControl@@QEAAX_N@Z"
"?setOwnedByLayout@QGraphicsLayoutItem@@IEAAX_N@Z"
"?setPage@QWizard@@QEAAXHPEAVQWizardPage@@@Z"
"?setPageStep@QAbstractSlider@@QEAAXH@Z"
"?setPalette@QApplication@@SAXAEBVQPalette@@PEBD@Z"
"?setPalette@QGraphicsScene@@QEAAXAEBVQPalette@@@Z"
"?setPalette@QGraphicsWidget@@QEAAXAEBVQPalette@@@Z"
"?setPalette@QToolTip@@SAXAEBVQPalette@@@Z"
"?setPalette@QWidget@@QEAAXAEBVQPalette@@@Z"
"?setPalette@QWidgetLineControl@@QEAAXAEBVQPalette@@@Z"
"?setPalette@QWidgetTextControl@@QEAAXAEBVQPalette@@@Z"
"?setPalette_helper@QWidgetPrivate@@QEAAXAEBVQPalette@@@Z"
"?setPanelModality@QGraphicsItem@@QEAAXW4PanelModality@1@@Z"
"?setParent@QWidget@@QEAAXPEAV1@@Z"
"?setParent@QWidget@@QEAAXPEAV1@V?$QFlags@W4WindowType@Qt@@@@@Z"
"?setParentItem@QGraphicsItem@@QEAAXPEAV1@@Z"
"?setParentItemHelper@QGraphicsItemPrivate@@QEAAXPEAVQGraphicsItem@@PEBVQVariant@@1@Z"
"?setParentLayoutItem@QGraphicsLayoutItem@@QEAAXPEAV1@@Z"
"?setParent_sys@QWidgetPrivate@@QEAAXPEAVQWidget@@V?$QFlags@W4WindowType@Qt@@@@@Z"
"?setPasswordCharacter@QWidgetLineControl@@QEAAXVQChar@@@Z"
"?setPasswordMaskDelay@QWidgetLineControl@@QEAAXH@Z"
"?setPath@QGraphicsPathItem@@QEAAXAEBVQPainterPath@@@Z"
"?setPen@QAbstractGraphicsShapeItem@@QEAAXAEBVQPen@@@Z"
"?setPen@QGraphicsLineItem@@QEAAXAEBVQPen@@@Z"
"?setPhase@QGraphicsSceneWheelEvent@@QEAAXW4ScrollPhase@Qt@@@Z"
"?setPicture@QLabel@@QEAAXAEBVQPicture@@@Z"
"?setPixelDelta@QGraphicsSceneWheelEvent@@QEAAXVQPoint@@@Z"
"?setPixmap@QGraphicsPixmapItem@@QEAAXAEBVQPixmap@@@Z"
"?setPixmap@QLabel@@QEAAXAEBVQPixmap@@@Z"
"?setPixmap@QSplashScreen@@QEAAXAEBVQPixmap@@@Z"
"?setPixmap@QWizard@@QEAAXW4WizardPixmap@1@AEBVQPixmap@@@Z"
"?setPixmap@QWizardPage@@QEAAXW4WizardPixmap@QWizard@@AEBVQPixmap@@@Z"
"?setPlaceholderText@QComboBox@@QEAAXAEBVQString@@@Z"
"?setPlaceholderText@QLineEdit@@QEAAXAEBVQString@@@Z"
"?setPlaceholderText@QPlainTextEdit@@QEAAXAEBVQString@@@Z"
"?setPlaceholderText@QTextEdit@@QEAAXAEBVQString@@@Z"
"?setPlainText@QGraphicsTextItem@@QEAAXAEBVQString@@@Z"
"?setPlainText@QPlainTextEdit@@QEAAXAEBVQString@@@Z"
"?setPlainText@QTextEdit@@QEAAXAEBVQString@@@Z"
"?setPlainText@QWidgetTextControl@@QEAAXAEBVQString@@@Z"
"?setPlatformMenu@QMenu@@QEAAXPEAVQPlatformMenu@@@Z"
"?setPolygon@QGraphicsPolygonItem@@QEAAXAEBVQPolygonF@@@Z"
"?setPopup@QCompleter@@QEAAXPEAVQAbstractItemView@@@Z"
"?setPopupMode@QToolButton@@QEAAXW4ToolButtonPopupMode@1@@Z"
"?setPos@QGraphicsItem@@QEAAXAEBVQPointF@@@Z"
"?setPos@QGraphicsItem@@QEAAXNN@Z"
"?setPos@QGraphicsSceneContextMenuEvent@@QEAAXAEBVQPointF@@@Z"
"?setPos@QGraphicsSceneDragDropEvent@@QEAAXAEBVQPointF@@@Z"
"?setPos@QGraphicsSceneHoverEvent@@QEAAXAEBVQPointF@@@Z"
"?setPos@QGraphicsSceneMouseEvent@@QEAAXAEBVQPointF@@@Z"
"?setPos@QGraphicsSceneWheelEvent@@QEAAXAEBVQPointF@@@Z"
"?setPosAt@QGraphicsItemAnimation@@QEAAXNAEBVQPointF@@@Z"
"?setPosHelper@QGraphicsItemPrivate@@UEAAXAEBVQPointF@@@Z"
"?setPosition@QTapAndHoldGesture@@QEAAXAEBVQPointF@@@Z"
"?setPosition@QTapGesture@@QEAAXAEBVQPointF@@@Z"
"?setPositionForIndex@QListView@@IEAAXAEBVQPoint@@AEBVQModelIndex@@@Z"
"?setPossibleActions@QGraphicsSceneDragDropEvent@@QEAAXV?$QFlags@W4DropAction@Qt@@@@@Z"
"?setPreeditArea@QWidgetLineControl@@QEAAXHAEBVQString@@@Z"
"?setPreferredHeight@QGraphicsLayoutItem@@QEAAXN@Z"
"?setPreferredSize@QGraphicsLayoutItem@@QEAAXAEBVQSizeF@@@Z"
"?setPreferredSize@QGraphicsLayoutItem@@QEAAXNN@Z"
"?setPreferredWidth@QGraphicsLayoutItem@@QEAAXN@Z"
"?setPrefix@QDoubleSpinBox@@QEAAXAEBVQString@@@Z"
"?setPrefix@QSpinBox@@QEAAXAEBVQString@@@Z"
"?setPreviewWidget@QColumnView@@QEAAXPEAVQWidget@@@Z"
"?setProposedAction@QGraphicsSceneDragDropEvent@@QEAAXW4DropAction@Qt@@@Z"
"?setProxy@QStyle@@AEAAXPEAV1@@Z"
"?setProxyModel@QFileDialog@@QEAAXPEAVQAbstractProxyModel@@@Z"
"?setRadius@QPixmapBlurFilter@@QEAAXN@Z"
"?setRange@QAbstractSlider@@QEAAXHH@Z"
"?setRange@QDoubleSpinBox@@QEAAXNN@Z"
"?setRange@QProgressBar@@QEAAXHH@Z"
"?setRange@QProgressDialog@@QEAAXHH@Z"
"?setRange@QSpinBox@@QEAAXHH@Z"
"?setRangeSelected@QTableWidget@@QEAAXAEBVQTableWidgetSelectionRange@@_N@Z"
"?setReadOnly@QAbstractSpinBox@@QEAAX_N@Z"
"?setReadOnly@QLineEdit@@QEAAX_N@Z"
"?setReadOnly@QPlainTextEdit@@QEAAX_N@Z"
"?setReadOnly@QTextEdit@@QEAAX_N@Z"
"?setReadOnly@QWidgetLineControl@@QEAAX_N@Z"
"?setReason@QGraphicsSceneContextMenuEvent@@QEAAXW4Reason@1@@Z"
"?setRect@QGraphicsEllipseItem@@QEAAXAEBVQRectF@@@Z"
"?setRect@QGraphicsEllipseItem@@QEAAXNNNN@Z"
"?setRect@QGraphicsRectItem@@QEAAXAEBVQRectF@@@Z"
"?setRect@QGraphicsRectItem@@QEAAXNNNN@Z"
"?setRedirected@QWidgetPrivate@@QEAAXPEAVQPaintDevice@@AEBVQPoint@@@Z"
"?setRenderHint@QGraphicsView@@QEAAXW4RenderHint@QPainter@@_N@Z"
"?setRenderHints@QGraphicsView@@QEAAXV?$QFlags@W4RenderHint@QPainter@@@@@Z"
"?setRenderToTexture@QWidgetPrivate@@QEAAXXZ"
"?setRepeatAction@QAbstractSlider@@IEAAXW4SliderAction@1@HH@Z"
"?setResizeAnchor@QGraphicsView@@QEAAXW4ViewportAnchor@1@@Z"
"?setResizeContentsPrecision@QHeaderView@@QEAAXH@Z"
"?setResizeGripsVisible@QColumnView@@QEAAX_N@Z"
"?setResizeMode@QListView@@QEAAXW4ResizeMode@1@@Z"
"?setResourceProvider@QLabel@@QEAAXAEBV?$function@$$A6A?AVQVariant@@AEBVQUrl@@@Z@std@@@Z"
"?setResult@QDialog@@QEAAXH@Z"
"?setRetainSizeWhenHidden@QSizePolicy@@QEAAX_N@Z"
"?setRootIndex@QAbstractItemView@@UEAAXAEBVQModelIndex@@@Z"
"?setRootIndex@QColumnView@@UEAAXAEBVQModelIndex@@@Z"
"?setRootIndex@QDataWidgetMapper@@QEAAXAEBVQModelIndex@@@Z"
"?setRootIndex@QFileDialogPrivate@@QEBAXAEBVQModelIndex@@@Z"
"?setRootIndex@QListView@@UEAAXAEBVQModelIndex@@@Z"
"?setRootIndex@QTableView@@UEAAXAEBVQModelIndex@@@Z"
"?setRootIndex@QTreeView@@UEAAXAEBVQModelIndex@@@Z"
"?setRootIsDecorated@QTreeView@@QEAAX_N@Z"
"?setRootModelIndex@QComboBox@@QEAAXAEBVQModelIndex@@@Z"
"?setRotation@QGraphicsItem@@QEAAXN@Z"
"?setRotationAngle@QPinchGesture@@QEAAXN@Z"
"?setRotationAt@QGraphicsItemAnimation@@QEAAXNN@Z"
"?setRowAlignment@QGraphicsGridLayout@@QEAAXHV?$QFlags@W4AlignmentFlag@Qt@@@@@Z"
"?setRowCount@QTableWidget@@QEAAXH@Z"
"?setRowFixedHeight@QGraphicsGridLayout@@QEAAXHN@Z"
"?setRowHeight@QTableView@@QEAAXHH@Z"
"?setRowHidden@QListView@@QEAAXH_N@Z"
"?setRowHidden@QTableView@@QEAAXH_N@Z"
"?setRowHidden@QTreeView@@QEAAXHAEBVQModelIndex@@_N@Z"
"?setRowMaximumHeight@QGraphicsGridLayout@@QEAAXHN@Z"
"?setRowMinimumHeight@QGraphicsGridLayout@@QEAAXHN@Z"
"?setRowMinimumHeight@QGridLayout@@QEAAXHH@Z"
"?setRowPreferredHeight@QGraphicsGridLayout@@QEAAXHN@Z"
"?setRowSpacing@QGraphicsGridLayout@@QEAAXHN@Z"
"?setRowStretch@QGridLayout@@QEAAXHH@Z"
"?setRowStretchFactor@QGraphicsGridLayout@@QEAAXHH@Z"
"?setRowVisible@QFormLayout@@QEAAXH_N@Z"
"?setRowVisible@QFormLayout@@QEAAXPEAVQLayout@@_N@Z"
"?setRowVisible@QFormLayout@@QEAAXPEAVQWidget@@_N@Z"
"?setRowWrapPolicy@QFormLayout@@QEAAXW4RowWrapPolicy@1@@Z"
"?setRubberBand@QSplitter@@IEAAXH@Z"
"?setRubberBandSelectionMode@QGraphicsView@@QEAAXW4ItemSelectionMode@Qt@@@Z"
"?setSampleCount@QRhiWidget@@QEAAXH@Z"
"?setSampleTextForFont@QFontComboBox@@QEAAXAEBVQString@@0@Z"
"?setSampleTextForSystem@QFontComboBox@@QEAAXW4WritingSystem@QFontDatabase@@AEBVQString@@@Z"
"?setScale@QGraphicsItem@@QEAAXN@Z"
"?setScaleAt@QGraphicsItemAnimation@@QEAAXNNN@Z"
"?setScaleFactor@QPinchGesture@@QEAAXN@Z"
"?setScaledContents@QLabel@@QEAAX_N@Z"
"?setScene@QGraphicsView@@QEAAXPEAVQGraphicsScene@@@Z"
"?setScenePos@QGraphicsSceneContextMenuEvent@@QEAAXAEBVQPointF@@@Z"
"?setScenePos@QGraphicsSceneDragDropEvent@@QEAAXAEBVQPointF@@@Z"
"?setScenePos@QGraphicsSceneHelpEvent@@QEAAXAEBVQPointF@@@Z"
"?setScenePos@QGraphicsSceneHoverEvent@@QEAAXAEBVQPointF@@@Z"
"?setScenePos@QGraphicsSceneMouseEvent@@QEAAXAEBVQPointF@@@Z"
"?setScenePos@QGraphicsSceneWheelEvent@@QEAAXAEBVQPointF@@@Z"
"?setSceneRect@QGraphicsScene@@QEAAXAEBVQRectF@@@Z"
"?setSceneRect@QGraphicsScene@@QEAAXNNNN@Z"
"?setSceneRect@QGraphicsView@@QEAAXAEBVQRectF@@@Z"
"?setSceneRect@QGraphicsView@@QEAAXNNNN@Z"
"?setScreen@QWidget@@QEAAXPEAVQScreen@@@Z"
"?setScreen@QWidgetPrivate@@QEAA_NPEAVQScreen@@@Z"
"?setScreenForPoint@QWidgetPrivate@@QEAA_NAEBVQPoint@@@Z"
"?setScreenPos@QGraphicsSceneContextMenuEvent@@QEAAXAEBVQPoint@@@Z"
"?setScreenPos@QGraphicsSceneDragDropEvent@@QEAAXAEBVQPoint@@@Z"
"?setScreenPos@QGraphicsSceneHelpEvent@@QEAAXAEBVQPoint@@@Z"
"?setScreenPos@QGraphicsSceneHoverEvent@@QEAAXAEBVQPoint@@@Z"
"?setScreenPos@QGraphicsSceneMouseEvent@@QEAAXAEBVQPoint@@@Z"
"?setScreenPos@QGraphicsSceneWheelEvent@@QEAAXAEBVQPoint@@@Z"
"?setScrollMetric@QScrollerProperties@@QEAAXW4ScrollMetric@1@AEBVQVariant@@@Z"
"?setScrollerProperties@QScroller@@QEAAXAEBVQScrollerProperties@@@Z"
"?setSearchPaths@QTextBrowser@@QEAAXAEBV?$QList@VQString@@@@@Z"
"?setSectionHidden@QHeaderView@@QEAAXH_N@Z"
"?setSectionResizeMode@QHeaderView@@QEAAXHW4ResizeMode@1@@Z"
"?setSectionResizeMode@QHeaderView@@QEAAXW4ResizeMode@1@@Z"
"?setSectionsClickable@QHeaderView@@QEAAX_N@Z"
"?setSectionsMovable@QHeaderView@@QEAAX_N@Z"
"?setSegmentStyle@QLCDNumber@@QEAAXW4SegmentStyle@1@@Z"
"?setSelected@QGraphicsItem@@QEAAX_N@Z"
"?setSelected@QListWidgetItem@@QEAAX_N@Z"
"?setSelected@QTableWidgetItem@@QEAAX_N@Z"
"?setSelected@QTreeWidgetItem@@QEAAX_N@Z"
"?setSelectedDate@QCalendarWidget@@QEAAXVQDate@@@Z"
"?setSelectedSection@QDateTimeEdit@@QEAAXW4Section@1@@Z"
"?setSelection@QColumnView@@MEAAXAEBVQRect@@V?$QFlags@W4SelectionFlag@QItemSelectionModel@@@@@Z"
"?setSelection@QHeaderView@@MEAAXAEBVQRect@@V?$QFlags@W4SelectionFlag@QItemSelectionModel@@@@@Z"
"?setSelection@QLabel@@QEAAXHH@Z"
"?setSelection@QLineEdit@@QEAAXHH@Z"
"?setSelection@QListView@@MEAAXAEBVQRect@@V?$QFlags@W4SelectionFlag@QItemSelectionModel@@@@@Z"
"?setSelection@QTableView@@MEAAXAEBVQRect@@V?$QFlags@W4SelectionFlag@QItemSelectionModel@@@@@Z"
"?setSelection@QTreeView@@MEAAXAEBVQRect@@V?$QFlags@W4SelectionFlag@QItemSelectionModel@@@@@Z"
"?setSelection@QWidgetLineControl@@QEAAXHH@Z"
"?setSelectionArea@QGraphicsScene@@QEAAXAEBVQPainterPath@@AEBVQTransform@@@Z"
"?setSelectionArea@QGraphicsScene@@QEAAXAEBVQPainterPath@@W4ItemSelectionOperation@Qt@@W4ItemSelectionMode@4@AEBVQTransform@@@Z"
"?setSelectionBehavior@QAbstractItemView@@QEAAXW4SelectionBehavior@1@@Z"
"?setSelectionBehaviorOnRemove@QTabBar@@QEAAXW4SelectionBehavior@1@@Z"
"?setSelectionMode@QAbstractItemView@@QEAAXW4SelectionMode@1@@Z"
"?setSelectionMode@QCalendarWidget@@QEAAXW4SelectionMode@1@@Z"
"?setSelectionModel@QAbstractItemView@@UEAAXPEAVQItemSelectionModel@@@Z"
"?setSelectionModel@QColumnView@@UEAAXPEAVQItemSelectionModel@@@Z"
"?setSelectionModel@QListWidget@@UEAAXPEAVQItemSelectionModel@@@Z"
"?setSelectionModel@QTableView@@UEAAXPEAVQItemSelectionModel@@@Z"
"?setSelectionModel@QTreeView@@UEAAXPEAVQItemSelectionModel@@@Z"
"?setSelectionModel@QTreeWidget@@UEAAXPEAVQItemSelectionModel@@@Z"
"?setSelectionRectVisible@QListView@@QEAAX_N@Z"
"?setSeparatorsCollapsible@QMenu@@QEAAX_N@Z"
"?setShape@QTabBar@@QEAAXW4Shape@1@@Z"
"?setShapeMode@QGraphicsPixmapItem@@QEAAXW4ShapeMode@1@@Z"
"?setSharedPainter@QWidgetPrivate@@QEAAXPEAVQPainter@@@Z"
"?setShearAt@QGraphicsItemAnimation@@QEAAXNNN@Z"
"?setShortcut@QAbstractButton@@QEAAXAEBVQKeySequence@@@Z"
"?setShortcutAutoRepeat@QGraphicsWidget@@QEAAXH_N@Z"
"?setShortcutAutoRepeat@QWidget@@QEAAXH_N@Z"
"?setShortcutEnabled@QGraphicsWidget@@QEAAXH_N@Z"
"?setShortcutEnabled@QWidget@@QEAAXH_N@Z"
"?setShowGrid@QTableView@@QEAAX_N@Z"
"?setSideWidget@QWizard@@QEAAXPEAVQWidget@@@Z"
"?setSidebarUrls@QFileDialog@@QEAAXAEBV?$QList@VQUrl@@@@@Z"
"?setSingleStep@QAbstractSlider@@QEAAXH@Z"
"?setSingleStep@QDoubleSpinBox@@QEAAXN@Z"
"?setSingleStep@QSpinBox@@QEAAXH@Z"
"?setSizeAdjustPolicy@QAbstractScrollArea@@QEAAXW4SizeAdjustPolicy@1@@Z"
"?setSizeAdjustPolicy@QComboBox@@QEAAXW4SizeAdjustPolicy@1@@Z"
"?setSizeConstraint@QLayout@@QEAAXW4SizeConstraint@1@@Z"
"?setSizeGripEnabled@QDialog@@QEAAX_N@Z"
"?setSizeGripEnabled@QStatusBar@@QEAAX_N@Z"
"?setSizeHint@QListWidgetItem@@QEAAXAEBVQSize@@@Z"
"?setSizeHint@QTableWidgetItem@@QEAAXAEBVQSize@@@Z"
"?setSizeHint@QTreeWidgetItem@@QEAAXHAEBVQSize@@@Z"
"?setSizeIncrement@QWidget@@QEAAXAEBVQSize@@@Z"
"?setSizeIncrement@QWidget@@QEAAXHH@Z"
"?setSizePolicy@QGraphicsAnchor@@QEAAXW4Policy@QSizePolicy@@@Z"
"?setSizePolicy@QGraphicsLayoutItem@@QEAAXAEBVQSizePolicy@@@Z"
"?setSizePolicy@QGraphicsLayoutItem@@QEAAXW4Policy@QSizePolicy@@0W4ControlType@3@@Z"
"?setSizePolicy@QWidget@@QEAAXVQSizePolicy@@@Z"
"?setSizePolicy@QWidget@@QEAAXW4Policy@QSizePolicy@@0@Z"
"?setSizes@QSplitter@@QEAAXAEBV?$QList@H@@@Z"
"?setSliderDown@QAbstractSlider@@QEAAX_N@Z"
"?setSliderPosition@QAbstractSlider@@QEAAXH@Z"
"?setSmallDecimalPoint@QLCDNumber@@QEAAX_N@Z"
"?setSnapPositionsX@QScroller@@QEAAXAEBV?$QList@N@@@Z"
"?setSnapPositionsX@QScroller@@QEAAXNN@Z"
"?setSnapPositionsY@QScroller@@QEAAXAEBV?$QList@N@@@Z"
"?setSnapPositionsY@QScroller@@QEAAXNN@Z"
"?setSortIndicator@QHeaderView@@QEAAXHW4SortOrder@Qt@@@Z"
"?setSortIndicatorClearable@QHeaderView@@QEAAX_N@Z"
"?setSortIndicatorShown@QHeaderView@@QEAAX_N@Z"
"?setSortingEnabled@QListWidget@@QEAAX_N@Z"
"?setSortingEnabled@QTableView@@QEAAX_N@Z"
"?setSortingEnabled@QTableWidget@@QEAAX_N@Z"
"?setSortingEnabled@QTreeView@@QEAAX_N@Z"
"?setSource@QGraphicsSceneDragDropEvent@@QEAAXPEAVQWidget@@@Z"
"?setSource@QGraphicsSceneMouseEvent@@QEAAXW4MouseEventSource@Qt@@@Z"
"?setSource@QTextBrowser@@QEAAXAEBVQUrl@@W4ResourceType@QTextDocument@@@Z"
"?setSpacing@QBoxLayout@@UEAAXH@Z"
"?setSpacing@QFormLayout@@UEAAXH@Z"
"?setSpacing@QGraphicsAnchor@@QEAAXN@Z"
"?setSpacing@QGraphicsAnchorLayout@@QEAAXN@Z"
"?setSpacing@QGraphicsGridLayout@@QEAAXN@Z"
"?setSpacing@QGraphicsLinearLayout@@QEAAXN@Z"
"?setSpacing@QGridLayout@@UEAAXH@Z"
"?setSpacing@QLayout@@UEAAXH@Z"
"?setSpacing@QListView@@QEAAXH@Z"
"?setSpan@QTableView@@QEAAXHHHH@Z"
"?setSpanAngle@QGraphicsEllipseItem@@QEAAXH@Z"
"?setSpecialValueText@QAbstractSpinBox@@QEAAXAEBVQString@@@Z"
"?setSpeed@QProgressStyleAnimation@@QEAAXH@Z"
"?setStack@QUndoView@@QEAAXPEAVQUndoStack@@@Z"
"?setStackingMode@QStackedLayout@@QEAAXW4StackingMode@1@@Z"
"?setStandardButtons@QDialogButtonBox@@QEAAXV?$QFlags@W4StandardButton@QDialogButtonBox@@@@@Z"
"?setStandardButtons@QMessageBox@@QEAAXV?$QFlags@W4StandardButton@QMessageBox@@@@@Z"
"?setStandardColor@QColorDialog@@SAXHVQColor@@@Z"
"?setStartAngle@QGraphicsEllipseItem@@QEAAXH@Z"
"?setStartCenterPoint@QPinchGesture@@QEAAXAEBVQPointF@@@Z"
"?setStartDragDistance@QApplication@@SAXH@Z"
"?setStartDragTime@QApplication@@SAXH@Z"
"?setStartId@QWizard@@QEAAXH@Z"
"?setStartImage@QBlendStyleAnimation@@QEAAXAEBVQImage@@@Z"
"?setStartTime@QStyleAnimation@@QEAAXVQTime@@@Z"
"?setStartValue@QNumberStyleAnimation@@QEAAXN@Z"
"?setState@QAbstractItemView@@IEAAXW4State@1@@Z"
"?setStatusBar@QMainWindow@@QEAAXPEAVQStatusBar@@@Z"
"?setStatusTip@QListWidgetItem@@QEAAXAEBVQString@@@Z"
"?setStatusTip@QTableWidgetItem@@QEAAXAEBVQString@@@Z"
"?setStatusTip@QTreeWidgetItem@@QEAAXHAEBVQString@@@Z"
"?setStatusTip@QWidget@@QEAAXAEBVQString@@@Z"
"?setStep@QGraphicsItemAnimation@@QEAAXN@Z"
"?setStepType@QDoubleSpinBox@@QEAAXW4StepType@QAbstractSpinBox@@@Z"
"?setStepType@QSpinBox@@QEAAXW4StepType@QAbstractSpinBox@@@Z"
"?setStickyFocus@QGraphicsScene@@QEAAX_N@Z"
"?setStrength@QGraphicsColorizeEffect@@QEAAXN@Z"
"?setStrength@QPixmapColorizeFilter@@QEAAXN@Z"
"?setStretch@QBoxLayout@@QEAAXHH@Z"
"?setStretchFactor@QBoxLayout@@QEAA_NPEAVQLayout@@H@Z"
"?setStretchFactor@QBoxLayout@@QEAA_NPEAVQWidget@@H@Z"
"?setStretchFactor@QGraphicsLinearLayout@@QEAAXPEAVQGraphicsLayoutItem@@H@Z"
"?setStretchFactor@QSplitter@@QEAAXHH@Z"
"?setStretchLastSection@QHeaderView@@QEAAX_N@Z"
"?setStyle@QApplication@@SAPEAVQStyle@@AEBVQString@@@Z"
"?setStyle@QApplication@@SAXPEAVQStyle@@@Z"
"?setStyle@QGraphicsScene@@QEAAXPEAVQStyle@@@Z"
"?setStyle@QGraphicsWidget@@QEAAXPEAVQStyle@@@Z"
"?setStyle@QWidget@@QEAAXPEAVQStyle@@@Z"
"?setStyleSheet@QApplication@@QEAAXAEBVQString@@@Z"
"?setStyleSheet@QWidget@@QEAAXAEBVQString@@@Z"
"?setStyle_helper@QWidgetPrivate@@QEAAXPEAVQStyle@@_N@Z"
"?setSubFocus@QGraphicsItemPrivate@@QEAAXPEAVQGraphicsItem@@0@Z"
"?setSubTitle@QWizardPage@@QEAAXAEBVQString@@@Z"
"?setSubTitleFormat@QWizard@@QEAAXW4TextFormat@Qt@@@Z"
"?setSubmitPolicy@QDataWidgetMapper@@QEAAXW4SubmitPolicy@1@@Z"
"?setSuffix@QDoubleSpinBox@@QEAAXAEBVQString@@@Z"
"?setSuffix@QSpinBox@@QEAAXAEBVQString@@@Z"
"?setSupportedSchemes@QFileDialog@@QEAAXAEBV?$QList@VQString@@@@@Z"
"?setSwipeAngle@QSwipeGesture@@QEAAXN@Z"
"?setSystemClip@QWidgetPrivate@@QEAAXPEAVQPaintEngine@@NAEBVQRegion@@@Z"
"?setSystemFont@QApplicationPrivate@@SAXAEBVQFont@@@Z"
"?setSystemMenu@QMdiSubWindow@@QEAAXPEAVQMenu@@@Z"
"?setTabBar@QTabWidget@@IEAAXPEAVQTabBar@@@Z"
"?setTabBarAutoHide@QTabWidget@@QEAAX_N@Z"
"?setTabButton@QTabBar@@QEAAXHW4ButtonPosition@1@PEAVQWidget@@@Z"
"?setTabChangesFocus@QGraphicsTextItem@@QEAAX_N@Z"
"?setTabChangesFocus@QPlainTextEdit@@QEAAX_N@Z"
"?setTabChangesFocus@QTextEdit@@QEAAX_N@Z"
"?setTabData@QTabBar@@QEAAXHAEBVQVariant@@@Z"
"?setTabEnabled@QTabBar@@QEAAXH_N@Z"
"?setTabEnabled@QTabWidget@@QEAAXH_N@Z"
"?setTabIcon@QTabBar@@QEAAXHAEBVQIcon@@@Z"
"?setTabIcon@QTabWidget@@QEAAXHAEBVQIcon@@@Z"
"?setTabKeyNavigation@QAbstractItemView@@QEAAX_N@Z"
"?setTabOrder@QGraphicsWidget@@SAXPEAV1@0@Z"
"?setTabOrder@QWidget@@SAXPEAV1@0@Z"
"?setTabOrder@QWidget@@SAXV?$initializer_list@PEAVQWidget@@@std@@@Z"
"?setTabPosition@QMainWindow@@QEAAXV?$QFlags@W4DockWidgetArea@Qt@@@@W4TabPosition@QTabWidget@@@Z"
"?setTabPosition@QMdiArea@@QEAAXW4TabPosition@QTabWidget@@@Z"
"?setTabPosition@QTabWidget@@QEAAXW4TabPosition@1@@Z"
"?setTabShape@QMainWindow@@QEAAXW4TabShape@QTabWidget@@@Z"
"?setTabShape@QMdiArea@@QEAAXW4TabShape@QTabWidget@@@Z"
"?setTabShape@QTabWidget@@QEAAXW4TabShape@1@@Z"
"?setTabStopDistance@QPlainTextEdit@@QEAAXN@Z"
"?setTabStopDistance@QTextEdit@@QEAAXN@Z"
"?setTabText@QTabBar@@QEAAXHAEBVQString@@@Z"
"?setTabText@QTabWidget@@QEAAXHAEBVQString@@@Z"
"?setTabTextColor@QTabBar@@QEAAXHAEBVQColor@@@Z"
"?setTabToolTip@QTabBar@@QEAAXHAEBVQString@@@Z"
"?setTabToolTip@QTabWidget@@QEAAXHAEBVQString@@@Z"
"?setTabVisible@QTabBar@@QEAAXH_N@Z"
"?setTabVisible@QTabWidget@@QEAAXH_N@Z"
"?setTabWhatsThis@QTabBar@@QEAAXHAEBVQString@@@Z"
"?setTabWhatsThis@QTabWidget@@QEAAXHAEBVQString@@@Z"
"?setTabletTracking@QWidget@@QEAAX_N@Z"
"?setTabsClosable@QMdiArea@@QEAAX_N@Z"
"?setTabsClosable@QTabBar@@QEAAX_N@Z"
"?setTabsClosable@QTabWidget@@QEAAX_N@Z"
"?setTabsMovable@QMdiArea@@QEAAX_N@Z"
"?setTearOffEnabled@QMenu@@QEAAX_N@Z"
"?setText@QAbstractButton@@QEAAXAEBVQString@@@Z"
"?setText@QGraphicsSimpleTextItem@@QEAAXAEBVQString@@@Z"
"?setText@QLabel@@QEAAXAEBVQString@@@Z"
"?setText@QLineEdit@@QEAAXAEBVQString@@@Z"
"?setText@QListWidgetItem@@QEAAXAEBVQString@@@Z"
"?setText@QMessageBox@@QEAAXAEBVQString@@@Z"
"?setText@QTableWidgetItem@@QEAAXAEBVQString@@@Z"
"?setText@QTextEdit@@QEAAXAEBVQString@@@Z"
"?setText@QTreeWidgetItem@@QEAAXHAEBVQString@@@Z"
"?setText@QWidgetLineControl@@QEAAXAEBVQString@@@Z"
"?setTextAlignment@QListWidgetItem@@QEAAXH@Z"
"?setTextAlignment@QListWidgetItem@@QEAAXV?$QFlags@W4AlignmentFlag@Qt@@@@@Z"
"?setTextAlignment@QListWidgetItem@@QEAAXW4AlignmentFlag@Qt@@@Z"
"?setTextAlignment@QTableWidgetItem@@QEAAXH@Z"
"?setTextAlignment@QTableWidgetItem@@QEAAXV?$QFlags@W4AlignmentFlag@Qt@@@@@Z"
"?setTextAlignment@QTableWidgetItem@@QEAAXW4AlignmentFlag@Qt@@@Z"
"?setTextAlignment@QTreeWidgetItem@@QEAAXHH@Z"
"?setTextAlignment@QTreeWidgetItem@@QEAAXHV?$QFlags@W4AlignmentFlag@Qt@@@@@Z"
"?setTextAlignment@QTreeWidgetItem@@QEAAXHW4AlignmentFlag@Qt@@@Z"
"?setTextBackgroundColor@QTextEdit@@QEAAXAEBVQColor@@@Z"
"?setTextColor@QTextEdit@@QEAAXAEBVQColor@@@Z"
"?setTextCursor@QGraphicsTextItem@@QEAAXAEBVQTextCursor@@@Z"
"?setTextCursor@QPlainTextEdit@@QEAAXAEBVQTextCursor@@@Z"
"?setTextCursor@QTextEdit@@QEAAXAEBVQTextCursor@@@Z"
"?setTextCursor@QWidgetTextControl@@QEAAXAEBVQTextCursor@@_N@Z"
"?setTextDirection@QProgressBar@@QEAAXW4Direction@1@@Z"
"?setTextEchoMode@QInputDialog@@QEAAXW4EchoMode@QLineEdit@@@Z"
"?setTextElideMode@QAbstractItemView@@QEAAXW4TextElideMode@Qt@@@Z"
"?setTextFormat@QLabel@@QEAAXW4TextFormat@Qt@@@Z"
"?setTextFormat@QMessageBox@@QEAAXW4TextFormat@Qt@@@Z"
"?setTextInteractionFlags@QGraphicsTextItem@@QEAAXV?$QFlags@W4TextInteractionFlag@Qt@@@@@Z"
"?setTextInteractionFlags@QLabel@@QEAAXV?$QFlags@W4TextInteractionFlag@Qt@@@@@Z"
"?setTextInteractionFlags@QMessageBox@@QEAAXV?$QFlags@W4TextInteractionFlag@Qt@@@@@Z"
"?setTextInteractionFlags@QPlainTextEdit@@QEAAXV?$QFlags@W4TextInteractionFlag@Qt@@@@@Z"
"?setTextInteractionFlags@QTextEdit@@QEAAXV?$QFlags@W4TextInteractionFlag@Qt@@@@@Z"
"?setTextInteractionFlags@QWidgetTextControl@@QEAAXV?$QFlags@W4TextInteractionFlag@Qt@@@@@Z"
"?setTextMargins@QLineEdit@@QEAAXAEBVQMargins@@@Z"
"?setTextMargins@QLineEdit@@QEAAXHHHH@Z"
"?setTextValue@QInputDialog@@QEAAXAEBVQString@@@Z"
"?setTextVisible@QProgressBar@@QEAAX_N@Z"
"?setTextWidth@QGraphicsTextItem@@QEAAXN@Z"
"?setTextWidth@QPlainTextDocumentLayout@@AEAAXN@Z"
"?setTextWidth@QWidgetTextControl@@QEAAXN@Z"
"?setTextureChildSeen@QWidgetPrivate@@QEAAXXZ"
"?setTickInterval@QSlider@@QEAAXH@Z"
"?setTickPosition@QSlider@@QEAAXW4TickPosition@1@@Z"
"?setTime@QDateTimeEdit@@QEAAXVQTime@@@Z"
"?setTimeLine@QGraphicsItemAnimation@@QEAAXPEAVQTimeLine@@@Z"
"?setTimeRange@QDateTimeEdit@@QEAAXVQTime@@0@Z"
"?setTimeSpec@QDateTimeEdit@@QEAAXW4TimeSpec@Qt@@@Z"
"?setTimeZone@QDateTimeEdit@@QEAAXAEBVQTimeZone@@@Z"
"?setTimeout@QTapAndHoldGesture@@SAXH@Z"
"?setTimestamp@QGraphicsSceneEvent@@QEAAX_K@Z"
"?setTitle@QGroupBox@@QEAAXAEBVQString@@@Z"
"?setTitle@QMenu@@QEAAXAEBVQString@@@Z"
"?setTitle@QWizardPage@@QEAAXAEBVQString@@@Z"
"?setTitleBarWidget@QDockWidget@@QEAAXPEAVQWidget@@@Z"
"?setTitleFormat@QWizard@@QEAAXW4TextFormat@Qt@@@Z"
"?setToolButtonStyle@QMainWindow@@QEAAXW4ToolButtonStyle@Qt@@@Z"
"?setToolButtonStyle@QToolBar@@QEAAXW4ToolButtonStyle@Qt@@@Z"
"?setToolButtonStyle@QToolButton@@QEAAXW4ToolButtonStyle@Qt@@@Z"
"?setToolTip@QGraphicsItem@@QEAAXAEBVQString@@@Z"
"?setToolTip@QListWidgetItem@@QEAAXAEBVQString@@@Z"
"?setToolTip@QSystemTrayIcon@@QEAAXAEBVQString@@@Z"
"?setToolTip@QTableWidgetItem@@QEAAXAEBVQString@@@Z"
"?setToolTip@QTreeWidgetItem@@QEAAXHAEBVQString@@@Z"
"?setToolTip@QWidget@@QEAAXAEBVQString@@@Z"
"?setToolTipDuration@QWidget@@QEAAXH@Z"
"?setToolTipsVisible@QMenu@@QEAAX_N@Z"
"?setTotalChangeFlags@QPinchGesture@@QEAAXV?$QFlags@W4ChangeFlag@QPinchGesture@@@@@Z"
"?setTotalRotationAngle@QPinchGesture@@QEAAXN@Z"
"?setTotalScaleFactor@QPinchGesture@@QEAAXN@Z"
"?setTracking@QAbstractSlider@@QEAAX_N@Z"
"?setTransform@QGraphicsItem@@QEAAXAEBVQTransform@@_N@Z"
"?setTransform@QGraphicsView@@QEAAXAEBVQTransform@@_N@Z"
"?setTransformHelper@QGraphicsItemPrivate@@QEAAXAEBVQTransform@@@Z"
"?setTransformOriginPoint@QGraphicsItem@@QEAAXAEBVQPointF@@@Z"
"?setTransformOriginPoint@QGraphicsItem@@QEAAXNN@Z"
"?setTransformationAnchor@QGraphicsView@@QEAAXW4ViewportAnchor@1@@Z"
"?setTransformationMode@QGraphicsPixmapItem@@QEAAXW4TransformationMode@Qt@@@Z"
"?setTransformations@QGraphicsItem@@QEAAXAEBV?$QList@PEAVQGraphicsTransform@@@@@Z"
"?setTranslationAt@QGraphicsItemAnimation@@QEAAXNNN@Z"
"?setTreePosition@QTreeView@@QEAAXH@Z"
"?setTristate@QCheckBox@@QEAAX_N@Z"
"?setUndoRedoEnabled@QPlainTextEdit@@QEAAX_N@Z"
"?setUndoRedoEnabled@QTextEdit@@QEAAX_N@Z"
"?setUnifiedTitleAndToolBarOnMac@QMainWindow@@QEAAX_N@Z"
"?setUniformItemSizes@QListView@@QEAAX_N@Z"
"?setUniformRowHeights@QTreeView@@QEAAX_N@Z"
"?setUpLayout@QTabWidget@@AEAAX_N@Z"
"?setUpdateClip@QGraphicsViewPrivate@@QEAAXPEAVQGraphicsItem@@@Z"
"?setUpdatesEnabled@QWidget@@QEAAX_N@Z"
"?setUpdatesEnabled_helper@QWidgetPrivate@@QEAAX_N@Z"
"?setUsesScrollButtons@QTabBar@@QEAAX_N@Z"
"?setUsesScrollButtons@QTabWidget@@QEAAX_N@Z"
"?setValidator@QComboBox@@QEAAXPEBVQValidator@@@Z"
"?setValidator@QLineEdit@@QEAAXPEBVQValidator@@@Z"
"?setValidator@QWidgetLineControl@@QEAAXPEBVQValidator@@@Z"
"?setValue@QAbstractSlider@@QEAAXH@Z"
"?setValue@QDoubleSpinBox@@QEAAXN@Z"
"?setValue@QProgressBar@@QEAAXH@Z"
"?setValue@QProgressDialog@@QEAAXH@Z"
"?setValue@QSpinBox@@QEAAXH@Z"
"?setVerticalHeader@QTableView@@QEAAXPEAVQHeaderView@@@Z"
"?setVerticalHeaderFormat@QCalendarWidget@@QEAAXW4VerticalHeaderFormat@1@@Z"
"?setVerticalHeaderItem@QTableWidget@@QEAAXHPEAVQTableWidgetItem@@@Z"
"?setVerticalHeaderLabels@QTableWidget@@QEAAXAEBV?$QList@VQString@@@@@Z"
"?setVerticalPolicy@QSizePolicy@@QEAAXW4Policy@1@@Z"
"?setVerticalScrollBar@QAbstractScrollArea@@QEAAXPEAVQScrollBar@@@Z"
"?setVerticalScrollBarPolicy@QAbstractScrollArea@@QEAAXW4ScrollBarPolicy@Qt@@@Z"
"?setVerticalScrollMode@QAbstractItemView@@QEAAXW4ScrollMode@1@@Z"
"?setVerticalSpacing@QFormLayout@@QEAAXH@Z"
"?setVerticalSpacing@QGraphicsAnchorLayout@@QEAAXN@Z"
"?setVerticalSpacing@QGraphicsGridLayout@@QEAAXN@Z"
"?setVerticalSpacing@QGridLayout@@QEAAXH@Z"
"?setVerticalStretch@QSizePolicy@@QEAAXH@Z"
"?setVerticalTitleBar@QDockWidgetLayout@@QEAAX_N@Z"
"?setView@QComboBox@@QEAAXPEAVQAbstractItemView@@@Z"
"?setViewMode@QFileDialog@@QEAAXW4ViewMode@1@@Z"
"?setViewMode@QListView@@QEAAXW4ViewMode@1@@Z"
"?setViewMode@QMdiArea@@QEAAXW4ViewMode@1@@Z"
"?setViewport@QAbstractScrollArea@@QEAAXPEAVQWidget@@@Z"
"?setViewportMargins@QAbstractScrollArea@@IEAAXAEBVQMargins@@@Z"
"?setViewportMargins@QAbstractScrollArea@@IEAAXHHHH@Z"
"?setViewportUpdateMode@QGraphicsView@@QEAAXW4ViewportUpdateMode@1@@Z"
"?setVisible@QColorDialog@@UEAAX_N@Z"
"?setVisible@QDialog@@UEAAX_N@Z"
"?setVisible@QDialogPrivate@@UEAAX_N@Z"
"?setVisible@QFileDialog@@UEAAX_N@Z"
"?setVisible@QFileDialogPrivate@@UEAAX_N@Z"
"?setVisible@QFontDialog@@UEAAX_N@Z"
"?setVisible@QGraphicsItem@@QEAAX_N@Z"
"?setVisible@QHeaderView@@UEAAX_N@Z"
"?setVisible@QInputDialog@@UEAAX_N@Z"
"?setVisible@QMenuBar@@UEAAX_N@Z"
"?setVisible@QSizeGrip@@UEAAX_N@Z"
"?setVisible@QSystemTrayIcon@@QEAAX_N@Z"
"?setVisible@QWidget@@UEAAX_N@Z"
"?setVisible@QWidgetPrivate@@UEAAX_N@Z"
"?setVisible@QWizard@@UEAAX_N@Z"
"?setVisibleHelper@QGraphicsItemPrivate@@QEAAX_N000@Z"
"?setWSGeometry@QWidgetPrivate@@QEAAXXZ"
"?setWeekdayTextFormat@QCalendarWidget@@QEAAXW4DayOfWeek@Qt@@AEBVQTextCharFormat@@@Z"
"?setWhatsThis@QListWidgetItem@@QEAAXAEBVQString@@@Z"
"?setWhatsThis@QTableWidgetItem@@QEAAXAEBVQString@@@Z"
"?setWhatsThis@QTreeWidgetItem@@QEAAXHAEBVQString@@@Z"
"?setWhatsThis@QWidget@@QEAAXAEBVQString@@@Z"
"?setWheelScrollLines@QApplication@@SAXH@Z"
"?setWidget@QCompleter@@QEAAXPEAVQWidget@@@Z"
"?setWidget@QDockWidget@@QEAAXPEAVQWidget@@@Z"
"?setWidget@QFocusFrame@@QEAAXPEAVQWidget@@@Z"
"?setWidget@QFormLayout@@QEAAXHW4ItemRole@1@PEAVQWidget@@@Z"
"?setWidget@QGestureEvent@@QEAAXPEAVQWidget@@@Z"
"?setWidget@QGraphicsProxyWidget@@QEAAXPEAVQWidget@@@Z"
"?setWidget@QGraphicsSceneEvent@@QEAAXPEAVQWidget@@@Z"
"?setWidget@QMdiSubWindow@@QEAAXPEAVQWidget@@@Z"
"?setWidget@QScrollArea@@QEAAXPEAVQWidget@@@Z"
"?setWidgetForRole@QDockWidgetLayout@@QEAAXW4Role@1@PEAVQWidget@@@Z"
"?setWidgetParentHelper@QWidgetPrivate@@SAXPEAVQObject@@0@Z"
"?setWidgetResizable@QScrollArea@@QEAAX_N@Z"
"?setWidth@QGraphicsItemPrivate@@UEAAXN@Z"
"?setWidthForHeight@QSizePolicy@@QEAAX_N@Z"
"?setWinId@QWidgetPrivate@@QEAAX_K@Z"
"?setWindowFilePath@QWidget@@QEAAXAEBVQString@@@Z"
"?setWindowFilePath_helper@QWidgetPrivate@@QEAAXAEBVQString@@@Z"
"?setWindowFilePath_sys@QWidgetPrivate@@QEAAXAEBVQString@@@Z"
"?setWindowFlag@QWidget@@QEAAXW4WindowType@Qt@@_N@Z"
"?setWindowFlags@QGraphicsWidget@@QEAAXV?$QFlags@W4WindowType@Qt@@@@@Z"
"?setWindowFlags@QWidget@@QEAAXV?$QFlags@W4WindowType@Qt@@@@@Z"
"?setWindowFlags@QWidgetPrivate@@UEAAXV?$QFlags@W4WindowType@Qt@@@@@Z"
"?setWindowFrameMargins@QGraphicsWidget@@QEAAXNNNN@Z"
"?setWindowFrameMargins@QGraphicsWidget@@QEAAXVQMarginsF@@@Z"
"?setWindowIcon@QWidget@@QEAAXAEBVQIcon@@@Z"
"?setWindowIconText@QWidget@@QEAAXAEBVQString@@@Z"
"?setWindowIconText_helper@QWidgetPrivate@@QEAAXAEBVQString@@@Z"
"?setWindowIconText_sys@QWidgetPrivate@@QEAAXAEBVQString@@@Z"
"?setWindowIcon_helper@QWidgetPrivate@@QEAAXXZ"
"?setWindowIcon_sys@QWidgetPrivate@@QEAAXXZ"
"?setWindowModality@QMessageBox@@QEAAXW4WindowModality@Qt@@@Z"
"?setWindowModality@QWidget@@QEAAXW4WindowModality@Qt@@@Z"
"?setWindowModified@QWidget@@QEAAX_N@Z"
"?setWindowModified_helper@QWidgetPrivate@@QEAAXXZ"
"?setWindowOpacity@QWidget@@QEAAXN@Z"
"?setWindowOpacity_sys@QWidgetPrivate@@QEAAXN@Z"
"?setWindowRole@QWidget@@QEAAXAEBVQString@@@Z"
"?setWindowState@QWidget@@QEAAXV?$QFlags@W4WindowState@Qt@@@@@Z"
"?setWindowTitle@QGraphicsWidget@@QEAAXAEBVQString@@@Z"
"?setWindowTitle@QMessageBox@@QEAAXAEBVQString@@@Z"
"?setWindowTitle@QWidget@@QEAAXAEBVQString@@@Z"
"?setWindowTitle_helper@QWidgetPrivate@@QEAAXAEBVQString@@@Z"
"?setWindowTitle_sys@QWidgetPrivate@@QEAAXAEBVQString@@@Z"
"?setWizardStyle@QWizard@@QEAAXW4WizardStyle@1@@Z"
"?setWordSelectionEnabled@QWidgetTextControl@@QEAAX_N@Z"
"?setWordWrap@QLabel@@QEAAX_N@Z"
"?setWordWrap@QListView@@QEAAX_N@Z"
"?setWordWrap@QTableView@@QEAAX_N@Z"
"?setWordWrap@QTreeView@@QEAAX_N@Z"
"?setWordWrapMode@QPlainTextEdit@@QEAAXW4WrapMode@QTextOption@@@Z"
"?setWordWrapMode@QTextEdit@@QEAAXW4WrapMode@QTextOption@@@Z"
"?setWrapAround@QCompleter@@QEAAX_N@Z"
"?setWrapping@QAbstractSpinBox@@QEAAX_N@Z"
"?setWrapping@QDial@@QEAAX_N@Z"
"?setWrapping@QListView@@QEAAX_N@Z"
"?setWritingSystem@QFontComboBox@@QEAAXW4WritingSystem@QFontDatabase@@@Z"
"?setX@QGraphicsItem@@QEAAXN@Z"
"?setXOffset@QGraphicsDropShadowEffect@@QEAAXN@Z"
"?setXScale@QGraphicsScale@@QEAAXN@Z"
"?setY@QGraphicsItem@@QEAAXN@Z"
"?setYOffset@QGraphicsDropShadowEffect@@QEAAXN@Z"
"?setYScale@QGraphicsScale@@QEAAXN@Z"
"?setZScale@QGraphicsScale@@QEAAXN@Z"
"?setZValue@QGraphicsItem@@QEAAXN@Z"
"?set_font@QApplicationPrivate@@2PEAVQFont@@EA"
"?setupMovableTab@QTabBarPrivate@@QEAAXXZ"
"?setupViewport@QAbstractScrollArea@@UEAAXPEAVQWidget@@@Z"
"?setupViewport@QGraphicsView@@MEAAXPEAVQWidget@@@Z"
"?setupViewport@QMdiArea@@MEAAXPEAVQWidget@@@Z"
"?shape@QGraphicsEllipseItem@@UEBA?AVQPainterPath@@XZ"
"?shape@QGraphicsItem@@UEBA?AVQPainterPath@@XZ"
"?shape@QGraphicsLineItem@@UEBA?AVQPainterPath@@XZ"
"?shape@QGraphicsPathItem@@UEBA?AVQPainterPath@@XZ"
"?shape@QGraphicsPixmapItem@@UEBA?AVQPainterPath@@XZ"
"?shape@QGraphicsPolygonItem@@UEBA?AVQPainterPath@@XZ"
"?shape@QGraphicsRectItem@@UEBA?AVQPainterPath@@XZ"
"?shape@QGraphicsSimpleTextItem@@UEBA?AVQPainterPath@@XZ"
"?shape@QGraphicsTextItem@@UEBA?AVQPainterPath@@XZ"
"?shape@QGraphicsWidget@@UEBA?AVQPainterPath@@XZ"
"?shape@QRubberBand@@QEBA?AW4Shape@1@XZ"
"?shape@QTabBar@@QEBA?AW4Shape@1@XZ"
"?shapeMode@QGraphicsPixmapItem@@QEBA?AW4ShapeMode@1@XZ"
"?sharedPainter@QWidget@@MEBAPEAVQPainter@@XZ"
"?sharedPainter@QWidgetPrivate@@QEBAPEAVQPainter@@XZ"
"?shear@QGraphicsView@@QEAAXNN@Z"
"?shearList@QGraphicsItemAnimation@@QEBA?AV?$QList@U?$pair@NVQPointF@@@std@@@@XZ"
"?shortcut@QAbstractButton@@QEBA?AVQKeySequence@@XZ"
"?shouldDiscardSyncRequest@QWidgetPrivate@@QEBA_NXZ"
"?shouldPaintOnScreen@QWidgetPrivate@@QEBA_NXZ"
"?shouldSetFocus@QApplicationPrivate@@CA_NPEAVQWidget@@W4FocusPolicy@Qt@@@Z"
"?show@QGraphicsItem@@QEAAXXZ"
"?show@QSystemTrayIcon@@QEAAXXZ"
"?show@QWidget@@QEAAXXZ"
"?showChildren@QWidgetPrivate@@QEAAX_N@Z"
"?showColumn@QTableView@@QEAAXH@Z"
"?showColumn@QTreeView@@QEAAXH@Z"
"?showContextMenu@QFileDialogPrivate@@QEAAXAEBVQPoint@@@Z"
"?showDetailsView@QFileDialogPrivate@@QEAAXXZ"
"?showDropIndicator@QAbstractItemView@@QEBA_NXZ"
"?showEvent@QAbstractSpinBox@@MEAAXPEAVQShowEvent@@@Z"
"?showEvent@QComboBox@@MEAAXPEAVQShowEvent@@@Z"
"?showEvent@QComboBoxPrivateContainer@@MEAAXPEAVQShowEvent@@@Z"
"?showEvent@QDialog@@MEAAXPEAVQShowEvent@@@Z"
"?showEvent@QGraphicsProxyWidget@@MEAAXPEAVQShowEvent@@@Z"
"?showEvent@QGraphicsView@@MEAAXPEAVQShowEvent@@@Z"
"?showEvent@QGraphicsWidget@@MEAAXPEAVQShowEvent@@@Z"
"?showEvent@QMdiArea@@MEAAXPEAVQShowEvent@@@Z"
"?showEvent@QMdiSubWindow@@MEAAXPEAVQShowEvent@@@Z"
"?showEvent@QMessageBox@@MEAAXPEAVQShowEvent@@@Z"
"?showEvent@QPlainTextEdit@@MEAAXPEAVQShowEvent@@@Z"
"?showEvent@QProgressDialog@@MEAAXPEAVQShowEvent@@@Z"
"?showEvent@QRubberBand@@MEAAXPEAVQShowEvent@@@Z"
"?showEvent@QSizeGrip@@MEAAXPEAVQShowEvent@@@Z"
"?showEvent@QStatusBar@@MEAAXPEAVQShowEvent@@@Z"
"?showEvent@QTabBar@@MEAAXPEAVQShowEvent@@@Z"
"?showEvent@QTabWidget@@MEAAXPEAVQShowEvent@@@Z"
"?showEvent@QTextEdit@@MEAAXPEAVQShowEvent@@@Z"
"?showEvent@QToolBox@@MEAAXPEAVQShowEvent@@@Z"
"?showEvent@QWidget@@MEAAXPEAVQShowEvent@@@Z"
"?showFullScreen@QWidget@@QEAAXXZ"
"?showGrid@QTableView@@QEBA_NXZ"
"?showHeader@QFileDialogPrivate@@QEAAXPEAVQAction@@@Z"
"?showHidden@QFileDialogPrivate@@QEAAXXZ"
"?showListView@QFileDialogPrivate@@QEAAXXZ"
"?showMaximized@QWidget@@QEAAXXZ"
"?showMenu@QPushButton@@QEAAXXZ"
"?showMenu@QToolButton@@QEAAXXZ"
"?showMessage@QErrorMessage@@QEAAXAEBVQString@@0@Z"
"?showMessage@QErrorMessage@@QEAAXAEBVQString@@@Z"
"?showMessage@QSplashScreen@@QEAAXAEBVQString@@HAEBVQColor@@@Z"
"?showMessage@QStatusBar@@QEAAXAEBVQString@@H@Z"
"?showMessage@QSystemTrayIcon@@QEAAXAEBVQString@@0AEBVQIcon@@H@Z"
"?showMessage@QSystemTrayIcon@@QEAAXAEBVQString@@0W4MessageIcon@1@H@Z"
"?showMinimized@QWidget@@QEAAXXZ"
"?showNextMonth@QCalendarWidget@@QEAAXXZ"
"?showNextYear@QCalendarWidget@@QEAAXXZ"
"?showNormal@QWidget@@QEAAXXZ"
"?showPopup@QComboBox@@UEAAXXZ"
"?showPreviousMonth@QCalendarWidget@@QEAAXXZ"
"?showPreviousYear@QCalendarWidget@@QEAAXXZ"
"?showRow@QTableView@@QEAAXH@Z"
"?showSection@QHeaderView@@QEAAXH@Z"
"?showSelectedDate@QCalendarWidget@@QEAAXXZ"
"?showShaded@QMdiSubWindow@@QEAAXXZ"
"?showSystemMenu@QMdiSubWindow@@QEAAXXZ"
"?showTearOffMenu@QMenu@@QEAAXAEBVQPoint@@@Z"
"?showTearOffMenu@QMenu@@QEAAXXZ"
"?showText@QToolTip@@SAXAEBVQPoint@@AEBVQString@@PEAVQWidget@@AEBVQRect@@H@Z"
"?showText@QWhatsThis@@SAXAEBVQPoint@@AEBVQString@@PEAVQWidget@@@Z"
"?showToday@QCalendarWidget@@QEAAXXZ"
"?show_helper@QWidgetPrivate@@QEAAXXZ"
"?show_recursive@QWidgetPrivate@@QEAAXXZ"
"?show_sys@QWidgetPrivate@@QEAAXXZ"
"?siblingOrderChange@QGraphicsItemPrivate@@UEAAXXZ"
"?sideWidget@QWizard@@QEBAPEAVQWidget@@XZ"
"?sidebarUrls@QFileDialog@@QEBA?AV?$QList@VQUrl@@@@XZ"
"?singleStep@QAbstractSlider@@QEBAHXZ"
"?singleStep@QDoubleSpinBox@@QEBANXZ"
"?singleStep@QSpinBox@@QEBAHXZ"
"?size@QColormap@@QEBAHXZ"
"?size@QGraphicsWidget@@QEBA?AVQSizeF@@XZ"
"?size@QWidget@@QEBA?AVQSize@@XZ"
"?size@QWidgetTextControl@@QEBA?AVQSizeF@@XZ"
"?sizeAdjustPolicy@QAbstractScrollArea@@QEBA?AW4SizeAdjustPolicy@1@XZ"
"?sizeAdjustPolicy@QComboBox@@QEBA?AW4SizeAdjustPolicy@1@XZ"
"?sizeConstraint@QLayout@@QEBA?AW4SizeConstraint@1@XZ"
"?sizeFromContent@QDockWidgetLayout@@QEBA?AVQSize@@AEBV2@_N@Z"
"?sizeFromContents@QCommonStyle@@UEBA?AVQSize@@W4ContentsType@QStyle@@PEBVQStyleOption@@AEBV2@PEBVQWidget@@@Z"
"?sizeFromContents@QFusionStyle@@UEBA?AVQSize@@W4ContentsType@QStyle@@PEBVQStyleOption@@AEBV2@PEBVQWidget@@@Z"
"?sizeFromContents@QPixmapStyle@@UEBA?AVQSize@@W4ContentsType@QStyle@@PEBVQStyleOption@@AEBV2@PEBVQWidget@@@Z"
"?sizeFromContents@QProxyStyle@@UEBA?AVQSize@@W4ContentsType@QStyle@@PEBVQStyleOption@@AEBV2@PEBVQWidget@@@Z"
"?sizeFromContents@QWindowsStyle@@UEBA?AVQSize@@W4ContentsType@QStyle@@PEBVQStyleOption@@AEBV2@PEBVQWidget@@@Z"
"?sizeHint@QAbstractScrollArea@@UEBA?AVQSize@@XZ"
"?sizeHint@QAbstractSpinBox@@UEBA?AVQSize@@XZ"
"?sizeHint@QBoxLayout@@UEBA?AVQSize@@XZ"
"?sizeHint@QCalendarWidget@@UEBA?AVQSize@@XZ"
"?sizeHint@QCheckBox@@UEBA?AVQSize@@XZ"
"?sizeHint@QColumnView@@UEBA?AVQSize@@XZ"
"?sizeHint@QComboBox@@UEBA?AVQSize@@XZ"
"?sizeHint@QCommandLinkButton@@UEBA?AVQSize@@XZ"
"?sizeHint@QDateTimeEdit@@UEBA?AVQSize@@XZ"
"?sizeHint@QDial@@UEBA?AVQSize@@XZ"
"?sizeHint@QDialog@@UEBA?AVQSize@@XZ"
"?sizeHint@QDockWidgetLayout@@UEBA?AVQSize@@XZ"
"?sizeHint@QFontComboBox@@UEBA?AVQSize@@XZ"
"?sizeHint@QFormLayout@@UEBA?AVQSize@@XZ"
"?sizeHint@QFrame@@UEBA?AVQSize@@XZ"
"?sizeHint@QGraphicsAnchorLayout@@MEBA?AVQSizeF@@W4SizeHint@Qt@@AEBV2@@Z"
"?sizeHint@QGraphicsGridLayout@@UEBA?AVQSizeF@@W4SizeHint@Qt@@AEBV2@@Z"
"?sizeHint@QGraphicsLinearLayout@@UEBA?AVQSizeF@@W4SizeHint@Qt@@AEBV2@@Z"
"?sizeHint@QGraphicsProxyWidget@@MEBA?AVQSizeF@@W4SizeHint@Qt@@AEBV2@@Z"
"?sizeHint@QGraphicsView@@UEBA?AVQSize@@XZ"
"?sizeHint@QGraphicsWidget@@MEBA?AVQSizeF@@W4SizeHint@Qt@@AEBV2@@Z"
"?sizeHint@QGridLayout@@UEBA?AVQSize@@XZ"
"?sizeHint@QHeaderView@@UEBA?AVQSize@@XZ"
"?sizeHint@QInputDialog@@UEBA?AVQSize@@XZ"
"?sizeHint@QItemDelegate@@UEBA?AVQSize@@AEBVQStyleOptionViewItem@@AEBVQModelIndex@@@Z"
"?sizeHint@QLCDNumber@@UEBA?AVQSize@@XZ"
"?sizeHint@QLabel@@UEBA?AVQSize@@XZ"
"?sizeHint@QLineEdit@@UEBA?AVQSize@@XZ"
"?sizeHint@QListWidgetItem@@QEBA?AVQSize@@XZ"
"?sizeHint@QMdiArea@@UEBA?AVQSize@@XZ"
"?sizeHint@QMdiSubWindow@@UEBA?AVQSize@@XZ"
"?sizeHint@QMenu@@UEBA?AVQSize@@XZ"
"?sizeHint@QMenuBar@@UEBA?AVQSize@@XZ"
"?sizeHint@QProgressBar@@UEBA?AVQSize@@XZ"
"?sizeHint@QProgressDialog@@UEBA?AVQSize@@XZ"
"?sizeHint@QPushButton@@UEBA?AVQSize@@XZ"
"?sizeHint@QRadioButton@@UEBA?AVQSize@@XZ"
"?sizeHint@QScrollArea@@UEBA?AVQSize@@XZ"
"?sizeHint@QScrollBar@@UEBA?AVQSize@@XZ"
"?sizeHint@QSizeGrip@@UEBA?AVQSize@@XZ"
"?sizeHint@QSlider@@UEBA?AVQSize@@XZ"
"?sizeHint@QSpacerItem@@UEBA?AVQSize@@XZ"
"?sizeHint@QSplitter@@UEBA?AVQSize@@XZ"
"?sizeHint@QSplitterHandle@@UEBA?AVQSize@@XZ"
"?sizeHint@QStackedLayout@@UEBA?AVQSize@@XZ"
"?sizeHint@QStyledItemDelegate@@UEBA?AVQSize@@AEBVQStyleOptionViewItem@@AEBVQModelIndex@@@Z"
"?sizeHint@QTabBar@@UEBA?AVQSize@@XZ"
"?sizeHint@QTabWidget@@UEBA?AVQSize@@XZ"
"?sizeHint@QTableWidgetItem@@QEBA?AVQSize@@XZ"
"?sizeHint@QToolButton@@UEBA?AVQSize@@XZ"
"?sizeHint@QTreeWidgetItem@@QEBA?AVQSize@@H@Z"
"?sizeHint@QWidget@@UEBA?AVQSize@@XZ"
"?sizeHint@QWidgetItem@@UEBA?AVQSize@@XZ"
"?sizeHint@QWidgetItemV2@@UEBA?AVQSize@@XZ"
"?sizeHint@QWizard@@UEBA?AVQSize@@XZ"
"?sizeHintChanged@QAbstractItemDelegate@@QEAAXAEBVQModelIndex@@@Z"
"?sizeHintForColumn@QAbstractItemView@@UEBAHH@Z"
"?sizeHintForColumn@QTableView@@MEBAHH@Z"
"?sizeHintForColumn@QTreeView@@MEBAHH@Z"
"?sizeHintForIndex@QAbstractItemView@@QEBA?AVQSize@@AEBVQModelIndex@@@Z"
"?sizeHintForRow@QAbstractItemView@@UEBAHH@Z"
"?sizeHintForRow@QTableView@@MEBAHH@Z"
"?sizeIncrement@QWidget@@QEBA?AVQSize@@XZ"
"?sizePolicy@QGraphicsAnchor@@QEBA?AW4Policy@QSizePolicy@@XZ"
"?sizePolicy@QGraphicsLayoutItem@@QEBA?AVQSizePolicy@@XZ"
"?sizePolicy@QSpacerItem@@QEBA?AVQSizePolicy@@XZ"
"?sizePolicy@QWidget@@QEBA?AVQSizePolicy@@XZ"
"?sizes@QSplitter@@QEBA?AV?$QList@H@@XZ"
"?slide@QTabBarPrivate@@QEAAXHH@Z"
"?sliderChange@QAbstractSlider@@MEAAXW4SliderChange@1@@Z"
"?sliderChange@QDial@@MEAAXW4SliderChange@QAbstractSlider@@@Z"
"?sliderChange@QScrollBar@@MEAAXW4SliderChange@QAbstractSlider@@@Z"
"?sliderMoved@QAbstractSlider@@QEAAXH@Z"
"?sliderPosition@QAbstractSlider@@QEBAHXZ"
"?sliderPositionFromValue@QStyle@@SAHHHHH_N@Z"
"?sliderPressed@QAbstractSlider@@QEAAXXZ"
"?sliderReleased@QAbstractSlider@@QEAAXXZ"
"?sliderSizeFromContents@QPixmapStyle@@IEBA?AVQSize@@PEBVQStyleOption@@AEBV2@PEBVQWidget@@@Z"
"?sliderValueFromPosition@QStyle@@SAHHHHH_N@Z"
"?smallDecimalPoint@QLCDNumber@@QEBA_NXZ"
"?sortByColumn@QTableView@@QEAAXHW4SortOrder@Qt@@@Z"
"?sortByColumn@QTreeView@@QEAAXHW4SortOrder@Qt@@@Z"
"?sortChildren@QTreeWidgetItem@@AEAAXHW4SortOrder@Qt@@_N@Z"
"?sortChildren@QTreeWidgetItem@@QEAAXHW4SortOrder@Qt@@@Z"
"?sortColumn@QTreeWidget@@QEBAHXZ"
"?sortIndicatorChanged@QHeaderView@@QEAAXHW4SortOrder@Qt@@@Z"
"?sortIndicatorChanged@QTreeViewPrivate@@QEAAXHW4SortOrder@Qt@@@Z"
"?sortIndicatorClearableChanged@QHeaderView@@QEAAX_N@Z"
"?sortIndicatorOrder@QHeaderView@@QEBA?AW4SortOrder@Qt@@XZ"
"?sortIndicatorSection@QHeaderView@@QEBAHXZ"
"?sortItems@QListWidget@@QEAAXW4SortOrder@Qt@@@Z"
"?sortItems@QTableWidget@@QEAAXHW4SortOrder@Qt@@@Z"
"?sortItems@QTreeWidget@@QEAAXHW4SortOrder@Qt@@@Z"
"?sortOrder@QListWidget@@AEBA?AW4SortOrder@Qt@@XZ"
"?source@QGraphicsEffect@@QEBAPEAVQGraphicsEffectSource@@XZ"
"?source@QGraphicsSceneDragDropEvent@@QEBAPEAVQWidget@@XZ"
"?source@QGraphicsSceneMouseEvent@@QEBA?AW4MouseEventSource@Qt@@XZ"
"?source@QTextBrowser@@QEBA?AVQUrl@@XZ"
"?sourceBoundingRect@QGraphicsEffect@@IEBA?AVQRectF@@W4CoordinateSystem@Qt@@@Z"
"?sourceChanged@QGraphicsEffect@@MEAAXV?$QFlags@W4ChangeFlag@QGraphicsEffect@@@@@Z"
"?sourceChanged@QTextBrowser@@QEAAXAEBVQUrl@@@Z"
"?sourceIsPixmap@QGraphicsEffect@@IEBA_NXZ"
"?sourcePixmap@QGraphicsEffect@@IEBA?AVQPixmap@@W4CoordinateSystem@Qt@@PEAVQPoint@@W4PixmapPadMode@1@@Z"
"?sourceType@QTextBrowser@@QEBA?AW4ResourceType@QTextDocument@@XZ"
"?spacerItem@QLayoutItem@@UEAAPEAVQSpacerItem@@XZ"
"?spacerItem@QSpacerItem@@UEAAPEAV1@XZ"
"?spacerItemFactoryMethod@QLayoutPrivate@@2P6APEAVQSpacerItem@@PEBVQLayout@@HHW4Policy@QSizePolicy@@1@ZEA"
"?spacing@QBoxLayout@@UEBAHXZ"
"?spacing@QComboBoxPrivateContainer@@QEBAHXZ"
"?spacing@QFormLayout@@UEBAHXZ"
"?spacing@QGraphicsAnchor@@QEBANXZ"
"?spacing@QGraphicsLinearLayout@@QEBANXZ"
"?spacing@QGridLayout@@UEBAHXZ"
"?spacing@QLayout@@UEBAHXZ"
"?spacing@QListView@@QEBAHXZ"
"?spanAngle@QGraphicsEllipseItem@@QEBAHXZ"
"?specialValueText@QAbstractSpinBox@@QEBA?AVQString@@XZ"
"?speed@QProgressStyleAnimation@@QEBAHXZ"
"?splitDockWidget@QMainWindow@@QEAAXPEAVQDockWidget@@0W4Orientation@Qt@@@Z"
"?splitPath@QCompleter@@UEBA?AV?$QList@VQString@@@@AEBVQString@@@Z"
"?splitPath@QFSCompleter@@UEBA?AV?$QList@VQString@@@@AEBVQString@@@Z"
"?splitter@QSplitterHandle@@QEBAPEAVQSplitter@@XZ"
"?splitterMoved@QSplitter@@QEAAXHH@Z"
"?stack@QUndoView@@QEBAPEAVQUndoStack@@XZ"
"?stackBefore@QGraphicsItem@@QEAAXPEBV1@@Z"
"?stackUnder@QWidget@@QEAAXPEAV1@@Z"
"?stackUnder_sys@QWidgetPrivate@@QEAAXPEAVQWidget@@@Z"
"?stackingMode@QStackedLayout@@QEBA?AW4StackingMode@1@XZ"
"?standardButton@QDialogButtonBox@@QEBA?AW4StandardButton@1@PEAVQAbstractButton@@@Z"
"?standardButton@QMessageBox@@QEBA?AW4StandardButton@1@PEAVQAbstractButton@@@Z"
"?standardButtons@QDialogButtonBox@@QEBA?AV?$QFlags@W4StandardButton@QDialogButtonBox@@@@XZ"
"?standardButtons@QMessageBox@@QEBA?AV?$QFlags@W4StandardButton@QMessageBox@@@@XZ"
"?standardColor@QColorDialog@@SA?AVQColor@@H@Z"
"?standardIcon@QCommonStyle@@UEBA?AVQIcon@@W4StandardPixmap@QStyle@@PEBVQStyleOption@@PEBVQWidget@@@Z"
"?standardIcon@QFusionStyle@@UEBA?AVQIcon@@W4StandardPixmap@QStyle@@PEBVQStyleOption@@PEBVQWidget@@@Z"
"?standardIcon@QMessageBox@@SA?AVQPixmap@@W4Icon@1@@Z"
"?standardIcon@QProxyStyle@@UEBA?AVQIcon@@W4StandardPixmap@QStyle@@PEBVQStyleOption@@PEBVQWidget@@@Z"
"?standardIcon@QWindowsStyle@@UEBA?AVQIcon@@W4StandardPixmap@QStyle@@PEBVQStyleOption@@PEBVQWidget@@@Z"
"?standardPalette@QFusionStyle@@UEBA?AVQPalette@@XZ"
"?standardPalette@QProxyStyle@@UEBA?AVQPalette@@XZ"
"?standardPalette@QStyle@@UEBA?AVQPalette@@XZ"
"?standardPixmap@QCommonStyle@@UEBA?AVQPixmap@@W4StandardPixmap@QStyle@@PEBVQStyleOption@@PEBVQWidget@@@Z"
"?standardPixmap@QFusionStyle@@UEBA?AVQPixmap@@W4StandardPixmap@QStyle@@PEBVQStyleOption@@PEBVQWidget@@@Z"
"?standardPixmap@QProxyStyle@@UEBA?AVQPixmap@@W4StandardPixmap@QStyle@@PEBVQStyleOption@@PEBVQWidget@@@Z"
"?standardPixmap@QWindowsStyle@@UEBA?AVQPixmap@@W4StandardPixmap@QStyle@@PEBVQStyleOption@@PEBVQWidget@@@Z"
"?start@QStyleAnimation@@QEAAXXZ"
"?start@QWidgetLineControl@@QEBAHXZ"
"?startAndEndColumns@QTreeViewPrivate@@QEBA?AU?$pair@HH@std@@AEBVQRect@@@Z"
"?startAngle@QGraphicsEllipseItem@@QEBAHXZ"
"?startAnimation@QCommonStylePrivate@@QEBAXPEAVQStyleAnimation@@@Z"
"?startAutoScroll@QAbstractItemView@@IEAAXXZ"
"?startCenterPoint@QPinchGesture@@QEBA?AVQPointF@@XZ"
"?startDrag@QAbstractItemView@@MEAAXV?$QFlags@W4DropAction@Qt@@@@@Z"
"?startDrag@QListView@@MEAAXV?$QFlags@W4DropAction@Qt@@@@@Z"
"?startDragDistance@QApplication@@SAHXZ"
"?startDragTime@QApplication@@SAHXZ"
"?startId@QWizard@@QEBAHXZ"
"?startImage@QBlendStyleAnimation@@QEBA?AVQImage@@XZ"
"?startTime@QStyleAnimation@@QEBA?AVQTime@@XZ"
"?startValue@QNumberStyleAnimation@@QEBANXZ"
"?state@QAbstractItemView@@IEBA?AW4State@1@XZ"
"?state@QAccessibleWidget@@UEBA?AUState@QAccessible@@XZ"
"?state@QGesture@@QEBA?AW4GestureState@Qt@@XZ"
"?state@QScroller@@QEBA?AW4State@1@XZ"
"?stateChanged@QCheckBox@@QEAAXH@Z"
"?stateChanged@QScroller@@QEAAXW4State@1@@Z"
"?staticContents@QWidgetRepaintManager@@QEBA?AVQRegion@@PEAVQWidget@@AEBVQRect@@@Z"
"?staticMetaObject@QAbstractButton@@2UQMetaObject@@B" DATA
"?staticMetaObject@QAbstractItemDelegate@@2UQMetaObject@@B" DATA
"?staticMetaObject@QAbstractItemView@@2UQMetaObject@@B" DATA
"?staticMetaObject@QAbstractScrollArea@@2UQMetaObject@@B" DATA
"?staticMetaObject@QAbstractSlider@@2UQMetaObject@@B" DATA
"?staticMetaObject@QAbstractSpinBox@@2UQMetaObject@@B" DATA
"?staticMetaObject@QApplication@@2UQMetaObject@@B" DATA
"?staticMetaObject@QBlendStyleAnimation@@2UQMetaObject@@B" DATA
"?staticMetaObject@QBoxLayout@@2UQMetaObject@@B" DATA
"?staticMetaObject@QButtonGroup@@2UQMetaObject@@B" DATA
"?staticMetaObject@QCalendarWidget@@2UQMetaObject@@B" DATA
"?staticMetaObject@QCheckBox@@2UQMetaObject@@B" DATA
"?staticMetaObject@QColorDialog@@2UQMetaObject@@B" DATA
"?staticMetaObject@QColumnView@@2UQMetaObject@@B" DATA
"?staticMetaObject@QComboBox@@2UQMetaObject@@B" DATA
"?staticMetaObject@QDial@@2UQMetaObject@@B" DATA
"?staticMetaObject@QDialog@@2UQMetaObject@@B" DATA
"?staticMetaObject@QDialogButtonBox@@2UQMetaObject@@B" DATA
"?staticMetaObject@QDockWidget@@2UQMetaObject@@B" DATA
"?staticMetaObject@QDockWidgetLayout@@2UQMetaObject@@B" DATA
"?staticMetaObject@QDoubleSpinBox@@2UQMetaObject@@B" DATA
"?staticMetaObject@QErrorMessage@@2UQMetaObject@@B" DATA
"?staticMetaObject@QFileDialog@@2UQMetaObject@@B" DATA
"?staticMetaObject@QFlickGesture@@2UQMetaObject@@B" DATA
"?staticMetaObject@QFocusFrame@@2UQMetaObject@@B" DATA
"?staticMetaObject@QFontComboBox@@2UQMetaObject@@B" DATA
"?staticMetaObject@QFontDialog@@2UQMetaObject@@B" DATA
"?staticMetaObject@QFormLayout@@2UQMetaObject@@B" DATA
"?staticMetaObject@QFrame@@2UQMetaObject@@B" DATA
"?staticMetaObject@QFusionStyle@@2UQMetaObject@@B" DATA
"?staticMetaObject@QGesture@@2UQMetaObject@@B" DATA
"?staticMetaObject@QGraphicsAnchor@@2UQMetaObject@@B" DATA
"?staticMetaObject@QGraphicsBlurEffect@@2UQMetaObject@@B" DATA
"?staticMetaObject@QGraphicsColorizeEffect@@2UQMetaObject@@B" DATA
"?staticMetaObject@QGraphicsDropShadowEffect@@2UQMetaObject@@B" DATA
"?staticMetaObject@QGraphicsEffect@@2UQMetaObject@@B" DATA
"?staticMetaObject@QGraphicsEffectSource@@2UQMetaObject@@B" DATA
"?staticMetaObject@QGraphicsItemAnimation@@2UQMetaObject@@B" DATA
"?staticMetaObject@QGraphicsObject@@2UQMetaObject@@B" DATA
"?staticMetaObject@QGraphicsOpacityEffect@@2UQMetaObject@@B" DATA
"?staticMetaObject@QGraphicsProxyWidget@@2UQMetaObject@@B" DATA
"?staticMetaObject@QGraphicsRotation@@2UQMetaObject@@B" DATA
"?staticMetaObject@QGraphicsScale@@2UQMetaObject@@B" DATA
"?staticMetaObject@QGraphicsScene@@2UQMetaObject@@B" DATA
"?staticMetaObject@QGraphicsTextItem@@2UQMetaObject@@B" DATA
"?staticMetaObject@QGraphicsTransform@@2UQMetaObject@@B" DATA
"?staticMetaObject@QGraphicsView@@2UQMetaObject@@B" DATA
"?staticMetaObject@QGraphicsWidget@@2UQMetaObject@@B" DATA
"?staticMetaObject@QGridLayout@@2UQMetaObject@@B" DATA
"?staticMetaObject@QGroupBox@@2UQMetaObject@@B" DATA
"?staticMetaObject@QHBoxLayout@@2UQMetaObject@@B" DATA
"?staticMetaObject@QHeaderView@@2UQMetaObject@@B" DATA
"?staticMetaObject@QInputDialog@@2UQMetaObject@@B" DATA
"?staticMetaObject@QItemDelegate@@2UQMetaObject@@B" DATA
"?staticMetaObject@QKeySequenceEdit@@2UQMetaObject@@B" DATA
"?staticMetaObject@QLCDNumber@@2UQMetaObject@@B" DATA
"?staticMetaObject@QLabel@@2UQMetaObject@@B" DATA
"?staticMetaObject@QLayout@@2UQMetaObject@@B" DATA
"?staticMetaObject@QLineEdit@@2UQMetaObject@@B" DATA
"?staticMetaObject@QListView@@2UQMetaObject@@B" DATA
"?staticMetaObject@QListWidget@@2UQMetaObject@@B" DATA
"?staticMetaObject@QMainWindow@@2UQMetaObject@@B" DATA
"?staticMetaObject@QMdiArea@@2UQMetaObject@@B" DATA
"?staticMetaObject@QMdiSubWindow@@2UQMetaObject@@B" DATA
"?staticMetaObject@QMenu@@2UQMetaObject@@B" DATA
"?staticMetaObject@QMenuBar@@2UQMetaObject@@B" DATA
"?staticMetaObject@QMessageBox@@2UQMetaObject@@B" DATA
"?staticMetaObject@QNumberStyleAnimation@@2UQMetaObject@@B" DATA
"?staticMetaObject@QPanGesture@@2UQMetaObject@@B" DATA
"?staticMetaObject@QPinchGesture@@2UQMetaObject@@B" DATA
"?staticMetaObject@QPixmapBlurFilter@@2UQMetaObject@@B" DATA
"?staticMetaObject@QPixmapColorizeFilter@@2UQMetaObject@@B" DATA
"?staticMetaObject@QPixmapConvolutionFilter@@2UQMetaObject@@B" DATA
"?staticMetaObject@QPixmapDropShadowFilter@@2UQMetaObject@@B" DATA
"?staticMetaObject@QPixmapFilter@@2UQMetaObject@@B" DATA
"?staticMetaObject@QPixmapStyle@@2UQMetaObject@@B" DATA
"?staticMetaObject@QPlainTextDocumentLayout@@2UQMetaObject@@B" DATA
"?staticMetaObject@QPlainTextEdit@@2UQMetaObject@@B" DATA
"?staticMetaObject@QProgressBar@@2UQMetaObject@@B" DATA
"?staticMetaObject@QProgressDialog@@2UQMetaObject@@B" DATA
"?staticMetaObject@QProgressStyleAnimation@@2UQMetaObject@@B" DATA
"?staticMetaObject@QProxyStyle@@2UQMetaObject@@B" DATA
"?staticMetaObject@QPushButton@@2UQMetaObject@@B" DATA
"?staticMetaObject@QRadioButton@@2UQMetaObject@@B" DATA
"?staticMetaObject@QRhiWidget@@2UQMetaObject@@B" DATA
"?staticMetaObject@QRubberBand@@2UQMetaObject@@B" DATA
"?staticMetaObject@QScrollArea@@2UQMetaObject@@B" DATA
"?staticMetaObject@QScrollBar@@2UQMetaObject@@B" DATA
"?staticMetaObject@QScrollbarStyleAnimation@@2UQMetaObject@@B" DATA
"?staticMetaObject@QScroller@@2UQMetaObject@@B" DATA
"?staticMetaObject@QSizeGrip@@2UQMetaObject@@B" DATA
"?staticMetaObject@QSizePolicy@@2UQMetaObject@@B" DATA
"?staticMetaObject@QSlider@@2UQMetaObject@@B" DATA
"?staticMetaObject@QSpinBox@@2UQMetaObject@@B" DATA
"?staticMetaObject@QSplashScreen@@2UQMetaObject@@B" DATA
"?staticMetaObject@QSplitter@@2UQMetaObject@@B" DATA
"?staticMetaObject@QSplitterHandle@@2UQMetaObject@@B" DATA
"?staticMetaObject@QStackedLayout@@2UQMetaObject@@B" DATA
"?staticMetaObject@QStackedWidget@@2UQMetaObject@@B" DATA
"?staticMetaObject@QStatusBar@@2UQMetaObject@@B" DATA
"?staticMetaObject@QStyle@@2UQMetaObject@@B" DATA
"?staticMetaObject@QStyleAnimation@@2UQMetaObject@@B" DATA
"?staticMetaObject@QStylePlugin@@2UQMetaObject@@B" DATA
"?staticMetaObject@QStyledItemDelegate@@2UQMetaObject@@B" DATA
"?staticMetaObject@QSwipeGesture@@2UQMetaObject@@B" DATA
"?staticMetaObject@QSystemTrayIcon@@2UQMetaObject@@B" DATA
"?staticMetaObject@QTabBar@@2UQMetaObject@@B" DATA
"?staticMetaObject@QTabWidget@@2UQMetaObject@@B" DATA
"?staticMetaObject@QTableView@@2UQMetaObject@@B" DATA
"?staticMetaObject@QTableWidget@@2UQMetaObject@@B" DATA
"?staticMetaObject@QTapAndHoldGesture@@2UQMetaObject@@B" DATA
"?staticMetaObject@QTapGesture@@2UQMetaObject@@B" DATA
"?staticMetaObject@QTextBrowser@@2UQMetaObject@@B" DATA
"?staticMetaObject@QTextEdit@@2UQMetaObject@@B" DATA
"?staticMetaObject@QTimeEdit@@2UQMetaObject@@B" DATA
"?staticMetaObject@QToolBar@@2UQMetaObject@@B" DATA
"?staticMetaObject@QToolBox@@2UQMetaObject@@B" DATA
"?staticMetaObject@QToolButton@@2UQMetaObject@@B" DATA
"?staticMetaObject@QTreeView@@2UQMetaObject@@B" DATA
"?staticMetaObject@QTreeWidget@@2UQMetaObject@@B" DATA
"?staticMetaObject@QUndoView@@2UQMetaObject@@B" DATA
"?staticMetaObject@QVBoxLayout@@2UQMetaObject@@B" DATA
"?staticMetaObject@QWidget@@2UQMetaObject@@B" DATA
"?staticMetaObject@QWidgetAction@@2UQMetaObject@@B" DATA
"?staticMetaObject@QWidgetLineControl@@2UQMetaObject@@B" DATA
"?staticMetaObject@QWidgetPrivate@@2UQMetaObject@@B" DATA
"?staticMetaObject@QWidgetRepaintManager@@2UQMetaObject@@B" DATA
"?staticMetaObject@QWidgetTextControl@@2UQMetaObject@@B" DATA
"?staticMetaObject@QWindowContainer@@2UQMetaObject@@B" DATA
"?staticMetaObject@QWindowsStyle@@2UQMetaObject@@B" DATA
"?staticMetaObject@QWizard@@2UQMetaObject@@B" DATA
"?staticMetaObject@QWizardPage@@2UQMetaObject@@B" DATA
"?stationary@QTouchEventWidgetSequence@QTest@@UEAAAEAV12@H@Z"
"?statusBar@QMainWindow@@QEBAPEAVQStatusBar@@XZ"
"?statusTip@QListWidgetItem@@QEBA?AVQString@@XZ"
"?statusTip@QTableWidgetItem@@QEBA?AVQString@@XZ"
"?statusTip@QTreeWidgetItem@@QEBA?AVQString@@H@Z"
"?statusTip@QWidget@@QEBA?AVQString@@XZ"
"?stealKeyboardGrab@QWidgetPrivate@@QEAA_N_N@Z"
"?stealMouseGrab@QWidgetPrivate@@QEAA_N_N@Z"
"?stepBy@QAbstractSpinBox@@UEAAXH@Z"
"?stepBy@QDateTimeEdit@@UEAAXH@Z"
"?stepDown@QAbstractSpinBox@@QEAAXXZ"
"?stepEnabled@QAbstractSpinBox@@MEBA?AV?$QFlags@W4StepEnabledFlag@QAbstractSpinBox@@@@XZ"
"?stepEnabled@QDateTimeEdit@@MEBA?AV?$QFlags@W4StepEnabledFlag@QAbstractSpinBox@@@@XZ"
"?stepType@QDoubleSpinBox@@QEBA?AW4StepType@QAbstractSpinBox@@XZ"
"?stepType@QSpinBox@@QEBA?AW4StepType@QAbstractSpinBox@@XZ"
"?stepUp@QAbstractSpinBox@@QEAAXXZ"
"?stickyFocus@QGraphicsScene@@QEBA_NXZ"
"?stop@QScroller@@QEAAXXZ"
"?stopAnimation@QCommonStylePrivate@@QEBAXPEBVQObject@@@Z"
"?stopAutoScroll@QAbstractItemView@@IEAAXXZ"
"?storeDragDropEvent@QGraphicsViewPrivate@@QEAAXPEBVQGraphicsSceneDragDropEvent@@@Z"
"?storeExpanded@QTreeViewPrivate@@QEAA_NAEBVQPersistentModelIndex@@@Z"
"?storeMouseEvent@QGraphicsViewPrivate@@QEAAXPEAVQMouseEvent@@@Z"
"?strength@QGraphicsColorizeEffect@@QEBANXZ"
"?strength@QPixmapColorizeFilter@@QEBANXZ"
"?strengthChanged@QGraphicsColorizeEffect@@QEAAXN@Z"
"?stretch@QBoxLayout@@QEBAHH@Z"
"?stretchFactor@QGraphicsLinearLayout@@QEBAHPEAVQGraphicsLayoutItem@@@Z"
"?stretchLastSection@QHeaderView@@QEBA_NXZ"
"?stretchSectionCount@QHeaderView@@QEBAHXZ"
"?stripString@QWidgetLineControl@@AEBA?AVQString@@AEBV2@@Z"
"?style@QApplication@@SAPEAVQStyle@@XZ"
"?style@QGraphicsScene@@QEBAPEAVQStyle@@XZ"
"?style@QGraphicsWidget@@QEBAPEAVQStyle@@XZ"
"?style@QWidget@@QEBAPEAVQStyle@@XZ"
"?styleHint@QCommonStyle@@UEBAHW4StyleHint@QStyle@@PEBVQStyleOption@@PEBVQWidget@@PEAVQStyleHintReturn@@@Z"
"?styleHint@QDialogPrivate@@QEBA?AVQVariant@@W4StyleHint@QPlatformDialogHelper@@@Z"
"?styleHint@QFusionStyle@@UEBAHW4StyleHint@QStyle@@PEBVQStyleOption@@PEBVQWidget@@PEAVQStyleHintReturn@@@Z"
"?styleHint@QPixmapStyle@@UEBAHW4StyleHint@QStyle@@PEBVQStyleOption@@PEBVQWidget@@PEAVQStyleHintReturn@@@Z"
"?styleHint@QProxyStyle@@UEBAHW4StyleHint@QStyle@@PEBVQStyleOption@@PEBVQWidget@@PEAVQStyleHintReturn@@@Z"
"?styleHint@QWindowsStyle@@UEBAHW4StyleHint@QStyle@@PEBVQStyleOption@@PEBVQWidget@@PEAVQStyleHintReturn@@@Z"
"?styleOption@QGraphicsEffectSource@@QEBAPEBVQStyleOption@@XZ"
"?styleSheet@QApplication@@QEBA?AVQString@@XZ"
"?styleSheet@QApplicationPrivate@@2VQString@@A"
"?styleSheet@QWidget@@QEBA?AVQString@@XZ"
"?subControlRect@QCommonStyle@@UEBA?AVQRect@@W4ComplexControl@QStyle@@PEBVQStyleOptionComplex@@W4SubControl@4@PEBVQWidget@@@Z"
"?subControlRect@QFusionStyle@@UEBA?AVQRect@@W4ComplexControl@QStyle@@PEBVQStyleOptionComplex@@W4SubControl@4@PEBVQWidget@@@Z"
"?subControlRect@QPixmapStyle@@UEBA?AVQRect@@W4ComplexControl@QStyle@@PEBVQStyleOptionComplex@@W4SubControl@4@PEBVQWidget@@@Z"
"?subControlRect@QProxyStyle@@UEBA?AVQRect@@W4ComplexControl@QStyle@@PEBVQStyleOptionComplex@@W4SubControl@4@PEBVQWidget@@@Z"
"?subElementRect@QCommonStyle@@UEBA?AVQRect@@W4SubElement@QStyle@@PEBVQStyleOption@@PEBVQWidget@@@Z"
"?subElementRect@QFusionStyle@@UEBA?AVQRect@@W4SubElement@QStyle@@PEBVQStyleOption@@PEBVQWidget@@@Z"
"?subElementRect@QPixmapStyle@@UEBA?AVQRect@@W4SubElement@QStyle@@PEBVQStyleOption@@PEBVQWidget@@@Z"
"?subElementRect@QProxyStyle@@UEBA?AVQRect@@W4SubElement@QStyle@@PEBVQStyleOption@@PEBVQWidget@@@Z"
"?subElementRect@QWindowsStyle@@UEBA?AVQRect@@W4SubElement@QStyle@@PEBVQStyleOption@@PEBVQWidget@@@Z"
"?subFocusItemChange@QGraphicsItemPrivate@@UEAAXXZ"
"?subTitle@QWizardPage@@QEBA?AVQString@@XZ"
"?subTitleFormat@QWizard@@QEBA?AW4TextFormat@Qt@@XZ"
"?subWidgetRect@QGraphicsProxyWidget@@QEBA?AVQRectF@@PEBVQWidget@@@Z"
"?subWindowActivated@QMdiArea@@QEAAXPEAVQMdiSubWindow@@@Z"
"?subWindowList@QMdiArea@@QEBA?AV?$QList@PEAVQMdiSubWindow@@@@W4WindowOrder@1@@Z"
"?submit@QDataWidgetMapper@@QEAA_NXZ"
"?submitPolicy@QDataWidgetMapper@@QEBA?AW4SubmitPolicy@1@XZ"
"?subtractOpaqueChildren@QWidgetPrivate@@QEBAXAEAVQRegion@@AEBVQRect@@@Z"
"?subtractOpaqueSiblings@QWidgetPrivate@@QEBAXAEAVQRegion@@PEA_N_N@Z"
"?suffix@QDoubleSpinBox@@QEBA?AVQString@@XZ"
"?suffix@QSpinBox@@QEBA?AVQString@@XZ"
"?supportedDropActions@QListWidget@@MEBA?AV?$QFlags@W4DropAction@Qt@@@@XZ"
"?supportedDropActions@QTableWidget@@MEBA?AV?$QFlags@W4DropAction@Qt@@@@XZ"
"?supportedDropActions@QTreeWidget@@MEBA?AV?$QFlags@W4DropAction@Qt@@@@XZ"
"?supportedSchemes@QFileDialog@@QEBA?AV?$QList@VQString@@@@XZ"
"?supportsExtension@QGraphicsEllipseItem@@MEBA_NW4Extension@QGraphicsItem@@@Z"
"?supportsExtension@QGraphicsItem@@MEBA_NW4Extension@1@@Z"
"?supportsExtension@QGraphicsLineItem@@MEBA_NW4Extension@QGraphicsItem@@@Z"
"?supportsExtension@QGraphicsPathItem@@MEBA_NW4Extension@QGraphicsItem@@@Z"
"?supportsExtension@QGraphicsPixmapItem@@MEBA_NW4Extension@QGraphicsItem@@@Z"
"?supportsExtension@QGraphicsPolygonItem@@MEBA_NW4Extension@QGraphicsItem@@@Z"
"?supportsExtension@QGraphicsRectItem@@MEBA_NW4Extension@QGraphicsItem@@@Z"
"?supportsExtension@QGraphicsSimpleTextItem@@MEBA_NW4Extension@QGraphicsItem@@@Z"
"?supportsExtension@QGraphicsTextItem@@MEBA_NW4Extension@QGraphicsItem@@@Z"
"?supportsMessages@QSystemTrayIcon@@SA_NXZ"
"?surroundingText@QWidgetLineControl@@QEBA?AVQString@@XZ"
"?swapSections@QHeaderView@@QEAAXHH@Z"
"?swipeAngle@QSwipeGesture@@QEBANXZ"
"?sync@QWidgetRepaintManager@@QEAAXPEAVQWidget@@AEBVQRegion@@@Z"
"?sync@QWidgetRepaintManager@@QEAAXXZ"
"?syncAllowed@QWidgetRepaintManager@@AEAA_NXZ"
"?syncBackingStore@QWidgetPrivate@@QEAAXAEBVQRegion@@@Z"
"?syncBackingStore@QWidgetPrivate@@QEAAXXZ"
"?sys_font@QApplicationPrivate@@2PEAVQFont@@EA"
"?systemMenu@QMdiSubWindow@@QEBAPEAVQMenu@@XZ"
"?tabAt@QTabBar@@QEBAHAEBVQPoint@@@Z"
"?tabBar@QTabWidget@@QEBAPEAVQTabBar@@XZ"
"?tabBarAutoHide@QTabWidget@@QEBA_NXZ"
"?tabBarClicked@QTabBar@@QEAAXH@Z"
"?tabBarClicked@QTabWidget@@QEAAXH@Z"
"?tabBarDoubleClicked@QTabBar@@QEAAXH@Z"
"?tabBarDoubleClicked@QTabWidget@@QEAAXH@Z"
"?tabButton@QTabBar@@QEBAPEAVQWidget@@HW4ButtonPosition@1@@Z"
"?tabChangesFocus@QGraphicsTextItem@@QEBA_NXZ"
"?tabChangesFocus@QPlainTextEdit@@QEBA_NXZ"
"?tabChangesFocus@QTextEdit@@QEBA_NXZ"
"?tabCloseRequested@QTabBar@@QEAAXH@Z"
"?tabCloseRequested@QTabWidget@@QEAAXH@Z"
"?tabData@QTabBar@@QEBA?AVQVariant@@H@Z"
"?tabIcon@QTabBar@@QEBA?AVQIcon@@H@Z"
"?tabIcon@QTabWidget@@QEBA?AVQIcon@@H@Z"
"?tabInserted@QTabBar@@MEAAXH@Z"
"?tabInserted@QTabWidget@@MEAAXH@Z"
"?tabKeyNavigation@QAbstractItemView@@QEBA_NXZ"
"?tabLayout@QCommonStylePrivate@@UEBAXPEBVQStyleOptionTab@@PEBVQWidget@@PEAVQRect@@2@Z"
"?tabLayoutChange@QTabBar@@MEAAXXZ"
"?tabMoved@QTabBar@@QEAAXHH@Z"
"?tabPosition@QMainWindow@@QEBA?AW4TabPosition@QTabWidget@@W4DockWidgetArea@Qt@@@Z"
"?tabPosition@QMdiArea@@QEBA?AW4TabPosition@QTabWidget@@XZ"
"?tabPosition@QTabWidget@@QEBA?AW4TabPosition@1@XZ"
"?tabRect@QTabBar@@QEBA?AVQRect@@H@Z"
"?tabRemoved@QTabBar@@MEAAXH@Z"
"?tabRemoved@QTabWidget@@MEAAXH@Z"
"?tabShape@QMainWindow@@QEBA?AW4TabShape@QTabWidget@@XZ"
"?tabShape@QMdiArea@@QEBA?AW4TabShape@QTabWidget@@XZ"
"?tabShape@QTabWidget@@QEBA?AW4TabShape@1@XZ"
"?tabSizeHint@QTabBar@@MEBA?AVQSize@@H@Z"
"?tabStopDistance@QPlainTextEdit@@QEBANXZ"
"?tabStopDistance@QTextEdit@@QEBANXZ"
"?tabText@QTabBar@@QEBA?AVQString@@H@Z"
"?tabText@QTabWidget@@QEBA?AVQString@@H@Z"
"?tabTextColor@QTabBar@@QEBA?AVQColor@@H@Z"
"?tabToolTip@QTabBar@@QEBA?AVQString@@H@Z"
"?tabToolTip@QTabWidget@@QEBA?AVQString@@H@Z"
"?tabWhatsThis@QTabBar@@QEBA?AVQString@@H@Z"
"?tabWhatsThis@QTabWidget@@QEBA?AVQString@@H@Z"
"?tabifiedDockWidgetActivated@QMainWindow@@QEAAXPEAVQDockWidget@@@Z"
"?tabifiedDockWidgets@QMainWindow@@QEBA?AV?$QList@PEAVQDockWidget@@@@PEAVQDockWidget@@@Z"
"?tabifyDockWidget@QMainWindow@@QEAAXPEAVQDockWidget@@0@Z"
"?tableModel@QTableWidgetItem@@AEBAPEAVQTableModel@@XZ"
"?tableWidget@QTableWidgetItem@@QEBAPEAVQTableWidget@@XZ"
"?tabletEvent@QWidget@@MEAAXPEAVQTabletEvent@@@Z"
"?tabsClosable@QMdiArea@@QEBA_NXZ"
"?tabsClosable@QTabBar@@QEBA_NXZ"
"?tabsClosable@QTabWidget@@QEBA_NXZ"
"?tabsMovable@QMdiArea@@QEBA_NXZ"
"?takeAt@QBoxLayout@@UEAAPEAVQLayoutItem@@H@Z"
"?takeAt@QDockWidgetLayout@@UEAAPEAVQLayoutItem@@H@Z"
"?takeAt@QFormLayout@@UEAAPEAVQLayoutItem@@H@Z"
"?takeAt@QGridLayout@@UEAAPEAVQLayoutItem@@H@Z"
"?takeAt@QStackedLayout@@UEAAPEAVQLayoutItem@@H@Z"
"?takeCentralWidget@QMainWindow@@QEAAPEAVQWidget@@XZ"
"?takeChild@QTreeWidgetItem@@QEAAPEAV1@H@Z"
"?takeChildren@QTreeWidgetItem@@QEAA?AV?$QList@PEAVQTreeWidgetItem@@@@XZ"
"?takeFromFocusChain@QWidgetPrivate@@SA?AV?$QList@PEAVQWidget@@@@PEAVQWidget@@0W4FocusDirection@1@@Z"
"?takeHorizontalHeaderItem@QTableWidget@@QEAAPEAVQTableWidgetItem@@H@Z"
"?takeItem@QListWidget@@QEAAPEAVQListWidgetItem@@H@Z"
"?takeItem@QTableWidget@@QEAAPEAVQTableWidgetItem@@HH@Z"
"?takeLayout@QWidget@@AEAAPEAVQLayout@@XZ"
"?takeRow@QFormLayout@@QEAA?AUTakeRowResult@1@H@Z"
"?takeRow@QFormLayout@@QEAA?AUTakeRowResult@1@PEAVQLayout@@@Z"
"?takeRow@QFormLayout@@QEAA?AUTakeRowResult@1@PEAVQWidget@@@Z"
"?takeTopLevelItem@QTreeWidget@@QEAAPEAVQTreeWidgetItem@@H@Z"
"?takeVerticalHeaderItem@QTableWidget@@QEAAPEAVQTableWidgetItem@@H@Z"
"?takeWidget@QScrollArea@@QEAAPEAVQWidget@@XZ"
"?target@QScroller@@QEBAPEAVQObject@@XZ"
"?target@QStyleAnimation@@QEBAPEAVQObject@@XZ"
"?testAttribute@QGraphicsWidget@@QEBA_NW4WidgetAttribute@Qt@@@Z"
"?testAttribute@QWidget@@QEBA_NW4WidgetAttribute@Qt@@@Z"
"?testAttribute_helper@QWidget@@AEBA_NW4WidgetAttribute@Qt@@@Z"
"?testOption@QColorDialog@@QEBA_NW4ColorDialogOption@1@@Z"
"?testOption@QFileDialog@@QEBA_NW4Option@1@@Z"
"?testOption@QFontDialog@@QEBA_NW4FontDialogOption@1@@Z"
"?testOption@QInputDialog@@QEBA_NW4InputDialogOption@1@@Z"
"?testOption@QMdiArea@@QEBA_NW4AreaOption@1@@Z"
"?testOption@QMdiSubWindow@@QEBA_NW4SubWindowOption@1@@Z"
"?testOption@QMessageBox@@QEBA_NW4Option@1@@Z"
"?testOption@QWizard@@QEBA_NW4WizardOption@1@@Z"
"?text@QAbstractButton@@QEBA?AVQString@@XZ"
"?text@QAbstractSpinBox@@QEBA?AVQString@@XZ"
"?text@QAccessibleWidget@@UEBA?AVQString@@W4Text@QAccessible@@@Z"
"?text@QGraphicsSimpleTextItem@@QEBA?AVQString@@XZ"
"?text@QLabel@@QEBA?AVQString@@XZ"
"?text@QLineEdit@@QEBA?AVQString@@XZ"
"?text@QListWidgetItem@@QEBA?AVQString@@XZ"
"?text@QMessageBox@@QEBA?AVQString@@XZ"
"?text@QProgressBar@@UEBA?AVQString@@XZ"
"?text@QTableWidgetItem@@QEBA?AVQString@@XZ"
"?text@QToolTip@@SA?AVQString@@XZ"
"?text@QTreeWidgetItem@@QEBA?AVQString@@H@Z"
"?text@QWidgetLineControl@@QEBA?AVQString@@XZ"
"?textActivated@QComboBox@@QEAAXAEBVQString@@@Z"
"?textAfterSelection@QWidgetLineControl@@QEBA?AVQString@@XZ"
"?textAlignment@QListWidgetItem@@QEBAHXZ"
"?textAlignment@QTableWidgetItem@@QEBAHXZ"
"?textAlignment@QTreeWidgetItem@@QEBAHH@Z"
"?textBackgroundColor@QTextEdit@@QEBA?AVQColor@@XZ"
"?textBeforeSelection@QWidgetLineControl@@QEBA?AVQString@@XZ"
"?textChanged@QDoubleSpinBox@@QEAAXAEBVQString@@@Z"
"?textChanged@QLineEdit@@QEAAXAEBVQString@@@Z"
"?textChanged@QPlainTextEdit@@QEAAXXZ"
"?textChanged@QSpinBox@@QEAAXAEBVQString@@@Z"
"?textChanged@QTextEdit@@QEAAXXZ"
"?textChanged@QWidgetLineControl@@QEAAXAEBVQString@@@Z"
"?textChanged@QWidgetTextControl@@QEAAXXZ"
"?textColor@QTextEdit@@QEBA?AVQColor@@XZ"
"?textCursor@QGraphicsTextItem@@QEBA?AVQTextCursor@@XZ"
"?textCursor@QPlainTextEdit@@QEBA?AVQTextCursor@@XZ"
"?textCursor@QTextEdit@@QEBA?AVQTextCursor@@XZ"
"?textCursor@QWidgetTextControl@@QEBA?AVQTextCursor@@XZ"
"?textDirection@QProgressBar@@QEBA?AW4Direction@1@XZ"
"?textEchoMode@QInputDialog@@QEBA?AW4EchoMode@QLineEdit@@XZ"
"?textEdited@QLineEdit@@QEAAXAEBVQString@@@Z"
"?textEdited@QWidgetLineControl@@QEAAXAEBVQString@@@Z"
"?textElideMode@QAbstractItemView@@QEBA?AW4TextElideMode@Qt@@XZ"
"?textFormat@QLabel@@QEBA?AW4TextFormat@Qt@@XZ"
"?textFormat@QMessageBox@@QEBA?AW4TextFormat@Qt@@XZ"
"?textFromDateTime@QDateTimeEdit@@MEBA?AVQString@@AEBVQDateTime@@@Z"
"?textFromValue@QDoubleSpinBox@@UEBA?AVQString@@N@Z"
"?textFromValue@QSpinBox@@MEBA?AVQString@@H@Z"
"?textHighlighted@QComboBox@@QEAAXAEBVQString@@@Z"
"?textInteractionFlags@QGraphicsTextItem@@QEBA?AV?$QFlags@W4TextInteractionFlag@Qt@@@@XZ"
"?textInteractionFlags@QLabel@@QEBA?AV?$QFlags@W4TextInteractionFlag@Qt@@@@XZ"
"?textInteractionFlags@QMessageBox@@QEBA?AV?$QFlags@W4TextInteractionFlag@Qt@@@@XZ"
"?textInteractionFlags@QPlainTextEdit@@QEBA?AV?$QFlags@W4TextInteractionFlag@Qt@@@@XZ"
"?textInteractionFlags@QTextEdit@@QEBA?AV?$QFlags@W4TextInteractionFlag@Qt@@@@XZ"
"?textInteractionFlags@QWidgetTextControl@@QEBA?AV?$QFlags@W4TextInteractionFlag@Qt@@@@XZ"
"?textLayout@QWidgetLineControl@@QEBAPEAVQTextLayout@@XZ"
"?textMargins@QLineEdit@@QEBA?AVQMargins@@XZ"
"?textRectangle@QItemDelegate@@IEBA?AVQRect@@PEAVQPainter@@AEBV2@AEBVQFont@@AEBVQString@@@Z"
"?textValue@QInputDialog@@QEBA?AVQString@@XZ"
"?textValueChanged@QInputDialog@@QEAAXAEBVQString@@@Z"
"?textValueSelected@QInputDialog@@QEAAXAEBVQString@@@Z"
"?textWidth@QGraphicsTextItem@@QEBANXZ"
"?textWidth@QPlainTextDocumentLayout@@AEBANXZ"
"?textWidth@QWidgetTextControl@@QEBANXZ"
"?texture@QWidgetPrivate@@UEBA?AUTextureData@1@XZ"
"?textureListFlags@QWidgetPrivate@@UEAA?AV?$QFlags@W4Flag@QPlatformTextureList@@@@XZ"
"?tickInterval@QSlider@@QEBAHXZ"
"?tickPosition@QSlider@@QEBA?AW4TickPosition@1@XZ"
"?tileSubWindows@QMdiArea@@QEAAXXZ"
"?time@QDateTimeEdit@@QEBA?AVQTime@@XZ"
"?timeChanged@QDateTimeEdit@@QEAAXVQTime@@@Z"
"?timeLine@QGraphicsItemAnimation@@QEBAPEAVQTimeLine@@XZ"
"?timeSpec@QDateTimeEdit@@QEBA?AW4TimeSpec@Qt@@XZ"
"?timeZone@QDateTimeEdit@@QEBA?AVQTimeZone@@XZ"
"?timeout@QTapAndHoldGesture@@SAHXZ"
"?timerEvent@QAbstractButton@@MEAAXPEAVQTimerEvent@@@Z"
"?timerEvent@QAbstractItemView@@MEAAXPEAVQTimerEvent@@@Z"
"?timerEvent@QAbstractSlider@@MEAAXPEAVQTimerEvent@@@Z"
"?timerEvent@QAbstractSpinBox@@MEAAXPEAVQTimerEvent@@@Z"
"?timerEvent@QComboBoxPrivateContainer@@MEAAXPEAVQTimerEvent@@@Z"
"?timerEvent@QKeySequenceEdit@@MEAAXPEAVQTimerEvent@@@Z"
"?timerEvent@QLineEdit@@UEAAXPEAVQTimerEvent@@@Z"
"?timerEvent@QListView@@MEAAXPEAVQTimerEvent@@@Z"
"?timerEvent@QMdiArea@@MEAAXPEAVQTimerEvent@@@Z"
"?timerEvent@QMdiSubWindow@@MEAAXPEAVQTimerEvent@@@Z"
"?timerEvent@QMenu@@MEAAXPEAVQTimerEvent@@@Z"
"?timerEvent@QMenuBar@@MEAAXPEAVQTimerEvent@@@Z"
"?timerEvent@QPlainTextEdit@@MEAAXPEAVQTimerEvent@@@Z"
"?timerEvent@QTabBar@@MEAAXPEAVQTimerEvent@@@Z"
"?timerEvent@QTableView@@MEAAXPEAVQTimerEvent@@@Z"
"?timerEvent@QTextEdit@@MEAAXPEAVQTimerEvent@@@Z"
"?timerEvent@QToolButton@@MEAAXPEAVQTimerEvent@@@Z"
"?timerEvent@QTreeView@@MEAAXPEAVQTimerEvent@@@Z"
"?timerEvent@QWidgetLineControl@@MEAAXPEAVQTimerEvent@@@Z"
"?timerEvent@QWidgetTextControl@@MEAAXPEAVQTimerEvent@@@Z"
"?timestamp@QGraphicsSceneEvent@@QEBA_KXZ"
"?title@QGroupBox@@QEBA?AVQString@@XZ"
"?title@QMenu@@QEBA?AVQString@@XZ"
"?title@QWizardPage@@QEBA?AVQString@@XZ"
"?titleArea@QDockWidgetLayout@@QEBA?AVQRect@@XZ"
"?titleBarWidget@QDockWidget@@QEBAPEAVQWidget@@XZ"
"?titleFormat@QWizard@@QEBA?AW4TextFormat@Qt@@XZ"
"?titleHeight@QDockWidgetLayout@@QEBAHXZ"
"?toControlTypeFieldValue@QSizePolicy@@CAIW4ControlType@1@@Z"
"?toFirst@QDataWidgetMapper@@QEAAXXZ"
"?toGraphicsObject@QGraphicsItem@@QEAAPEAVQGraphicsObject@@XZ"
"?toGraphicsObject@QGraphicsItem@@QEBAPEBVQGraphicsObject@@XZ"
"?toHtml@QGraphicsTextItem@@QEBA?AVQString@@XZ"
"?toHtml@QTextEdit@@QEBA?AVQString@@XZ"
"?toHtml@QWidgetTextControl@@QEBA?AVQString@@XZ"
"?toInternal@QFileDialogPrivate@@SA?AVQString@@AEBV2@@Z"
"?toLast@QDataWidgetMapper@@QEAAXXZ"
"?toMarkdown@QTextEdit@@QEBA?AVQString@@V?$QFlags@W4MarkdownFeature@QTextDocument@@@@@Z"
"?toMarkdown@QWidgetTextControl@@QEBA?AVQString@@V?$QFlags@W4MarkdownFeature@QTextDocument@@@@@Z"
"?toNext@QDataWidgetMapper@@QEAAXXZ"
"?toPlainText@QGraphicsTextItem@@QEBA?AVQString@@XZ"
"?toPlainText@QPlainTextEdit@@QEBA?AVQString@@XZ"
"?toPlainText@QTextEdit@@QEBA?AVQString@@XZ"
"?toPlainText@QWidgetTextControl@@QEBA?AVQString@@XZ"
"?toPrevious@QDataWidgetMapper@@QEAAXXZ"
"?toggle@QAbstractButton@@QEAAXXZ"
"?toggleStereoTargetBuffer@QWidgetPrivate@@UEAA_NXZ"
"?toggleViewAction@QDockWidget@@QEBAPEAVQAction@@XZ"
"?toggleViewAction@QToolBar@@QEBAPEAVQAction@@XZ"
"?toggled@QAbstractButton@@QEAAX_N@Z"
"?toggled@QGroupBox@@QEAAX_N@Z"
"?toolBarArea@QMainWindow@@QEBA?AW4ToolBarArea@Qt@@PEBVQToolBar@@@Z"
"?toolBarBreak@QMainWindow@@QEBA_NPEAVQToolBar@@@Z"
"?toolButtonElideText@QCommonStylePrivate@@QEBA?AVQString@@PEBVQStyleOptionToolButton@@AEBVQRect@@H@Z"
"?toolButtonStyle@QMainWindow@@QEBA?AW4ToolButtonStyle@Qt@@XZ"
"?toolButtonStyle@QToolBar@@QEBA?AW4ToolButtonStyle@Qt@@XZ"
"?toolButtonStyle@QToolButton@@QEBA?AW4ToolButtonStyle@Qt@@XZ"
"?toolButtonStyleChanged@QMainWindow@@QEAAXW4ToolButtonStyle@Qt@@@Z"
"?toolButtonStyleChanged@QToolBar@@QEAAXW4ToolButtonStyle@Qt@@@Z"
"?toolTip@QGraphicsItem@@QEBA?AVQString@@XZ"
"?toolTip@QListWidgetItem@@QEBA?AVQString@@XZ"
"?toolTip@QSystemTrayIcon@@QEBA?AVQString@@XZ"
"?toolTip@QTableWidgetItem@@QEBA?AVQString@@XZ"
"?toolTip@QTreeWidgetItem@@QEBA?AVQString@@H@Z"
"?toolTip@QWidget@@QEBA?AVQString@@XZ"
"?toolTipDuration@QWidget@@QEBAHXZ"
"?toolTipsVisible@QMenu@@QEBA_NXZ"
"?topData@QWidgetPrivate@@QEBAPEAUQTLWExtra@@XZ"
"?topLevelAt@QApplication@@SAPEAVQWidget@@AEBVQPoint@@@Z"
"?topLevelAt@QApplication@@SAPEAVQWidget@@HH@Z"
"?topLevelChanged@QDockWidget@@QEAAX_N@Z"
"?topLevelChanged@QToolBar@@QEAAX_N@Z"
"?topLevelItem@QGraphicsItem@@QEBAPEAV1@XZ"
"?topLevelItem@QTreeWidget@@QEBAPEAVQTreeWidgetItem@@H@Z"
"?topLevelItemCount@QTreeWidget@@QEBAHXZ"
"?topLevelWidget@QGraphicsItem@@QEBAPEAVQGraphicsWidget@@XZ"
"?topLevelWidget@QWidget@@QEBAPEAV1@XZ"
"?topLevelWidgets@QApplication@@SA?AV?$QList@PEAVQWidget@@@@XZ"
"?topMargin@QComboBoxPrivateContainer@@QEBAHXZ"
"?toplevelAboutToBeDestroyed@QWindowContainer@@SAXPEAVQWidget@@@Z"
"?totalChangeFlags@QPinchGesture@@QEBA?AV?$QFlags@W4ChangeFlag@QPinchGesture@@@@XZ"
"?totalHeightForWidth@QLayout@@QEBAHH@Z"
"?totalMaximumSize@QLayout@@QEBA?AVQSize@@XZ"
"?totalMinimumHeightForWidth@QLayout@@QEBAHH@Z"
"?totalMinimumSize@QLayout@@QEBA?AVQSize@@XZ"
"?totalRotationAngle@QPinchGesture@@QEBANXZ"
"?totalScaleFactor@QPinchGesture@@QEBANXZ"
"?totalSizeHint@QLayout@@QEBA?AVQSize@@XZ"
"?tr@QAbstractButton@@SA?AVQString@@PEBD0H@Z"
"?tr@QAbstractItemDelegate@@SA?AVQString@@PEBD0H@Z"
"?tr@QAbstractItemView@@SA?AVQString@@PEBD0H@Z"
"?tr@QAbstractScrollArea@@SA?AVQString@@PEBD0H@Z"
"?tr@QAbstractSlider@@SA?AVQString@@PEBD0H@Z"
"?tr@QAbstractSpinBox@@SA?AVQString@@PEBD0H@Z"
"?tr@QApplication@@SA?AVQString@@PEBD0H@Z"
"?tr@QBlendStyleAnimation@@SA?AVQString@@PEBD0H@Z"
"?tr@QBoxLayout@@SA?AVQString@@PEBD0H@Z"
"?tr@QButtonGroup@@SA?AVQString@@PEBD0H@Z"
"?tr@QCalendarWidget@@SA?AVQString@@PEBD0H@Z"
"?tr@QCheckBox@@SA?AVQString@@PEBD0H@Z"
"?tr@QColorDialog@@SA?AVQString@@PEBD0H@Z"
"?tr@QColumnView@@SA?AVQString@@PEBD0H@Z"
"?tr@QComboBox@@SA?AVQString@@PEBD0H@Z"
"?tr@QComboBoxPrivateContainer@@SA?AVQString@@PEBD0H@Z"
"?tr@QCommandLinkButton@@SA?AVQString@@PEBD0H@Z"
"?tr@QCommonStyle@@SA?AVQString@@PEBD0H@Z"
"?tr@QCompleter@@SA?AVQString@@PEBD0H@Z"
"?tr@QDataWidgetMapper@@SA?AVQString@@PEBD0H@Z"
"?tr@QDateEdit@@SA?AVQString@@PEBD0H@Z"
"?tr@QDateTimeEdit@@SA?AVQString@@PEBD0H@Z"
"?tr@QDial@@SA?AVQString@@PEBD0H@Z"
"?tr@QDialog@@SA?AVQString@@PEBD0H@Z"
"?tr@QDialogButtonBox@@SA?AVQString@@PEBD0H@Z"
"?tr@QDockWidget@@SA?AVQString@@PEBD0H@Z"
"?tr@QDockWidgetLayout@@SA?AVQString@@PEBD0H@Z"
"?tr@QDoubleSpinBox@@SA?AVQString@@PEBD0H@Z"
"?tr@QErrorMessage@@SA?AVQString@@PEBD0H@Z"
"?tr@QFileDialog@@SA?AVQString@@PEBD0H@Z"
"?tr@QFlickGesture@@SA?AVQString@@PEBD0H@Z"
"?tr@QFocusFrame@@SA?AVQString@@PEBD0H@Z"
"?tr@QFontComboBox@@SA?AVQString@@PEBD0H@Z"
"?tr@QFontDialog@@SA?AVQString@@PEBD0H@Z"
"?tr@QFormLayout@@SA?AVQString@@PEBD0H@Z"
"?tr@QFrame@@SA?AVQString@@PEBD0H@Z"
"?tr@QFusionStyle@@SA?AVQString@@PEBD0H@Z"
"?tr@QGesture@@SA?AVQString@@PEBD0H@Z"
"?tr@QGraphicsAnchor@@SA?AVQString@@PEBD0H@Z"
"?tr@QGraphicsBlurEffect@@SA?AVQString@@PEBD0H@Z"
"?tr@QGraphicsColorizeEffect@@SA?AVQString@@PEBD0H@Z"
"?tr@QGraphicsDropShadowEffect@@SA?AVQString@@PEBD0H@Z"
"?tr@QGraphicsEffect@@SA?AVQString@@PEBD0H@Z"
"?tr@QGraphicsEffectSource@@SA?AVQString@@PEBD0H@Z"
"?tr@QGraphicsItemAnimation@@SA?AVQString@@PEBD0H@Z"
"?tr@QGraphicsObject@@SA?AVQString@@PEBD0H@Z"
"?tr@QGraphicsOpacityEffect@@SA?AVQString@@PEBD0H@Z"
"?tr@QGraphicsProxyWidget@@SA?AVQString@@PEBD0H@Z"
"?tr@QGraphicsRotation@@SA?AVQString@@PEBD0H@Z"
"?tr@QGraphicsScale@@SA?AVQString@@PEBD0H@Z"
"?tr@QGraphicsScene@@SA?AVQString@@PEBD0H@Z"
"?tr@QGraphicsTextItem@@SA?AVQString@@PEBD0H@Z"
"?tr@QGraphicsTransform@@SA?AVQString@@PEBD0H@Z"
"?tr@QGraphicsView@@SA?AVQString@@PEBD0H@Z"
"?tr@QGraphicsWidget@@SA?AVQString@@PEBD0H@Z"
"?tr@QGridLayout@@SA?AVQString@@PEBD0H@Z"
"?tr@QGroupBox@@SA?AVQString@@PEBD0H@Z"
"?tr@QHBoxLayout@@SA?AVQString@@PEBD0H@Z"
"?tr@QHeaderView@@SA?AVQString@@PEBD0H@Z"
"?tr@QInputDialog@@SA?AVQString@@PEBD0H@Z"
"?tr@QItemDelegate@@SA?AVQString@@PEBD0H@Z"
"?tr@QKeySequenceEdit@@SA?AVQString@@PEBD0H@Z"
"?tr@QLCDNumber@@SA?AVQString@@PEBD0H@Z"
"?tr@QLabel@@SA?AVQString@@PEBD0H@Z"
"?tr@QLayout@@SA?AVQString@@PEBD0H@Z"
"?tr@QLineEdit@@SA?AVQString@@PEBD0H@Z"
"?tr@QListView@@SA?AVQString@@PEBD0H@Z"
"?tr@QListWidget@@SA?AVQString@@PEBD0H@Z"
"?tr@QMainWindow@@SA?AVQString@@PEBD0H@Z"
"?tr@QMdiArea@@SA?AVQString@@PEBD0H@Z"
"?tr@QMdiSubWindow@@SA?AVQString@@PEBD0H@Z"
"?tr@QMenu@@SA?AVQString@@PEBD0H@Z"
"?tr@QMenuBar@@SA?AVQString@@PEBD0H@Z"
"?tr@QMessageBox@@SA?AVQString@@PEBD0H@Z"
"?tr@QNumberStyleAnimation@@SA?AVQString@@PEBD0H@Z"
"?tr@QPanGesture@@SA?AVQString@@PEBD0H@Z"
"?tr@QPinchGesture@@SA?AVQString@@PEBD0H@Z"
"?tr@QPixmapBlurFilter@@SA?AVQString@@PEBD0H@Z"
"?tr@QPixmapColorizeFilter@@SA?AVQString@@PEBD0H@Z"
"?tr@QPixmapConvolutionFilter@@SA?AVQString@@PEBD0H@Z"
"?tr@QPixmapDropShadowFilter@@SA?AVQString@@PEBD0H@Z"
"?tr@QPixmapFilter@@SA?AVQString@@PEBD0H@Z"
"?tr@QPixmapStyle@@SA?AVQString@@PEBD0H@Z"
"?tr@QPlainTextDocumentLayout@@SA?AVQString@@PEBD0H@Z"
"?tr@QPlainTextEdit@@SA?AVQString@@PEBD0H@Z"
"?tr@QProgressBar@@SA?AVQString@@PEBD0H@Z"
"?tr@QProgressDialog@@SA?AVQString@@PEBD0H@Z"
"?tr@QProgressStyleAnimation@@SA?AVQString@@PEBD0H@Z"
"?tr@QProxyStyle@@SA?AVQString@@PEBD0H@Z"
"?tr@QPushButton@@SA?AVQString@@PEBD0H@Z"
"?tr@QRadioButton@@SA?AVQString@@PEBD0H@Z"
"?tr@QRhiWidget@@SA?AVQString@@PEBD0H@Z"
"?tr@QRubberBand@@SA?AVQString@@PEBD0H@Z"
"?tr@QScrollArea@@SA?AVQString@@PEBD0H@Z"
"?tr@QScrollBar@@SA?AVQString@@PEBD0H@Z"
"?tr@QScrollbarStyleAnimation@@SA?AVQString@@PEBD0H@Z"
"?tr@QScroller@@SA?AVQString@@PEBD0H@Z"
"?tr@QSizeGrip@@SA?AVQString@@PEBD0H@Z"
"?tr@QSlider@@SA?AVQString@@PEBD0H@Z"
"?tr@QSpinBox@@SA?AVQString@@PEBD0H@Z"
"?tr@QSplashScreen@@SA?AVQString@@PEBD0H@Z"
"?tr@QSplitter@@SA?AVQString@@PEBD0H@Z"
"?tr@QSplitterHandle@@SA?AVQString@@PEBD0H@Z"
"?tr@QStackedLayout@@SA?AVQString@@PEBD0H@Z"
"?tr@QStackedWidget@@SA?AVQString@@PEBD0H@Z"
"?tr@QStatusBar@@SA?AVQString@@PEBD0H@Z"
"?tr@QStyle@@SA?AVQString@@PEBD0H@Z"
"?tr@QStyleAnimation@@SA?AVQString@@PEBD0H@Z"
"?tr@QStylePlugin@@SA?AVQString@@PEBD0H@Z"
"?tr@QStyledItemDelegate@@SA?AVQString@@PEBD0H@Z"
"?tr@QSwipeGesture@@SA?AVQString@@PEBD0H@Z"
"?tr@QSystemTrayIcon@@SA?AVQString@@PEBD0H@Z"
"?tr@QTabBar@@SA?AVQString@@PEBD0H@Z"
"?tr@QTabWidget@@SA?AVQString@@PEBD0H@Z"
"?tr@QTableView@@SA?AVQString@@PEBD0H@Z"
"?tr@QTableWidget@@SA?AVQString@@PEBD0H@Z"
"?tr@QTapAndHoldGesture@@SA?AVQString@@PEBD0H@Z"
"?tr@QTapGesture@@SA?AVQString@@PEBD0H@Z"
"?tr@QTextBrowser@@SA?AVQString@@PEBD0H@Z"
"?tr@QTextEdit@@SA?AVQString@@PEBD0H@Z"
"?tr@QTimeEdit@@SA?AVQString@@PEBD0H@Z"
"?tr@QToolBar@@SA?AVQString@@PEBD0H@Z"
"?tr@QToolBox@@SA?AVQString@@PEBD0H@Z"
"?tr@QToolButton@@SA?AVQString@@PEBD0H@Z"
"?tr@QTreeView@@SA?AVQString@@PEBD0H@Z"
"?tr@QTreeWidget@@SA?AVQString@@PEBD0H@Z"
"?tr@QUndoView@@SA?AVQString@@PEBD0H@Z"
"?tr@QVBoxLayout@@SA?AVQString@@PEBD0H@Z"
"?tr@QWidget@@SA?AVQString@@PEBD0H@Z"
"?tr@QWidgetAction@@SA?AVQString@@PEBD0H@Z"
"?tr@QWidgetLineControl@@SA?AVQString@@PEBD0H@Z"
"?tr@QWidgetTextControl@@SA?AVQString@@PEBD0H@Z"
"?tr@QWindowContainer@@SA?AVQString@@PEBD0H@Z"
"?tr@QWindowsStyle@@SA?AVQString@@PEBD0H@Z"
"?tr@QWizard@@SA?AVQString@@PEBD0H@Z"
"?tr@QWizardPage@@SA?AVQString@@PEBD0H@Z"
"?transform@QGraphicsItem@@QEBA?AVQTransform@@XZ"
"?transform@QGraphicsView@@QEBA?AVQTransform@@XZ"
"?transformAt@QGraphicsItemAnimation@@QEBA?AVQTransform@@N@Z"
"?transformChanged@QGraphicsItemPrivate@@UEAAXXZ"
"?transformOriginPoint@QGraphicsItem@@QEBA?AVQPointF@@XZ"
"?transformToParent@QGraphicsItemPrivate@@QEBA?AVQTransform@@XZ"
"?transformationAnchor@QGraphicsView@@QEBA?AW4ViewportAnchor@1@XZ"
"?transformationMode@QGraphicsPixmapItem@@QEBA?AW4TransformationMode@Qt@@XZ"
"?transformations@QGraphicsItem@@QEBA?AV?$QList@PEAVQGraphicsTransform@@@@XZ"
"?transientParentWindow@QDialogPrivate@@QEBAPEAVQWindow@@XZ"
"?translate@QGraphicsView@@QEAAXNN@Z"
"?translateRawTouchEvent@QApplicationPrivate@@SA_NPEAVQWidget@@PEBVQTouchEvent@@@Z"
"?translateTouchCancel@QApplicationPrivate@@SAXPEBVQPointingDevice@@K@Z"
"?translateTouchEvent@QGraphicsViewPrivate@@SAXPEAV1@PEAVQTouchEvent@@@Z"
"?translationList@QGraphicsItemAnimation@@QEBA?AV?$QList@U?$pair@NVQPointF@@@std@@@@XZ"
"?transpose@QSizePolicy@@QEAAXXZ"
"?transposed@QSizePolicy@@QEBA?AV1@XZ"
"?treeModel@QTreeWidgetItem@@AEBAPEAVQTreeModel@@PEAVQTreeWidget@@@Z"
"?treePosition@QTreeView@@QEBAHXZ"
"?treeWidget@QTreeWidgetItem@@QEBAPEAVQTreeWidget@@XZ"
"?triggerAction@QAbstractSlider@@QEAAXW4SliderAction@1@@Z"
"?triggered@QMenu@@QEAAXPEAVQAction@@@Z"
"?triggered@QMenuBar@@QEAAXPEAVQAction@@@Z"
"?triggered@QToolButton@@QEAAXPEAVQAction@@@Z"
"?tryCloseAllWidgetWindows@QApplicationPrivate@@CA_NPEAV?$QList@PEAVQWindow@@@@@Z"
"?tryModalHelper@QApplicationPrivate@@SA_NPEAVQWidget@@PEAPEAV2@@Z"
"?type@QGraphicsEllipseItem@@UEBAHXZ"
"?type@QGraphicsItem@@UEBAHXZ"
"?type@QGraphicsItemGroup@@UEBAHXZ"
"?type@QGraphicsLineItem@@UEBAHXZ"
"?type@QGraphicsPathItem@@UEBAHXZ"
"?type@QGraphicsPixmapItem@@UEBAHXZ"
"?type@QGraphicsPolygonItem@@UEBAHXZ"
"?type@QGraphicsProxyWidget@@UEBAHXZ"
"?type@QGraphicsRectItem@@UEBAHXZ"
"?type@QGraphicsSimpleTextItem@@UEBAHXZ"
"?type@QGraphicsTextItem@@UEBAHXZ"
"?type@QGraphicsWidget@@UEBAHXZ"
"?type@QListWidgetItem@@QEBAHXZ"
"?type@QPixmapFilter@@QEBA?AW4FilterType@1@XZ"
"?type@QTableWidgetItem@@QEBAHXZ"
"?type@QTreeWidgetItem@@QEBAHXZ"
"?typedFiles@QFileDialogPrivate@@QEBA?AV?$QList@VQString@@@@XZ"
"?underMouse@QWidget@@QEBA_NXZ"
"?undo@QLineEdit@@QEAAXXZ"
"?undo@QPlainTextEdit@@QEAAXXZ"
"?undo@QTextEdit@@QEAAXXZ"
"?undo@QWidgetLineControl@@QEAAXXZ"
"?undo@QWidgetTextControl@@QEAAXXZ"
"?undoAvailable@QPlainTextEdit@@QEAAX_N@Z"
"?undoAvailable@QTextEdit@@QEAAX_N@Z"
"?undoAvailable@QWidgetTextControl@@QEAAX_N@Z"
"?ungrabGesture@QGraphicsObject@@QEAAXW4GestureType@Qt@@@Z"
"?ungrabGesture@QScroller@@SAXPEAVQObject@@@Z"
"?ungrabGesture@QWidget@@QEAAXW4GestureType@Qt@@@Z"
"?ungrabKeyboard@QGraphicsItem@@QEAAXXZ"
"?ungrabKeyboardEvent@QGraphicsWidget@@MEAAXPEAVQEvent@@@Z"
"?ungrabMouse@QGraphicsItem@@QEAAXXZ"
"?ungrabMouseEvent@QGraphicsProxyWidget@@MEAAXPEAVQEvent@@@Z"
"?ungrabMouseEvent@QGraphicsWidget@@MEAAXPEAVQEvent@@@Z"
"?unifiedTitleAndToolBarOnMac@QMainWindow@@QEBA_NXZ"
"?uniformItemSizes@QListView@@QEBA_NXZ"
"?uniformRowHeights@QTreeView@@QEBA_NXZ"
"?uniqueName@QStyleHelper@@YA?AVQString@@AEBV2@PEBVQStyleOption@@AEBVQSize@@N@Z"
"?unpolish@QCommonStyle@@UEAAXPEAVQApplication@@@Z"
"?unpolish@QCommonStyle@@UEAAXPEAVQWidget@@@Z"
"?unpolish@QFusionStyle@@UEAAXPEAVQApplication@@@Z"
"?unpolish@QFusionStyle@@UEAAXPEAVQWidget@@@Z"
"?unpolish@QPixmapStyle@@UEAAXPEAVQApplication@@@Z"
"?unpolish@QPixmapStyle@@UEAAXPEAVQWidget@@@Z"
"?unpolish@QProxyStyle@@UEAAXPEAVQApplication@@@Z"
"?unpolish@QProxyStyle@@UEAAXPEAVQWidget@@@Z"
"?unpolish@QStyle@@UEAAXPEAVQApplication@@@Z"
"?unpolish@QStyle@@UEAAXPEAVQWidget@@@Z"
"?unpolish@QWindowsStyle@@UEAAXPEAVQApplication@@@Z"
"?unpolish@QWindowsStyle@@UEAAXPEAVQWidget@@@Z"
"?unregisterRecognizer@QGestureRecognizer@@SAXW4GestureType@Qt@@@Z"
"?unsetContentsMargins@QLayout@@QEAAXXZ"
"?unsetCursor@QGraphicsItem@@QEAAXXZ"
"?unsetCursor@QWidget@@QEAAXXZ"
"?unsetCursor_sys@QWidgetPrivate@@QEAAXXZ"
"?unsetDefaultScrollerProperties@QScrollerProperties@@SAXXZ"
"?unsetExtra@QGraphicsItemPrivate@@QEAAXW4Extra@1@@Z"
"?unsetHotSpot@QGesture@@QEAAXXZ"
"?unsetLayoutDirection@QGraphicsWidget@@QEAAXXZ"
"?unsetLayoutDirection@QWidget@@QEAAXXZ"
"?unsetLocale@QWidget@@QEAAXXZ"
"?unsetSpacing@QGraphicsAnchor@@QEAAXXZ"
"?unsetWindowFrameMargins@QGraphicsWidget@@QEAAXXZ"
"?update@QAbstractItemView@@QEAAXAEBVQModelIndex@@@Z"
"?update@QGraphicsEffect@@QEAAXXZ"
"?update@QGraphicsEffectSource@@QEAAXXZ"
"?update@QGraphicsItem@@QEAAXAEBVQRectF@@@Z"
"?update@QGraphicsItem@@QEAAXNNNN@Z"
"?update@QGraphicsScene@@QEAAXAEBVQRectF@@@Z"
"?update@QGraphicsScene@@QEAAXNNNN@Z"
"?update@QGraphicsTransform@@IEAAXXZ"
"?update@QLayout@@QEAAXXZ"
"?update@QWidget@@QEAAXAEBVQRect@@@Z"
"?update@QWidget@@QEAAXAEBVQRegion@@@Z"
"?update@QWidget@@QEAAXHHHH@Z"
"?update@QWidget@@QEAAXXZ"
"?updateAccessibility@QTreeViewPrivate@@QEAAXXZ"
"?updateAll@QGraphicsViewPrivate@@QEAAXXZ"
"?updateAncestorFlag@QGraphicsItemPrivate@@QEAAXW4GraphicsItemFlag@QGraphicsItem@@W4AncestorFlag@1@_N2@Z"
"?updateAncestorFlags@QGraphicsItemPrivate@@QEAAXXZ"
"?updateBoundingRect@QGraphicsEffect@@IEAAXXZ"
"?updateBrushOrigin@QWidgetPrivate@@QEBA_NPEAVQPainter@@AEBVQBrush@@@Z"
"?updateCacheIfNecessary@QWidgetItemV2@@AEBAXXZ"
"?updateCancelButtonText@QFileDialogPrivate@@QEAAXXZ"
"?updateCell@QCalendarWidget@@IEAAXVQDate@@@Z"
"?updateCells@QCalendarWidget@@IEAAXXZ"
"?updateChildWithGraphicsEffectFlagRecursively@QGraphicsItemPrivate@@QEAAXXZ"
"?updateContentsRect@QWidgetPrivate@@QEAAXXZ"
"?updateCurrentTime@QBlendStyleAnimation@@MEAAXH@Z"
"?updateCurrentTime@QScrollbarStyleAnimation@@EEAAXH@Z"
"?updateCurrentTime@QStyleAnimation@@MEAAXH@Z"
"?updateCursorBlinking@QWidgetLineControl@@QEAAXXZ"
"?updateDisplayText@QWidgetLineControl@@AEAAX_N@Z"
"?updateEditorData@QAbstractItemView@@MEAAXXZ"
"?updateEditorGeometries@QAbstractItemView@@MEAAXXZ"
"?updateEditorGeometry@QAbstractItemDelegate@@UEBAXPEAVQWidget@@AEBVQStyleOptionViewItem@@AEBVQModelIndex@@@Z"
"?updateEditorGeometry@QItemDelegate@@UEBAXPEAVQWidget@@AEBVQStyleOptionViewItem@@AEBVQModelIndex@@@Z"
"?updateEditorGeometry@QStyledItemDelegate@@UEBAXPEAVQWidget@@AEBVQStyleOptionViewItem@@AEBVQModelIndex@@@Z"
"?updateFileNameLabel@QFileDialogPrivate@@QEAAXXZ"
"?updateFileTypeLabel@QFileDialogPrivate@@QEAAXXZ"
"?updateFocusChild@QWidgetPrivate@@QEAAXXZ"
"?updateFont@QWidgetPrivate@@QEAAXAEBVQFont@@@Z"
"?updateFrameStrut@QWidgetPrivate@@QEAAXXZ"
"?updateGeometries@QAbstractItemView@@MEAAXXZ"
"?updateGeometries@QHeaderView@@MEAAXXZ"
"?updateGeometries@QListView@@MEAAXXZ"
"?updateGeometries@QTableView@@MEAAXXZ"
"?updateGeometries@QTreeView@@MEAAXXZ"
"?updateGeometry@QGraphicsLayout@@UEAAXXZ"
"?updateGeometry@QGraphicsLayoutItem@@UEAAXXZ"
"?updateGeometry@QGraphicsWidget@@MEAAXXZ"
"?updateGeometry@QWidget@@QEAAXXZ"
"?updateGeometry_helper@QWidgetPrivate@@QEAAX_N@Z"
"?updateIndentationFromStyle@QTreeViewPrivate@@QEAAXXZ"
"?updateInputMethodSensitivity@QGraphicsViewPrivate@@QEAAXXZ"
"?updateIsOpaque@QWidgetPrivate@@QEAAXXZ"
"?updateIsTranslucent@QWidgetPrivate@@QEAAXXZ"
"?updateLastCenterPoint@QGraphicsViewPrivate@@QEAAXXZ"
"?updateLists@QWidgetRepaintManager@@AEAAXPEAVQWidget@@@Z"
"?updateLookInLabel@QFileDialogPrivate@@QEAAXXZ"
"?updateMacBorderMetrics@QTabBarPrivate@@QEAAXXZ"
"?updateMicroFocus@QGraphicsItem@@IEAAXXZ"
"?updateMicroFocus@QGraphicsObject@@IEAAXXZ"
"?updateMicroFocus@QWidget@@IEAAXW4InputMethodQuery@Qt@@@Z"
"?updateMicroFocus@QWidgetLineControl@@QEAAXXZ"
"?updateNeeded@QWidgetLineControl@@QEAAXAEBVQRect@@@Z"
"?updateOkButton@QFileDialogPrivate@@QEAAXXZ"
"?updateOkButtonText@QFileDialogPrivate@@QEAAX_N@Z"
"?updatePaintedViewBoundingRects@QGraphicsItemPrivate@@QEAAX_N@Z"
"?updatePasswordEchoEditing@QWidgetLineControl@@QEAAX_N@Z"
"?updatePreviewWidget@QColumnView@@QEAAXAEBVQModelIndex@@@Z"
"?updateRect@QGraphicsViewPrivate@@QEAA_NAEBVQRect@@@Z"
"?updateRectF@QGraphicsViewPrivate@@QEAA_NAEBVQRectF@@@Z"
"?updateRegion@QGraphicsViewPrivate@@QEAA_NAEBVQRectF@@AEBVQTransform@@@Z"
"?updateRequest@QPlainTextEdit@@QEAAXAEBVQRect@@H@Z"
"?updateRequest@QWidgetTextControl@@QEAAXAEBVQRectF@@@Z"
"?updateRubberBand@QGraphicsViewPrivate@@QEAAXPEBVQMouseEvent@@@Z"
"?updateScene@QGraphicsView@@QEAAXAEBV?$QList@VQRectF@@@@@Z"
"?updateSceneRect@QGraphicsView@@QEAAXAEBVQRectF@@@Z"
"?updateSceneTransformFromParent@QGraphicsItemPrivate@@UEAAXXZ"
"?updateScroll@QGraphicsViewPrivate@@QEAAXXZ"
"?updateScrollBars@QTreeViewPrivate@@QEAAXXZ"
"?updateScrollers@QComboBoxPrivateContainer@@QEAAXXZ"
"?updateSection@QHeaderView@@IEAAXH@Z"
"?updateStaticContentsSize@QWidgetRepaintManager@@AEAAXXZ"
"?updateStyleSettings@QComboBoxPrivateContainer@@QEAAXXZ"
"?updateSystemBackground@QWidgetPrivate@@QEAAXXZ"
"?updateTarget@QStyleAnimation@@QEAAXXZ"
"?updateTopBottomMargin@QComboBoxPrivateContainer@@QEAAXXZ"
"?updateTouchPointsForWidget@QApplicationPrivate@@SA_NPEAVQWidget@@PEAVQTouchEvent@@@Z"
"?updateWidgetTransform@QWidgetPrivate@@QEAAXPEAVQEvent@@@Z"
"?updatesEnabled@QWidget@@QEBA_NXZ"
"?urlSelected@QFileDialog@@QEAAXAEBVQUrl@@@Z"
"?urlsSelected@QFileDialog@@QEAAXAEBV?$QList@VQUrl@@@@@Z"
"?useNameFilter@QFileDialogPrivate@@QEAAXH@Z"
"?useSizeCache@QWidgetItemV2@@AEBA_NXZ"
"?userDateChanged@QDateEdit@@QEAAXVQDate@@@Z"
"?userSelectedFiles@QFileDialogPrivate@@QEBA?AV?$QList@VQUrl@@@@XZ"
"?userTimeChanged@QTimeEdit@@QEAAXVQTime@@@Z"
"?usesScrollButtons@QTabBar@@QEBA_NXZ"
"?usesScrollButtons@QTabWidget@@QEBA_NXZ"
"?usingWidgets@QFileDialogPrivate@@QEBA_NXZ"
"?validIndex@QTabBarPrivate@@QEBA_NH@Z"
"?validate@QAbstractSpinBox@@UEBA?AW4State@QValidator@@AEAVQString@@AEAH@Z"
"?validate@QDateTimeEdit@@MEBA?AW4State@QValidator@@AEAVQString@@AEAH@Z"
"?validate@QDoubleSpinBox@@UEBA?AW4State@QValidator@@AEAVQString@@AEAH@Z"
"?validate@QSpinBox@@MEBA?AW4State@QValidator@@AEAVQString@@AEAH@Z"
"?validateCurrentPage@QWizard@@UEAA_NXZ"
"?validatePage@QWizardPage@@UEAA_NXZ"
"?validator@QComboBox@@QEBAPEBVQValidator@@XZ"
"?validator@QLineEdit@@QEBAPEBVQValidator@@XZ"
"?validator@QWidgetLineControl@@QEBAPEBVQValidator@@XZ"
"?value@QAbstractSlider@@QEBAHXZ"
"?value@QDoubleSpinBox@@QEBANXZ"
"?value@QLCDNumber@@QEBANXZ"
"?value@QProgressBar@@QEBAHXZ"
"?value@QProgressDialog@@QEBAHXZ"
"?value@QSpinBox@@QEBAHXZ"
"?valueChanged@QAbstractSlider@@QEAAXH@Z"
"?valueChanged@QDoubleSpinBox@@QEAAXN@Z"
"?valueChanged@QProgressBar@@QEAAXH@Z"
"?valueChanged@QSpinBox@@QEAAXH@Z"
"?valueFromText@QDoubleSpinBox@@UEBANAEBVQString@@@Z"
"?valueFromText@QSpinBox@@MEBAHAEBVQString@@@Z"
"?valuePropertyName@QItemEditorFactory@@UEBA?AVQByteArray@@H@Z"
"?velocity@QScroller@@QEBA?AVQPointF@@XZ"
"?verticalDirection@QSwipeGesture@@QEBA?AW4SwipeDirection@1@XZ"
"?verticalHeader@QTableView@@QEBAPEAVQHeaderView@@XZ"
"?verticalHeaderFormat@QCalendarWidget@@QEBA?AW4VerticalHeaderFormat@1@XZ"
"?verticalHeaderItem@QTableWidget@@QEBAPEAVQTableWidgetItem@@H@Z"
"?verticalOffset@QColumnView@@MEBAHXZ"
"?verticalOffset@QHeaderView@@MEBAHXZ"
"?verticalOffset@QListView@@MEBAHXZ"
"?verticalOffset@QTableView@@MEBAHXZ"
"?verticalOffset@QTreeView@@MEBAHXZ"
"?verticalPolicy@QSizePolicy@@QEBA?AW4Policy@1@XZ"
"?verticalScaleAt@QGraphicsItemAnimation@@QEBANN@Z"
"?verticalScroll@QGraphicsViewPrivate@@QEBA_JXZ"
"?verticalScrollBar@QAbstractScrollArea@@QEBAPEAVQScrollBar@@XZ"
"?verticalScrollBarPolicy@QAbstractScrollArea@@QEBA?AW4ScrollBarPolicy@Qt@@XZ"
"?verticalScrollMode@QAbstractItemView@@QEBA?AW4ScrollMode@1@XZ"
"?verticalScrollbarAction@QAbstractItemView@@MEAAXH@Z"
"?verticalScrollbarAction@QTableView@@MEAAXH@Z"
"?verticalScrollbarValueChanged@QAbstractItemView@@MEAAXH@Z"
"?verticalScrollbarValueChanged@QTreeView@@MEAAXH@Z"
"?verticalShearAt@QGraphicsItemAnimation@@QEBANN@Z"
"?verticalSpacing@QFormLayout@@QEBAHXZ"
"?verticalSpacing@QGraphicsAnchorLayout@@QEBANXZ"
"?verticalSpacing@QGraphicsGridLayout@@QEBANXZ"
"?verticalSpacing@QGridLayout@@QEBAHXZ"
"?verticalStretch@QSizePolicy@@QEBAHXZ"
"?view@QComboBox@@QEBAPEAVQAbstractItemView@@XZ"
"?viewDestroyed@QComboBoxPrivateContainer@@QEAAXXZ"
"?viewIndex@QTreeViewPrivate@@QEBAHAEBVQModelIndex@@@Z"
"?viewItemDrawText@QCommonStylePrivate@@QEBAXPEAVQPainter@@PEBVQStyleOptionViewItem@@AEBVQRect@@@Z"
"?viewItemLayout@QCommonStylePrivate@@QEBAXPEBVQStyleOptionViewItem@@PEAVQRect@@11_N@Z"
"?viewItemSize@QCommonStylePrivate@@QEBA?AVQSize@@PEBVQStyleOptionViewItem@@H@Z"
"?viewMode@QFileDialog@@QEBA?AW4ViewMode@1@XZ"
"?viewMode@QListView@@QEBA?AW4ViewMode@1@XZ"
"?viewMode@QMdiArea@@QEBA?AW4ViewMode@1@XZ"
"?viewport@QAbstractScrollArea@@QEBAPEAVQWidget@@XZ"
"?viewportEntered@QAbstractItemView@@QEAAXXZ"
"?viewportEvent@QAbstractItemView@@MEAA_NPEAVQEvent@@@Z"
"?viewportEvent@QAbstractScrollArea@@MEAA_NPEAVQEvent@@@Z"
"?viewportEvent@QGraphicsView@@MEAA_NPEAVQEvent@@@Z"
"?viewportEvent@QHeaderView@@MEAA_NPEAVQEvent@@@Z"
"?viewportEvent@QMdiArea@@MEAA_NPEAVQEvent@@@Z"
"?viewportEvent@QTreeView@@MEAA_NPEAVQEvent@@@Z"
"?viewportMargins@QAbstractScrollArea@@IEBA?AVQMargins@@XZ"
"?viewportSizeHint@QAbstractItemView@@MEBA?AVQSize@@XZ"
"?viewportSizeHint@QAbstractScrollArea@@MEBA?AVQSize@@XZ"
"?viewportSizeHint@QListView@@MEBA?AVQSize@@XZ"
"?viewportSizeHint@QScrollArea@@MEBA?AVQSize@@XZ"
"?viewportSizeHint@QTableView@@MEBA?AVQSize@@XZ"
"?viewportSizeHint@QTreeView@@MEBA?AVQSize@@XZ"
"?viewportTransform@QGraphicsView@@QEBA?AVQTransform@@XZ"
"?viewportUpdateMode@QGraphicsView@@QEBA?AW4ViewportUpdateMode@1@XZ"
"?views@QGraphicsScene@@QEBA?AV?$QList@PEAVQGraphicsView@@@@XZ"
"?visibilityChanged@QDockWidget@@QEAAX_N@Z"
"?visibilityChanged@QToolBar@@QEAAX_N@Z"
"?visibilityRequest@QWidgetTextControl@@QEAAXAEBVQRectF@@@Z"
"?visibleChanged@QGraphicsObject@@QEAAXXZ"
"?visibleRegion@QWidget@@QEBA?AVQRegion@@XZ"
"?visitedIds@QWizard@@QEBA?AV?$QList@H@@XZ"
"?visualAlignment@QStyle@@SA?AV?$QFlags@W4AlignmentFlag@Qt@@@@W4LayoutDirection@Qt@@V2@@Z"
"?visualColumn@QTableWidget@@QEBAHH@Z"
"?visualIndex@QHeaderView@@QEBAHH@Z"
"?visualIndex@QListView@@AEBAHAEBVQModelIndex@@@Z"
"?visualIndex@QTableView@@AEBAHAEBVQModelIndex@@@Z"
"?visualIndex@QTreeView@@AEBAHAEBVQModelIndex@@@Z"
"?visualIndexAt@QHeaderView@@QEBAHH@Z"
"?visualItemRect@QListWidget@@QEBA?AVQRect@@PEBVQListWidgetItem@@@Z"
"?visualItemRect@QTableWidget@@QEBA?AVQRect@@PEBVQTableWidgetItem@@@Z"
"?visualItemRect@QTreeWidget@@QEBA?AVQRect@@PEBVQTreeWidgetItem@@@Z"
"?visualPos@QStyle@@SA?AVQPoint@@W4LayoutDirection@Qt@@AEBVQRect@@AEBV2@@Z"
"?visualRect@QColumnView@@UEBA?AVQRect@@AEBVQModelIndex@@@Z"
"?visualRect@QHeaderView@@MEBA?AVQRect@@AEBVQModelIndex@@@Z"
"?visualRect@QListView@@UEBA?AVQRect@@AEBVQModelIndex@@@Z"
"?visualRect@QStyle@@SA?AVQRect@@W4LayoutDirection@Qt@@AEBV2@1@Z"
"?visualRect@QTableView@@UEBA?AVQRect@@AEBVQModelIndex@@@Z"
"?visualRect@QTreeView@@UEBA?AVQRect@@AEBVQModelIndex@@@Z"
"?visualRect@QTreeViewPrivate@@QEBA?AVQRect@@AEBVQModelIndex@@W4RectRule@1@@Z"
"?visualRect@QTreeViewPrivate@@UEBA?AVQRect@@AEBVQModelIndex@@@Z"
"?visualRegionForSelection@QColumnView@@MEBA?AVQRegion@@AEBVQItemSelection@@@Z"
"?visualRegionForSelection@QHeaderView@@MEBA?AVQRegion@@AEBVQItemSelection@@@Z"
"?visualRegionForSelection@QListView@@MEBA?AVQRegion@@AEBVQItemSelection@@@Z"
"?visualRegionForSelection@QTableView@@MEBA?AVQRegion@@AEBVQItemSelection@@@Z"
"?visualRegionForSelection@QTreeView@@MEBA?AVQRegion@@AEBVQItemSelection@@@Z"
"?visualRow@QTableWidget@@QEBAHH@Z"
"?warning@QMessageBox@@SA?AW4StandardButton@1@PEAVQWidget@@AEBVQString@@1V?$QFlags@W4StandardButton@QMessageBox@@@@W421@@Z"
"?warning@QMessageBox@@SAHPEAVQWidget@@AEBVQString@@1111HH@Z"
"?warning@QMessageBox@@SAHPEAVQWidget@@AEBVQString@@1HHH@Z"
"?warning@QMessageBox@@SAHPEAVQWidget@@AEBVQString@@1W4StandardButton@1@2@Z"
"?wasActive@QScrollbarStyleAnimation@@QEBA_NXZ"
"?wasCanceled@QProgressDialog@@QEBA_NXZ"
"?weekdayTextFormat@QCalendarWidget@@QEBA?AVQTextCharFormat@@W4DayOfWeek@Qt@@@Z"
"?whatsThis@QListWidgetItem@@QEBA?AVQString@@XZ"
"?whatsThis@QTableWidgetItem@@QEBA?AVQString@@XZ"
"?whatsThis@QTreeWidgetItem@@QEBA?AVQString@@H@Z"
"?whatsThis@QWidget@@QEBA?AVQString@@XZ"
"?wheelEvent@QAbstractScrollArea@@MEAAXPEAVQWheelEvent@@@Z"
"?wheelEvent@QAbstractSlider@@MEAAXPEAVQWheelEvent@@@Z"
"?wheelEvent@QAbstractSpinBox@@MEAAXPEAVQWheelEvent@@@Z"
"?wheelEvent@QComboBox@@MEAAXPEAVQWheelEvent@@@Z"
"?wheelEvent@QDateTimeEdit@@MEAAXPEAVQWheelEvent@@@Z"
"?wheelEvent@QGraphicsItem@@MEAAXPEAVQGraphicsSceneWheelEvent@@@Z"
"?wheelEvent@QGraphicsProxyWidget@@MEAAXPEAVQGraphicsSceneWheelEvent@@@Z"
"?wheelEvent@QGraphicsScene@@MEAAXPEAVQGraphicsSceneWheelEvent@@@Z"
"?wheelEvent@QGraphicsView@@MEAAXPEAVQWheelEvent@@@Z"
"?wheelEvent@QListView@@MEAAXPEAVQWheelEvent@@@Z"
"?wheelEvent@QMenu@@MEAAXPEAVQWheelEvent@@@Z"
"?wheelEvent@QPlainTextEdit@@MEAAXPEAVQWheelEvent@@@Z"
"?wheelEvent@QScrollBar@@MEAAXPEAVQWheelEvent@@@Z"
"?wheelEvent@QTabBar@@MEAAXPEAVQWheelEvent@@@Z"
"?wheelEvent@QTextEdit@@MEAAXPEAVQWheelEvent@@@Z"
"?wheelEvent@QWidget@@MEAAXPEAVQWheelEvent@@@Z"
"?wheelScrollLines@QApplication@@SAHXZ"
"?wheel_widget@QApplicationPrivate@@2V?$QPointer@VQWidget@@@@A"
"?widget@QAccessibleWidget@@IEBAPEAVQWidget@@XZ"
"?widget@QCompleter@@QEBAPEAVQWidget@@XZ"
"?widget@QDockWidget@@QEBAPEAVQWidget@@XZ"
"?widget@QFocusFrame@@QEBAPEAVQWidget@@XZ"
"?widget@QGestureEvent@@QEBAPEAVQWidget@@XZ"
"?widget@QGraphicsEffectSource@@QEBAPEBVQWidget@@XZ"
"?widget@QGraphicsProxyWidget@@QEBAPEAVQWidget@@XZ"
"?widget@QGraphicsSceneEvent@@QEBAPEAVQWidget@@XZ"
"?widget@QLayoutItem@@UEBAPEAVQWidget@@XZ"
"?widget@QMdiSubWindow@@QEBAPEAVQWidget@@XZ"
"?widget@QScrollArea@@QEBAPEAVQWidget@@XZ"
"?widget@QSplitter@@QEBAPEAVQWidget@@H@Z"
"?widget@QStackedLayout@@QEBAPEAVQWidget@@H@Z"
"?widget@QStackedWidget@@QEBAPEAVQWidget@@H@Z"
"?widget@QTabWidget@@QEBAPEAVQWidget@@H@Z"
"?widget@QToolBox@@QEBAPEAVQWidget@@H@Z"
"?widget@QWidgetItem@@UEBAPEAVQWidget@@XZ"
"?widgetAt@QApplication@@SAPEAVQWidget@@AEBVQPoint@@@Z"
"?widgetAt@QApplication@@SAPEAVQWidget@@HH@Z"
"?widgetCount@QApplicationPrivate@@2_NA"
"?widgetEvent@QGraphicsLayout@@UEAAXPEAVQEvent@@@Z"
"?widgetEvent@QLayout@@IEAAXPEAVQEvent@@@Z"
"?widgetForAction@QToolBar@@QEBAPEAVQWidget@@PEAVQAction@@@Z"
"?widgetForRole@QDockWidgetLayout@@QEBAPEAVQWidget@@W4Role@1@@Z"
"?widgetItemFactoryMethod@QLayoutPrivate@@2P6APEAVQWidgetItem@@PEBVQLayout@@PEAVQWidget@@@ZEA"
"?widgetPalettes@QApplicationPrivate@@2V?$QHash@VQByteArray@@VQPalette@@@@A"
"?widgetRemoved@QStackedLayout@@QEAAXH@Z"
"?widgetRemoved@QStackedWidget@@QEAAXH@Z"
"?widgetResizable@QScrollArea@@QEBA_NXZ"
"?widgetSizePolicy@QStyleHelper@@YA?AW4WidgetSizePolicy@1@PEBVQWidget@@PEBVQStyleOption@@@Z"
"?width@QGraphicsItemPrivate@@UEBANXZ"
"?width@QGraphicsScene@@QEBANXZ"
"?width@QWidget@@QEBAHXZ"
"?width@QWidgetLineControl@@QEBAHXZ"
"?widthChanged@QGraphicsObject@@QEAAXXZ"
"?widthHintForIndex@QTreeViewPrivate@@QEBAHAEBVQModelIndex@@HAEBVQStyleOptionViewItem@@H@Z"
"?winId@QWidget@@QEBA_KXZ"
"?window@QAccessibleWidget@@UEBAPEAVQWindow@@XZ"
"?window@QGraphicsItem@@QEBAPEAVQGraphicsWidget@@XZ"
"?window@QWidget@@QEBAPEAV1@XZ"
"?windowFilePath@QWidget@@QEBA?AVQString@@XZ"
"?windowFlags@QGraphicsWidget@@QEBA?AV?$QFlags@W4WindowType@Qt@@@@XZ"
"?windowFlags@QWidget@@QEBA?AV?$QFlags@W4WindowType@Qt@@@@XZ"
"?windowForWidget@QApplicationPrivate@@SAPEAVQWindow@@PEBVQWidget@@@Z"
"?windowFrameEvent@QGraphicsWidget@@MEAA_NPEAVQEvent@@@Z"
"?windowFrameGeometry@QGraphicsWidget@@QEBA?AVQRectF@@XZ"
"?windowFrameRect@QGraphicsWidget@@QEBA?AVQRectF@@XZ"
"?windowFrameSectionAt@QGraphicsWidget@@MEBA?AW4WindowFrameSection@Qt@@AEBVQPointF@@@Z"
"?windowHandle@QWidget@@QEBAPEAVQWindow@@XZ"
"?windowHandle@QWidgetPrivate@@QEBAPEAVQWindow@@W4WindowHandleMode@1@@Z"
"?windowIcon@QWidget@@QEBA?AVQIcon@@XZ"
"?windowIconChanged@QWidget@@QEAAXAEBVQIcon@@@Z"
"?windowIconText@QWidget@@QEBA?AVQString@@XZ"
"?windowIconTextChanged@QWidget@@QEAAXAEBVQString@@@Z"
"?windowModality@QWidget@@QEBA?AW4WindowModality@Qt@@XZ"
"?windowNeverBlocked@QApplicationPrivate@@UEBA_NPEAVQWindow@@@Z"
"?windowOpacity@QWidget@@QEBANXZ"
"?windowRole@QWidget@@QEBA?AVQString@@XZ"
"?windowState@QWidget@@QEBA?AV?$QFlags@W4WindowState@Qt@@@@XZ"
"?windowStateChanged@QMdiSubWindow@@QEAAXV?$QFlags@W4WindowState@Qt@@@@0@Z"
"?windowTitle@QGraphicsWidget@@QEBA?AVQString@@XZ"
"?windowTitle@QWidget@@QEBA?AVQString@@XZ"
"?windowTitleChanged@QWidget@@QEAAXAEBVQString@@@Z"
"?windowType@QGraphicsWidget@@QEBA?AW4WindowType@Qt@@XZ"
"?windowType@QWidget@@QEBA?AW4WindowType@Qt@@XZ"
"?wizard@QWizardPage@@IEBAPEAVQWizard@@XZ"
"?wizardStyle@QWizard@@QEBA?AW4WizardStyle@1@XZ"
"?wmSupportsNativeWindowDeco@QDockWidgetLayout@@SA_NXZ"
"?wordWrap@QLabel@@QEBA_NXZ"
"?wordWrap@QListView@@QEBA_NXZ"
"?wordWrap@QTableView@@QEBA_NXZ"
"?wordWrap@QTreeView@@QEBA_NXZ"
"?wordWrapMode@QPlainTextEdit@@QEBA?AW4WrapMode@QTextOption@@XZ"
"?wordWrapMode@QTextEdit@@QEBA?AW4WrapMode@QTextOption@@XZ"
"?wrapAround@QCompleter@@QEBA_NXZ"
"?wrapping@QAbstractSpinBox@@QEBA_NXZ"
"?wrapping@QDial@@QEBA_NXZ"
"?write@QListWidgetItem@@UEBAXAEAVQDataStream@@@Z"
"?write@QTableWidgetItem@@UEBAXAEAVQDataStream@@@Z"
"?write@QTreeWidgetItem@@UEBAXAEAVQDataStream@@@Z"
"?writingSystem@QFontComboBox@@QEBA?AW4WritingSystem@QFontDatabase@@XZ"
"?x@QGraphicsItem@@QEBANXZ"
"?x@QWidget@@QEBAHXZ"
"?xChanged@QGraphicsObject@@QEAAXXZ"
"?xOffset@QGraphicsDropShadowEffect@@QEBANXZ"
"?xScale@QGraphicsScale@@QEBANXZ"
"?xScaleChanged@QGraphicsScale@@QEAAXXZ"
"?xToPos@QWidgetLineControl@@QEBAHHW4CursorPosition@QTextLine@@@Z"
"?xTranslationAt@QGraphicsItemAnimation@@QEBANN@Z"
"?y@QGraphicsItem@@QEBANXZ"
"?y@QWidget@@QEBAHXZ"
"?yChanged@QGraphicsObject@@QEAAXXZ"
"?yOffset@QGraphicsDropShadowEffect@@QEBANXZ"
"?yScale@QGraphicsScale@@QEBANXZ"
"?yScaleChanged@QGraphicsScale@@QEAAXXZ"
"?yTranslationAt@QGraphicsItemAnimation@@QEBANN@Z"
"?yearShown@QCalendarWidget@@QEBAHXZ"
"?zChanged@QGraphicsObject@@QEAAXXZ"
"?zScale@QGraphicsScale@@QEBANXZ"
"?zScaleChanged@QGraphicsScale@@QEAAXXZ"
"?zValue@QGraphicsItem@@QEBANXZ"
"?zoomIn@QPlainTextEdit@@QEAAXH@Z"
"?zoomIn@QTextEdit@@QEAAXH@Z"
"?zoomInF@QPlainTextEdit@@IEAAXM@Z"
"?zoomInF@QTextEdit@@IEAAXM@Z"
"?zoomOut@QPlainTextEdit@@QEAAXH@Z"
"?zoomOut@QTextEdit@@QEAAXH@Z"
